ARM GAS  /tmp/ccraiT5Q.s 			page 1


   1              		.cpu cortex-m4
   2              		.eabi_attribute 27, 1
   3              		.eabi_attribute 28, 1
   4              		.eabi_attribute 20, 1
   5              		.eabi_attribute 21, 1
   6              		.eabi_attribute 23, 3
   7              		.eabi_attribute 24, 1
   8              		.eabi_attribute 25, 1
   9              		.eabi_attribute 26, 1
  10              		.eabi_attribute 30, 1
  11              		.eabi_attribute 34, 1
  12              		.eabi_attribute 18, 4
  13              		.file	"stm32f4xx_hal_dcmi_ex.c"
  14              		.text
  15              	.Ltext0:
  16              		.cfi_sections	.debug_frame
  17              		.section	.text.HAL_DCMI_Init,"ax",%progbits
  18              		.align	1
  19              		.global	HAL_DCMI_Init
  20              		.arch armv7e-m
  21              		.syntax unified
  22              		.thumb
  23              		.thumb_func
  24              		.fpu fpv4-sp-d16
  26              	HAL_DCMI_Init:
  27              	.LVL0:
  28              	.LFB132:
  29              		.file 1 "HALLIB/STM32F4xx_HAL_Driver/Src/stm32f4xx_hal_dcmi_ex.c"
   1:HALLIB/STM32F4xx_HAL_Driver/Src/stm32f4xx_hal_dcmi_ex.c **** /**
   2:HALLIB/STM32F4xx_HAL_Driver/Src/stm32f4xx_hal_dcmi_ex.c ****   ******************************************************************************
   3:HALLIB/STM32F4xx_HAL_Driver/Src/stm32f4xx_hal_dcmi_ex.c ****   * @file    stm32f4xx_hal_dcmi_ex.c
   4:HALLIB/STM32F4xx_HAL_Driver/Src/stm32f4xx_hal_dcmi_ex.c ****   * @author  MCD Application Team
   5:HALLIB/STM32F4xx_HAL_Driver/Src/stm32f4xx_hal_dcmi_ex.c ****   * @brief   DCMI Extension HAL module driver
   6:HALLIB/STM32F4xx_HAL_Driver/Src/stm32f4xx_hal_dcmi_ex.c ****   *          This file provides firmware functions to manage the following
   7:HALLIB/STM32F4xx_HAL_Driver/Src/stm32f4xx_hal_dcmi_ex.c ****   *          functionalities of DCMI extension peripheral:
   8:HALLIB/STM32F4xx_HAL_Driver/Src/stm32f4xx_hal_dcmi_ex.c ****   *           + Extension features functions
   9:HALLIB/STM32F4xx_HAL_Driver/Src/stm32f4xx_hal_dcmi_ex.c ****   *
  10:HALLIB/STM32F4xx_HAL_Driver/Src/stm32f4xx_hal_dcmi_ex.c ****   @verbatim
  11:HALLIB/STM32F4xx_HAL_Driver/Src/stm32f4xx_hal_dcmi_ex.c ****   ==============================================================================
  12:HALLIB/STM32F4xx_HAL_Driver/Src/stm32f4xx_hal_dcmi_ex.c ****                ##### DCMI peripheral extension features  #####
  13:HALLIB/STM32F4xx_HAL_Driver/Src/stm32f4xx_hal_dcmi_ex.c ****   ==============================================================================
  14:HALLIB/STM32F4xx_HAL_Driver/Src/stm32f4xx_hal_dcmi_ex.c **** 
  15:HALLIB/STM32F4xx_HAL_Driver/Src/stm32f4xx_hal_dcmi_ex.c ****   [..] Comparing to other previous devices, the DCMI interface for STM32F446xx 
  16:HALLIB/STM32F4xx_HAL_Driver/Src/stm32f4xx_hal_dcmi_ex.c ****        devices contains the following additional features :
  17:HALLIB/STM32F4xx_HAL_Driver/Src/stm32f4xx_hal_dcmi_ex.c **** 
  18:HALLIB/STM32F4xx_HAL_Driver/Src/stm32f4xx_hal_dcmi_ex.c ****        (+) Support of Black and White cameras 
  19:HALLIB/STM32F4xx_HAL_Driver/Src/stm32f4xx_hal_dcmi_ex.c **** 
  20:HALLIB/STM32F4xx_HAL_Driver/Src/stm32f4xx_hal_dcmi_ex.c ****                      ##### How to use this driver #####
  21:HALLIB/STM32F4xx_HAL_Driver/Src/stm32f4xx_hal_dcmi_ex.c ****   ==============================================================================
  22:HALLIB/STM32F4xx_HAL_Driver/Src/stm32f4xx_hal_dcmi_ex.c ****   [..] This driver provides functions to manage the Black and White feature
  23:HALLIB/STM32F4xx_HAL_Driver/Src/stm32f4xx_hal_dcmi_ex.c **** 
  24:HALLIB/STM32F4xx_HAL_Driver/Src/stm32f4xx_hal_dcmi_ex.c ****   @endverbatim
  25:HALLIB/STM32F4xx_HAL_Driver/Src/stm32f4xx_hal_dcmi_ex.c ****   ******************************************************************************
  26:HALLIB/STM32F4xx_HAL_Driver/Src/stm32f4xx_hal_dcmi_ex.c ****   * @attention
  27:HALLIB/STM32F4xx_HAL_Driver/Src/stm32f4xx_hal_dcmi_ex.c ****   *
  28:HALLIB/STM32F4xx_HAL_Driver/Src/stm32f4xx_hal_dcmi_ex.c ****   * <h2><center>&copy; Copyright (c) 2017 STMicroelectronics.
  29:HALLIB/STM32F4xx_HAL_Driver/Src/stm32f4xx_hal_dcmi_ex.c ****   * All rights reserved.</center></h2>
ARM GAS  /tmp/ccraiT5Q.s 			page 2


  30:HALLIB/STM32F4xx_HAL_Driver/Src/stm32f4xx_hal_dcmi_ex.c ****   *
  31:HALLIB/STM32F4xx_HAL_Driver/Src/stm32f4xx_hal_dcmi_ex.c ****   * This software component is licensed by ST under BSD 3-Clause license,
  32:HALLIB/STM32F4xx_HAL_Driver/Src/stm32f4xx_hal_dcmi_ex.c ****   * the "License"; You may not use this file except in compliance with the
  33:HALLIB/STM32F4xx_HAL_Driver/Src/stm32f4xx_hal_dcmi_ex.c ****   * License. You may obtain a copy of the License at:
  34:HALLIB/STM32F4xx_HAL_Driver/Src/stm32f4xx_hal_dcmi_ex.c ****   *                        opensource.org/licenses/BSD-3-Clause
  35:HALLIB/STM32F4xx_HAL_Driver/Src/stm32f4xx_hal_dcmi_ex.c ****   *
  36:HALLIB/STM32F4xx_HAL_Driver/Src/stm32f4xx_hal_dcmi_ex.c ****   ******************************************************************************
  37:HALLIB/STM32F4xx_HAL_Driver/Src/stm32f4xx_hal_dcmi_ex.c ****   */
  38:HALLIB/STM32F4xx_HAL_Driver/Src/stm32f4xx_hal_dcmi_ex.c **** 
  39:HALLIB/STM32F4xx_HAL_Driver/Src/stm32f4xx_hal_dcmi_ex.c **** /* Includes ------------------------------------------------------------------*/
  40:HALLIB/STM32F4xx_HAL_Driver/Src/stm32f4xx_hal_dcmi_ex.c **** #include "stm32f4xx_hal.h"
  41:HALLIB/STM32F4xx_HAL_Driver/Src/stm32f4xx_hal_dcmi_ex.c **** 
  42:HALLIB/STM32F4xx_HAL_Driver/Src/stm32f4xx_hal_dcmi_ex.c **** /** @addtogroup STM32F4xx_HAL_Driver
  43:HALLIB/STM32F4xx_HAL_Driver/Src/stm32f4xx_hal_dcmi_ex.c ****   * @{
  44:HALLIB/STM32F4xx_HAL_Driver/Src/stm32f4xx_hal_dcmi_ex.c ****   */
  45:HALLIB/STM32F4xx_HAL_Driver/Src/stm32f4xx_hal_dcmi_ex.c **** /** @defgroup DCMIEx DCMIEx
  46:HALLIB/STM32F4xx_HAL_Driver/Src/stm32f4xx_hal_dcmi_ex.c ****   * @brief DCMI Extended HAL module driver
  47:HALLIB/STM32F4xx_HAL_Driver/Src/stm32f4xx_hal_dcmi_ex.c ****   * @{
  48:HALLIB/STM32F4xx_HAL_Driver/Src/stm32f4xx_hal_dcmi_ex.c ****   */
  49:HALLIB/STM32F4xx_HAL_Driver/Src/stm32f4xx_hal_dcmi_ex.c **** 
  50:HALLIB/STM32F4xx_HAL_Driver/Src/stm32f4xx_hal_dcmi_ex.c **** #ifdef HAL_DCMI_MODULE_ENABLED
  51:HALLIB/STM32F4xx_HAL_Driver/Src/stm32f4xx_hal_dcmi_ex.c **** 
  52:HALLIB/STM32F4xx_HAL_Driver/Src/stm32f4xx_hal_dcmi_ex.c **** #if defined(STM32F407xx) || defined(STM32F417xx) || defined(STM32F427xx) || defined(STM32F437xx) ||
  53:HALLIB/STM32F4xx_HAL_Driver/Src/stm32f4xx_hal_dcmi_ex.c ****     defined(STM32F439xx) || defined(STM32F446xx) || defined(STM32F469xx) || defined(STM32F479xx)
  54:HALLIB/STM32F4xx_HAL_Driver/Src/stm32f4xx_hal_dcmi_ex.c **** /* Private typedef -----------------------------------------------------------*/
  55:HALLIB/STM32F4xx_HAL_Driver/Src/stm32f4xx_hal_dcmi_ex.c **** /* Private define ------------------------------------------------------------*/
  56:HALLIB/STM32F4xx_HAL_Driver/Src/stm32f4xx_hal_dcmi_ex.c **** /* Private macro -------------------------------------------------------------*/
  57:HALLIB/STM32F4xx_HAL_Driver/Src/stm32f4xx_hal_dcmi_ex.c **** /* Private variables ---------------------------------------------------------*/
  58:HALLIB/STM32F4xx_HAL_Driver/Src/stm32f4xx_hal_dcmi_ex.c **** /* Private function prototypes -----------------------------------------------*/
  59:HALLIB/STM32F4xx_HAL_Driver/Src/stm32f4xx_hal_dcmi_ex.c **** /* Exported functions --------------------------------------------------------*/
  60:HALLIB/STM32F4xx_HAL_Driver/Src/stm32f4xx_hal_dcmi_ex.c **** 
  61:HALLIB/STM32F4xx_HAL_Driver/Src/stm32f4xx_hal_dcmi_ex.c **** /** @defgroup DCMIEx_Exported_Functions DCMI Extended Exported Functions
  62:HALLIB/STM32F4xx_HAL_Driver/Src/stm32f4xx_hal_dcmi_ex.c ****   * @{
  63:HALLIB/STM32F4xx_HAL_Driver/Src/stm32f4xx_hal_dcmi_ex.c ****   */
  64:HALLIB/STM32F4xx_HAL_Driver/Src/stm32f4xx_hal_dcmi_ex.c **** 
  65:HALLIB/STM32F4xx_HAL_Driver/Src/stm32f4xx_hal_dcmi_ex.c **** /**
  66:HALLIB/STM32F4xx_HAL_Driver/Src/stm32f4xx_hal_dcmi_ex.c ****   * @}
  67:HALLIB/STM32F4xx_HAL_Driver/Src/stm32f4xx_hal_dcmi_ex.c ****   */
  68:HALLIB/STM32F4xx_HAL_Driver/Src/stm32f4xx_hal_dcmi_ex.c **** 
  69:HALLIB/STM32F4xx_HAL_Driver/Src/stm32f4xx_hal_dcmi_ex.c **** /** @addtogroup DCMI_Exported_Functions_Group1 Initialization and Configuration functions
  70:HALLIB/STM32F4xx_HAL_Driver/Src/stm32f4xx_hal_dcmi_ex.c ****   * @{
  71:HALLIB/STM32F4xx_HAL_Driver/Src/stm32f4xx_hal_dcmi_ex.c ****   */
  72:HALLIB/STM32F4xx_HAL_Driver/Src/stm32f4xx_hal_dcmi_ex.c **** 
  73:HALLIB/STM32F4xx_HAL_Driver/Src/stm32f4xx_hal_dcmi_ex.c **** /**
  74:HALLIB/STM32F4xx_HAL_Driver/Src/stm32f4xx_hal_dcmi_ex.c ****   * @brief  Initializes the DCMI according to the specified
  75:HALLIB/STM32F4xx_HAL_Driver/Src/stm32f4xx_hal_dcmi_ex.c ****   *         parameters in the DCMI_InitTypeDef and create the associated handle.
  76:HALLIB/STM32F4xx_HAL_Driver/Src/stm32f4xx_hal_dcmi_ex.c ****   * @param  hdcmi pointer to a DCMI_HandleTypeDef structure that contains
  77:HALLIB/STM32F4xx_HAL_Driver/Src/stm32f4xx_hal_dcmi_ex.c ****   *                the configuration information for DCMI.
  78:HALLIB/STM32F4xx_HAL_Driver/Src/stm32f4xx_hal_dcmi_ex.c ****   * @retval HAL status
  79:HALLIB/STM32F4xx_HAL_Driver/Src/stm32f4xx_hal_dcmi_ex.c ****   */
  80:HALLIB/STM32F4xx_HAL_Driver/Src/stm32f4xx_hal_dcmi_ex.c **** HAL_StatusTypeDef HAL_DCMI_Init(DCMI_HandleTypeDef *hdcmi)
  81:HALLIB/STM32F4xx_HAL_Driver/Src/stm32f4xx_hal_dcmi_ex.c **** {
  30              		.loc 1 81 1 view -0
  31              		.cfi_startproc
  32              		@ args = 0, pretend = 0, frame = 0
  33              		@ frame_needed = 0, uses_anonymous_args = 0
  82:HALLIB/STM32F4xx_HAL_Driver/Src/stm32f4xx_hal_dcmi_ex.c ****   /* Check the DCMI peripheral state */
ARM GAS  /tmp/ccraiT5Q.s 			page 3


  83:HALLIB/STM32F4xx_HAL_Driver/Src/stm32f4xx_hal_dcmi_ex.c ****   if(hdcmi == NULL)
  34              		.loc 1 83 3 view .LVU1
  35              		.loc 1 83 5 is_stmt 0 view .LVU2
  36 0000 0028     		cmp	r0, #0
  37 0002 3DD0     		beq	.L5
  81:HALLIB/STM32F4xx_HAL_Driver/Src/stm32f4xx_hal_dcmi_ex.c ****   /* Check the DCMI peripheral state */
  38              		.loc 1 81 1 view .LVU3
  39 0004 10B5     		push	{r4, lr}
  40              	.LCFI0:
  41              		.cfi_def_cfa_offset 8
  42              		.cfi_offset 4, -8
  43              		.cfi_offset 14, -4
  44 0006 0446     		mov	r4, r0
  84:HALLIB/STM32F4xx_HAL_Driver/Src/stm32f4xx_hal_dcmi_ex.c ****   {
  85:HALLIB/STM32F4xx_HAL_Driver/Src/stm32f4xx_hal_dcmi_ex.c ****      return HAL_ERROR;
  86:HALLIB/STM32F4xx_HAL_Driver/Src/stm32f4xx_hal_dcmi_ex.c ****   }
  87:HALLIB/STM32F4xx_HAL_Driver/Src/stm32f4xx_hal_dcmi_ex.c **** 
  88:HALLIB/STM32F4xx_HAL_Driver/Src/stm32f4xx_hal_dcmi_ex.c ****   /* Check function parameters */
  89:HALLIB/STM32F4xx_HAL_Driver/Src/stm32f4xx_hal_dcmi_ex.c ****   assert_param(IS_DCMI_ALL_INSTANCE(hdcmi->Instance));
  45              		.loc 1 89 3 is_stmt 1 view .LVU4
  90:HALLIB/STM32F4xx_HAL_Driver/Src/stm32f4xx_hal_dcmi_ex.c ****   assert_param(IS_DCMI_PCKPOLARITY(hdcmi->Init.PCKPolarity));
  46              		.loc 1 90 3 view .LVU5
  91:HALLIB/STM32F4xx_HAL_Driver/Src/stm32f4xx_hal_dcmi_ex.c ****   assert_param(IS_DCMI_VSPOLARITY(hdcmi->Init.VSPolarity));
  47              		.loc 1 91 3 view .LVU6
  92:HALLIB/STM32F4xx_HAL_Driver/Src/stm32f4xx_hal_dcmi_ex.c ****   assert_param(IS_DCMI_HSPOLARITY(hdcmi->Init.HSPolarity));
  48              		.loc 1 92 3 view .LVU7
  93:HALLIB/STM32F4xx_HAL_Driver/Src/stm32f4xx_hal_dcmi_ex.c ****   assert_param(IS_DCMI_SYNCHRO(hdcmi->Init.SynchroMode));
  49              		.loc 1 93 3 view .LVU8
  94:HALLIB/STM32F4xx_HAL_Driver/Src/stm32f4xx_hal_dcmi_ex.c ****   assert_param(IS_DCMI_CAPTURE_RATE(hdcmi->Init.CaptureRate));
  50              		.loc 1 94 3 view .LVU9
  95:HALLIB/STM32F4xx_HAL_Driver/Src/stm32f4xx_hal_dcmi_ex.c ****   assert_param(IS_DCMI_EXTENDED_DATA(hdcmi->Init.ExtendedDataMode));
  51              		.loc 1 95 3 view .LVU10
  96:HALLIB/STM32F4xx_HAL_Driver/Src/stm32f4xx_hal_dcmi_ex.c ****   assert_param(IS_DCMI_MODE_JPEG(hdcmi->Init.JPEGMode));
  52              		.loc 1 96 3 view .LVU11
  97:HALLIB/STM32F4xx_HAL_Driver/Src/stm32f4xx_hal_dcmi_ex.c **** #if defined(STM32F446xx) || defined(STM32F469xx) || defined(STM32F479xx)
  98:HALLIB/STM32F4xx_HAL_Driver/Src/stm32f4xx_hal_dcmi_ex.c ****   assert_param(IS_DCMI_BYTE_SELECT_MODE(hdcmi->Init.ByteSelectMode));
  99:HALLIB/STM32F4xx_HAL_Driver/Src/stm32f4xx_hal_dcmi_ex.c ****   assert_param(IS_DCMI_BYTE_SELECT_START(hdcmi->Init.ByteSelectStart));
 100:HALLIB/STM32F4xx_HAL_Driver/Src/stm32f4xx_hal_dcmi_ex.c ****   assert_param(IS_DCMI_LINE_SELECT_MODE(hdcmi->Init.LineSelectMode));
 101:HALLIB/STM32F4xx_HAL_Driver/Src/stm32f4xx_hal_dcmi_ex.c ****   assert_param(IS_DCMI_LINE_SELECT_START(hdcmi->Init.LineSelectStart));
 102:HALLIB/STM32F4xx_HAL_Driver/Src/stm32f4xx_hal_dcmi_ex.c **** #endif /* STM32F446xx || STM32F469xx || STM32F479xx */
 103:HALLIB/STM32F4xx_HAL_Driver/Src/stm32f4xx_hal_dcmi_ex.c ****   if(hdcmi->State == HAL_DCMI_STATE_RESET)
  53              		.loc 1 103 3 view .LVU12
  54              		.loc 1 103 11 is_stmt 0 view .LVU13
  55 0008 90F82530 		ldrb	r3, [r0, #37]	@ zero_extendqisi2
  56              		.loc 1 103 5 view .LVU14
  57 000c 43B3     		cbz	r3, .L10
  58              	.LVL1:
  59              	.L3:
 104:HALLIB/STM32F4xx_HAL_Driver/Src/stm32f4xx_hal_dcmi_ex.c ****   {
 105:HALLIB/STM32F4xx_HAL_Driver/Src/stm32f4xx_hal_dcmi_ex.c ****     /* Init the low level hardware */
 106:HALLIB/STM32F4xx_HAL_Driver/Src/stm32f4xx_hal_dcmi_ex.c ****     HAL_DCMI_MspInit(hdcmi);
 107:HALLIB/STM32F4xx_HAL_Driver/Src/stm32f4xx_hal_dcmi_ex.c ****   }
 108:HALLIB/STM32F4xx_HAL_Driver/Src/stm32f4xx_hal_dcmi_ex.c **** 
 109:HALLIB/STM32F4xx_HAL_Driver/Src/stm32f4xx_hal_dcmi_ex.c ****   /* Change the DCMI state */
 110:HALLIB/STM32F4xx_HAL_Driver/Src/stm32f4xx_hal_dcmi_ex.c ****   hdcmi->State = HAL_DCMI_STATE_BUSY;
  60              		.loc 1 110 3 is_stmt 1 view .LVU15
  61              		.loc 1 110 16 is_stmt 0 view .LVU16
ARM GAS  /tmp/ccraiT5Q.s 			page 4


  62 000e 0223     		movs	r3, #2
  63 0010 84F82530 		strb	r3, [r4, #37]
 111:HALLIB/STM32F4xx_HAL_Driver/Src/stm32f4xx_hal_dcmi_ex.c ****                           /* Configures the HS, VS, DE and PC polarity */
 112:HALLIB/STM32F4xx_HAL_Driver/Src/stm32f4xx_hal_dcmi_ex.c ****   hdcmi->Instance->CR &= ~(DCMI_CR_PCKPOL | DCMI_CR_HSPOL  | DCMI_CR_VSPOL  | DCMI_CR_EDM_0 |\
  64              		.loc 1 112 3 is_stmt 1 view .LVU17
  65              		.loc 1 112 8 is_stmt 0 view .LVU18
  66 0014 2268     		ldr	r2, [r4]
  67              		.loc 1 112 23 view .LVU19
  68 0016 1368     		ldr	r3, [r2]
  69 0018 23F47F63 		bic	r3, r3, #4080
  70 001c 23F00803 		bic	r3, r3, #8
  71 0020 1360     		str	r3, [r2]
 113:HALLIB/STM32F4xx_HAL_Driver/Src/stm32f4xx_hal_dcmi_ex.c ****                            DCMI_CR_EDM_1  | DCMI_CR_FCRC_0 | DCMI_CR_FCRC_1 | DCMI_CR_JPEG  |\
 114:HALLIB/STM32F4xx_HAL_Driver/Src/stm32f4xx_hal_dcmi_ex.c ****                            DCMI_CR_ESS
 115:HALLIB/STM32F4xx_HAL_Driver/Src/stm32f4xx_hal_dcmi_ex.c **** #if defined(STM32F446xx) || defined(STM32F469xx) || defined(STM32F479xx)
 116:HALLIB/STM32F4xx_HAL_Driver/Src/stm32f4xx_hal_dcmi_ex.c ****                            | DCMI_CR_BSM_0 | DCMI_CR_BSM_1 | DCMI_CR_OEBS |\
 117:HALLIB/STM32F4xx_HAL_Driver/Src/stm32f4xx_hal_dcmi_ex.c ****                            DCMI_CR_LSM | DCMI_CR_OELS
 118:HALLIB/STM32F4xx_HAL_Driver/Src/stm32f4xx_hal_dcmi_ex.c **** #endif /* STM32F446xx || STM32F469xx || STM32F479xx */
 119:HALLIB/STM32F4xx_HAL_Driver/Src/stm32f4xx_hal_dcmi_ex.c ****                            );
 120:HALLIB/STM32F4xx_HAL_Driver/Src/stm32f4xx_hal_dcmi_ex.c ****   hdcmi->Instance->CR |=  (uint32_t)(hdcmi->Init.SynchroMode | hdcmi->Init.CaptureRate |\
  72              		.loc 1 120 3 is_stmt 1 view .LVU20
  73              		.loc 1 120 8 is_stmt 0 view .LVU21
  74 0022 2168     		ldr	r1, [r4]
  75              		.loc 1 120 23 view .LVU22
  76 0024 0A68     		ldr	r2, [r1]
  77              		.loc 1 120 49 view .LVU23
  78 0026 6368     		ldr	r3, [r4, #4]
  79              		.loc 1 120 75 view .LVU24
  80 0028 6069     		ldr	r0, [r4, #20]
  81              		.loc 1 120 62 view .LVU25
  82 002a 0343     		orrs	r3, r3, r0
 121:HALLIB/STM32F4xx_HAL_Driver/Src/stm32f4xx_hal_dcmi_ex.c ****                                      hdcmi->Init.VSPolarity  | hdcmi->Init.HSPolarity  |\
  83              		.loc 1 121 49 view .LVU26
  84 002c E068     		ldr	r0, [r4, #12]
 120:HALLIB/STM32F4xx_HAL_Driver/Src/stm32f4xx_hal_dcmi_ex.c ****                                      hdcmi->Init.VSPolarity  | hdcmi->Init.HSPolarity  |\
  85              		.loc 1 120 88 view .LVU27
  86 002e 0343     		orrs	r3, r3, r0
  87              		.loc 1 121 75 view .LVU28
  88 0030 2069     		ldr	r0, [r4, #16]
  89              		.loc 1 121 62 view .LVU29
  90 0032 0343     		orrs	r3, r3, r0
 122:HALLIB/STM32F4xx_HAL_Driver/Src/stm32f4xx_hal_dcmi_ex.c ****                                      hdcmi->Init.PCKPolarity | hdcmi->Init.ExtendedDataMode |\
  91              		.loc 1 122 49 view .LVU30
  92 0034 A068     		ldr	r0, [r4, #8]
 121:HALLIB/STM32F4xx_HAL_Driver/Src/stm32f4xx_hal_dcmi_ex.c ****                                      hdcmi->Init.VSPolarity  | hdcmi->Init.HSPolarity  |\
  93              		.loc 1 121 88 view .LVU31
  94 0036 0343     		orrs	r3, r3, r0
  95              		.loc 1 122 75 view .LVU32
  96 0038 A069     		ldr	r0, [r4, #24]
  97              		.loc 1 122 62 view .LVU33
  98 003a 0343     		orrs	r3, r3, r0
 123:HALLIB/STM32F4xx_HAL_Driver/Src/stm32f4xx_hal_dcmi_ex.c ****                                      hdcmi->Init.JPEGMode 
  99              		.loc 1 123 49 view .LVU34
 100 003c 206A     		ldr	r0, [r4, #32]
 122:HALLIB/STM32F4xx_HAL_Driver/Src/stm32f4xx_hal_dcmi_ex.c ****                                      hdcmi->Init.PCKPolarity | hdcmi->Init.ExtendedDataMode |\
 101              		.loc 1 122 93 view .LVU35
 102 003e 0343     		orrs	r3, r3, r0
ARM GAS  /tmp/ccraiT5Q.s 			page 5


 120:HALLIB/STM32F4xx_HAL_Driver/Src/stm32f4xx_hal_dcmi_ex.c ****                                      hdcmi->Init.VSPolarity  | hdcmi->Init.HSPolarity  |\
 103              		.loc 1 120 23 view .LVU36
 104 0040 1343     		orrs	r3, r3, r2
 105 0042 0B60     		str	r3, [r1]
 124:HALLIB/STM32F4xx_HAL_Driver/Src/stm32f4xx_hal_dcmi_ex.c **** #if defined(STM32F446xx) || defined(STM32F469xx) || defined(STM32F479xx)
 125:HALLIB/STM32F4xx_HAL_Driver/Src/stm32f4xx_hal_dcmi_ex.c ****                                      | hdcmi->Init.ByteSelectMode |\
 126:HALLIB/STM32F4xx_HAL_Driver/Src/stm32f4xx_hal_dcmi_ex.c ****                                      hdcmi->Init.ByteSelectStart | hdcmi->Init.LineSelectMode |\
 127:HALLIB/STM32F4xx_HAL_Driver/Src/stm32f4xx_hal_dcmi_ex.c ****                                      hdcmi->Init.LineSelectStart
 128:HALLIB/STM32F4xx_HAL_Driver/Src/stm32f4xx_hal_dcmi_ex.c **** #endif /* STM32F446xx || STM32F469xx || STM32F479xx */
 129:HALLIB/STM32F4xx_HAL_Driver/Src/stm32f4xx_hal_dcmi_ex.c ****                                      );
 130:HALLIB/STM32F4xx_HAL_Driver/Src/stm32f4xx_hal_dcmi_ex.c ****   if(hdcmi->Init.SynchroMode == DCMI_SYNCHRO_EMBEDDED)
 106              		.loc 1 130 3 is_stmt 1 view .LVU37
 107              		.loc 1 130 17 is_stmt 0 view .LVU38
 108 0044 6368     		ldr	r3, [r4, #4]
 109              		.loc 1 130 5 view .LVU39
 110 0046 102B     		cmp	r3, #16
 111 0048 0DD0     		beq	.L11
 112              	.L4:
 131:HALLIB/STM32F4xx_HAL_Driver/Src/stm32f4xx_hal_dcmi_ex.c ****   {
 132:HALLIB/STM32F4xx_HAL_Driver/Src/stm32f4xx_hal_dcmi_ex.c ****     hdcmi->Instance->ESCR = (((uint32_t)hdcmi->Init.SyncroCode.FrameStartCode)    |
 133:HALLIB/STM32F4xx_HAL_Driver/Src/stm32f4xx_hal_dcmi_ex.c ****                              ((uint32_t)hdcmi->Init.SyncroCode.LineStartCode << DCMI_POSITION_ESCR_
 134:HALLIB/STM32F4xx_HAL_Driver/Src/stm32f4xx_hal_dcmi_ex.c ****                              ((uint32_t)hdcmi->Init.SyncroCode.LineEndCode << DCMI_POSITION_ESCR_LE
 135:HALLIB/STM32F4xx_HAL_Driver/Src/stm32f4xx_hal_dcmi_ex.c ****                              ((uint32_t)hdcmi->Init.SyncroCode.FrameEndCode << DCMI_POSITION_ESCR_F
 136:HALLIB/STM32F4xx_HAL_Driver/Src/stm32f4xx_hal_dcmi_ex.c **** 
 137:HALLIB/STM32F4xx_HAL_Driver/Src/stm32f4xx_hal_dcmi_ex.c ****   }
 138:HALLIB/STM32F4xx_HAL_Driver/Src/stm32f4xx_hal_dcmi_ex.c **** 
 139:HALLIB/STM32F4xx_HAL_Driver/Src/stm32f4xx_hal_dcmi_ex.c ****   /* Enable the Line, Vsync, Error and Overrun interrupts */
 140:HALLIB/STM32F4xx_HAL_Driver/Src/stm32f4xx_hal_dcmi_ex.c ****   __HAL_DCMI_ENABLE_IT(hdcmi, DCMI_IT_LINE | DCMI_IT_VSYNC | DCMI_IT_ERR | DCMI_IT_OVR);
 113              		.loc 1 140 3 is_stmt 1 view .LVU40
 114 004a 2268     		ldr	r2, [r4]
 115 004c D368     		ldr	r3, [r2, #12]
 116 004e 43F01E03 		orr	r3, r3, #30
 117 0052 D360     		str	r3, [r2, #12]
 141:HALLIB/STM32F4xx_HAL_Driver/Src/stm32f4xx_hal_dcmi_ex.c **** 
 142:HALLIB/STM32F4xx_HAL_Driver/Src/stm32f4xx_hal_dcmi_ex.c ****   /* Update error code */
 143:HALLIB/STM32F4xx_HAL_Driver/Src/stm32f4xx_hal_dcmi_ex.c ****   hdcmi->ErrorCode = HAL_DCMI_ERROR_NONE;
 118              		.loc 1 143 3 view .LVU41
 119              		.loc 1 143 20 is_stmt 0 view .LVU42
 120 0054 0020     		movs	r0, #0
 121 0056 E063     		str	r0, [r4, #60]
 144:HALLIB/STM32F4xx_HAL_Driver/Src/stm32f4xx_hal_dcmi_ex.c **** 
 145:HALLIB/STM32F4xx_HAL_Driver/Src/stm32f4xx_hal_dcmi_ex.c ****   /* Initialize the DCMI state*/
 146:HALLIB/STM32F4xx_HAL_Driver/Src/stm32f4xx_hal_dcmi_ex.c ****   hdcmi->State  = HAL_DCMI_STATE_READY;
 122              		.loc 1 146 3 is_stmt 1 view .LVU43
 123              		.loc 1 146 17 is_stmt 0 view .LVU44
 124 0058 0123     		movs	r3, #1
 125 005a 84F82530 		strb	r3, [r4, #37]
 147:HALLIB/STM32F4xx_HAL_Driver/Src/stm32f4xx_hal_dcmi_ex.c **** 
 148:HALLIB/STM32F4xx_HAL_Driver/Src/stm32f4xx_hal_dcmi_ex.c ****   return HAL_OK;
 126              		.loc 1 148 3 is_stmt 1 view .LVU45
 149:HALLIB/STM32F4xx_HAL_Driver/Src/stm32f4xx_hal_dcmi_ex.c **** }
 127              		.loc 1 149 1 is_stmt 0 view .LVU46
 128 005e 10BD     		pop	{r4, pc}
 129              	.LVL2:
 130              	.L10:
 106:HALLIB/STM32F4xx_HAL_Driver/Src/stm32f4xx_hal_dcmi_ex.c ****   }
 131              		.loc 1 106 5 is_stmt 1 view .LVU47
ARM GAS  /tmp/ccraiT5Q.s 			page 6


 132 0060 FFF7FEFF 		bl	HAL_DCMI_MspInit
 133              	.LVL3:
 106:HALLIB/STM32F4xx_HAL_Driver/Src/stm32f4xx_hal_dcmi_ex.c ****   }
 134              		.loc 1 106 5 is_stmt 0 view .LVU48
 135 0064 D3E7     		b	.L3
 136              	.L11:
 132:HALLIB/STM32F4xx_HAL_Driver/Src/stm32f4xx_hal_dcmi_ex.c ****                              ((uint32_t)hdcmi->Init.SyncroCode.LineStartCode << DCMI_POSITION_ESCR_
 137              		.loc 1 132 5 is_stmt 1 view .LVU49
 132:HALLIB/STM32F4xx_HAL_Driver/Src/stm32f4xx_hal_dcmi_ex.c ****                              ((uint32_t)hdcmi->Init.SyncroCode.LineStartCode << DCMI_POSITION_ESCR_
 138              		.loc 1 132 63 is_stmt 0 view .LVU50
 139 0066 237F     		ldrb	r3, [r4, #28]	@ zero_extendqisi2
 133:HALLIB/STM32F4xx_HAL_Driver/Src/stm32f4xx_hal_dcmi_ex.c ****                              ((uint32_t)hdcmi->Init.SyncroCode.LineEndCode << DCMI_POSITION_ESCR_LE
 140              		.loc 1 133 63 view .LVU51
 141 0068 627F     		ldrb	r2, [r4, #29]	@ zero_extendqisi2
 132:HALLIB/STM32F4xx_HAL_Driver/Src/stm32f4xx_hal_dcmi_ex.c ****                              ((uint32_t)hdcmi->Init.SyncroCode.LineStartCode << DCMI_POSITION_ESCR_
 142              		.loc 1 132 83 view .LVU52
 143 006a 43EA0223 		orr	r3, r3, r2, lsl #8
 134:HALLIB/STM32F4xx_HAL_Driver/Src/stm32f4xx_hal_dcmi_ex.c ****                              ((uint32_t)hdcmi->Init.SyncroCode.FrameEndCode << DCMI_POSITION_ESCR_F
 144              		.loc 1 134 63 view .LVU53
 145 006e A27F     		ldrb	r2, [r4, #30]	@ zero_extendqisi2
 133:HALLIB/STM32F4xx_HAL_Driver/Src/stm32f4xx_hal_dcmi_ex.c ****                              ((uint32_t)hdcmi->Init.SyncroCode.LineEndCode << DCMI_POSITION_ESCR_LE
 146              		.loc 1 133 104 view .LVU54
 147 0070 43EA0243 		orr	r3, r3, r2, lsl #16
 135:HALLIB/STM32F4xx_HAL_Driver/Src/stm32f4xx_hal_dcmi_ex.c **** 
 148              		.loc 1 135 63 view .LVU55
 149 0074 E17F     		ldrb	r1, [r4, #31]	@ zero_extendqisi2
 132:HALLIB/STM32F4xx_HAL_Driver/Src/stm32f4xx_hal_dcmi_ex.c ****                              ((uint32_t)hdcmi->Init.SyncroCode.LineStartCode << DCMI_POSITION_ESCR_
 150              		.loc 1 132 10 view .LVU56
 151 0076 2268     		ldr	r2, [r4]
 134:HALLIB/STM32F4xx_HAL_Driver/Src/stm32f4xx_hal_dcmi_ex.c ****                              ((uint32_t)hdcmi->Init.SyncroCode.FrameEndCode << DCMI_POSITION_ESCR_F
 152              		.loc 1 134 103 view .LVU57
 153 0078 43EA0163 		orr	r3, r3, r1, lsl #24
 132:HALLIB/STM32F4xx_HAL_Driver/Src/stm32f4xx_hal_dcmi_ex.c ****                              ((uint32_t)hdcmi->Init.SyncroCode.LineStartCode << DCMI_POSITION_ESCR_
 154              		.loc 1 132 27 view .LVU58
 155 007c 9361     		str	r3, [r2, #24]
 156 007e E4E7     		b	.L4
 157              	.LVL4:
 158              	.L5:
 159              	.LCFI1:
 160              		.cfi_def_cfa_offset 0
 161              		.cfi_restore 4
 162              		.cfi_restore 14
  85:HALLIB/STM32F4xx_HAL_Driver/Src/stm32f4xx_hal_dcmi_ex.c ****   }
 163              		.loc 1 85 13 view .LVU59
 164 0080 0120     		movs	r0, #1
 165              	.LVL5:
 166              		.loc 1 149 1 view .LVU60
 167 0082 7047     		bx	lr
 168              		.cfi_endproc
 169              	.LFE132:
 171              		.text
 172              	.Letext0:
 173              		.file 2 "/opt/gcc_arm/gcc-arm-none-eabi-9-2019-q4-major/arm-none-eabi/include/machine/_default_typ
 174              		.file 3 "/opt/gcc_arm/gcc-arm-none-eabi-9-2019-q4-major/arm-none-eabi/include/sys/_stdint.h"
 175              		.file 4 "CORE/core_cm4.h"
 176              		.file 5 "./system_stm32f4xx.h"
 177              		.file 6 "./stm32f407xx.h"
ARM GAS  /tmp/ccraiT5Q.s 			page 7


 178              		.file 7 "HALLIB/STM32F4xx_HAL_Driver/Inc/stm32f4xx_hal_def.h"
 179              		.file 8 "HALLIB/STM32F4xx_HAL_Driver/Inc/stm32f4xx_hal_dma.h"
 180              		.file 9 "HALLIB/STM32F4xx_HAL_Driver/Inc/stm32f4xx_hal_dcmi_ex.h"
 181              		.file 10 "HALLIB/STM32F4xx_HAL_Driver/Inc/stm32f4xx_hal_dcmi.h"
ARM GAS  /tmp/ccraiT5Q.s 			page 8


DEFINED SYMBOLS
                            *ABS*:0000000000000000 stm32f4xx_hal_dcmi_ex.c
     /tmp/ccraiT5Q.s:18     .text.HAL_DCMI_Init:0000000000000000 $t
     /tmp/ccraiT5Q.s:26     .text.HAL_DCMI_Init:0000000000000000 HAL_DCMI_Init

UNDEFINED SYMBOLS
HAL_DCMI_MspInit
