ARM GAS  /tmp/ccDyYvhH.s 			page 1


   1              		.cpu cortex-m4
   2              		.eabi_attribute 27, 1
   3              		.eabi_attribute 28, 1
   4              		.eabi_attribute 20, 1
   5              		.eabi_attribute 21, 1
   6              		.eabi_attribute 23, 3
   7              		.eabi_attribute 24, 1
   8              		.eabi_attribute 25, 1
   9              		.eabi_attribute 26, 1
  10              		.eabi_attribute 30, 1
  11              		.eabi_attribute 34, 1
  12              		.eabi_attribute 18, 4
  13              		.file	"stm32f4xx_hal_dac_ex.c"
  14              		.text
  15              	.Ltext0:
  16              		.cfi_sections	.debug_frame
  17              		.section	.text.HAL_DACEx_DualStart,"ax",%progbits
  18              		.align	1
  19              		.global	HAL_DACEx_DualStart
  20              		.arch armv7e-m
  21              		.syntax unified
  22              		.thumb
  23              		.thumb_func
  24              		.fpu fpv4-sp-d16
  26              	HAL_DACEx_DualStart:
  27              	.LVL0:
  28              	.LFB239:
  29              		.file 1 "stm32f4xx-hal-driver/Src/stm32f4xx_hal_dac_ex.c"
   1:stm32f4xx-hal-driver/Src/stm32f4xx_hal_dac_ex.c **** /**
   2:stm32f4xx-hal-driver/Src/stm32f4xx_hal_dac_ex.c ****   ******************************************************************************
   3:stm32f4xx-hal-driver/Src/stm32f4xx_hal_dac_ex.c ****   * @file    stm32f4xx_hal_dac_ex.c
   4:stm32f4xx-hal-driver/Src/stm32f4xx_hal_dac_ex.c ****   * @author  MCD Application Team
   5:stm32f4xx-hal-driver/Src/stm32f4xx_hal_dac_ex.c ****   * @brief   Extended DAC HAL module driver.
   6:stm32f4xx-hal-driver/Src/stm32f4xx_hal_dac_ex.c ****   *          This file provides firmware functions to manage the extended
   7:stm32f4xx-hal-driver/Src/stm32f4xx_hal_dac_ex.c ****   *          functionalities of the DAC peripheral.
   8:stm32f4xx-hal-driver/Src/stm32f4xx_hal_dac_ex.c ****   *
   9:stm32f4xx-hal-driver/Src/stm32f4xx_hal_dac_ex.c ****   *
  10:stm32f4xx-hal-driver/Src/stm32f4xx_hal_dac_ex.c ****   ******************************************************************************
  11:stm32f4xx-hal-driver/Src/stm32f4xx_hal_dac_ex.c ****   * @attention
  12:stm32f4xx-hal-driver/Src/stm32f4xx_hal_dac_ex.c ****   *
  13:stm32f4xx-hal-driver/Src/stm32f4xx_hal_dac_ex.c ****   * Copyright (c) 2016 STMicroelectronics.
  14:stm32f4xx-hal-driver/Src/stm32f4xx_hal_dac_ex.c ****   * All rights reserved.
  15:stm32f4xx-hal-driver/Src/stm32f4xx_hal_dac_ex.c ****   *
  16:stm32f4xx-hal-driver/Src/stm32f4xx_hal_dac_ex.c ****   * This software is licensed under terms that can be found in the LICENSE file
  17:stm32f4xx-hal-driver/Src/stm32f4xx_hal_dac_ex.c ****   * in the root directory of this software component.
  18:stm32f4xx-hal-driver/Src/stm32f4xx_hal_dac_ex.c ****   * If no LICENSE file comes with this software, it is provided AS-IS.
  19:stm32f4xx-hal-driver/Src/stm32f4xx_hal_dac_ex.c ****   *
  20:stm32f4xx-hal-driver/Src/stm32f4xx_hal_dac_ex.c ****   ******************************************************************************
  21:stm32f4xx-hal-driver/Src/stm32f4xx_hal_dac_ex.c ****   @verbatim
  22:stm32f4xx-hal-driver/Src/stm32f4xx_hal_dac_ex.c ****   ==============================================================================
  23:stm32f4xx-hal-driver/Src/stm32f4xx_hal_dac_ex.c ****                       ##### How to use this driver #####
  24:stm32f4xx-hal-driver/Src/stm32f4xx_hal_dac_ex.c ****   ==============================================================================
  25:stm32f4xx-hal-driver/Src/stm32f4xx_hal_dac_ex.c ****     [..]
  26:stm32f4xx-hal-driver/Src/stm32f4xx_hal_dac_ex.c ****      *** Signal generation operation ***
  27:stm32f4xx-hal-driver/Src/stm32f4xx_hal_dac_ex.c ****      ===================================
  28:stm32f4xx-hal-driver/Src/stm32f4xx_hal_dac_ex.c ****      [..]
  29:stm32f4xx-hal-driver/Src/stm32f4xx_hal_dac_ex.c ****       (+) Use HAL_DACEx_TriangleWaveGenerate() to generate Triangle signal.
ARM GAS  /tmp/ccDyYvhH.s 			page 2


  30:stm32f4xx-hal-driver/Src/stm32f4xx_hal_dac_ex.c ****       (+) Use HAL_DACEx_NoiseWaveGenerate() to generate Noise signal.
  31:stm32f4xx-hal-driver/Src/stm32f4xx_hal_dac_ex.c **** 
  32:stm32f4xx-hal-driver/Src/stm32f4xx_hal_dac_ex.c ****  @endverbatim
  33:stm32f4xx-hal-driver/Src/stm32f4xx_hal_dac_ex.c ****   ******************************************************************************
  34:stm32f4xx-hal-driver/Src/stm32f4xx_hal_dac_ex.c ****   */
  35:stm32f4xx-hal-driver/Src/stm32f4xx_hal_dac_ex.c **** 
  36:stm32f4xx-hal-driver/Src/stm32f4xx_hal_dac_ex.c **** 
  37:stm32f4xx-hal-driver/Src/stm32f4xx_hal_dac_ex.c **** /* Includes ------------------------------------------------------------------*/
  38:stm32f4xx-hal-driver/Src/stm32f4xx_hal_dac_ex.c **** #include "stm32f4xx_hal.h"
  39:stm32f4xx-hal-driver/Src/stm32f4xx_hal_dac_ex.c **** 
  40:stm32f4xx-hal-driver/Src/stm32f4xx_hal_dac_ex.c **** /** @addtogroup STM32F4xx_HAL_Driver
  41:stm32f4xx-hal-driver/Src/stm32f4xx_hal_dac_ex.c ****   * @{
  42:stm32f4xx-hal-driver/Src/stm32f4xx_hal_dac_ex.c ****   */
  43:stm32f4xx-hal-driver/Src/stm32f4xx_hal_dac_ex.c **** 
  44:stm32f4xx-hal-driver/Src/stm32f4xx_hal_dac_ex.c **** #ifdef HAL_DAC_MODULE_ENABLED
  45:stm32f4xx-hal-driver/Src/stm32f4xx_hal_dac_ex.c **** 
  46:stm32f4xx-hal-driver/Src/stm32f4xx_hal_dac_ex.c **** #if defined(DAC)
  47:stm32f4xx-hal-driver/Src/stm32f4xx_hal_dac_ex.c **** 
  48:stm32f4xx-hal-driver/Src/stm32f4xx_hal_dac_ex.c **** /** @defgroup DACEx DACEx
  49:stm32f4xx-hal-driver/Src/stm32f4xx_hal_dac_ex.c ****   * @brief DAC Extended HAL module driver
  50:stm32f4xx-hal-driver/Src/stm32f4xx_hal_dac_ex.c ****   * @{
  51:stm32f4xx-hal-driver/Src/stm32f4xx_hal_dac_ex.c ****   */
  52:stm32f4xx-hal-driver/Src/stm32f4xx_hal_dac_ex.c **** 
  53:stm32f4xx-hal-driver/Src/stm32f4xx_hal_dac_ex.c **** /* Private typedef -----------------------------------------------------------*/
  54:stm32f4xx-hal-driver/Src/stm32f4xx_hal_dac_ex.c **** /* Private define ------------------------------------------------------------*/
  55:stm32f4xx-hal-driver/Src/stm32f4xx_hal_dac_ex.c **** 
  56:stm32f4xx-hal-driver/Src/stm32f4xx_hal_dac_ex.c **** /* Private macro -------------------------------------------------------------*/
  57:stm32f4xx-hal-driver/Src/stm32f4xx_hal_dac_ex.c **** /* Private variables ---------------------------------------------------------*/
  58:stm32f4xx-hal-driver/Src/stm32f4xx_hal_dac_ex.c **** /* Private function prototypes -----------------------------------------------*/
  59:stm32f4xx-hal-driver/Src/stm32f4xx_hal_dac_ex.c **** /* Exported functions --------------------------------------------------------*/
  60:stm32f4xx-hal-driver/Src/stm32f4xx_hal_dac_ex.c **** 
  61:stm32f4xx-hal-driver/Src/stm32f4xx_hal_dac_ex.c **** /** @defgroup DACEx_Exported_Functions DACEx Exported Functions
  62:stm32f4xx-hal-driver/Src/stm32f4xx_hal_dac_ex.c ****   * @{
  63:stm32f4xx-hal-driver/Src/stm32f4xx_hal_dac_ex.c ****   */
  64:stm32f4xx-hal-driver/Src/stm32f4xx_hal_dac_ex.c **** 
  65:stm32f4xx-hal-driver/Src/stm32f4xx_hal_dac_ex.c **** /** @defgroup DACEx_Exported_Functions_Group2 IO operation functions
  66:stm32f4xx-hal-driver/Src/stm32f4xx_hal_dac_ex.c ****   *  @brief    Extended IO operation functions
  67:stm32f4xx-hal-driver/Src/stm32f4xx_hal_dac_ex.c ****   *
  68:stm32f4xx-hal-driver/Src/stm32f4xx_hal_dac_ex.c **** @verbatim
  69:stm32f4xx-hal-driver/Src/stm32f4xx_hal_dac_ex.c ****   ==============================================================================
  70:stm32f4xx-hal-driver/Src/stm32f4xx_hal_dac_ex.c ****                  ##### Extended features functions #####
  71:stm32f4xx-hal-driver/Src/stm32f4xx_hal_dac_ex.c ****   ==============================================================================
  72:stm32f4xx-hal-driver/Src/stm32f4xx_hal_dac_ex.c ****     [..]  This section provides functions allowing to:
  73:stm32f4xx-hal-driver/Src/stm32f4xx_hal_dac_ex.c ****       (+) Start conversion.
  74:stm32f4xx-hal-driver/Src/stm32f4xx_hal_dac_ex.c ****       (+) Stop conversion.
  75:stm32f4xx-hal-driver/Src/stm32f4xx_hal_dac_ex.c ****       (+) Start conversion and enable DMA transfer.
  76:stm32f4xx-hal-driver/Src/stm32f4xx_hal_dac_ex.c ****       (+) Stop conversion and disable DMA transfer.
  77:stm32f4xx-hal-driver/Src/stm32f4xx_hal_dac_ex.c ****       (+) Get result of conversion.
  78:stm32f4xx-hal-driver/Src/stm32f4xx_hal_dac_ex.c ****       (+) Get result of dual mode conversion.
  79:stm32f4xx-hal-driver/Src/stm32f4xx_hal_dac_ex.c **** 
  80:stm32f4xx-hal-driver/Src/stm32f4xx_hal_dac_ex.c **** @endverbatim
  81:stm32f4xx-hal-driver/Src/stm32f4xx_hal_dac_ex.c ****   * @{
  82:stm32f4xx-hal-driver/Src/stm32f4xx_hal_dac_ex.c ****   */
  83:stm32f4xx-hal-driver/Src/stm32f4xx_hal_dac_ex.c **** 
  84:stm32f4xx-hal-driver/Src/stm32f4xx_hal_dac_ex.c **** #if defined(DAC_CHANNEL2_SUPPORT)
  85:stm32f4xx-hal-driver/Src/stm32f4xx_hal_dac_ex.c **** /**
  86:stm32f4xx-hal-driver/Src/stm32f4xx_hal_dac_ex.c ****   * @brief  Enables DAC and starts conversion of both channels.
ARM GAS  /tmp/ccDyYvhH.s 			page 3


  87:stm32f4xx-hal-driver/Src/stm32f4xx_hal_dac_ex.c ****   * @param  hdac pointer to a DAC_HandleTypeDef structure that contains
  88:stm32f4xx-hal-driver/Src/stm32f4xx_hal_dac_ex.c ****   *         the configuration information for the specified DAC.
  89:stm32f4xx-hal-driver/Src/stm32f4xx_hal_dac_ex.c ****   * @retval HAL status
  90:stm32f4xx-hal-driver/Src/stm32f4xx_hal_dac_ex.c ****   */
  91:stm32f4xx-hal-driver/Src/stm32f4xx_hal_dac_ex.c **** HAL_StatusTypeDef HAL_DACEx_DualStart(DAC_HandleTypeDef *hdac)
  92:stm32f4xx-hal-driver/Src/stm32f4xx_hal_dac_ex.c **** {
  30              		.loc 1 92 1 view -0
  31              		.cfi_startproc
  32              		@ args = 0, pretend = 0, frame = 0
  33              		@ frame_needed = 0, uses_anonymous_args = 0
  34              		@ link register save eliminated.
  93:stm32f4xx-hal-driver/Src/stm32f4xx_hal_dac_ex.c ****   uint32_t tmp_swtrig = 0UL;
  35              		.loc 1 93 3 view .LVU1
  94:stm32f4xx-hal-driver/Src/stm32f4xx_hal_dac_ex.c **** 
  95:stm32f4xx-hal-driver/Src/stm32f4xx_hal_dac_ex.c ****   /* Check the DAC peripheral handle */
  96:stm32f4xx-hal-driver/Src/stm32f4xx_hal_dac_ex.c ****   if (hdac == NULL)
  36              		.loc 1 96 3 view .LVU2
  37              		.loc 1 96 6 is_stmt 0 view .LVU3
  38 0000 70B3     		cbz	r0, .L5
  39 0002 0346     		mov	r3, r0
  97:stm32f4xx-hal-driver/Src/stm32f4xx_hal_dac_ex.c ****   {
  98:stm32f4xx-hal-driver/Src/stm32f4xx_hal_dac_ex.c ****     return HAL_ERROR;
  99:stm32f4xx-hal-driver/Src/stm32f4xx_hal_dac_ex.c ****   }
 100:stm32f4xx-hal-driver/Src/stm32f4xx_hal_dac_ex.c **** 
 101:stm32f4xx-hal-driver/Src/stm32f4xx_hal_dac_ex.c **** 
 102:stm32f4xx-hal-driver/Src/stm32f4xx_hal_dac_ex.c ****   /* Process locked */
 103:stm32f4xx-hal-driver/Src/stm32f4xx_hal_dac_ex.c ****   __HAL_LOCK(hdac);
  40              		.loc 1 103 3 is_stmt 1 view .LVU4
  41              		.loc 1 103 3 view .LVU5
  42 0004 4279     		ldrb	r2, [r0, #5]	@ zero_extendqisi2
  43 0006 012A     		cmp	r2, #1
  44 0008 2CD0     		beq	.L6
  92:stm32f4xx-hal-driver/Src/stm32f4xx_hal_dac_ex.c ****   uint32_t tmp_swtrig = 0UL;
  45              		.loc 1 92 1 is_stmt 0 discriminator 2 view .LVU6
  46 000a 10B4     		push	{r4}
  47              	.LCFI0:
  48              		.cfi_def_cfa_offset 4
  49              		.cfi_offset 4, -4
  50              		.loc 1 103 3 is_stmt 1 discriminator 2 view .LVU7
  51 000c 0122     		movs	r2, #1
  52 000e 4271     		strb	r2, [r0, #5]
  53              		.loc 1 103 3 discriminator 2 view .LVU8
 104:stm32f4xx-hal-driver/Src/stm32f4xx_hal_dac_ex.c **** 
 105:stm32f4xx-hal-driver/Src/stm32f4xx_hal_dac_ex.c ****   /* Change DAC state */
 106:stm32f4xx-hal-driver/Src/stm32f4xx_hal_dac_ex.c ****   hdac->State = HAL_DAC_STATE_BUSY;
  54              		.loc 1 106 3 discriminator 2 view .LVU9
  55              		.loc 1 106 15 is_stmt 0 discriminator 2 view .LVU10
  56 0010 0222     		movs	r2, #2
  57 0012 0271     		strb	r2, [r0, #4]
 107:stm32f4xx-hal-driver/Src/stm32f4xx_hal_dac_ex.c **** 
 108:stm32f4xx-hal-driver/Src/stm32f4xx_hal_dac_ex.c ****   /* Enable the Peripheral */
 109:stm32f4xx-hal-driver/Src/stm32f4xx_hal_dac_ex.c ****   __HAL_DAC_ENABLE(hdac, DAC_CHANNEL_1);
  58              		.loc 1 109 3 is_stmt 1 discriminator 2 view .LVU11
  59 0014 0168     		ldr	r1, [r0]
  60 0016 0A68     		ldr	r2, [r1]
  61 0018 42F00102 		orr	r2, r2, #1
  62 001c 0A60     		str	r2, [r1]
ARM GAS  /tmp/ccDyYvhH.s 			page 4


 110:stm32f4xx-hal-driver/Src/stm32f4xx_hal_dac_ex.c ****   __HAL_DAC_ENABLE(hdac, DAC_CHANNEL_2);
  63              		.loc 1 110 3 discriminator 2 view .LVU12
  64 001e 0168     		ldr	r1, [r0]
  65 0020 0A68     		ldr	r2, [r1]
  66 0022 42F48032 		orr	r2, r2, #65536
  67 0026 0A60     		str	r2, [r1]
 111:stm32f4xx-hal-driver/Src/stm32f4xx_hal_dac_ex.c **** 
 112:stm32f4xx-hal-driver/Src/stm32f4xx_hal_dac_ex.c ****   /* Check if software trigger enabled */
 113:stm32f4xx-hal-driver/Src/stm32f4xx_hal_dac_ex.c ****   if ((hdac->Instance->CR & (DAC_CR_TEN1 | DAC_CR_TSEL1)) == DAC_TRIGGER_SOFTWARE)
  68              		.loc 1 113 3 discriminator 2 view .LVU13
  69              		.loc 1 113 12 is_stmt 0 discriminator 2 view .LVU14
  70 0028 0268     		ldr	r2, [r0]
  71              		.loc 1 113 22 discriminator 2 view .LVU15
  72 002a 1168     		ldr	r1, [r2]
  73              		.loc 1 113 27 discriminator 2 view .LVU16
  74 002c 01F03C01 		and	r1, r1, #60
  75              		.loc 1 113 6 discriminator 2 view .LVU17
  76 0030 3C29     		cmp	r1, #60
  77 0032 10D0     		beq	.L7
  93:stm32f4xx-hal-driver/Src/stm32f4xx_hal_dac_ex.c **** 
  78              		.loc 1 93 12 view .LVU18
  79 0034 0024     		movs	r4, #0
  80              	.L3:
  81              	.LVL1:
 114:stm32f4xx-hal-driver/Src/stm32f4xx_hal_dac_ex.c ****   {
 115:stm32f4xx-hal-driver/Src/stm32f4xx_hal_dac_ex.c ****     tmp_swtrig |= DAC_SWTRIGR_SWTRIG1;
 116:stm32f4xx-hal-driver/Src/stm32f4xx_hal_dac_ex.c ****   }
 117:stm32f4xx-hal-driver/Src/stm32f4xx_hal_dac_ex.c ****   if ((hdac->Instance->CR & (DAC_CR_TEN2 | DAC_CR_TSEL2)) == (DAC_TRIGGER_SOFTWARE << (DAC_CHANNEL_
  82              		.loc 1 117 3 is_stmt 1 view .LVU19
  83              		.loc 1 117 22 is_stmt 0 view .LVU20
  84 0036 1068     		ldr	r0, [r2]
  85              	.LVL2:
  86              		.loc 1 117 27 view .LVU21
  87 0038 00F47010 		and	r0, r0, #3932160
  88              		.loc 1 117 6 view .LVU22
  89 003c B0F5701F 		cmp	r0, #3932160
  90 0040 0BD0     		beq	.L12
  91              	.L4:
 118:stm32f4xx-hal-driver/Src/stm32f4xx_hal_dac_ex.c ****   {
 119:stm32f4xx-hal-driver/Src/stm32f4xx_hal_dac_ex.c ****     tmp_swtrig |= DAC_SWTRIGR_SWTRIG2;
 120:stm32f4xx-hal-driver/Src/stm32f4xx_hal_dac_ex.c ****   }
 121:stm32f4xx-hal-driver/Src/stm32f4xx_hal_dac_ex.c ****   /* Enable the selected DAC software conversion*/
 122:stm32f4xx-hal-driver/Src/stm32f4xx_hal_dac_ex.c ****   SET_BIT(hdac->Instance->SWTRIGR, tmp_swtrig);
  92              		.loc 1 122 3 is_stmt 1 view .LVU23
  93 0042 5168     		ldr	r1, [r2, #4]
  94 0044 2143     		orrs	r1, r1, r4
  95 0046 5160     		str	r1, [r2, #4]
 123:stm32f4xx-hal-driver/Src/stm32f4xx_hal_dac_ex.c **** 
 124:stm32f4xx-hal-driver/Src/stm32f4xx_hal_dac_ex.c ****   /* Change DAC state */
 125:stm32f4xx-hal-driver/Src/stm32f4xx_hal_dac_ex.c ****   hdac->State = HAL_DAC_STATE_READY;
  96              		.loc 1 125 3 view .LVU24
  97              		.loc 1 125 15 is_stmt 0 view .LVU25
  98 0048 0122     		movs	r2, #1
  99 004a 1A71     		strb	r2, [r3, #4]
 126:stm32f4xx-hal-driver/Src/stm32f4xx_hal_dac_ex.c **** 
 127:stm32f4xx-hal-driver/Src/stm32f4xx_hal_dac_ex.c ****   /* Process unlocked */
 128:stm32f4xx-hal-driver/Src/stm32f4xx_hal_dac_ex.c ****   __HAL_UNLOCK(hdac);
ARM GAS  /tmp/ccDyYvhH.s 			page 5


 100              		.loc 1 128 3 is_stmt 1 view .LVU26
 101              		.loc 1 128 3 view .LVU27
 102 004c 0020     		movs	r0, #0
 103 004e 5871     		strb	r0, [r3, #5]
 104              		.loc 1 128 3 view .LVU28
 129:stm32f4xx-hal-driver/Src/stm32f4xx_hal_dac_ex.c **** 
 130:stm32f4xx-hal-driver/Src/stm32f4xx_hal_dac_ex.c ****   /* Return function status */
 131:stm32f4xx-hal-driver/Src/stm32f4xx_hal_dac_ex.c ****   return HAL_OK;
 105              		.loc 1 131 3 view .LVU29
 132:stm32f4xx-hal-driver/Src/stm32f4xx_hal_dac_ex.c **** }
 106              		.loc 1 132 1 is_stmt 0 view .LVU30
 107 0050 5DF8044B 		ldr	r4, [sp], #4
 108              	.LCFI1:
 109              		.cfi_remember_state
 110              		.cfi_restore 4
 111              		.cfi_def_cfa_offset 0
 112              	.LVL3:
 113              		.loc 1 132 1 view .LVU31
 114 0054 7047     		bx	lr
 115              	.LVL4:
 116              	.L7:
 117              	.LCFI2:
 118              		.cfi_restore_state
 115:stm32f4xx-hal-driver/Src/stm32f4xx_hal_dac_ex.c ****   }
 119              		.loc 1 115 16 view .LVU32
 120 0056 0124     		movs	r4, #1
 121 0058 EDE7     		b	.L3
 122              	.LVL5:
 123              	.L12:
 119:stm32f4xx-hal-driver/Src/stm32f4xx_hal_dac_ex.c ****   }
 124              		.loc 1 119 5 is_stmt 1 view .LVU33
 119:stm32f4xx-hal-driver/Src/stm32f4xx_hal_dac_ex.c ****   }
 125              		.loc 1 119 16 is_stmt 0 view .LVU34
 126 005a 44F00204 		orr	r4, r4, #2
 127              	.LVL6:
 119:stm32f4xx-hal-driver/Src/stm32f4xx_hal_dac_ex.c ****   }
 128              		.loc 1 119 16 view .LVU35
 129 005e F0E7     		b	.L4
 130              	.LVL7:
 131              	.L5:
 132              	.LCFI3:
 133              		.cfi_def_cfa_offset 0
 134              		.cfi_restore 4
  98:stm32f4xx-hal-driver/Src/stm32f4xx_hal_dac_ex.c ****   }
 135              		.loc 1 98 12 view .LVU36
 136 0060 0120     		movs	r0, #1
 137              	.LVL8:
  98:stm32f4xx-hal-driver/Src/stm32f4xx_hal_dac_ex.c ****   }
 138              		.loc 1 98 12 view .LVU37
 139 0062 7047     		bx	lr
 140              	.LVL9:
 141              	.L6:
 103:stm32f4xx-hal-driver/Src/stm32f4xx_hal_dac_ex.c **** 
 142              		.loc 1 103 3 view .LVU38
 143 0064 0220     		movs	r0, #2
 144              	.LVL10:
 145              		.loc 1 132 1 view .LVU39
ARM GAS  /tmp/ccDyYvhH.s 			page 6


 146 0066 7047     		bx	lr
 147              		.cfi_endproc
 148              	.LFE239:
 150              		.section	.text.HAL_DACEx_DualStop,"ax",%progbits
 151              		.align	1
 152              		.global	HAL_DACEx_DualStop
 153              		.syntax unified
 154              		.thumb
 155              		.thumb_func
 156              		.fpu fpv4-sp-d16
 158              	HAL_DACEx_DualStop:
 159              	.LVL11:
 160              	.LFB240:
 133:stm32f4xx-hal-driver/Src/stm32f4xx_hal_dac_ex.c **** 
 134:stm32f4xx-hal-driver/Src/stm32f4xx_hal_dac_ex.c **** /**
 135:stm32f4xx-hal-driver/Src/stm32f4xx_hal_dac_ex.c ****   * @brief  Disables DAC and stop conversion of both channels.
 136:stm32f4xx-hal-driver/Src/stm32f4xx_hal_dac_ex.c ****   * @param  hdac pointer to a DAC_HandleTypeDef structure that contains
 137:stm32f4xx-hal-driver/Src/stm32f4xx_hal_dac_ex.c ****   *         the configuration information for the specified DAC.
 138:stm32f4xx-hal-driver/Src/stm32f4xx_hal_dac_ex.c ****   * @retval HAL status
 139:stm32f4xx-hal-driver/Src/stm32f4xx_hal_dac_ex.c ****   */
 140:stm32f4xx-hal-driver/Src/stm32f4xx_hal_dac_ex.c **** HAL_StatusTypeDef HAL_DACEx_DualStop(DAC_HandleTypeDef *hdac)
 141:stm32f4xx-hal-driver/Src/stm32f4xx_hal_dac_ex.c **** {
 161              		.loc 1 141 1 is_stmt 1 view -0
 162              		.cfi_startproc
 163              		@ args = 0, pretend = 0, frame = 0
 164              		@ frame_needed = 0, uses_anonymous_args = 0
 165              		@ link register save eliminated.
 142:stm32f4xx-hal-driver/Src/stm32f4xx_hal_dac_ex.c ****   /* Check the DAC peripheral handle */
 143:stm32f4xx-hal-driver/Src/stm32f4xx_hal_dac_ex.c ****   if (hdac == NULL)
 166              		.loc 1 143 3 view .LVU41
 167              		.loc 1 143 6 is_stmt 0 view .LVU42
 168 0000 68B1     		cbz	r0, .L15
 144:stm32f4xx-hal-driver/Src/stm32f4xx_hal_dac_ex.c ****   {
 145:stm32f4xx-hal-driver/Src/stm32f4xx_hal_dac_ex.c ****     return HAL_ERROR;
 146:stm32f4xx-hal-driver/Src/stm32f4xx_hal_dac_ex.c ****   }
 147:stm32f4xx-hal-driver/Src/stm32f4xx_hal_dac_ex.c **** 
 148:stm32f4xx-hal-driver/Src/stm32f4xx_hal_dac_ex.c **** 
 149:stm32f4xx-hal-driver/Src/stm32f4xx_hal_dac_ex.c ****   /* Disable the Peripheral */
 150:stm32f4xx-hal-driver/Src/stm32f4xx_hal_dac_ex.c ****   __HAL_DAC_DISABLE(hdac, DAC_CHANNEL_1);
 169              		.loc 1 150 3 is_stmt 1 view .LVU43
 170 0002 0168     		ldr	r1, [r0]
 171 0004 0A68     		ldr	r2, [r1]
 172 0006 22F00102 		bic	r2, r2, #1
 173 000a 0A60     		str	r2, [r1]
 151:stm32f4xx-hal-driver/Src/stm32f4xx_hal_dac_ex.c ****   __HAL_DAC_DISABLE(hdac, DAC_CHANNEL_2);
 174              		.loc 1 151 3 view .LVU44
 175 000c 0168     		ldr	r1, [r0]
 176 000e 0A68     		ldr	r2, [r1]
 177 0010 22F48032 		bic	r2, r2, #65536
 178 0014 0A60     		str	r2, [r1]
 152:stm32f4xx-hal-driver/Src/stm32f4xx_hal_dac_ex.c **** 
 153:stm32f4xx-hal-driver/Src/stm32f4xx_hal_dac_ex.c ****   /* Change DAC state */
 154:stm32f4xx-hal-driver/Src/stm32f4xx_hal_dac_ex.c ****   hdac->State = HAL_DAC_STATE_READY;
 179              		.loc 1 154 3 view .LVU45
 180              		.loc 1 154 15 is_stmt 0 view .LVU46
 181 0016 0122     		movs	r2, #1
 182 0018 0271     		strb	r2, [r0, #4]
ARM GAS  /tmp/ccDyYvhH.s 			page 7


 155:stm32f4xx-hal-driver/Src/stm32f4xx_hal_dac_ex.c **** 
 156:stm32f4xx-hal-driver/Src/stm32f4xx_hal_dac_ex.c ****   /* Return function status */
 157:stm32f4xx-hal-driver/Src/stm32f4xx_hal_dac_ex.c ****   return HAL_OK;
 183              		.loc 1 157 3 is_stmt 1 view .LVU47
 184              		.loc 1 157 10 is_stmt 0 view .LVU48
 185 001a 0020     		movs	r0, #0
 186              	.LVL12:
 187              		.loc 1 157 10 view .LVU49
 188 001c 7047     		bx	lr
 189              	.LVL13:
 190              	.L15:
 145:stm32f4xx-hal-driver/Src/stm32f4xx_hal_dac_ex.c ****   }
 191              		.loc 1 145 12 view .LVU50
 192 001e 0120     		movs	r0, #1
 193              	.LVL14:
 158:stm32f4xx-hal-driver/Src/stm32f4xx_hal_dac_ex.c **** }
 194              		.loc 1 158 1 view .LVU51
 195 0020 7047     		bx	lr
 196              		.cfi_endproc
 197              	.LFE240:
 199              		.section	.text.HAL_DACEx_TriangleWaveGenerate,"ax",%progbits
 200              		.align	1
 201              		.global	HAL_DACEx_TriangleWaveGenerate
 202              		.syntax unified
 203              		.thumb
 204              		.thumb_func
 205              		.fpu fpv4-sp-d16
 207              	HAL_DACEx_TriangleWaveGenerate:
 208              	.LVL15:
 209              	.LFB241:
 159:stm32f4xx-hal-driver/Src/stm32f4xx_hal_dac_ex.c **** #endif /* DAC_CHANNEL2_SUPPORT */
 160:stm32f4xx-hal-driver/Src/stm32f4xx_hal_dac_ex.c **** 
 161:stm32f4xx-hal-driver/Src/stm32f4xx_hal_dac_ex.c **** /**
 162:stm32f4xx-hal-driver/Src/stm32f4xx_hal_dac_ex.c ****   * @brief  Enable or disable the selected DAC channel wave generation.
 163:stm32f4xx-hal-driver/Src/stm32f4xx_hal_dac_ex.c ****   * @param  hdac pointer to a DAC_HandleTypeDef structure that contains
 164:stm32f4xx-hal-driver/Src/stm32f4xx_hal_dac_ex.c ****   *         the configuration information for the specified DAC.
 165:stm32f4xx-hal-driver/Src/stm32f4xx_hal_dac_ex.c ****   * @param  Channel The selected DAC channel.
 166:stm32f4xx-hal-driver/Src/stm32f4xx_hal_dac_ex.c ****   *          This parameter can be one of the following values:
 167:stm32f4xx-hal-driver/Src/stm32f4xx_hal_dac_ex.c ****   *            @arg DAC_CHANNEL_1: DAC Channel1 selected
 168:stm32f4xx-hal-driver/Src/stm32f4xx_hal_dac_ex.c ****   *            @arg DAC_CHANNEL_2: DAC Channel2 selected
 169:stm32f4xx-hal-driver/Src/stm32f4xx_hal_dac_ex.c ****   * @param  Amplitude Select max triangle amplitude.
 170:stm32f4xx-hal-driver/Src/stm32f4xx_hal_dac_ex.c ****   *          This parameter can be one of the following values:
 171:stm32f4xx-hal-driver/Src/stm32f4xx_hal_dac_ex.c ****   *            @arg DAC_TRIANGLEAMPLITUDE_1: Select max triangle amplitude of 1
 172:stm32f4xx-hal-driver/Src/stm32f4xx_hal_dac_ex.c ****   *            @arg DAC_TRIANGLEAMPLITUDE_3: Select max triangle amplitude of 3
 173:stm32f4xx-hal-driver/Src/stm32f4xx_hal_dac_ex.c ****   *            @arg DAC_TRIANGLEAMPLITUDE_7: Select max triangle amplitude of 7
 174:stm32f4xx-hal-driver/Src/stm32f4xx_hal_dac_ex.c ****   *            @arg DAC_TRIANGLEAMPLITUDE_15: Select max triangle amplitude of 15
 175:stm32f4xx-hal-driver/Src/stm32f4xx_hal_dac_ex.c ****   *            @arg DAC_TRIANGLEAMPLITUDE_31: Select max triangle amplitude of 31
 176:stm32f4xx-hal-driver/Src/stm32f4xx_hal_dac_ex.c ****   *            @arg DAC_TRIANGLEAMPLITUDE_63: Select max triangle amplitude of 63
 177:stm32f4xx-hal-driver/Src/stm32f4xx_hal_dac_ex.c ****   *            @arg DAC_TRIANGLEAMPLITUDE_127: Select max triangle amplitude of 127
 178:stm32f4xx-hal-driver/Src/stm32f4xx_hal_dac_ex.c ****   *            @arg DAC_TRIANGLEAMPLITUDE_255: Select max triangle amplitude of 255
 179:stm32f4xx-hal-driver/Src/stm32f4xx_hal_dac_ex.c ****   *            @arg DAC_TRIANGLEAMPLITUDE_511: Select max triangle amplitude of 511
 180:stm32f4xx-hal-driver/Src/stm32f4xx_hal_dac_ex.c ****   *            @arg DAC_TRIANGLEAMPLITUDE_1023: Select max triangle amplitude of 1023
 181:stm32f4xx-hal-driver/Src/stm32f4xx_hal_dac_ex.c ****   *            @arg DAC_TRIANGLEAMPLITUDE_2047: Select max triangle amplitude of 2047
 182:stm32f4xx-hal-driver/Src/stm32f4xx_hal_dac_ex.c ****   *            @arg DAC_TRIANGLEAMPLITUDE_4095: Select max triangle amplitude of 4095
 183:stm32f4xx-hal-driver/Src/stm32f4xx_hal_dac_ex.c ****   * @retval HAL status
 184:stm32f4xx-hal-driver/Src/stm32f4xx_hal_dac_ex.c ****   */
 185:stm32f4xx-hal-driver/Src/stm32f4xx_hal_dac_ex.c **** HAL_StatusTypeDef HAL_DACEx_TriangleWaveGenerate(DAC_HandleTypeDef *hdac, uint32_t Channel, uint32_
ARM GAS  /tmp/ccDyYvhH.s 			page 8


 186:stm32f4xx-hal-driver/Src/stm32f4xx_hal_dac_ex.c **** {
 210              		.loc 1 186 1 is_stmt 1 view -0
 211              		.cfi_startproc
 212              		@ args = 0, pretend = 0, frame = 0
 213              		@ frame_needed = 0, uses_anonymous_args = 0
 214              		@ link register save eliminated.
 187:stm32f4xx-hal-driver/Src/stm32f4xx_hal_dac_ex.c ****   /* Check the DAC peripheral handle */
 188:stm32f4xx-hal-driver/Src/stm32f4xx_hal_dac_ex.c ****   if (hdac == NULL)
 215              		.loc 1 188 3 view .LVU53
 216              		.loc 1 188 6 is_stmt 0 view .LVU54
 217 0000 D8B1     		cbz	r0, .L18
 218 0002 0346     		mov	r3, r0
 189:stm32f4xx-hal-driver/Src/stm32f4xx_hal_dac_ex.c ****   {
 190:stm32f4xx-hal-driver/Src/stm32f4xx_hal_dac_ex.c ****     return HAL_ERROR;
 191:stm32f4xx-hal-driver/Src/stm32f4xx_hal_dac_ex.c ****   }
 192:stm32f4xx-hal-driver/Src/stm32f4xx_hal_dac_ex.c **** 
 193:stm32f4xx-hal-driver/Src/stm32f4xx_hal_dac_ex.c ****   /* Check the parameters */
 194:stm32f4xx-hal-driver/Src/stm32f4xx_hal_dac_ex.c ****   assert_param(IS_DAC_CHANNEL(Channel));
 219              		.loc 1 194 3 is_stmt 1 view .LVU55
 195:stm32f4xx-hal-driver/Src/stm32f4xx_hal_dac_ex.c ****   assert_param(IS_DAC_LFSR_UNMASK_TRIANGLE_AMPLITUDE(Amplitude));
 220              		.loc 1 195 3 view .LVU56
 196:stm32f4xx-hal-driver/Src/stm32f4xx_hal_dac_ex.c **** 
 197:stm32f4xx-hal-driver/Src/stm32f4xx_hal_dac_ex.c ****   /* Process locked */
 198:stm32f4xx-hal-driver/Src/stm32f4xx_hal_dac_ex.c ****   __HAL_LOCK(hdac);
 221              		.loc 1 198 3 view .LVU57
 222              		.loc 1 198 3 view .LVU58
 223 0004 4079     		ldrb	r0, [r0, #5]	@ zero_extendqisi2
 224              	.LVL16:
 225              		.loc 1 198 3 is_stmt 0 view .LVU59
 226 0006 0128     		cmp	r0, #1
 227 0008 19D0     		beq	.L19
 186:stm32f4xx-hal-driver/Src/stm32f4xx_hal_dac_ex.c ****   /* Check the DAC peripheral handle */
 228              		.loc 1 186 1 discriminator 2 view .LVU60
 229 000a 70B4     		push	{r4, r5, r6}
 230              	.LCFI4:
 231              		.cfi_def_cfa_offset 12
 232              		.cfi_offset 4, -12
 233              		.cfi_offset 5, -8
 234              		.cfi_offset 6, -4
 235              		.loc 1 198 3 is_stmt 1 discriminator 2 view .LVU61
 236 000c 0125     		movs	r5, #1
 237 000e 5D71     		strb	r5, [r3, #5]
 238              		.loc 1 198 3 discriminator 2 view .LVU62
 199:stm32f4xx-hal-driver/Src/stm32f4xx_hal_dac_ex.c **** 
 200:stm32f4xx-hal-driver/Src/stm32f4xx_hal_dac_ex.c ****   /* Change DAC state */
 201:stm32f4xx-hal-driver/Src/stm32f4xx_hal_dac_ex.c ****   hdac->State = HAL_DAC_STATE_BUSY;
 239              		.loc 1 201 3 discriminator 2 view .LVU63
 240              		.loc 1 201 15 is_stmt 0 discriminator 2 view .LVU64
 241 0010 0220     		movs	r0, #2
 242 0012 1871     		strb	r0, [r3, #4]
 202:stm32f4xx-hal-driver/Src/stm32f4xx_hal_dac_ex.c **** 
 203:stm32f4xx-hal-driver/Src/stm32f4xx_hal_dac_ex.c ****   /* Enable the triangle wave generation for the selected DAC channel */
 204:stm32f4xx-hal-driver/Src/stm32f4xx_hal_dac_ex.c ****   MODIFY_REG(hdac->Instance->CR, ((DAC_CR_WAVE1) | (DAC_CR_MAMP1)) << (Channel & 0x10UL),
 243              		.loc 1 204 3 is_stmt 1 discriminator 2 view .LVU65
 244 0014 1E68     		ldr	r6, [r3]
 245 0016 3068     		ldr	r0, [r6]
 246 0018 01F01001 		and	r1, r1, #16
ARM GAS  /tmp/ccDyYvhH.s 			page 9


 247              	.LVL17:
 248              		.loc 1 204 3 is_stmt 0 discriminator 2 view .LVU66
 249 001c 4FF47C64 		mov	r4, #4032
 250 0020 8C40     		lsls	r4, r4, r1
 251 0022 20EA0400 		bic	r0, r0, r4
 252 0026 42F08002 		orr	r2, r2, #128
 253              	.LVL18:
 254              		.loc 1 204 3 discriminator 2 view .LVU67
 255 002a 8A40     		lsls	r2, r2, r1
 256 002c 0243     		orrs	r2, r2, r0
 257 002e 3260     		str	r2, [r6]
 205:stm32f4xx-hal-driver/Src/stm32f4xx_hal_dac_ex.c ****              (DAC_CR_WAVE1_1 | Amplitude) << (Channel & 0x10UL));
 206:stm32f4xx-hal-driver/Src/stm32f4xx_hal_dac_ex.c **** 
 207:stm32f4xx-hal-driver/Src/stm32f4xx_hal_dac_ex.c ****   /* Change DAC state */
 208:stm32f4xx-hal-driver/Src/stm32f4xx_hal_dac_ex.c ****   hdac->State = HAL_DAC_STATE_READY;
 258              		.loc 1 208 3 is_stmt 1 discriminator 2 view .LVU68
 259              		.loc 1 208 15 is_stmt 0 discriminator 2 view .LVU69
 260 0030 1D71     		strb	r5, [r3, #4]
 209:stm32f4xx-hal-driver/Src/stm32f4xx_hal_dac_ex.c **** 
 210:stm32f4xx-hal-driver/Src/stm32f4xx_hal_dac_ex.c ****   /* Process unlocked */
 211:stm32f4xx-hal-driver/Src/stm32f4xx_hal_dac_ex.c ****   __HAL_UNLOCK(hdac);
 261              		.loc 1 211 3 is_stmt 1 discriminator 2 view .LVU70
 262              		.loc 1 211 3 discriminator 2 view .LVU71
 263 0032 0020     		movs	r0, #0
 264 0034 5871     		strb	r0, [r3, #5]
 265              		.loc 1 211 3 discriminator 2 view .LVU72
 212:stm32f4xx-hal-driver/Src/stm32f4xx_hal_dac_ex.c **** 
 213:stm32f4xx-hal-driver/Src/stm32f4xx_hal_dac_ex.c ****   /* Return function status */
 214:stm32f4xx-hal-driver/Src/stm32f4xx_hal_dac_ex.c ****   return HAL_OK;
 266              		.loc 1 214 3 discriminator 2 view .LVU73
 215:stm32f4xx-hal-driver/Src/stm32f4xx_hal_dac_ex.c **** }
 267              		.loc 1 215 1 is_stmt 0 discriminator 2 view .LVU74
 268 0036 70BC     		pop	{r4, r5, r6}
 269              	.LCFI5:
 270              		.cfi_restore 6
 271              		.cfi_restore 5
 272              		.cfi_restore 4
 273              		.cfi_def_cfa_offset 0
 274 0038 7047     		bx	lr
 275              	.LVL19:
 276              	.L18:
 190:stm32f4xx-hal-driver/Src/stm32f4xx_hal_dac_ex.c ****   }
 277              		.loc 1 190 12 view .LVU75
 278 003a 0120     		movs	r0, #1
 279              	.LVL20:
 190:stm32f4xx-hal-driver/Src/stm32f4xx_hal_dac_ex.c ****   }
 280              		.loc 1 190 12 view .LVU76
 281 003c 7047     		bx	lr
 282              	.LVL21:
 283              	.L19:
 198:stm32f4xx-hal-driver/Src/stm32f4xx_hal_dac_ex.c **** 
 284              		.loc 1 198 3 view .LVU77
 285 003e 0220     		movs	r0, #2
 286              		.loc 1 215 1 view .LVU78
 287 0040 7047     		bx	lr
 288              		.cfi_endproc
 289              	.LFE241:
ARM GAS  /tmp/ccDyYvhH.s 			page 10


 291              		.section	.text.HAL_DACEx_NoiseWaveGenerate,"ax",%progbits
 292              		.align	1
 293              		.global	HAL_DACEx_NoiseWaveGenerate
 294              		.syntax unified
 295              		.thumb
 296              		.thumb_func
 297              		.fpu fpv4-sp-d16
 299              	HAL_DACEx_NoiseWaveGenerate:
 300              	.LVL22:
 301              	.LFB242:
 216:stm32f4xx-hal-driver/Src/stm32f4xx_hal_dac_ex.c **** 
 217:stm32f4xx-hal-driver/Src/stm32f4xx_hal_dac_ex.c **** /**
 218:stm32f4xx-hal-driver/Src/stm32f4xx_hal_dac_ex.c ****   * @brief  Enable or disable the selected DAC channel wave generation.
 219:stm32f4xx-hal-driver/Src/stm32f4xx_hal_dac_ex.c ****   * @param  hdac pointer to a DAC_HandleTypeDef structure that contains
 220:stm32f4xx-hal-driver/Src/stm32f4xx_hal_dac_ex.c ****   *         the configuration information for the specified DAC.
 221:stm32f4xx-hal-driver/Src/stm32f4xx_hal_dac_ex.c ****   * @param  Channel The selected DAC channel.
 222:stm32f4xx-hal-driver/Src/stm32f4xx_hal_dac_ex.c ****   *          This parameter can be one of the following values:
 223:stm32f4xx-hal-driver/Src/stm32f4xx_hal_dac_ex.c ****   *            @arg DAC_CHANNEL_1: DAC Channel1 selected
 224:stm32f4xx-hal-driver/Src/stm32f4xx_hal_dac_ex.c ****   *            @arg DAC_CHANNEL_2: DAC Channel2 selected
 225:stm32f4xx-hal-driver/Src/stm32f4xx_hal_dac_ex.c ****   * @param  Amplitude Unmask DAC channel LFSR for noise wave generation.
 226:stm32f4xx-hal-driver/Src/stm32f4xx_hal_dac_ex.c ****   *          This parameter can be one of the following values:
 227:stm32f4xx-hal-driver/Src/stm32f4xx_hal_dac_ex.c ****   *            @arg DAC_LFSRUNMASK_BIT0: Unmask DAC channel LFSR bit0 for noise wave generation
 228:stm32f4xx-hal-driver/Src/stm32f4xx_hal_dac_ex.c ****   *            @arg DAC_LFSRUNMASK_BITS1_0: Unmask DAC channel LFSR bit[1:0] for noise wave generat
 229:stm32f4xx-hal-driver/Src/stm32f4xx_hal_dac_ex.c ****   *            @arg DAC_LFSRUNMASK_BITS2_0: Unmask DAC channel LFSR bit[2:0] for noise wave generat
 230:stm32f4xx-hal-driver/Src/stm32f4xx_hal_dac_ex.c ****   *            @arg DAC_LFSRUNMASK_BITS3_0: Unmask DAC channel LFSR bit[3:0] for noise wave generat
 231:stm32f4xx-hal-driver/Src/stm32f4xx_hal_dac_ex.c ****   *            @arg DAC_LFSRUNMASK_BITS4_0: Unmask DAC channel LFSR bit[4:0] for noise wave generat
 232:stm32f4xx-hal-driver/Src/stm32f4xx_hal_dac_ex.c ****   *            @arg DAC_LFSRUNMASK_BITS5_0: Unmask DAC channel LFSR bit[5:0] for noise wave generat
 233:stm32f4xx-hal-driver/Src/stm32f4xx_hal_dac_ex.c ****   *            @arg DAC_LFSRUNMASK_BITS6_0: Unmask DAC channel LFSR bit[6:0] for noise wave generat
 234:stm32f4xx-hal-driver/Src/stm32f4xx_hal_dac_ex.c ****   *            @arg DAC_LFSRUNMASK_BITS7_0: Unmask DAC channel LFSR bit[7:0] for noise wave generat
 235:stm32f4xx-hal-driver/Src/stm32f4xx_hal_dac_ex.c ****   *            @arg DAC_LFSRUNMASK_BITS8_0: Unmask DAC channel LFSR bit[8:0] for noise wave generat
 236:stm32f4xx-hal-driver/Src/stm32f4xx_hal_dac_ex.c ****   *            @arg DAC_LFSRUNMASK_BITS9_0: Unmask DAC channel LFSR bit[9:0] for noise wave generat
 237:stm32f4xx-hal-driver/Src/stm32f4xx_hal_dac_ex.c ****   *            @arg DAC_LFSRUNMASK_BITS10_0: Unmask DAC channel LFSR bit[10:0] for noise wave gener
 238:stm32f4xx-hal-driver/Src/stm32f4xx_hal_dac_ex.c ****   *            @arg DAC_LFSRUNMASK_BITS11_0: Unmask DAC channel LFSR bit[11:0] for noise wave gener
 239:stm32f4xx-hal-driver/Src/stm32f4xx_hal_dac_ex.c ****   * @retval HAL status
 240:stm32f4xx-hal-driver/Src/stm32f4xx_hal_dac_ex.c ****   */
 241:stm32f4xx-hal-driver/Src/stm32f4xx_hal_dac_ex.c **** HAL_StatusTypeDef HAL_DACEx_NoiseWaveGenerate(DAC_HandleTypeDef *hdac, uint32_t Channel, uint32_t A
 242:stm32f4xx-hal-driver/Src/stm32f4xx_hal_dac_ex.c **** {
 302              		.loc 1 242 1 is_stmt 1 view -0
 303              		.cfi_startproc
 304              		@ args = 0, pretend = 0, frame = 0
 305              		@ frame_needed = 0, uses_anonymous_args = 0
 306              		@ link register save eliminated.
 243:stm32f4xx-hal-driver/Src/stm32f4xx_hal_dac_ex.c ****   /* Check the DAC peripheral handle */
 244:stm32f4xx-hal-driver/Src/stm32f4xx_hal_dac_ex.c ****   if (hdac == NULL)
 307              		.loc 1 244 3 view .LVU80
 308              		.loc 1 244 6 is_stmt 0 view .LVU81
 309 0000 D8B1     		cbz	r0, .L26
 310 0002 0346     		mov	r3, r0
 245:stm32f4xx-hal-driver/Src/stm32f4xx_hal_dac_ex.c ****   {
 246:stm32f4xx-hal-driver/Src/stm32f4xx_hal_dac_ex.c ****     return HAL_ERROR;
 247:stm32f4xx-hal-driver/Src/stm32f4xx_hal_dac_ex.c ****   }
 248:stm32f4xx-hal-driver/Src/stm32f4xx_hal_dac_ex.c **** 
 249:stm32f4xx-hal-driver/Src/stm32f4xx_hal_dac_ex.c ****   /* Check the parameters */
 250:stm32f4xx-hal-driver/Src/stm32f4xx_hal_dac_ex.c ****   assert_param(IS_DAC_CHANNEL(Channel));
 311              		.loc 1 250 3 is_stmt 1 view .LVU82
 251:stm32f4xx-hal-driver/Src/stm32f4xx_hal_dac_ex.c ****   assert_param(IS_DAC_LFSR_UNMASK_TRIANGLE_AMPLITUDE(Amplitude));
 312              		.loc 1 251 3 view .LVU83
ARM GAS  /tmp/ccDyYvhH.s 			page 11


 252:stm32f4xx-hal-driver/Src/stm32f4xx_hal_dac_ex.c **** 
 253:stm32f4xx-hal-driver/Src/stm32f4xx_hal_dac_ex.c ****   /* Process locked */
 254:stm32f4xx-hal-driver/Src/stm32f4xx_hal_dac_ex.c ****   __HAL_LOCK(hdac);
 313              		.loc 1 254 3 view .LVU84
 314              		.loc 1 254 3 view .LVU85
 315 0004 4079     		ldrb	r0, [r0, #5]	@ zero_extendqisi2
 316              	.LVL23:
 317              		.loc 1 254 3 is_stmt 0 view .LVU86
 318 0006 0128     		cmp	r0, #1
 319 0008 19D0     		beq	.L27
 242:stm32f4xx-hal-driver/Src/stm32f4xx_hal_dac_ex.c ****   /* Check the DAC peripheral handle */
 320              		.loc 1 242 1 discriminator 2 view .LVU87
 321 000a 70B4     		push	{r4, r5, r6}
 322              	.LCFI6:
 323              		.cfi_def_cfa_offset 12
 324              		.cfi_offset 4, -12
 325              		.cfi_offset 5, -8
 326              		.cfi_offset 6, -4
 327              		.loc 1 254 3 is_stmt 1 discriminator 2 view .LVU88
 328 000c 0125     		movs	r5, #1
 329 000e 5D71     		strb	r5, [r3, #5]
 330              		.loc 1 254 3 discriminator 2 view .LVU89
 255:stm32f4xx-hal-driver/Src/stm32f4xx_hal_dac_ex.c **** 
 256:stm32f4xx-hal-driver/Src/stm32f4xx_hal_dac_ex.c ****   /* Change DAC state */
 257:stm32f4xx-hal-driver/Src/stm32f4xx_hal_dac_ex.c ****   hdac->State = HAL_DAC_STATE_BUSY;
 331              		.loc 1 257 3 discriminator 2 view .LVU90
 332              		.loc 1 257 15 is_stmt 0 discriminator 2 view .LVU91
 333 0010 0220     		movs	r0, #2
 334 0012 1871     		strb	r0, [r3, #4]
 258:stm32f4xx-hal-driver/Src/stm32f4xx_hal_dac_ex.c **** 
 259:stm32f4xx-hal-driver/Src/stm32f4xx_hal_dac_ex.c ****   /* Enable the noise wave generation for the selected DAC channel */
 260:stm32f4xx-hal-driver/Src/stm32f4xx_hal_dac_ex.c ****   MODIFY_REG(hdac->Instance->CR, ((DAC_CR_WAVE1) | (DAC_CR_MAMP1)) << (Channel & 0x10UL),
 335              		.loc 1 260 3 is_stmt 1 discriminator 2 view .LVU92
 336 0014 1E68     		ldr	r6, [r3]
 337 0016 3068     		ldr	r0, [r6]
 338 0018 01F01001 		and	r1, r1, #16
 339              	.LVL24:
 340              		.loc 1 260 3 is_stmt 0 discriminator 2 view .LVU93
 341 001c 4FF47C64 		mov	r4, #4032
 342 0020 8C40     		lsls	r4, r4, r1
 343 0022 20EA0400 		bic	r0, r0, r4
 344 0026 42F04002 		orr	r2, r2, #64
 345              	.LVL25:
 346              		.loc 1 260 3 discriminator 2 view .LVU94
 347 002a 8A40     		lsls	r2, r2, r1
 348 002c 0243     		orrs	r2, r2, r0
 349 002e 3260     		str	r2, [r6]
 261:stm32f4xx-hal-driver/Src/stm32f4xx_hal_dac_ex.c ****              (DAC_CR_WAVE1_0 | Amplitude) << (Channel & 0x10UL));
 262:stm32f4xx-hal-driver/Src/stm32f4xx_hal_dac_ex.c **** 
 263:stm32f4xx-hal-driver/Src/stm32f4xx_hal_dac_ex.c ****   /* Change DAC state */
 264:stm32f4xx-hal-driver/Src/stm32f4xx_hal_dac_ex.c ****   hdac->State = HAL_DAC_STATE_READY;
 350              		.loc 1 264 3 is_stmt 1 discriminator 2 view .LVU95
 351              		.loc 1 264 15 is_stmt 0 discriminator 2 view .LVU96
 352 0030 1D71     		strb	r5, [r3, #4]
 265:stm32f4xx-hal-driver/Src/stm32f4xx_hal_dac_ex.c **** 
 266:stm32f4xx-hal-driver/Src/stm32f4xx_hal_dac_ex.c ****   /* Process unlocked */
 267:stm32f4xx-hal-driver/Src/stm32f4xx_hal_dac_ex.c ****   __HAL_UNLOCK(hdac);
ARM GAS  /tmp/ccDyYvhH.s 			page 12


 353              		.loc 1 267 3 is_stmt 1 discriminator 2 view .LVU97
 354              		.loc 1 267 3 discriminator 2 view .LVU98
 355 0032 0020     		movs	r0, #0
 356 0034 5871     		strb	r0, [r3, #5]
 357              		.loc 1 267 3 discriminator 2 view .LVU99
 268:stm32f4xx-hal-driver/Src/stm32f4xx_hal_dac_ex.c **** 
 269:stm32f4xx-hal-driver/Src/stm32f4xx_hal_dac_ex.c ****   /* Return function status */
 270:stm32f4xx-hal-driver/Src/stm32f4xx_hal_dac_ex.c ****   return HAL_OK;
 358              		.loc 1 270 3 discriminator 2 view .LVU100
 271:stm32f4xx-hal-driver/Src/stm32f4xx_hal_dac_ex.c **** }
 359              		.loc 1 271 1 is_stmt 0 discriminator 2 view .LVU101
 360 0036 70BC     		pop	{r4, r5, r6}
 361              	.LCFI7:
 362              		.cfi_restore 6
 363              		.cfi_restore 5
 364              		.cfi_restore 4
 365              		.cfi_def_cfa_offset 0
 366 0038 7047     		bx	lr
 367              	.LVL26:
 368              	.L26:
 246:stm32f4xx-hal-driver/Src/stm32f4xx_hal_dac_ex.c ****   }
 369              		.loc 1 246 12 view .LVU102
 370 003a 0120     		movs	r0, #1
 371              	.LVL27:
 246:stm32f4xx-hal-driver/Src/stm32f4xx_hal_dac_ex.c ****   }
 372              		.loc 1 246 12 view .LVU103
 373 003c 7047     		bx	lr
 374              	.LVL28:
 375              	.L27:
 254:stm32f4xx-hal-driver/Src/stm32f4xx_hal_dac_ex.c **** 
 376              		.loc 1 254 3 view .LVU104
 377 003e 0220     		movs	r0, #2
 378              		.loc 1 271 1 view .LVU105
 379 0040 7047     		bx	lr
 380              		.cfi_endproc
 381              	.LFE242:
 383              		.section	.text.HAL_DACEx_DualSetValue,"ax",%progbits
 384              		.align	1
 385              		.global	HAL_DACEx_DualSetValue
 386              		.syntax unified
 387              		.thumb
 388              		.thumb_func
 389              		.fpu fpv4-sp-d16
 391              	HAL_DACEx_DualSetValue:
 392              	.LVL29:
 393              	.LFB243:
 272:stm32f4xx-hal-driver/Src/stm32f4xx_hal_dac_ex.c **** 
 273:stm32f4xx-hal-driver/Src/stm32f4xx_hal_dac_ex.c **** #if defined(DAC_CHANNEL2_SUPPORT)
 274:stm32f4xx-hal-driver/Src/stm32f4xx_hal_dac_ex.c **** /**
 275:stm32f4xx-hal-driver/Src/stm32f4xx_hal_dac_ex.c ****   * @brief  Set the specified data holding register value for dual DAC channel.
 276:stm32f4xx-hal-driver/Src/stm32f4xx_hal_dac_ex.c ****   * @param  hdac pointer to a DAC_HandleTypeDef structure that contains
 277:stm32f4xx-hal-driver/Src/stm32f4xx_hal_dac_ex.c ****   *               the configuration information for the specified DAC.
 278:stm32f4xx-hal-driver/Src/stm32f4xx_hal_dac_ex.c ****   * @param  Alignment Specifies the data alignment for dual channel DAC.
 279:stm32f4xx-hal-driver/Src/stm32f4xx_hal_dac_ex.c ****   *          This parameter can be one of the following values:
 280:stm32f4xx-hal-driver/Src/stm32f4xx_hal_dac_ex.c ****   *            DAC_ALIGN_8B_R: 8bit right data alignment selected
 281:stm32f4xx-hal-driver/Src/stm32f4xx_hal_dac_ex.c ****   *            DAC_ALIGN_12B_L: 12bit left data alignment selected
 282:stm32f4xx-hal-driver/Src/stm32f4xx_hal_dac_ex.c ****   *            DAC_ALIGN_12B_R: 12bit right data alignment selected
ARM GAS  /tmp/ccDyYvhH.s 			page 13


 283:stm32f4xx-hal-driver/Src/stm32f4xx_hal_dac_ex.c ****   * @param  Data1 Data for DAC Channel1 to be loaded in the selected data holding register.
 284:stm32f4xx-hal-driver/Src/stm32f4xx_hal_dac_ex.c ****   * @param  Data2 Data for DAC Channel2 to be loaded in the selected data  holding register.
 285:stm32f4xx-hal-driver/Src/stm32f4xx_hal_dac_ex.c ****   * @note   In dual mode, a unique register access is required to write in both
 286:stm32f4xx-hal-driver/Src/stm32f4xx_hal_dac_ex.c ****   *          DAC channels at the same time.
 287:stm32f4xx-hal-driver/Src/stm32f4xx_hal_dac_ex.c ****   * @retval HAL status
 288:stm32f4xx-hal-driver/Src/stm32f4xx_hal_dac_ex.c ****   */
 289:stm32f4xx-hal-driver/Src/stm32f4xx_hal_dac_ex.c **** HAL_StatusTypeDef HAL_DACEx_DualSetValue(DAC_HandleTypeDef *hdac, uint32_t Alignment, uint32_t Data
 290:stm32f4xx-hal-driver/Src/stm32f4xx_hal_dac_ex.c **** {
 394              		.loc 1 290 1 is_stmt 1 view -0
 395              		.cfi_startproc
 396              		@ args = 0, pretend = 0, frame = 0
 397              		@ frame_needed = 0, uses_anonymous_args = 0
 398              		@ link register save eliminated.
 291:stm32f4xx-hal-driver/Src/stm32f4xx_hal_dac_ex.c ****   uint32_t data;
 399              		.loc 1 291 3 view .LVU107
 292:stm32f4xx-hal-driver/Src/stm32f4xx_hal_dac_ex.c ****   uint32_t tmp;
 400              		.loc 1 292 3 view .LVU108
 293:stm32f4xx-hal-driver/Src/stm32f4xx_hal_dac_ex.c **** 
 294:stm32f4xx-hal-driver/Src/stm32f4xx_hal_dac_ex.c ****   /* Check the DAC peripheral handle */
 295:stm32f4xx-hal-driver/Src/stm32f4xx_hal_dac_ex.c ****   if (hdac == NULL)
 401              		.loc 1 295 3 view .LVU109
 402              		.loc 1 295 6 is_stmt 0 view .LVU110
 403 0000 78B1     		cbz	r0, .L36
 290:stm32f4xx-hal-driver/Src/stm32f4xx_hal_dac_ex.c ****   uint32_t data;
 404              		.loc 1 290 1 view .LVU111
 405 0002 10B4     		push	{r4}
 406              	.LCFI8:
 407              		.cfi_def_cfa_offset 4
 408              		.cfi_offset 4, -4
 409 0004 0446     		mov	r4, r0
 296:stm32f4xx-hal-driver/Src/stm32f4xx_hal_dac_ex.c ****   {
 297:stm32f4xx-hal-driver/Src/stm32f4xx_hal_dac_ex.c ****     return HAL_ERROR;
 298:stm32f4xx-hal-driver/Src/stm32f4xx_hal_dac_ex.c ****   }
 299:stm32f4xx-hal-driver/Src/stm32f4xx_hal_dac_ex.c **** 
 300:stm32f4xx-hal-driver/Src/stm32f4xx_hal_dac_ex.c ****   /* Check the parameters */
 301:stm32f4xx-hal-driver/Src/stm32f4xx_hal_dac_ex.c ****   assert_param(IS_DAC_ALIGN(Alignment));
 410              		.loc 1 301 3 is_stmt 1 view .LVU112
 302:stm32f4xx-hal-driver/Src/stm32f4xx_hal_dac_ex.c ****   assert_param(IS_DAC_DATA(Data1));
 411              		.loc 1 302 3 view .LVU113
 303:stm32f4xx-hal-driver/Src/stm32f4xx_hal_dac_ex.c ****   assert_param(IS_DAC_DATA(Data2));
 412              		.loc 1 303 3 view .LVU114
 304:stm32f4xx-hal-driver/Src/stm32f4xx_hal_dac_ex.c **** 
 305:stm32f4xx-hal-driver/Src/stm32f4xx_hal_dac_ex.c ****   /* Calculate and set dual DAC data holding register value */
 306:stm32f4xx-hal-driver/Src/stm32f4xx_hal_dac_ex.c ****   if (Alignment == DAC_ALIGN_8B_R)
 413              		.loc 1 306 3 view .LVU115
 414              		.loc 1 306 6 is_stmt 0 view .LVU116
 415 0006 0829     		cmp	r1, #8
 416 0008 08D0     		beq	.L41
 307:stm32f4xx-hal-driver/Src/stm32f4xx_hal_dac_ex.c ****   {
 308:stm32f4xx-hal-driver/Src/stm32f4xx_hal_dac_ex.c ****     data = ((uint32_t)Data2 << 8U) | Data1;
 309:stm32f4xx-hal-driver/Src/stm32f4xx_hal_dac_ex.c ****   }
 310:stm32f4xx-hal-driver/Src/stm32f4xx_hal_dac_ex.c ****   else
 311:stm32f4xx-hal-driver/Src/stm32f4xx_hal_dac_ex.c ****   {
 312:stm32f4xx-hal-driver/Src/stm32f4xx_hal_dac_ex.c ****     data = ((uint32_t)Data2 << 16U) | Data1;
 417              		.loc 1 312 5 is_stmt 1 view .LVU117
 418              		.loc 1 312 10 is_stmt 0 view .LVU118
 419 000a 42EA0342 		orr	r2, r2, r3, lsl #16
ARM GAS  /tmp/ccDyYvhH.s 			page 14


 420              	.LVL30:
 421              	.L35:
 313:stm32f4xx-hal-driver/Src/stm32f4xx_hal_dac_ex.c ****   }
 314:stm32f4xx-hal-driver/Src/stm32f4xx_hal_dac_ex.c **** 
 315:stm32f4xx-hal-driver/Src/stm32f4xx_hal_dac_ex.c ****   tmp = (uint32_t)hdac->Instance;
 422              		.loc 1 315 3 is_stmt 1 view .LVU119
 423              		.loc 1 315 23 is_stmt 0 view .LVU120
 424 000e 2368     		ldr	r3, [r4]
 425              	.LVL31:
 316:stm32f4xx-hal-driver/Src/stm32f4xx_hal_dac_ex.c ****   tmp += DAC_DHR12RD_ALIGNMENT(Alignment);
 426              		.loc 1 316 3 is_stmt 1 view .LVU121
 427              		.loc 1 316 7 is_stmt 0 view .LVU122
 428 0010 1944     		add	r1, r1, r3
 429              	.LVL32:
 317:stm32f4xx-hal-driver/Src/stm32f4xx_hal_dac_ex.c **** 
 318:stm32f4xx-hal-driver/Src/stm32f4xx_hal_dac_ex.c ****   /* Set the dual DAC selected data holding register */
 319:stm32f4xx-hal-driver/Src/stm32f4xx_hal_dac_ex.c ****   *(__IO uint32_t *)tmp = data;
 430              		.loc 1 319 3 is_stmt 1 view .LVU123
 431              		.loc 1 319 25 is_stmt 0 view .LVU124
 432 0012 0A62     		str	r2, [r1, #32]
 320:stm32f4xx-hal-driver/Src/stm32f4xx_hal_dac_ex.c **** 
 321:stm32f4xx-hal-driver/Src/stm32f4xx_hal_dac_ex.c ****   /* Return function status */
 322:stm32f4xx-hal-driver/Src/stm32f4xx_hal_dac_ex.c ****   return HAL_OK;
 433              		.loc 1 322 3 is_stmt 1 view .LVU125
 434              		.loc 1 322 10 is_stmt 0 view .LVU126
 435 0014 0020     		movs	r0, #0
 436              	.LVL33:
 323:stm32f4xx-hal-driver/Src/stm32f4xx_hal_dac_ex.c **** }
 437              		.loc 1 323 1 view .LVU127
 438 0016 5DF8044B 		ldr	r4, [sp], #4
 439              	.LCFI9:
 440              		.cfi_remember_state
 441              		.cfi_restore 4
 442              		.cfi_def_cfa_offset 0
 443              	.LVL34:
 444              		.loc 1 323 1 view .LVU128
 445 001a 7047     		bx	lr
 446              	.LVL35:
 447              	.L41:
 448              	.LCFI10:
 449              		.cfi_restore_state
 308:stm32f4xx-hal-driver/Src/stm32f4xx_hal_dac_ex.c ****   }
 450              		.loc 1 308 5 is_stmt 1 view .LVU129
 308:stm32f4xx-hal-driver/Src/stm32f4xx_hal_dac_ex.c ****   }
 451              		.loc 1 308 10 is_stmt 0 view .LVU130
 452 001c 42EA0322 		orr	r2, r2, r3, lsl #8
 453              	.LVL36:
 308:stm32f4xx-hal-driver/Src/stm32f4xx_hal_dac_ex.c ****   }
 454              		.loc 1 308 10 view .LVU131
 455 0020 F5E7     		b	.L35
 456              	.LVL37:
 457              	.L36:
 458              	.LCFI11:
 459              		.cfi_def_cfa_offset 0
 460              		.cfi_restore 4
 297:stm32f4xx-hal-driver/Src/stm32f4xx_hal_dac_ex.c ****   }
 461              		.loc 1 297 12 view .LVU132
ARM GAS  /tmp/ccDyYvhH.s 			page 15


 462 0022 0120     		movs	r0, #1
 463              	.LVL38:
 464              		.loc 1 323 1 view .LVU133
 465 0024 7047     		bx	lr
 466              		.cfi_endproc
 467              	.LFE243:
 469              		.section	.text.HAL_DACEx_ConvCpltCallbackCh2,"ax",%progbits
 470              		.align	1
 471              		.weak	HAL_DACEx_ConvCpltCallbackCh2
 472              		.syntax unified
 473              		.thumb
 474              		.thumb_func
 475              		.fpu fpv4-sp-d16
 477              	HAL_DACEx_ConvCpltCallbackCh2:
 478              	.LVL39:
 479              	.LFB244:
 324:stm32f4xx-hal-driver/Src/stm32f4xx_hal_dac_ex.c **** 
 325:stm32f4xx-hal-driver/Src/stm32f4xx_hal_dac_ex.c **** /**
 326:stm32f4xx-hal-driver/Src/stm32f4xx_hal_dac_ex.c ****   * @brief  Conversion complete callback in non-blocking mode for Channel2.
 327:stm32f4xx-hal-driver/Src/stm32f4xx_hal_dac_ex.c ****   * @param  hdac pointer to a DAC_HandleTypeDef structure that contains
 328:stm32f4xx-hal-driver/Src/stm32f4xx_hal_dac_ex.c ****   *         the configuration information for the specified DAC.
 329:stm32f4xx-hal-driver/Src/stm32f4xx_hal_dac_ex.c ****   * @retval None
 330:stm32f4xx-hal-driver/Src/stm32f4xx_hal_dac_ex.c ****   */
 331:stm32f4xx-hal-driver/Src/stm32f4xx_hal_dac_ex.c **** __weak void HAL_DACEx_ConvCpltCallbackCh2(DAC_HandleTypeDef *hdac)
 332:stm32f4xx-hal-driver/Src/stm32f4xx_hal_dac_ex.c **** {
 480              		.loc 1 332 1 is_stmt 1 view -0
 481              		.cfi_startproc
 482              		@ args = 0, pretend = 0, frame = 0
 483              		@ frame_needed = 0, uses_anonymous_args = 0
 484              		@ link register save eliminated.
 333:stm32f4xx-hal-driver/Src/stm32f4xx_hal_dac_ex.c ****   /* Prevent unused argument(s) compilation warning */
 334:stm32f4xx-hal-driver/Src/stm32f4xx_hal_dac_ex.c ****   UNUSED(hdac);
 485              		.loc 1 334 3 view .LVU135
 335:stm32f4xx-hal-driver/Src/stm32f4xx_hal_dac_ex.c **** 
 336:stm32f4xx-hal-driver/Src/stm32f4xx_hal_dac_ex.c ****   /* NOTE : This function should not be modified, when the callback is needed,
 337:stm32f4xx-hal-driver/Src/stm32f4xx_hal_dac_ex.c ****             the HAL_DACEx_ConvCpltCallbackCh2 could be implemented in the user file
 338:stm32f4xx-hal-driver/Src/stm32f4xx_hal_dac_ex.c ****    */
 339:stm32f4xx-hal-driver/Src/stm32f4xx_hal_dac_ex.c **** }
 486              		.loc 1 339 1 is_stmt 0 view .LVU136
 487 0000 7047     		bx	lr
 488              		.cfi_endproc
 489              	.LFE244:
 491              		.section	.text.HAL_DACEx_ConvHalfCpltCallbackCh2,"ax",%progbits
 492              		.align	1
 493              		.weak	HAL_DACEx_ConvHalfCpltCallbackCh2
 494              		.syntax unified
 495              		.thumb
 496              		.thumb_func
 497              		.fpu fpv4-sp-d16
 499              	HAL_DACEx_ConvHalfCpltCallbackCh2:
 500              	.LVL40:
 501              	.LFB245:
 340:stm32f4xx-hal-driver/Src/stm32f4xx_hal_dac_ex.c **** 
 341:stm32f4xx-hal-driver/Src/stm32f4xx_hal_dac_ex.c **** /**
 342:stm32f4xx-hal-driver/Src/stm32f4xx_hal_dac_ex.c ****   * @brief  Conversion half DMA transfer callback in non-blocking mode for Channel2.
 343:stm32f4xx-hal-driver/Src/stm32f4xx_hal_dac_ex.c ****   * @param  hdac pointer to a DAC_HandleTypeDef structure that contains
 344:stm32f4xx-hal-driver/Src/stm32f4xx_hal_dac_ex.c ****   *         the configuration information for the specified DAC.
ARM GAS  /tmp/ccDyYvhH.s 			page 16


 345:stm32f4xx-hal-driver/Src/stm32f4xx_hal_dac_ex.c ****   * @retval None
 346:stm32f4xx-hal-driver/Src/stm32f4xx_hal_dac_ex.c ****   */
 347:stm32f4xx-hal-driver/Src/stm32f4xx_hal_dac_ex.c **** __weak void HAL_DACEx_ConvHalfCpltCallbackCh2(DAC_HandleTypeDef *hdac)
 348:stm32f4xx-hal-driver/Src/stm32f4xx_hal_dac_ex.c **** {
 502              		.loc 1 348 1 is_stmt 1 view -0
 503              		.cfi_startproc
 504              		@ args = 0, pretend = 0, frame = 0
 505              		@ frame_needed = 0, uses_anonymous_args = 0
 506              		@ link register save eliminated.
 349:stm32f4xx-hal-driver/Src/stm32f4xx_hal_dac_ex.c ****   /* Prevent unused argument(s) compilation warning */
 350:stm32f4xx-hal-driver/Src/stm32f4xx_hal_dac_ex.c ****   UNUSED(hdac);
 507              		.loc 1 350 3 view .LVU138
 351:stm32f4xx-hal-driver/Src/stm32f4xx_hal_dac_ex.c **** 
 352:stm32f4xx-hal-driver/Src/stm32f4xx_hal_dac_ex.c ****   /* NOTE : This function should not be modified, when the callback is needed,
 353:stm32f4xx-hal-driver/Src/stm32f4xx_hal_dac_ex.c ****             the HAL_DACEx_ConvHalfCpltCallbackCh2 could be implemented in the user file
 354:stm32f4xx-hal-driver/Src/stm32f4xx_hal_dac_ex.c ****    */
 355:stm32f4xx-hal-driver/Src/stm32f4xx_hal_dac_ex.c **** }
 508              		.loc 1 355 1 is_stmt 0 view .LVU139
 509 0000 7047     		bx	lr
 510              		.cfi_endproc
 511              	.LFE245:
 513              		.section	.text.HAL_DACEx_ErrorCallbackCh2,"ax",%progbits
 514              		.align	1
 515              		.weak	HAL_DACEx_ErrorCallbackCh2
 516              		.syntax unified
 517              		.thumb
 518              		.thumb_func
 519              		.fpu fpv4-sp-d16
 521              	HAL_DACEx_ErrorCallbackCh2:
 522              	.LVL41:
 523              	.LFB246:
 356:stm32f4xx-hal-driver/Src/stm32f4xx_hal_dac_ex.c **** 
 357:stm32f4xx-hal-driver/Src/stm32f4xx_hal_dac_ex.c **** /**
 358:stm32f4xx-hal-driver/Src/stm32f4xx_hal_dac_ex.c ****   * @brief  Error DAC callback for Channel2.
 359:stm32f4xx-hal-driver/Src/stm32f4xx_hal_dac_ex.c ****   * @param  hdac pointer to a DAC_HandleTypeDef structure that contains
 360:stm32f4xx-hal-driver/Src/stm32f4xx_hal_dac_ex.c ****   *         the configuration information for the specified DAC.
 361:stm32f4xx-hal-driver/Src/stm32f4xx_hal_dac_ex.c ****   * @retval None
 362:stm32f4xx-hal-driver/Src/stm32f4xx_hal_dac_ex.c ****   */
 363:stm32f4xx-hal-driver/Src/stm32f4xx_hal_dac_ex.c **** __weak void HAL_DACEx_ErrorCallbackCh2(DAC_HandleTypeDef *hdac)
 364:stm32f4xx-hal-driver/Src/stm32f4xx_hal_dac_ex.c **** {
 524              		.loc 1 364 1 is_stmt 1 view -0
 525              		.cfi_startproc
 526              		@ args = 0, pretend = 0, frame = 0
 527              		@ frame_needed = 0, uses_anonymous_args = 0
 528              		@ link register save eliminated.
 365:stm32f4xx-hal-driver/Src/stm32f4xx_hal_dac_ex.c ****   /* Prevent unused argument(s) compilation warning */
 366:stm32f4xx-hal-driver/Src/stm32f4xx_hal_dac_ex.c ****   UNUSED(hdac);
 529              		.loc 1 366 3 view .LVU141
 367:stm32f4xx-hal-driver/Src/stm32f4xx_hal_dac_ex.c **** 
 368:stm32f4xx-hal-driver/Src/stm32f4xx_hal_dac_ex.c ****   /* NOTE : This function should not be modified, when the callback is needed,
 369:stm32f4xx-hal-driver/Src/stm32f4xx_hal_dac_ex.c ****             the HAL_DACEx_ErrorCallbackCh2 could be implemented in the user file
 370:stm32f4xx-hal-driver/Src/stm32f4xx_hal_dac_ex.c ****    */
 371:stm32f4xx-hal-driver/Src/stm32f4xx_hal_dac_ex.c **** }
 530              		.loc 1 371 1 is_stmt 0 view .LVU142
 531 0000 7047     		bx	lr
 532              		.cfi_endproc
 533              	.LFE246:
ARM GAS  /tmp/ccDyYvhH.s 			page 17


 535              		.section	.text.HAL_DACEx_DMAUnderrunCallbackCh2,"ax",%progbits
 536              		.align	1
 537              		.weak	HAL_DACEx_DMAUnderrunCallbackCh2
 538              		.syntax unified
 539              		.thumb
 540              		.thumb_func
 541              		.fpu fpv4-sp-d16
 543              	HAL_DACEx_DMAUnderrunCallbackCh2:
 544              	.LVL42:
 545              	.LFB247:
 372:stm32f4xx-hal-driver/Src/stm32f4xx_hal_dac_ex.c **** 
 373:stm32f4xx-hal-driver/Src/stm32f4xx_hal_dac_ex.c **** /**
 374:stm32f4xx-hal-driver/Src/stm32f4xx_hal_dac_ex.c ****   * @brief  DMA underrun DAC callback for Channel2.
 375:stm32f4xx-hal-driver/Src/stm32f4xx_hal_dac_ex.c ****   * @param  hdac pointer to a DAC_HandleTypeDef structure that contains
 376:stm32f4xx-hal-driver/Src/stm32f4xx_hal_dac_ex.c ****   *         the configuration information for the specified DAC.
 377:stm32f4xx-hal-driver/Src/stm32f4xx_hal_dac_ex.c ****   * @retval None
 378:stm32f4xx-hal-driver/Src/stm32f4xx_hal_dac_ex.c ****   */
 379:stm32f4xx-hal-driver/Src/stm32f4xx_hal_dac_ex.c **** __weak void HAL_DACEx_DMAUnderrunCallbackCh2(DAC_HandleTypeDef *hdac)
 380:stm32f4xx-hal-driver/Src/stm32f4xx_hal_dac_ex.c **** {
 546              		.loc 1 380 1 is_stmt 1 view -0
 547              		.cfi_startproc
 548              		@ args = 0, pretend = 0, frame = 0
 549              		@ frame_needed = 0, uses_anonymous_args = 0
 550              		@ link register save eliminated.
 381:stm32f4xx-hal-driver/Src/stm32f4xx_hal_dac_ex.c ****   /* Prevent unused argument(s) compilation warning */
 382:stm32f4xx-hal-driver/Src/stm32f4xx_hal_dac_ex.c ****   UNUSED(hdac);
 551              		.loc 1 382 3 view .LVU144
 383:stm32f4xx-hal-driver/Src/stm32f4xx_hal_dac_ex.c **** 
 384:stm32f4xx-hal-driver/Src/stm32f4xx_hal_dac_ex.c ****   /* NOTE : This function should not be modified, when the callback is needed,
 385:stm32f4xx-hal-driver/Src/stm32f4xx_hal_dac_ex.c ****             the HAL_DACEx_DMAUnderrunCallbackCh2 could be implemented in the user file
 386:stm32f4xx-hal-driver/Src/stm32f4xx_hal_dac_ex.c ****    */
 387:stm32f4xx-hal-driver/Src/stm32f4xx_hal_dac_ex.c **** }
 552              		.loc 1 387 1 is_stmt 0 view .LVU145
 553 0000 7047     		bx	lr
 554              		.cfi_endproc
 555              	.LFE247:
 557              		.section	.text.HAL_DACEx_DualGetValue,"ax",%progbits
 558              		.align	1
 559              		.global	HAL_DACEx_DualGetValue
 560              		.syntax unified
 561              		.thumb
 562              		.thumb_func
 563              		.fpu fpv4-sp-d16
 565              	HAL_DACEx_DualGetValue:
 566              	.LVL43:
 567              	.LFB248:
 388:stm32f4xx-hal-driver/Src/stm32f4xx_hal_dac_ex.c **** #endif /* DAC_CHANNEL2_SUPPORT */
 389:stm32f4xx-hal-driver/Src/stm32f4xx_hal_dac_ex.c **** 
 390:stm32f4xx-hal-driver/Src/stm32f4xx_hal_dac_ex.c **** 
 391:stm32f4xx-hal-driver/Src/stm32f4xx_hal_dac_ex.c **** /**
 392:stm32f4xx-hal-driver/Src/stm32f4xx_hal_dac_ex.c ****   * @}
 393:stm32f4xx-hal-driver/Src/stm32f4xx_hal_dac_ex.c ****   */
 394:stm32f4xx-hal-driver/Src/stm32f4xx_hal_dac_ex.c **** 
 395:stm32f4xx-hal-driver/Src/stm32f4xx_hal_dac_ex.c **** /** @defgroup DACEx_Exported_Functions_Group3 Peripheral Control functions
 396:stm32f4xx-hal-driver/Src/stm32f4xx_hal_dac_ex.c ****   *  @brief    Extended Peripheral Control functions
 397:stm32f4xx-hal-driver/Src/stm32f4xx_hal_dac_ex.c ****   *
 398:stm32f4xx-hal-driver/Src/stm32f4xx_hal_dac_ex.c **** @verbatim
ARM GAS  /tmp/ccDyYvhH.s 			page 18


 399:stm32f4xx-hal-driver/Src/stm32f4xx_hal_dac_ex.c ****   ==============================================================================
 400:stm32f4xx-hal-driver/Src/stm32f4xx_hal_dac_ex.c ****              ##### Peripheral Control functions #####
 401:stm32f4xx-hal-driver/Src/stm32f4xx_hal_dac_ex.c ****   ==============================================================================
 402:stm32f4xx-hal-driver/Src/stm32f4xx_hal_dac_ex.c ****     [..]  This section provides functions allowing to:
 403:stm32f4xx-hal-driver/Src/stm32f4xx_hal_dac_ex.c ****       (+) Set the specified data holding register value for DAC channel.
 404:stm32f4xx-hal-driver/Src/stm32f4xx_hal_dac_ex.c **** 
 405:stm32f4xx-hal-driver/Src/stm32f4xx_hal_dac_ex.c **** @endverbatim
 406:stm32f4xx-hal-driver/Src/stm32f4xx_hal_dac_ex.c ****   * @{
 407:stm32f4xx-hal-driver/Src/stm32f4xx_hal_dac_ex.c ****   */
 408:stm32f4xx-hal-driver/Src/stm32f4xx_hal_dac_ex.c **** 
 409:stm32f4xx-hal-driver/Src/stm32f4xx_hal_dac_ex.c **** #if defined(DAC_CHANNEL2_SUPPORT)
 410:stm32f4xx-hal-driver/Src/stm32f4xx_hal_dac_ex.c **** /**
 411:stm32f4xx-hal-driver/Src/stm32f4xx_hal_dac_ex.c ****   * @brief  Return the last data output value of the selected DAC channel.
 412:stm32f4xx-hal-driver/Src/stm32f4xx_hal_dac_ex.c ****   * @param  hdac pointer to a DAC_HandleTypeDef structure that contains
 413:stm32f4xx-hal-driver/Src/stm32f4xx_hal_dac_ex.c ****   *         the configuration information for the specified DAC.
 414:stm32f4xx-hal-driver/Src/stm32f4xx_hal_dac_ex.c ****   * @retval The selected DAC channel data output value.
 415:stm32f4xx-hal-driver/Src/stm32f4xx_hal_dac_ex.c ****   */
 416:stm32f4xx-hal-driver/Src/stm32f4xx_hal_dac_ex.c **** uint32_t HAL_DACEx_DualGetValue(const DAC_HandleTypeDef *hdac)
 417:stm32f4xx-hal-driver/Src/stm32f4xx_hal_dac_ex.c **** {
 568              		.loc 1 417 1 is_stmt 1 view -0
 569              		.cfi_startproc
 570              		@ args = 0, pretend = 0, frame = 0
 571              		@ frame_needed = 0, uses_anonymous_args = 0
 572              		@ link register save eliminated.
 418:stm32f4xx-hal-driver/Src/stm32f4xx_hal_dac_ex.c ****   uint32_t tmp = 0UL;
 573              		.loc 1 418 3 view .LVU147
 419:stm32f4xx-hal-driver/Src/stm32f4xx_hal_dac_ex.c **** 
 420:stm32f4xx-hal-driver/Src/stm32f4xx_hal_dac_ex.c ****   tmp |= hdac->Instance->DOR1;
 574              		.loc 1 420 3 view .LVU148
 575              		.loc 1 420 14 is_stmt 0 view .LVU149
 576 0000 0368     		ldr	r3, [r0]
 577              		.loc 1 420 24 view .LVU150
 578 0002 DA6A     		ldr	r2, [r3, #44]
 579              	.LVL44:
 421:stm32f4xx-hal-driver/Src/stm32f4xx_hal_dac_ex.c **** 
 422:stm32f4xx-hal-driver/Src/stm32f4xx_hal_dac_ex.c ****   tmp |= hdac->Instance->DOR2 << 16UL;
 580              		.loc 1 422 3 is_stmt 1 view .LVU151
 581              		.loc 1 422 24 is_stmt 0 view .LVU152
 582 0004 186B     		ldr	r0, [r3, #48]
 583              	.LVL45:
 423:stm32f4xx-hal-driver/Src/stm32f4xx_hal_dac_ex.c **** 
 424:stm32f4xx-hal-driver/Src/stm32f4xx_hal_dac_ex.c ****   /* Returns the DAC channel data output register value */
 425:stm32f4xx-hal-driver/Src/stm32f4xx_hal_dac_ex.c ****   return tmp;
 584              		.loc 1 425 3 is_stmt 1 view .LVU153
 426:stm32f4xx-hal-driver/Src/stm32f4xx_hal_dac_ex.c **** }
 585              		.loc 1 426 1 is_stmt 0 view .LVU154
 586 0006 42EA0040 		orr	r0, r2, r0, lsl #16
 587              	.LVL46:
 588              		.loc 1 426 1 view .LVU155
 589 000a 7047     		bx	lr
 590              		.cfi_endproc
 591              	.LFE248:
 593              		.section	.text.DAC_DMAConvCpltCh2,"ax",%progbits
 594              		.align	1
 595              		.global	DAC_DMAConvCpltCh2
 596              		.syntax unified
 597              		.thumb
ARM GAS  /tmp/ccDyYvhH.s 			page 19


 598              		.thumb_func
 599              		.fpu fpv4-sp-d16
 601              	DAC_DMAConvCpltCh2:
 602              	.LVL47:
 603              	.LFB249:
 427:stm32f4xx-hal-driver/Src/stm32f4xx_hal_dac_ex.c **** #endif /* DAC_CHANNEL2_SUPPORT */
 428:stm32f4xx-hal-driver/Src/stm32f4xx_hal_dac_ex.c **** 
 429:stm32f4xx-hal-driver/Src/stm32f4xx_hal_dac_ex.c **** /**
 430:stm32f4xx-hal-driver/Src/stm32f4xx_hal_dac_ex.c ****   * @}
 431:stm32f4xx-hal-driver/Src/stm32f4xx_hal_dac_ex.c ****   */
 432:stm32f4xx-hal-driver/Src/stm32f4xx_hal_dac_ex.c **** /**
 433:stm32f4xx-hal-driver/Src/stm32f4xx_hal_dac_ex.c ****   * @}
 434:stm32f4xx-hal-driver/Src/stm32f4xx_hal_dac_ex.c ****   */
 435:stm32f4xx-hal-driver/Src/stm32f4xx_hal_dac_ex.c **** 
 436:stm32f4xx-hal-driver/Src/stm32f4xx_hal_dac_ex.c **** /* Private functions ---------------------------------------------------------*/
 437:stm32f4xx-hal-driver/Src/stm32f4xx_hal_dac_ex.c **** /** @defgroup DACEx_Private_Functions DACEx private functions
 438:stm32f4xx-hal-driver/Src/stm32f4xx_hal_dac_ex.c ****   *  @brief    Extended private functions
 439:stm32f4xx-hal-driver/Src/stm32f4xx_hal_dac_ex.c ****   * @{
 440:stm32f4xx-hal-driver/Src/stm32f4xx_hal_dac_ex.c ****   */
 441:stm32f4xx-hal-driver/Src/stm32f4xx_hal_dac_ex.c **** 
 442:stm32f4xx-hal-driver/Src/stm32f4xx_hal_dac_ex.c **** #if defined(DAC_CHANNEL2_SUPPORT)
 443:stm32f4xx-hal-driver/Src/stm32f4xx_hal_dac_ex.c **** /**
 444:stm32f4xx-hal-driver/Src/stm32f4xx_hal_dac_ex.c ****   * @brief  DMA conversion complete callback.
 445:stm32f4xx-hal-driver/Src/stm32f4xx_hal_dac_ex.c ****   * @param  hdma pointer to a DMA_HandleTypeDef structure that contains
 446:stm32f4xx-hal-driver/Src/stm32f4xx_hal_dac_ex.c ****   *                the configuration information for the specified DMA module.
 447:stm32f4xx-hal-driver/Src/stm32f4xx_hal_dac_ex.c ****   * @retval None
 448:stm32f4xx-hal-driver/Src/stm32f4xx_hal_dac_ex.c ****   */
 449:stm32f4xx-hal-driver/Src/stm32f4xx_hal_dac_ex.c **** void DAC_DMAConvCpltCh2(DMA_HandleTypeDef *hdma)
 450:stm32f4xx-hal-driver/Src/stm32f4xx_hal_dac_ex.c **** {
 604              		.loc 1 450 1 is_stmt 1 view -0
 605              		.cfi_startproc
 606              		@ args = 0, pretend = 0, frame = 0
 607              		@ frame_needed = 0, uses_anonymous_args = 0
 608              		.loc 1 450 1 is_stmt 0 view .LVU157
 609 0000 10B5     		push	{r4, lr}
 610              	.LCFI12:
 611              		.cfi_def_cfa_offset 8
 612              		.cfi_offset 4, -8
 613              		.cfi_offset 14, -4
 451:stm32f4xx-hal-driver/Src/stm32f4xx_hal_dac_ex.c ****   DAC_HandleTypeDef *hdac = (DAC_HandleTypeDef *)((DMA_HandleTypeDef *)hdma)->Parent;
 614              		.loc 1 451 3 is_stmt 1 view .LVU158
 615              		.loc 1 451 22 is_stmt 0 view .LVU159
 616 0002 846B     		ldr	r4, [r0, #56]
 617              	.LVL48:
 452:stm32f4xx-hal-driver/Src/stm32f4xx_hal_dac_ex.c **** 
 453:stm32f4xx-hal-driver/Src/stm32f4xx_hal_dac_ex.c **** #if (USE_HAL_DAC_REGISTER_CALLBACKS == 1)
 454:stm32f4xx-hal-driver/Src/stm32f4xx_hal_dac_ex.c ****   hdac->ConvCpltCallbackCh2(hdac);
 455:stm32f4xx-hal-driver/Src/stm32f4xx_hal_dac_ex.c **** #else
 456:stm32f4xx-hal-driver/Src/stm32f4xx_hal_dac_ex.c ****   HAL_DACEx_ConvCpltCallbackCh2(hdac);
 618              		.loc 1 456 3 is_stmt 1 view .LVU160
 619 0004 2046     		mov	r0, r4
 620              	.LVL49:
 621              		.loc 1 456 3 is_stmt 0 view .LVU161
 622 0006 FFF7FEFF 		bl	HAL_DACEx_ConvCpltCallbackCh2
 623              	.LVL50:
 457:stm32f4xx-hal-driver/Src/stm32f4xx_hal_dac_ex.c **** #endif /* USE_HAL_DAC_REGISTER_CALLBACKS */
 458:stm32f4xx-hal-driver/Src/stm32f4xx_hal_dac_ex.c **** 
ARM GAS  /tmp/ccDyYvhH.s 			page 20


 459:stm32f4xx-hal-driver/Src/stm32f4xx_hal_dac_ex.c ****   hdac->State = HAL_DAC_STATE_READY;
 624              		.loc 1 459 3 is_stmt 1 view .LVU162
 625              		.loc 1 459 15 is_stmt 0 view .LVU163
 626 000a 0123     		movs	r3, #1
 627 000c 2371     		strb	r3, [r4, #4]
 460:stm32f4xx-hal-driver/Src/stm32f4xx_hal_dac_ex.c **** }
 628              		.loc 1 460 1 view .LVU164
 629 000e 10BD     		pop	{r4, pc}
 630              		.loc 1 460 1 view .LVU165
 631              		.cfi_endproc
 632              	.LFE249:
 634              		.section	.text.DAC_DMAHalfConvCpltCh2,"ax",%progbits
 635              		.align	1
 636              		.global	DAC_DMAHalfConvCpltCh2
 637              		.syntax unified
 638              		.thumb
 639              		.thumb_func
 640              		.fpu fpv4-sp-d16
 642              	DAC_DMAHalfConvCpltCh2:
 643              	.LVL51:
 644              	.LFB250:
 461:stm32f4xx-hal-driver/Src/stm32f4xx_hal_dac_ex.c **** 
 462:stm32f4xx-hal-driver/Src/stm32f4xx_hal_dac_ex.c **** /**
 463:stm32f4xx-hal-driver/Src/stm32f4xx_hal_dac_ex.c ****   * @brief  DMA half transfer complete callback.
 464:stm32f4xx-hal-driver/Src/stm32f4xx_hal_dac_ex.c ****   * @param  hdma pointer to a DMA_HandleTypeDef structure that contains
 465:stm32f4xx-hal-driver/Src/stm32f4xx_hal_dac_ex.c ****   *                the configuration information for the specified DMA module.
 466:stm32f4xx-hal-driver/Src/stm32f4xx_hal_dac_ex.c ****   * @retval None
 467:stm32f4xx-hal-driver/Src/stm32f4xx_hal_dac_ex.c ****   */
 468:stm32f4xx-hal-driver/Src/stm32f4xx_hal_dac_ex.c **** void DAC_DMAHalfConvCpltCh2(DMA_HandleTypeDef *hdma)
 469:stm32f4xx-hal-driver/Src/stm32f4xx_hal_dac_ex.c **** {
 645              		.loc 1 469 1 is_stmt 1 view -0
 646              		.cfi_startproc
 647              		@ args = 0, pretend = 0, frame = 0
 648              		@ frame_needed = 0, uses_anonymous_args = 0
 649              		.loc 1 469 1 is_stmt 0 view .LVU167
 650 0000 08B5     		push	{r3, lr}
 651              	.LCFI13:
 652              		.cfi_def_cfa_offset 8
 653              		.cfi_offset 3, -8
 654              		.cfi_offset 14, -4
 470:stm32f4xx-hal-driver/Src/stm32f4xx_hal_dac_ex.c ****   DAC_HandleTypeDef *hdac = (DAC_HandleTypeDef *)((DMA_HandleTypeDef *)hdma)->Parent;
 655              		.loc 1 470 3 is_stmt 1 view .LVU168
 656              	.LVL52:
 471:stm32f4xx-hal-driver/Src/stm32f4xx_hal_dac_ex.c ****   /* Conversion complete callback */
 472:stm32f4xx-hal-driver/Src/stm32f4xx_hal_dac_ex.c **** #if (USE_HAL_DAC_REGISTER_CALLBACKS == 1)
 473:stm32f4xx-hal-driver/Src/stm32f4xx_hal_dac_ex.c ****   hdac->ConvHalfCpltCallbackCh2(hdac);
 474:stm32f4xx-hal-driver/Src/stm32f4xx_hal_dac_ex.c **** #else
 475:stm32f4xx-hal-driver/Src/stm32f4xx_hal_dac_ex.c ****   HAL_DACEx_ConvHalfCpltCallbackCh2(hdac);
 657              		.loc 1 475 3 view .LVU169
 658 0002 806B     		ldr	r0, [r0, #56]
 659              	.LVL53:
 660              		.loc 1 475 3 is_stmt 0 view .LVU170
 661 0004 FFF7FEFF 		bl	HAL_DACEx_ConvHalfCpltCallbackCh2
 662              	.LVL54:
 476:stm32f4xx-hal-driver/Src/stm32f4xx_hal_dac_ex.c **** #endif /* USE_HAL_DAC_REGISTER_CALLBACKS */
 477:stm32f4xx-hal-driver/Src/stm32f4xx_hal_dac_ex.c **** }
 663              		.loc 1 477 1 view .LVU171
ARM GAS  /tmp/ccDyYvhH.s 			page 21


 664 0008 08BD     		pop	{r3, pc}
 665              		.cfi_endproc
 666              	.LFE250:
 668              		.section	.text.DAC_DMAErrorCh2,"ax",%progbits
 669              		.align	1
 670              		.global	DAC_DMAErrorCh2
 671              		.syntax unified
 672              		.thumb
 673              		.thumb_func
 674              		.fpu fpv4-sp-d16
 676              	DAC_DMAErrorCh2:
 677              	.LVL55:
 678              	.LFB251:
 478:stm32f4xx-hal-driver/Src/stm32f4xx_hal_dac_ex.c **** 
 479:stm32f4xx-hal-driver/Src/stm32f4xx_hal_dac_ex.c **** /**
 480:stm32f4xx-hal-driver/Src/stm32f4xx_hal_dac_ex.c ****   * @brief  DMA error callback.
 481:stm32f4xx-hal-driver/Src/stm32f4xx_hal_dac_ex.c ****   * @param  hdma pointer to a DMA_HandleTypeDef structure that contains
 482:stm32f4xx-hal-driver/Src/stm32f4xx_hal_dac_ex.c ****   *                the configuration information for the specified DMA module.
 483:stm32f4xx-hal-driver/Src/stm32f4xx_hal_dac_ex.c ****   * @retval None
 484:stm32f4xx-hal-driver/Src/stm32f4xx_hal_dac_ex.c ****   */
 485:stm32f4xx-hal-driver/Src/stm32f4xx_hal_dac_ex.c **** void DAC_DMAErrorCh2(DMA_HandleTypeDef *hdma)
 486:stm32f4xx-hal-driver/Src/stm32f4xx_hal_dac_ex.c **** {
 679              		.loc 1 486 1 is_stmt 1 view -0
 680              		.cfi_startproc
 681              		@ args = 0, pretend = 0, frame = 0
 682              		@ frame_needed = 0, uses_anonymous_args = 0
 683              		.loc 1 486 1 is_stmt 0 view .LVU173
 684 0000 10B5     		push	{r4, lr}
 685              	.LCFI14:
 686              		.cfi_def_cfa_offset 8
 687              		.cfi_offset 4, -8
 688              		.cfi_offset 14, -4
 487:stm32f4xx-hal-driver/Src/stm32f4xx_hal_dac_ex.c ****   DAC_HandleTypeDef *hdac = (DAC_HandleTypeDef *)((DMA_HandleTypeDef *)hdma)->Parent;
 689              		.loc 1 487 3 is_stmt 1 view .LVU174
 690              		.loc 1 487 22 is_stmt 0 view .LVU175
 691 0002 846B     		ldr	r4, [r0, #56]
 692              	.LVL56:
 488:stm32f4xx-hal-driver/Src/stm32f4xx_hal_dac_ex.c **** 
 489:stm32f4xx-hal-driver/Src/stm32f4xx_hal_dac_ex.c ****   /* Set DAC error code to DMA error */
 490:stm32f4xx-hal-driver/Src/stm32f4xx_hal_dac_ex.c ****   hdac->ErrorCode |= HAL_DAC_ERROR_DMA;
 693              		.loc 1 490 3 is_stmt 1 view .LVU176
 694              		.loc 1 490 19 is_stmt 0 view .LVU177
 695 0004 2369     		ldr	r3, [r4, #16]
 696 0006 43F00403 		orr	r3, r3, #4
 697 000a 2361     		str	r3, [r4, #16]
 491:stm32f4xx-hal-driver/Src/stm32f4xx_hal_dac_ex.c **** 
 492:stm32f4xx-hal-driver/Src/stm32f4xx_hal_dac_ex.c **** #if (USE_HAL_DAC_REGISTER_CALLBACKS == 1)
 493:stm32f4xx-hal-driver/Src/stm32f4xx_hal_dac_ex.c ****   hdac->ErrorCallbackCh2(hdac);
 494:stm32f4xx-hal-driver/Src/stm32f4xx_hal_dac_ex.c **** #else
 495:stm32f4xx-hal-driver/Src/stm32f4xx_hal_dac_ex.c ****   HAL_DACEx_ErrorCallbackCh2(hdac);
 698              		.loc 1 495 3 is_stmt 1 view .LVU178
 699 000c 2046     		mov	r0, r4
 700              	.LVL57:
 701              		.loc 1 495 3 is_stmt 0 view .LVU179
 702 000e FFF7FEFF 		bl	HAL_DACEx_ErrorCallbackCh2
 703              	.LVL58:
 496:stm32f4xx-hal-driver/Src/stm32f4xx_hal_dac_ex.c **** #endif /* USE_HAL_DAC_REGISTER_CALLBACKS */
ARM GAS  /tmp/ccDyYvhH.s 			page 22


 497:stm32f4xx-hal-driver/Src/stm32f4xx_hal_dac_ex.c **** 
 498:stm32f4xx-hal-driver/Src/stm32f4xx_hal_dac_ex.c ****   hdac->State = HAL_DAC_STATE_READY;
 704              		.loc 1 498 3 is_stmt 1 view .LVU180
 705              		.loc 1 498 15 is_stmt 0 view .LVU181
 706 0012 0123     		movs	r3, #1
 707 0014 2371     		strb	r3, [r4, #4]
 499:stm32f4xx-hal-driver/Src/stm32f4xx_hal_dac_ex.c **** }
 708              		.loc 1 499 1 view .LVU182
 709 0016 10BD     		pop	{r4, pc}
 710              		.loc 1 499 1 view .LVU183
 711              		.cfi_endproc
 712              	.LFE251:
 714              		.text
 715              	.Letext0:
 716              		.file 2 "/opt/gcc_arm/gcc-arm-none-eabi-9-2019-q4-major/arm-none-eabi/include/machine/_default_typ
 717              		.file 3 "/opt/gcc_arm/gcc-arm-none-eabi-9-2019-q4-major/arm-none-eabi/include/sys/_stdint.h"
 718              		.file 4 "CMSIS_5/CMSIS/Core/Include/core_cm4.h"
 719              		.file 5 "cmsis-device-f4/Include/system_stm32f4xx.h"
 720              		.file 6 "cmsis-device-f4/Include/stm32f407xx.h"
 721              		.file 7 "stm32f4xx-hal-driver/Inc/stm32f4xx_hal_def.h"
 722              		.file 8 "stm32f4xx-hal-driver/Inc/stm32f4xx_hal_dma.h"
 723              		.file 9 "stm32f4xx-hal-driver/Inc/stm32f4xx_hal_dac.h"
 724              		.file 10 "stm32f4xx-hal-driver/Inc/stm32f4xx_hal.h"
ARM GAS  /tmp/ccDyYvhH.s 			page 23

