ARM GAS  /tmp/cczABQ1m.s 			page 1


   1              		.cpu cortex-m4
   2              		.eabi_attribute 27, 1
   3              		.eabi_attribute 28, 1
   4              		.eabi_attribute 20, 1
   5              		.eabi_attribute 21, 1
   6              		.eabi_attribute 23, 3
   7              		.eabi_attribute 24, 1
   8              		.eabi_attribute 25, 1
   9              		.eabi_attribute 26, 1
  10              		.eabi_attribute 30, 1
  11              		.eabi_attribute 34, 1
  12              		.eabi_attribute 18, 4
  13              		.file	"stm32f4xx_hal_msp_template.c"
  14              		.text
  15              	.Ltext0:
  16              		.cfi_sections	.debug_frame
  17              		.section	.text.HAL_MspInit,"ax",%progbits
  18              		.align	1
  19              		.weak	HAL_MspInit
  20              		.arch armv7e-m
  21              		.syntax unified
  22              		.thumb
  23              		.thumb_func
  24              		.fpu fpv4-sp-d16
  26              	HAL_MspInit:
  27              	.LFB132:
  28              		.file 1 "HALLIB/STM32F4xx_HAL_Driver/Src/stm32f4xx_hal_msp_template.c"
   1:HALLIB/STM32F4xx_HAL_Driver/Src/stm32f4xx_hal_msp_template.c **** /**
   2:HALLIB/STM32F4xx_HAL_Driver/Src/stm32f4xx_hal_msp_template.c ****   ******************************************************************************
   3:HALLIB/STM32F4xx_HAL_Driver/Src/stm32f4xx_hal_msp_template.c ****   * @file    stm32f4xx_hal_msp_template.c
   4:HALLIB/STM32F4xx_HAL_Driver/Src/stm32f4xx_hal_msp_template.c ****   * @author  MCD Application Team
   5:HALLIB/STM32F4xx_HAL_Driver/Src/stm32f4xx_hal_msp_template.c ****   * @brief   This file contains the HAL System and Peripheral (PPP) MSP initialization
   6:HALLIB/STM32F4xx_HAL_Driver/Src/stm32f4xx_hal_msp_template.c ****   *          and de-initialization functions.
   7:HALLIB/STM32F4xx_HAL_Driver/Src/stm32f4xx_hal_msp_template.c ****   *          It should be copied to the application folder and renamed into 'stm32f4xx_hal_msp.c'. 
   8:HALLIB/STM32F4xx_HAL_Driver/Src/stm32f4xx_hal_msp_template.c ****   ******************************************************************************
   9:HALLIB/STM32F4xx_HAL_Driver/Src/stm32f4xx_hal_msp_template.c ****   * @attention
  10:HALLIB/STM32F4xx_HAL_Driver/Src/stm32f4xx_hal_msp_template.c ****   *
  11:HALLIB/STM32F4xx_HAL_Driver/Src/stm32f4xx_hal_msp_template.c ****   * <h2><center>&copy; Copyright (c) 2017 STMicroelectronics.
  12:HALLIB/STM32F4xx_HAL_Driver/Src/stm32f4xx_hal_msp_template.c ****   * All rights reserved.</center></h2>
  13:HALLIB/STM32F4xx_HAL_Driver/Src/stm32f4xx_hal_msp_template.c ****   *
  14:HALLIB/STM32F4xx_HAL_Driver/Src/stm32f4xx_hal_msp_template.c ****   * This software component is licensed by ST under BSD 3-Clause license,
  15:HALLIB/STM32F4xx_HAL_Driver/Src/stm32f4xx_hal_msp_template.c ****   * the "License"; You may not use this file except in compliance with the
  16:HALLIB/STM32F4xx_HAL_Driver/Src/stm32f4xx_hal_msp_template.c ****   * License. You may obtain a copy of the License at:
  17:HALLIB/STM32F4xx_HAL_Driver/Src/stm32f4xx_hal_msp_template.c ****   *                        opensource.org/licenses/BSD-3-Clause
  18:HALLIB/STM32F4xx_HAL_Driver/Src/stm32f4xx_hal_msp_template.c ****   *
  19:HALLIB/STM32F4xx_HAL_Driver/Src/stm32f4xx_hal_msp_template.c ****   ******************************************************************************
  20:HALLIB/STM32F4xx_HAL_Driver/Src/stm32f4xx_hal_msp_template.c ****   */ 
  21:HALLIB/STM32F4xx_HAL_Driver/Src/stm32f4xx_hal_msp_template.c **** 
  22:HALLIB/STM32F4xx_HAL_Driver/Src/stm32f4xx_hal_msp_template.c **** /* Includes ------------------------------------------------------------------*/
  23:HALLIB/STM32F4xx_HAL_Driver/Src/stm32f4xx_hal_msp_template.c **** #include "stm32f4xx_hal.h"
  24:HALLIB/STM32F4xx_HAL_Driver/Src/stm32f4xx_hal_msp_template.c **** 
  25:HALLIB/STM32F4xx_HAL_Driver/Src/stm32f4xx_hal_msp_template.c **** /** @addtogroup STM32F4xx_HAL_Driver
  26:HALLIB/STM32F4xx_HAL_Driver/Src/stm32f4xx_hal_msp_template.c ****   * @{
  27:HALLIB/STM32F4xx_HAL_Driver/Src/stm32f4xx_hal_msp_template.c ****   */
  28:HALLIB/STM32F4xx_HAL_Driver/Src/stm32f4xx_hal_msp_template.c **** 
  29:HALLIB/STM32F4xx_HAL_Driver/Src/stm32f4xx_hal_msp_template.c **** /** @defgroup HAL_MSP HAL MSP
  30:HALLIB/STM32F4xx_HAL_Driver/Src/stm32f4xx_hal_msp_template.c ****   * @brief HAL MSP module.
ARM GAS  /tmp/cczABQ1m.s 			page 2


  31:HALLIB/STM32F4xx_HAL_Driver/Src/stm32f4xx_hal_msp_template.c ****   * @{
  32:HALLIB/STM32F4xx_HAL_Driver/Src/stm32f4xx_hal_msp_template.c ****   */
  33:HALLIB/STM32F4xx_HAL_Driver/Src/stm32f4xx_hal_msp_template.c **** 
  34:HALLIB/STM32F4xx_HAL_Driver/Src/stm32f4xx_hal_msp_template.c **** /* Private typedef -----------------------------------------------------------*/
  35:HALLIB/STM32F4xx_HAL_Driver/Src/stm32f4xx_hal_msp_template.c **** /* Private define ------------------------------------------------------------*/
  36:HALLIB/STM32F4xx_HAL_Driver/Src/stm32f4xx_hal_msp_template.c **** /* Private macro -------------------------------------------------------------*/
  37:HALLIB/STM32F4xx_HAL_Driver/Src/stm32f4xx_hal_msp_template.c **** /* Private variables ---------------------------------------------------------*/
  38:HALLIB/STM32F4xx_HAL_Driver/Src/stm32f4xx_hal_msp_template.c **** /* Private function prototypes -----------------------------------------------*/
  39:HALLIB/STM32F4xx_HAL_Driver/Src/stm32f4xx_hal_msp_template.c **** /* Private functions ---------------------------------------------------------*/
  40:HALLIB/STM32F4xx_HAL_Driver/Src/stm32f4xx_hal_msp_template.c **** 
  41:HALLIB/STM32F4xx_HAL_Driver/Src/stm32f4xx_hal_msp_template.c **** /** @defgroup HAL_MSP_Private_Functions HAL MSP Private Functions
  42:HALLIB/STM32F4xx_HAL_Driver/Src/stm32f4xx_hal_msp_template.c ****   * @{
  43:HALLIB/STM32F4xx_HAL_Driver/Src/stm32f4xx_hal_msp_template.c ****   */
  44:HALLIB/STM32F4xx_HAL_Driver/Src/stm32f4xx_hal_msp_template.c **** 
  45:HALLIB/STM32F4xx_HAL_Driver/Src/stm32f4xx_hal_msp_template.c **** /**
  46:HALLIB/STM32F4xx_HAL_Driver/Src/stm32f4xx_hal_msp_template.c ****   * @brief  Initializes the Global MSP.
  47:HALLIB/STM32F4xx_HAL_Driver/Src/stm32f4xx_hal_msp_template.c ****   * @note   This function is called from HAL_Init() function to perform system
  48:HALLIB/STM32F4xx_HAL_Driver/Src/stm32f4xx_hal_msp_template.c ****   *         level initialization (GPIOs, clock, DMA, interrupt).
  49:HALLIB/STM32F4xx_HAL_Driver/Src/stm32f4xx_hal_msp_template.c ****   * @retval None
  50:HALLIB/STM32F4xx_HAL_Driver/Src/stm32f4xx_hal_msp_template.c ****   */
  51:HALLIB/STM32F4xx_HAL_Driver/Src/stm32f4xx_hal_msp_template.c **** __weak void HAL_MspInit(void)
  52:HALLIB/STM32F4xx_HAL_Driver/Src/stm32f4xx_hal_msp_template.c **** {
  29              		.loc 1 52 1 view -0
  30              		.cfi_startproc
  31              		@ args = 0, pretend = 0, frame = 0
  32              		@ frame_needed = 0, uses_anonymous_args = 0
  33              		@ link register save eliminated.
  53:HALLIB/STM32F4xx_HAL_Driver/Src/stm32f4xx_hal_msp_template.c **** 
  54:HALLIB/STM32F4xx_HAL_Driver/Src/stm32f4xx_hal_msp_template.c **** }
  34              		.loc 1 54 1 view .LVU1
  35 0000 7047     		bx	lr
  36              		.cfi_endproc
  37              	.LFE132:
  39              		.section	.text.HAL_MspDeInit,"ax",%progbits
  40              		.align	1
  41              		.weak	HAL_MspDeInit
  42              		.syntax unified
  43              		.thumb
  44              		.thumb_func
  45              		.fpu fpv4-sp-d16
  47              	HAL_MspDeInit:
  48              	.LFB133:
  55:HALLIB/STM32F4xx_HAL_Driver/Src/stm32f4xx_hal_msp_template.c **** 
  56:HALLIB/STM32F4xx_HAL_Driver/Src/stm32f4xx_hal_msp_template.c **** /**
  57:HALLIB/STM32F4xx_HAL_Driver/Src/stm32f4xx_hal_msp_template.c ****   * @brief  DeInitializes the Global MSP.
  58:HALLIB/STM32F4xx_HAL_Driver/Src/stm32f4xx_hal_msp_template.c ****   * @note   This functiona is called from HAL_DeInit() function to perform system
  59:HALLIB/STM32F4xx_HAL_Driver/Src/stm32f4xx_hal_msp_template.c ****   *         level de-initialization (GPIOs, clock, DMA, interrupt).
  60:HALLIB/STM32F4xx_HAL_Driver/Src/stm32f4xx_hal_msp_template.c ****   * @retval None
  61:HALLIB/STM32F4xx_HAL_Driver/Src/stm32f4xx_hal_msp_template.c ****   */
  62:HALLIB/STM32F4xx_HAL_Driver/Src/stm32f4xx_hal_msp_template.c **** __weak void HAL_MspDeInit(void)
  63:HALLIB/STM32F4xx_HAL_Driver/Src/stm32f4xx_hal_msp_template.c **** {
  49              		.loc 1 63 1 view -0
  50              		.cfi_startproc
  51              		@ args = 0, pretend = 0, frame = 0
  52              		@ frame_needed = 0, uses_anonymous_args = 0
  53              		@ link register save eliminated.
  64:HALLIB/STM32F4xx_HAL_Driver/Src/stm32f4xx_hal_msp_template.c **** 
ARM GAS  /tmp/cczABQ1m.s 			page 3


  65:HALLIB/STM32F4xx_HAL_Driver/Src/stm32f4xx_hal_msp_template.c **** }
  54              		.loc 1 65 1 view .LVU3
  55 0000 7047     		bx	lr
  56              		.cfi_endproc
  57              	.LFE133:
  59              		.section	.text.HAL_PPP_MspInit,"ax",%progbits
  60              		.align	1
  61              		.weak	HAL_PPP_MspInit
  62              		.syntax unified
  63              		.thumb
  64              		.thumb_func
  65              		.fpu fpv4-sp-d16
  67              	HAL_PPP_MspInit:
  68              	.LFB134:
  66:HALLIB/STM32F4xx_HAL_Driver/Src/stm32f4xx_hal_msp_template.c **** 
  67:HALLIB/STM32F4xx_HAL_Driver/Src/stm32f4xx_hal_msp_template.c **** /**
  68:HALLIB/STM32F4xx_HAL_Driver/Src/stm32f4xx_hal_msp_template.c ****   * @brief  Initializes the PPP MSP.
  69:HALLIB/STM32F4xx_HAL_Driver/Src/stm32f4xx_hal_msp_template.c ****   * @note   This functiona is called from HAL_PPP_Init() function to perform 
  70:HALLIB/STM32F4xx_HAL_Driver/Src/stm32f4xx_hal_msp_template.c ****   *         peripheral(PPP) system level initialization (GPIOs, clock, DMA, interrupt)
  71:HALLIB/STM32F4xx_HAL_Driver/Src/stm32f4xx_hal_msp_template.c ****   * @retval None
  72:HALLIB/STM32F4xx_HAL_Driver/Src/stm32f4xx_hal_msp_template.c ****   */
  73:HALLIB/STM32F4xx_HAL_Driver/Src/stm32f4xx_hal_msp_template.c **** __weak void HAL_PPP_MspInit(void)
  74:HALLIB/STM32F4xx_HAL_Driver/Src/stm32f4xx_hal_msp_template.c **** {
  69              		.loc 1 74 1 view -0
  70              		.cfi_startproc
  71              		@ args = 0, pretend = 0, frame = 0
  72              		@ frame_needed = 0, uses_anonymous_args = 0
  73              		@ link register save eliminated.
  75:HALLIB/STM32F4xx_HAL_Driver/Src/stm32f4xx_hal_msp_template.c **** 
  76:HALLIB/STM32F4xx_HAL_Driver/Src/stm32f4xx_hal_msp_template.c **** }
  74              		.loc 1 76 1 view .LVU5
  75 0000 7047     		bx	lr
  76              		.cfi_endproc
  77              	.LFE134:
  79              		.section	.text.HAL_PPP_MspDeInit,"ax",%progbits
  80              		.align	1
  81              		.weak	HAL_PPP_MspDeInit
  82              		.syntax unified
  83              		.thumb
  84              		.thumb_func
  85              		.fpu fpv4-sp-d16
  87              	HAL_PPP_MspDeInit:
  88              	.LFB135:
  77:HALLIB/STM32F4xx_HAL_Driver/Src/stm32f4xx_hal_msp_template.c **** 
  78:HALLIB/STM32F4xx_HAL_Driver/Src/stm32f4xx_hal_msp_template.c **** /**
  79:HALLIB/STM32F4xx_HAL_Driver/Src/stm32f4xx_hal_msp_template.c ****   * @brief  DeInitializes the PPP MSP.
  80:HALLIB/STM32F4xx_HAL_Driver/Src/stm32f4xx_hal_msp_template.c ****   * @note   This functiona is called from HAL_PPP_DeInit() function to perform 
  81:HALLIB/STM32F4xx_HAL_Driver/Src/stm32f4xx_hal_msp_template.c ****   *         peripheral(PPP) system level de-initialization (GPIOs, clock, DMA, interrupt)
  82:HALLIB/STM32F4xx_HAL_Driver/Src/stm32f4xx_hal_msp_template.c ****   * @retval None
  83:HALLIB/STM32F4xx_HAL_Driver/Src/stm32f4xx_hal_msp_template.c ****   */
  84:HALLIB/STM32F4xx_HAL_Driver/Src/stm32f4xx_hal_msp_template.c **** __weak void HAL_PPP_MspDeInit(void)
  85:HALLIB/STM32F4xx_HAL_Driver/Src/stm32f4xx_hal_msp_template.c **** {
  89              		.loc 1 85 1 view -0
  90              		.cfi_startproc
  91              		@ args = 0, pretend = 0, frame = 0
  92              		@ frame_needed = 0, uses_anonymous_args = 0
  93              		@ link register save eliminated.
ARM GAS  /tmp/cczABQ1m.s 			page 4


  86:HALLIB/STM32F4xx_HAL_Driver/Src/stm32f4xx_hal_msp_template.c **** 
  87:HALLIB/STM32F4xx_HAL_Driver/Src/stm32f4xx_hal_msp_template.c **** }
  94              		.loc 1 87 1 view .LVU7
  95 0000 7047     		bx	lr
  96              		.cfi_endproc
  97              	.LFE135:
  99              		.text
 100              	.Letext0:
 101              		.file 2 "/opt/gcc_arm/gcc-arm-none-eabi-9-2019-q4-major/arm-none-eabi/include/machine/_default_typ
 102              		.file 3 "/opt/gcc_arm/gcc-arm-none-eabi-9-2019-q4-major/arm-none-eabi/include/sys/_stdint.h"
 103              		.file 4 "CORE/core_cm4.h"
 104              		.file 5 "USER/system_stm32f4xx.h"
ARM GAS  /tmp/cczABQ1m.s 			page 5

