ARM GAS  /tmp/ccsmgGwe.s 			page 1


   1              		.cpu cortex-m4
   2              		.eabi_attribute 27, 1
   3              		.eabi_attribute 28, 1
   4              		.eabi_attribute 20, 1
   5              		.eabi_attribute 21, 1
   6              		.eabi_attribute 23, 3
   7              		.eabi_attribute 24, 1
   8              		.eabi_attribute 25, 1
   9              		.eabi_attribute 26, 1
  10              		.eabi_attribute 30, 1
  11              		.eabi_attribute 34, 1
  12              		.eabi_attribute 18, 4
  13              		.file	"stm32f4xx_hal.c"
  14              		.text
  15              	.Ltext0:
  16              		.cfi_sections	.debug_frame
  17              		.section	.text.HAL_MspInit,"ax",%progbits
  18              		.align	1
  19              		.weak	HAL_MspInit
  20              		.arch armv7e-m
  21              		.syntax unified
  22              		.thumb
  23              		.thumb_func
  24              		.fpu fpv4-sp-d16
  26              	HAL_MspInit:
  27              	.LFB134:
  28              		.file 1 "HALLIB/STM32F4xx_HAL_Driver/Src/stm32f4xx_hal.c"
   1:HALLIB/STM32F4xx_HAL_Driver/Src/stm32f4xx_hal.c **** /**
   2:HALLIB/STM32F4xx_HAL_Driver/Src/stm32f4xx_hal.c ****   ******************************************************************************
   3:HALLIB/STM32F4xx_HAL_Driver/Src/stm32f4xx_hal.c ****   * @file    stm32f4xx_hal.c
   4:HALLIB/STM32F4xx_HAL_Driver/Src/stm32f4xx_hal.c ****   * @author  MCD Application Team
   5:HALLIB/STM32F4xx_HAL_Driver/Src/stm32f4xx_hal.c ****   * @brief   HAL module driver.
   6:HALLIB/STM32F4xx_HAL_Driver/Src/stm32f4xx_hal.c ****   *          This is the common part of the HAL initialization
   7:HALLIB/STM32F4xx_HAL_Driver/Src/stm32f4xx_hal.c ****   *
   8:HALLIB/STM32F4xx_HAL_Driver/Src/stm32f4xx_hal.c ****   @verbatim
   9:HALLIB/STM32F4xx_HAL_Driver/Src/stm32f4xx_hal.c ****   ==============================================================================
  10:HALLIB/STM32F4xx_HAL_Driver/Src/stm32f4xx_hal.c ****                      ##### How to use this driver #####
  11:HALLIB/STM32F4xx_HAL_Driver/Src/stm32f4xx_hal.c ****   ==============================================================================
  12:HALLIB/STM32F4xx_HAL_Driver/Src/stm32f4xx_hal.c ****     [..]
  13:HALLIB/STM32F4xx_HAL_Driver/Src/stm32f4xx_hal.c ****     The common HAL driver contains a set of generic and common APIs that can be
  14:HALLIB/STM32F4xx_HAL_Driver/Src/stm32f4xx_hal.c ****     used by the PPP peripheral drivers and the user to start using the HAL. 
  15:HALLIB/STM32F4xx_HAL_Driver/Src/stm32f4xx_hal.c ****     [..]
  16:HALLIB/STM32F4xx_HAL_Driver/Src/stm32f4xx_hal.c ****     The HAL contains two APIs' categories: 
  17:HALLIB/STM32F4xx_HAL_Driver/Src/stm32f4xx_hal.c ****          (+) Common HAL APIs
  18:HALLIB/STM32F4xx_HAL_Driver/Src/stm32f4xx_hal.c ****          (+) Services HAL APIs
  19:HALLIB/STM32F4xx_HAL_Driver/Src/stm32f4xx_hal.c **** 
  20:HALLIB/STM32F4xx_HAL_Driver/Src/stm32f4xx_hal.c ****   @endverbatim
  21:HALLIB/STM32F4xx_HAL_Driver/Src/stm32f4xx_hal.c ****   ******************************************************************************
  22:HALLIB/STM32F4xx_HAL_Driver/Src/stm32f4xx_hal.c ****   * @attention
  23:HALLIB/STM32F4xx_HAL_Driver/Src/stm32f4xx_hal.c ****   *
  24:HALLIB/STM32F4xx_HAL_Driver/Src/stm32f4xx_hal.c ****   * <h2><center>&copy; Copyright (c) 2017 STMicroelectronics.
  25:HALLIB/STM32F4xx_HAL_Driver/Src/stm32f4xx_hal.c ****   * All rights reserved.</center></h2>
  26:HALLIB/STM32F4xx_HAL_Driver/Src/stm32f4xx_hal.c ****   *
  27:HALLIB/STM32F4xx_HAL_Driver/Src/stm32f4xx_hal.c ****   * This software component is licensed by ST under BSD 3-Clause license,
  28:HALLIB/STM32F4xx_HAL_Driver/Src/stm32f4xx_hal.c ****   * the "License"; You may not use this file except in compliance with the
  29:HALLIB/STM32F4xx_HAL_Driver/Src/stm32f4xx_hal.c ****   * License. You may obtain a copy of the License at:
  30:HALLIB/STM32F4xx_HAL_Driver/Src/stm32f4xx_hal.c ****   *                        opensource.org/licenses/BSD-3-Clause
ARM GAS  /tmp/ccsmgGwe.s 			page 2


  31:HALLIB/STM32F4xx_HAL_Driver/Src/stm32f4xx_hal.c ****   *
  32:HALLIB/STM32F4xx_HAL_Driver/Src/stm32f4xx_hal.c ****   ******************************************************************************
  33:HALLIB/STM32F4xx_HAL_Driver/Src/stm32f4xx_hal.c ****   */ 
  34:HALLIB/STM32F4xx_HAL_Driver/Src/stm32f4xx_hal.c **** 
  35:HALLIB/STM32F4xx_HAL_Driver/Src/stm32f4xx_hal.c **** /* Includes ------------------------------------------------------------------*/
  36:HALLIB/STM32F4xx_HAL_Driver/Src/stm32f4xx_hal.c **** #include "stm32f4xx_hal.h"
  37:HALLIB/STM32F4xx_HAL_Driver/Src/stm32f4xx_hal.c **** 
  38:HALLIB/STM32F4xx_HAL_Driver/Src/stm32f4xx_hal.c **** /** @addtogroup STM32F4xx_HAL_Driver
  39:HALLIB/STM32F4xx_HAL_Driver/Src/stm32f4xx_hal.c ****   * @{
  40:HALLIB/STM32F4xx_HAL_Driver/Src/stm32f4xx_hal.c ****   */
  41:HALLIB/STM32F4xx_HAL_Driver/Src/stm32f4xx_hal.c **** 
  42:HALLIB/STM32F4xx_HAL_Driver/Src/stm32f4xx_hal.c **** /** @defgroup HAL HAL
  43:HALLIB/STM32F4xx_HAL_Driver/Src/stm32f4xx_hal.c ****   * @brief HAL module driver.
  44:HALLIB/STM32F4xx_HAL_Driver/Src/stm32f4xx_hal.c ****   * @{
  45:HALLIB/STM32F4xx_HAL_Driver/Src/stm32f4xx_hal.c ****   */
  46:HALLIB/STM32F4xx_HAL_Driver/Src/stm32f4xx_hal.c **** 
  47:HALLIB/STM32F4xx_HAL_Driver/Src/stm32f4xx_hal.c **** /* Private typedef -----------------------------------------------------------*/
  48:HALLIB/STM32F4xx_HAL_Driver/Src/stm32f4xx_hal.c **** /* Private define ------------------------------------------------------------*/
  49:HALLIB/STM32F4xx_HAL_Driver/Src/stm32f4xx_hal.c **** /** @addtogroup HAL_Private_Constants
  50:HALLIB/STM32F4xx_HAL_Driver/Src/stm32f4xx_hal.c ****   * @{
  51:HALLIB/STM32F4xx_HAL_Driver/Src/stm32f4xx_hal.c ****   */
  52:HALLIB/STM32F4xx_HAL_Driver/Src/stm32f4xx_hal.c **** /**
  53:HALLIB/STM32F4xx_HAL_Driver/Src/stm32f4xx_hal.c ****   * @brief STM32F4xx HAL Driver version number V1.7.6
  54:HALLIB/STM32F4xx_HAL_Driver/Src/stm32f4xx_hal.c ****   */
  55:HALLIB/STM32F4xx_HAL_Driver/Src/stm32f4xx_hal.c **** #define __STM32F4xx_HAL_VERSION_MAIN   (0x01U) /*!< [31:24] main version */
  56:HALLIB/STM32F4xx_HAL_Driver/Src/stm32f4xx_hal.c **** #define __STM32F4xx_HAL_VERSION_SUB1   (0x07U) /*!< [23:16] sub1 version */
  57:HALLIB/STM32F4xx_HAL_Driver/Src/stm32f4xx_hal.c **** #define __STM32F4xx_HAL_VERSION_SUB2   (0x06U) /*!< [15:8]  sub2 version */
  58:HALLIB/STM32F4xx_HAL_Driver/Src/stm32f4xx_hal.c **** #define __STM32F4xx_HAL_VERSION_RC     (0x00U) /*!< [7:0]  release candidate */ 
  59:HALLIB/STM32F4xx_HAL_Driver/Src/stm32f4xx_hal.c **** #define __STM32F4xx_HAL_VERSION         ((__STM32F4xx_HAL_VERSION_MAIN << 24U)\
  60:HALLIB/STM32F4xx_HAL_Driver/Src/stm32f4xx_hal.c ****                                         |(__STM32F4xx_HAL_VERSION_SUB1 << 16U)\
  61:HALLIB/STM32F4xx_HAL_Driver/Src/stm32f4xx_hal.c ****                                         |(__STM32F4xx_HAL_VERSION_SUB2 << 8U )\
  62:HALLIB/STM32F4xx_HAL_Driver/Src/stm32f4xx_hal.c ****                                         |(__STM32F4xx_HAL_VERSION_RC))
  63:HALLIB/STM32F4xx_HAL_Driver/Src/stm32f4xx_hal.c ****                                         
  64:HALLIB/STM32F4xx_HAL_Driver/Src/stm32f4xx_hal.c **** #define IDCODE_DEVID_MASK    0x00000FFFU
  65:HALLIB/STM32F4xx_HAL_Driver/Src/stm32f4xx_hal.c **** 
  66:HALLIB/STM32F4xx_HAL_Driver/Src/stm32f4xx_hal.c **** /* ------------ RCC registers bit address in the alias region ----------- */
  67:HALLIB/STM32F4xx_HAL_Driver/Src/stm32f4xx_hal.c **** #define SYSCFG_OFFSET             (SYSCFG_BASE - PERIPH_BASE)
  68:HALLIB/STM32F4xx_HAL_Driver/Src/stm32f4xx_hal.c **** /* ---  MEMRMP Register ---*/ 
  69:HALLIB/STM32F4xx_HAL_Driver/Src/stm32f4xx_hal.c **** /* Alias word address of UFB_MODE bit */ 
  70:HALLIB/STM32F4xx_HAL_Driver/Src/stm32f4xx_hal.c **** #define MEMRMP_OFFSET             SYSCFG_OFFSET 
  71:HALLIB/STM32F4xx_HAL_Driver/Src/stm32f4xx_hal.c **** #define UFB_MODE_BIT_NUMBER       SYSCFG_MEMRMP_UFB_MODE_Pos
  72:HALLIB/STM32F4xx_HAL_Driver/Src/stm32f4xx_hal.c **** #define UFB_MODE_BB               (uint32_t)(PERIPH_BB_BASE + (MEMRMP_OFFSET * 32U) + (UFB_MODE_BIT
  73:HALLIB/STM32F4xx_HAL_Driver/Src/stm32f4xx_hal.c **** 
  74:HALLIB/STM32F4xx_HAL_Driver/Src/stm32f4xx_hal.c **** /* ---  CMPCR Register ---*/ 
  75:HALLIB/STM32F4xx_HAL_Driver/Src/stm32f4xx_hal.c **** /* Alias word address of CMP_PD bit */ 
  76:HALLIB/STM32F4xx_HAL_Driver/Src/stm32f4xx_hal.c **** #define CMPCR_OFFSET              (SYSCFG_OFFSET + 0x20U) 
  77:HALLIB/STM32F4xx_HAL_Driver/Src/stm32f4xx_hal.c **** #define CMP_PD_BIT_NUMBER         SYSCFG_CMPCR_CMP_PD_Pos
  78:HALLIB/STM32F4xx_HAL_Driver/Src/stm32f4xx_hal.c **** #define CMPCR_CMP_PD_BB           (uint32_t)(PERIPH_BB_BASE + (CMPCR_OFFSET * 32U) + (CMP_PD_BIT_NU
  79:HALLIB/STM32F4xx_HAL_Driver/Src/stm32f4xx_hal.c **** 
  80:HALLIB/STM32F4xx_HAL_Driver/Src/stm32f4xx_hal.c **** /* ---  MCHDLYCR Register ---*/ 
  81:HALLIB/STM32F4xx_HAL_Driver/Src/stm32f4xx_hal.c **** /* Alias word address of BSCKSEL bit */ 
  82:HALLIB/STM32F4xx_HAL_Driver/Src/stm32f4xx_hal.c **** #define MCHDLYCR_OFFSET            (SYSCFG_OFFSET + 0x30U) 
  83:HALLIB/STM32F4xx_HAL_Driver/Src/stm32f4xx_hal.c **** #define BSCKSEL_BIT_NUMBER         SYSCFG_MCHDLYCR_BSCKSEL_Pos
  84:HALLIB/STM32F4xx_HAL_Driver/Src/stm32f4xx_hal.c **** #define MCHDLYCR_BSCKSEL_BB        (uint32_t)(PERIPH_BB_BASE + (MCHDLYCR_OFFSET * 32U) + (BSCKSEL_B
  85:HALLIB/STM32F4xx_HAL_Driver/Src/stm32f4xx_hal.c **** /**
  86:HALLIB/STM32F4xx_HAL_Driver/Src/stm32f4xx_hal.c ****   * @}
  87:HALLIB/STM32F4xx_HAL_Driver/Src/stm32f4xx_hal.c ****   */
ARM GAS  /tmp/ccsmgGwe.s 			page 3


  88:HALLIB/STM32F4xx_HAL_Driver/Src/stm32f4xx_hal.c **** 
  89:HALLIB/STM32F4xx_HAL_Driver/Src/stm32f4xx_hal.c **** /* Private macro -------------------------------------------------------------*/
  90:HALLIB/STM32F4xx_HAL_Driver/Src/stm32f4xx_hal.c **** /* Private variables ---------------------------------------------------------*/
  91:HALLIB/STM32F4xx_HAL_Driver/Src/stm32f4xx_hal.c **** /** @addtogroup HAL_Private_Variables
  92:HALLIB/STM32F4xx_HAL_Driver/Src/stm32f4xx_hal.c ****   * @{
  93:HALLIB/STM32F4xx_HAL_Driver/Src/stm32f4xx_hal.c ****   */
  94:HALLIB/STM32F4xx_HAL_Driver/Src/stm32f4xx_hal.c **** __IO uint32_t uwTick;
  95:HALLIB/STM32F4xx_HAL_Driver/Src/stm32f4xx_hal.c **** uint32_t uwTickPrio   = (1UL << __NVIC_PRIO_BITS); /* Invalid PRIO */
  96:HALLIB/STM32F4xx_HAL_Driver/Src/stm32f4xx_hal.c **** HAL_TickFreqTypeDef uwTickFreq = HAL_TICK_FREQ_DEFAULT;  /* 1KHz */
  97:HALLIB/STM32F4xx_HAL_Driver/Src/stm32f4xx_hal.c **** /**
  98:HALLIB/STM32F4xx_HAL_Driver/Src/stm32f4xx_hal.c ****   * @}
  99:HALLIB/STM32F4xx_HAL_Driver/Src/stm32f4xx_hal.c ****   */
 100:HALLIB/STM32F4xx_HAL_Driver/Src/stm32f4xx_hal.c **** /* Private function prototypes -----------------------------------------------*/
 101:HALLIB/STM32F4xx_HAL_Driver/Src/stm32f4xx_hal.c **** /* Private functions ---------------------------------------------------------*/
 102:HALLIB/STM32F4xx_HAL_Driver/Src/stm32f4xx_hal.c **** 
 103:HALLIB/STM32F4xx_HAL_Driver/Src/stm32f4xx_hal.c **** /** @defgroup HAL_Exported_Functions HAL Exported Functions
 104:HALLIB/STM32F4xx_HAL_Driver/Src/stm32f4xx_hal.c ****   * @{
 105:HALLIB/STM32F4xx_HAL_Driver/Src/stm32f4xx_hal.c ****   */
 106:HALLIB/STM32F4xx_HAL_Driver/Src/stm32f4xx_hal.c **** 
 107:HALLIB/STM32F4xx_HAL_Driver/Src/stm32f4xx_hal.c **** /** @defgroup HAL_Exported_Functions_Group1 Initialization and de-initialization Functions 
 108:HALLIB/STM32F4xx_HAL_Driver/Src/stm32f4xx_hal.c ****  *  @brief    Initialization and de-initialization functions
 109:HALLIB/STM32F4xx_HAL_Driver/Src/stm32f4xx_hal.c ****  *
 110:HALLIB/STM32F4xx_HAL_Driver/Src/stm32f4xx_hal.c **** @verbatim    
 111:HALLIB/STM32F4xx_HAL_Driver/Src/stm32f4xx_hal.c ****  ===============================================================================
 112:HALLIB/STM32F4xx_HAL_Driver/Src/stm32f4xx_hal.c ****               ##### Initialization and Configuration functions #####
 113:HALLIB/STM32F4xx_HAL_Driver/Src/stm32f4xx_hal.c ****  ===============================================================================
 114:HALLIB/STM32F4xx_HAL_Driver/Src/stm32f4xx_hal.c ****     [..]  This section provides functions allowing to:
 115:HALLIB/STM32F4xx_HAL_Driver/Src/stm32f4xx_hal.c ****       (+) Initializes the Flash interface the NVIC allocation and initial clock 
 116:HALLIB/STM32F4xx_HAL_Driver/Src/stm32f4xx_hal.c ****           configuration. It initializes the systick also when timeout is needed 
 117:HALLIB/STM32F4xx_HAL_Driver/Src/stm32f4xx_hal.c ****           and the backup domain when enabled.
 118:HALLIB/STM32F4xx_HAL_Driver/Src/stm32f4xx_hal.c ****       (+) De-Initializes common part of the HAL.
 119:HALLIB/STM32F4xx_HAL_Driver/Src/stm32f4xx_hal.c ****       (+) Configure the time base source to have 1ms time base with a dedicated 
 120:HALLIB/STM32F4xx_HAL_Driver/Src/stm32f4xx_hal.c ****           Tick interrupt priority. 
 121:HALLIB/STM32F4xx_HAL_Driver/Src/stm32f4xx_hal.c ****         (++) SysTick timer is used by default as source of time base, but user
 122:HALLIB/STM32F4xx_HAL_Driver/Src/stm32f4xx_hal.c ****              can eventually implement his proper time base source (a general purpose 
 123:HALLIB/STM32F4xx_HAL_Driver/Src/stm32f4xx_hal.c ****              timer for example or other time source), keeping in mind that Time base 
 124:HALLIB/STM32F4xx_HAL_Driver/Src/stm32f4xx_hal.c ****              duration should be kept 1ms since PPP_TIMEOUT_VALUEs are defined and 
 125:HALLIB/STM32F4xx_HAL_Driver/Src/stm32f4xx_hal.c ****              handled in milliseconds basis.
 126:HALLIB/STM32F4xx_HAL_Driver/Src/stm32f4xx_hal.c ****         (++) Time base configuration function (HAL_InitTick ()) is called automatically 
 127:HALLIB/STM32F4xx_HAL_Driver/Src/stm32f4xx_hal.c ****              at the beginning of the program after reset by HAL_Init() or at any time 
 128:HALLIB/STM32F4xx_HAL_Driver/Src/stm32f4xx_hal.c ****              when clock is configured, by HAL_RCC_ClockConfig(). 
 129:HALLIB/STM32F4xx_HAL_Driver/Src/stm32f4xx_hal.c ****         (++) Source of time base is configured  to generate interrupts at regular 
 130:HALLIB/STM32F4xx_HAL_Driver/Src/stm32f4xx_hal.c ****              time intervals. Care must be taken if HAL_Delay() is called from a 
 131:HALLIB/STM32F4xx_HAL_Driver/Src/stm32f4xx_hal.c ****              peripheral ISR process, the Tick interrupt line must have higher priority 
 132:HALLIB/STM32F4xx_HAL_Driver/Src/stm32f4xx_hal.c ****             (numerically lower) than the peripheral interrupt. Otherwise the caller 
 133:HALLIB/STM32F4xx_HAL_Driver/Src/stm32f4xx_hal.c ****             ISR process will be blocked. 
 134:HALLIB/STM32F4xx_HAL_Driver/Src/stm32f4xx_hal.c ****        (++) functions affecting time base configurations are declared as __weak  
 135:HALLIB/STM32F4xx_HAL_Driver/Src/stm32f4xx_hal.c ****              to make  override possible  in case of other  implementations in user file.
 136:HALLIB/STM32F4xx_HAL_Driver/Src/stm32f4xx_hal.c **** @endverbatim
 137:HALLIB/STM32F4xx_HAL_Driver/Src/stm32f4xx_hal.c ****   * @{
 138:HALLIB/STM32F4xx_HAL_Driver/Src/stm32f4xx_hal.c ****   */
 139:HALLIB/STM32F4xx_HAL_Driver/Src/stm32f4xx_hal.c **** 
 140:HALLIB/STM32F4xx_HAL_Driver/Src/stm32f4xx_hal.c **** /**
 141:HALLIB/STM32F4xx_HAL_Driver/Src/stm32f4xx_hal.c ****   * @brief  This function is used to initialize the HAL Library; it must be the first 
 142:HALLIB/STM32F4xx_HAL_Driver/Src/stm32f4xx_hal.c ****   *         instruction to be executed in the main program (before to call any other
 143:HALLIB/STM32F4xx_HAL_Driver/Src/stm32f4xx_hal.c ****   *         HAL function), it performs the following:
 144:HALLIB/STM32F4xx_HAL_Driver/Src/stm32f4xx_hal.c ****   *           Configure the Flash prefetch, instruction and Data caches.
ARM GAS  /tmp/ccsmgGwe.s 			page 4


 145:HALLIB/STM32F4xx_HAL_Driver/Src/stm32f4xx_hal.c ****   *           Configures the SysTick to generate an interrupt each 1 millisecond,
 146:HALLIB/STM32F4xx_HAL_Driver/Src/stm32f4xx_hal.c ****   *           which is clocked by the HSI (at this stage, the clock is not yet
 147:HALLIB/STM32F4xx_HAL_Driver/Src/stm32f4xx_hal.c ****   *           configured and thus the system is running from the internal HSI at 16 MHz).
 148:HALLIB/STM32F4xx_HAL_Driver/Src/stm32f4xx_hal.c ****   *           Set NVIC Group Priority to 4.
 149:HALLIB/STM32F4xx_HAL_Driver/Src/stm32f4xx_hal.c ****   *           Calls the HAL_MspInit() callback function defined in user file 
 150:HALLIB/STM32F4xx_HAL_Driver/Src/stm32f4xx_hal.c ****   *           "stm32f4xx_hal_msp.c" to do the global low level hardware initialization 
 151:HALLIB/STM32F4xx_HAL_Driver/Src/stm32f4xx_hal.c ****   *            
 152:HALLIB/STM32F4xx_HAL_Driver/Src/stm32f4xx_hal.c ****   * @note   SysTick is used as time base for the HAL_Delay() function, the application
 153:HALLIB/STM32F4xx_HAL_Driver/Src/stm32f4xx_hal.c ****   *         need to ensure that the SysTick time base is always set to 1 millisecond
 154:HALLIB/STM32F4xx_HAL_Driver/Src/stm32f4xx_hal.c ****   *         to have correct HAL operation.
 155:HALLIB/STM32F4xx_HAL_Driver/Src/stm32f4xx_hal.c ****   * @retval HAL status
 156:HALLIB/STM32F4xx_HAL_Driver/Src/stm32f4xx_hal.c ****   */
 157:HALLIB/STM32F4xx_HAL_Driver/Src/stm32f4xx_hal.c **** HAL_StatusTypeDef HAL_Init(void)
 158:HALLIB/STM32F4xx_HAL_Driver/Src/stm32f4xx_hal.c **** {
 159:HALLIB/STM32F4xx_HAL_Driver/Src/stm32f4xx_hal.c ****   /* Configure Flash prefetch, Instruction cache, Data cache */ 
 160:HALLIB/STM32F4xx_HAL_Driver/Src/stm32f4xx_hal.c **** #if (INSTRUCTION_CACHE_ENABLE != 0U)
 161:HALLIB/STM32F4xx_HAL_Driver/Src/stm32f4xx_hal.c ****   __HAL_FLASH_INSTRUCTION_CACHE_ENABLE();
 162:HALLIB/STM32F4xx_HAL_Driver/Src/stm32f4xx_hal.c **** #endif /* INSTRUCTION_CACHE_ENABLE */
 163:HALLIB/STM32F4xx_HAL_Driver/Src/stm32f4xx_hal.c **** 
 164:HALLIB/STM32F4xx_HAL_Driver/Src/stm32f4xx_hal.c **** #if (DATA_CACHE_ENABLE != 0U)
 165:HALLIB/STM32F4xx_HAL_Driver/Src/stm32f4xx_hal.c ****   __HAL_FLASH_DATA_CACHE_ENABLE();
 166:HALLIB/STM32F4xx_HAL_Driver/Src/stm32f4xx_hal.c **** #endif /* DATA_CACHE_ENABLE */
 167:HALLIB/STM32F4xx_HAL_Driver/Src/stm32f4xx_hal.c **** 
 168:HALLIB/STM32F4xx_HAL_Driver/Src/stm32f4xx_hal.c **** #if (PREFETCH_ENABLE != 0U)
 169:HALLIB/STM32F4xx_HAL_Driver/Src/stm32f4xx_hal.c ****   __HAL_FLASH_PREFETCH_BUFFER_ENABLE();
 170:HALLIB/STM32F4xx_HAL_Driver/Src/stm32f4xx_hal.c **** #endif /* PREFETCH_ENABLE */
 171:HALLIB/STM32F4xx_HAL_Driver/Src/stm32f4xx_hal.c **** 
 172:HALLIB/STM32F4xx_HAL_Driver/Src/stm32f4xx_hal.c ****   /* Set Interrupt Group Priority */
 173:HALLIB/STM32F4xx_HAL_Driver/Src/stm32f4xx_hal.c ****   HAL_NVIC_SetPriorityGrouping(NVIC_PRIORITYGROUP_2);
 174:HALLIB/STM32F4xx_HAL_Driver/Src/stm32f4xx_hal.c **** 
 175:HALLIB/STM32F4xx_HAL_Driver/Src/stm32f4xx_hal.c ****   /* Use systick as time base source and configure 1ms tick (default clock after Reset is HSI) */
 176:HALLIB/STM32F4xx_HAL_Driver/Src/stm32f4xx_hal.c ****   HAL_InitTick(TICK_INT_PRIORITY);
 177:HALLIB/STM32F4xx_HAL_Driver/Src/stm32f4xx_hal.c **** 
 178:HALLIB/STM32F4xx_HAL_Driver/Src/stm32f4xx_hal.c ****   /* Init the low level hardware */
 179:HALLIB/STM32F4xx_HAL_Driver/Src/stm32f4xx_hal.c ****   HAL_MspInit();
 180:HALLIB/STM32F4xx_HAL_Driver/Src/stm32f4xx_hal.c **** 
 181:HALLIB/STM32F4xx_HAL_Driver/Src/stm32f4xx_hal.c ****   /* Return function status */
 182:HALLIB/STM32F4xx_HAL_Driver/Src/stm32f4xx_hal.c ****   return HAL_OK;
 183:HALLIB/STM32F4xx_HAL_Driver/Src/stm32f4xx_hal.c **** }
 184:HALLIB/STM32F4xx_HAL_Driver/Src/stm32f4xx_hal.c **** 
 185:HALLIB/STM32F4xx_HAL_Driver/Src/stm32f4xx_hal.c **** /**
 186:HALLIB/STM32F4xx_HAL_Driver/Src/stm32f4xx_hal.c ****   * @brief  This function de-Initializes common part of the HAL and stops the systick.
 187:HALLIB/STM32F4xx_HAL_Driver/Src/stm32f4xx_hal.c ****   *         This function is optional.   
 188:HALLIB/STM32F4xx_HAL_Driver/Src/stm32f4xx_hal.c ****   * @retval HAL status
 189:HALLIB/STM32F4xx_HAL_Driver/Src/stm32f4xx_hal.c ****   */
 190:HALLIB/STM32F4xx_HAL_Driver/Src/stm32f4xx_hal.c **** HAL_StatusTypeDef HAL_DeInit(void)
 191:HALLIB/STM32F4xx_HAL_Driver/Src/stm32f4xx_hal.c **** {
 192:HALLIB/STM32F4xx_HAL_Driver/Src/stm32f4xx_hal.c ****   /* Reset of all peripherals */
 193:HALLIB/STM32F4xx_HAL_Driver/Src/stm32f4xx_hal.c ****   __HAL_RCC_APB1_FORCE_RESET();
 194:HALLIB/STM32F4xx_HAL_Driver/Src/stm32f4xx_hal.c ****   __HAL_RCC_APB1_RELEASE_RESET();
 195:HALLIB/STM32F4xx_HAL_Driver/Src/stm32f4xx_hal.c **** 
 196:HALLIB/STM32F4xx_HAL_Driver/Src/stm32f4xx_hal.c ****   __HAL_RCC_APB2_FORCE_RESET();
 197:HALLIB/STM32F4xx_HAL_Driver/Src/stm32f4xx_hal.c ****   __HAL_RCC_APB2_RELEASE_RESET();
 198:HALLIB/STM32F4xx_HAL_Driver/Src/stm32f4xx_hal.c **** 
 199:HALLIB/STM32F4xx_HAL_Driver/Src/stm32f4xx_hal.c ****   __HAL_RCC_AHB1_FORCE_RESET();
 200:HALLIB/STM32F4xx_HAL_Driver/Src/stm32f4xx_hal.c ****   __HAL_RCC_AHB1_RELEASE_RESET();
 201:HALLIB/STM32F4xx_HAL_Driver/Src/stm32f4xx_hal.c **** 
ARM GAS  /tmp/ccsmgGwe.s 			page 5


 202:HALLIB/STM32F4xx_HAL_Driver/Src/stm32f4xx_hal.c ****   __HAL_RCC_AHB2_FORCE_RESET();
 203:HALLIB/STM32F4xx_HAL_Driver/Src/stm32f4xx_hal.c ****   __HAL_RCC_AHB2_RELEASE_RESET();
 204:HALLIB/STM32F4xx_HAL_Driver/Src/stm32f4xx_hal.c **** 
 205:HALLIB/STM32F4xx_HAL_Driver/Src/stm32f4xx_hal.c ****   __HAL_RCC_AHB3_FORCE_RESET();
 206:HALLIB/STM32F4xx_HAL_Driver/Src/stm32f4xx_hal.c ****   __HAL_RCC_AHB3_RELEASE_RESET();
 207:HALLIB/STM32F4xx_HAL_Driver/Src/stm32f4xx_hal.c **** 
 208:HALLIB/STM32F4xx_HAL_Driver/Src/stm32f4xx_hal.c ****   /* De-Init the low level hardware */
 209:HALLIB/STM32F4xx_HAL_Driver/Src/stm32f4xx_hal.c ****   HAL_MspDeInit();
 210:HALLIB/STM32F4xx_HAL_Driver/Src/stm32f4xx_hal.c ****     
 211:HALLIB/STM32F4xx_HAL_Driver/Src/stm32f4xx_hal.c ****   /* Return function status */
 212:HALLIB/STM32F4xx_HAL_Driver/Src/stm32f4xx_hal.c ****   return HAL_OK;
 213:HALLIB/STM32F4xx_HAL_Driver/Src/stm32f4xx_hal.c **** }
 214:HALLIB/STM32F4xx_HAL_Driver/Src/stm32f4xx_hal.c **** 
 215:HALLIB/STM32F4xx_HAL_Driver/Src/stm32f4xx_hal.c **** /**
 216:HALLIB/STM32F4xx_HAL_Driver/Src/stm32f4xx_hal.c ****   * @brief  Initialize the MSP.
 217:HALLIB/STM32F4xx_HAL_Driver/Src/stm32f4xx_hal.c ****   * @retval None
 218:HALLIB/STM32F4xx_HAL_Driver/Src/stm32f4xx_hal.c ****   */
 219:HALLIB/STM32F4xx_HAL_Driver/Src/stm32f4xx_hal.c **** __weak void HAL_MspInit(void)
 220:HALLIB/STM32F4xx_HAL_Driver/Src/stm32f4xx_hal.c **** {
  29              		.loc 1 220 1 view -0
  30              		.cfi_startproc
  31              		@ args = 0, pretend = 0, frame = 0
  32              		@ frame_needed = 0, uses_anonymous_args = 0
  33              		@ link register save eliminated.
 221:HALLIB/STM32F4xx_HAL_Driver/Src/stm32f4xx_hal.c ****   /* NOTE : This function should not be modified, when the callback is needed,
 222:HALLIB/STM32F4xx_HAL_Driver/Src/stm32f4xx_hal.c ****             the HAL_MspInit could be implemented in the user file
 223:HALLIB/STM32F4xx_HAL_Driver/Src/stm32f4xx_hal.c ****    */
 224:HALLIB/STM32F4xx_HAL_Driver/Src/stm32f4xx_hal.c **** }
  34              		.loc 1 224 1 view .LVU1
  35 0000 7047     		bx	lr
  36              		.cfi_endproc
  37              	.LFE134:
  39              		.section	.text.HAL_MspDeInit,"ax",%progbits
  40              		.align	1
  41              		.weak	HAL_MspDeInit
  42              		.syntax unified
  43              		.thumb
  44              		.thumb_func
  45              		.fpu fpv4-sp-d16
  47              	HAL_MspDeInit:
  48              	.LFB135:
 225:HALLIB/STM32F4xx_HAL_Driver/Src/stm32f4xx_hal.c **** 
 226:HALLIB/STM32F4xx_HAL_Driver/Src/stm32f4xx_hal.c **** /**
 227:HALLIB/STM32F4xx_HAL_Driver/Src/stm32f4xx_hal.c ****   * @brief  DeInitializes the MSP.
 228:HALLIB/STM32F4xx_HAL_Driver/Src/stm32f4xx_hal.c ****   * @retval None
 229:HALLIB/STM32F4xx_HAL_Driver/Src/stm32f4xx_hal.c ****   */
 230:HALLIB/STM32F4xx_HAL_Driver/Src/stm32f4xx_hal.c **** __weak void HAL_MspDeInit(void)
 231:HALLIB/STM32F4xx_HAL_Driver/Src/stm32f4xx_hal.c **** {
  49              		.loc 1 231 1 view -0
  50              		.cfi_startproc
  51              		@ args = 0, pretend = 0, frame = 0
  52              		@ frame_needed = 0, uses_anonymous_args = 0
  53              		@ link register save eliminated.
 232:HALLIB/STM32F4xx_HAL_Driver/Src/stm32f4xx_hal.c ****   /* NOTE : This function should not be modified, when the callback is needed,
 233:HALLIB/STM32F4xx_HAL_Driver/Src/stm32f4xx_hal.c ****             the HAL_MspDeInit could be implemented in the user file
 234:HALLIB/STM32F4xx_HAL_Driver/Src/stm32f4xx_hal.c ****    */ 
 235:HALLIB/STM32F4xx_HAL_Driver/Src/stm32f4xx_hal.c **** }
ARM GAS  /tmp/ccsmgGwe.s 			page 6


  54              		.loc 1 235 1 view .LVU3
  55 0000 7047     		bx	lr
  56              		.cfi_endproc
  57              	.LFE135:
  59              		.section	.text.HAL_DeInit,"ax",%progbits
  60              		.align	1
  61              		.global	HAL_DeInit
  62              		.syntax unified
  63              		.thumb
  64              		.thumb_func
  65              		.fpu fpv4-sp-d16
  67              	HAL_DeInit:
  68              	.LFB133:
 191:HALLIB/STM32F4xx_HAL_Driver/Src/stm32f4xx_hal.c ****   /* Reset of all peripherals */
  69              		.loc 1 191 1 view -0
  70              		.cfi_startproc
  71              		@ args = 0, pretend = 0, frame = 0
  72              		@ frame_needed = 0, uses_anonymous_args = 0
  73 0000 10B5     		push	{r4, lr}
  74              	.LCFI0:
  75              		.cfi_def_cfa_offset 8
  76              		.cfi_offset 4, -8
  77              		.cfi_offset 14, -4
 193:HALLIB/STM32F4xx_HAL_Driver/Src/stm32f4xx_hal.c ****   __HAL_RCC_APB1_RELEASE_RESET();
  78              		.loc 1 193 3 view .LVU5
  79 0002 094B     		ldr	r3, .L5
  80 0004 4FF0FF32 		mov	r2, #-1
  81 0008 1A62     		str	r2, [r3, #32]
 194:HALLIB/STM32F4xx_HAL_Driver/Src/stm32f4xx_hal.c **** 
  82              		.loc 1 194 3 view .LVU6
  83 000a 0024     		movs	r4, #0
  84 000c 1C62     		str	r4, [r3, #32]
 196:HALLIB/STM32F4xx_HAL_Driver/Src/stm32f4xx_hal.c ****   __HAL_RCC_APB2_RELEASE_RESET();
  85              		.loc 1 196 3 view .LVU7
  86 000e 5A62     		str	r2, [r3, #36]
 197:HALLIB/STM32F4xx_HAL_Driver/Src/stm32f4xx_hal.c **** 
  87              		.loc 1 197 3 view .LVU8
  88 0010 5C62     		str	r4, [r3, #36]
 199:HALLIB/STM32F4xx_HAL_Driver/Src/stm32f4xx_hal.c ****   __HAL_RCC_AHB1_RELEASE_RESET();
  89              		.loc 1 199 3 view .LVU9
  90 0012 1A61     		str	r2, [r3, #16]
 200:HALLIB/STM32F4xx_HAL_Driver/Src/stm32f4xx_hal.c **** 
  91              		.loc 1 200 3 view .LVU10
  92 0014 1C61     		str	r4, [r3, #16]
 202:HALLIB/STM32F4xx_HAL_Driver/Src/stm32f4xx_hal.c ****   __HAL_RCC_AHB2_RELEASE_RESET();
  93              		.loc 1 202 3 view .LVU11
  94 0016 5A61     		str	r2, [r3, #20]
 203:HALLIB/STM32F4xx_HAL_Driver/Src/stm32f4xx_hal.c **** 
  95              		.loc 1 203 3 view .LVU12
  96 0018 5C61     		str	r4, [r3, #20]
 205:HALLIB/STM32F4xx_HAL_Driver/Src/stm32f4xx_hal.c ****   __HAL_RCC_AHB3_RELEASE_RESET();
  97              		.loc 1 205 3 view .LVU13
  98 001a 9A61     		str	r2, [r3, #24]
 206:HALLIB/STM32F4xx_HAL_Driver/Src/stm32f4xx_hal.c **** 
  99              		.loc 1 206 3 view .LVU14
 100 001c 9C61     		str	r4, [r3, #24]
 209:HALLIB/STM32F4xx_HAL_Driver/Src/stm32f4xx_hal.c ****     
ARM GAS  /tmp/ccsmgGwe.s 			page 7


 101              		.loc 1 209 3 view .LVU15
 102 001e FFF7FEFF 		bl	HAL_MspDeInit
 103              	.LVL0:
 212:HALLIB/STM32F4xx_HAL_Driver/Src/stm32f4xx_hal.c **** }
 104              		.loc 1 212 3 view .LVU16
 213:HALLIB/STM32F4xx_HAL_Driver/Src/stm32f4xx_hal.c **** 
 105              		.loc 1 213 1 is_stmt 0 view .LVU17
 106 0022 2046     		mov	r0, r4
 107 0024 10BD     		pop	{r4, pc}
 108              	.L6:
 109 0026 00BF     		.align	2
 110              	.L5:
 111 0028 00380240 		.word	1073887232
 112              		.cfi_endproc
 113              	.LFE133:
 115              		.section	.text.HAL_InitTick,"ax",%progbits
 116              		.align	1
 117              		.weak	HAL_InitTick
 118              		.syntax unified
 119              		.thumb
 120              		.thumb_func
 121              		.fpu fpv4-sp-d16
 123              	HAL_InitTick:
 124              	.LVL1:
 125              	.LFB136:
 236:HALLIB/STM32F4xx_HAL_Driver/Src/stm32f4xx_hal.c **** 
 237:HALLIB/STM32F4xx_HAL_Driver/Src/stm32f4xx_hal.c **** /**
 238:HALLIB/STM32F4xx_HAL_Driver/Src/stm32f4xx_hal.c ****   * @brief This function configures the source of the time base.
 239:HALLIB/STM32F4xx_HAL_Driver/Src/stm32f4xx_hal.c ****   *        The time source is configured  to have 1ms time base with a dedicated 
 240:HALLIB/STM32F4xx_HAL_Driver/Src/stm32f4xx_hal.c ****   *        Tick interrupt priority.
 241:HALLIB/STM32F4xx_HAL_Driver/Src/stm32f4xx_hal.c ****   * @note This function is called  automatically at the beginning of program after
 242:HALLIB/STM32F4xx_HAL_Driver/Src/stm32f4xx_hal.c ****   *       reset by HAL_Init() or at any time when clock is reconfigured  by HAL_RCC_ClockConfig().
 243:HALLIB/STM32F4xx_HAL_Driver/Src/stm32f4xx_hal.c ****   * @note In the default implementation, SysTick timer is the source of time base. 
 244:HALLIB/STM32F4xx_HAL_Driver/Src/stm32f4xx_hal.c ****   *       It is used to generate interrupts at regular time intervals. 
 245:HALLIB/STM32F4xx_HAL_Driver/Src/stm32f4xx_hal.c ****   *       Care must be taken if HAL_Delay() is called from a peripheral ISR process, 
 246:HALLIB/STM32F4xx_HAL_Driver/Src/stm32f4xx_hal.c ****   *       The SysTick interrupt must have higher priority (numerically lower)
 247:HALLIB/STM32F4xx_HAL_Driver/Src/stm32f4xx_hal.c ****   *       than the peripheral interrupt. Otherwise the caller ISR process will be blocked.
 248:HALLIB/STM32F4xx_HAL_Driver/Src/stm32f4xx_hal.c ****   *       The function is declared as __weak  to be overwritten  in case of other
 249:HALLIB/STM32F4xx_HAL_Driver/Src/stm32f4xx_hal.c ****   *       implementation  in user file.
 250:HALLIB/STM32F4xx_HAL_Driver/Src/stm32f4xx_hal.c ****   * @param TickPriority Tick interrupt priority.
 251:HALLIB/STM32F4xx_HAL_Driver/Src/stm32f4xx_hal.c ****   * @retval HAL status
 252:HALLIB/STM32F4xx_HAL_Driver/Src/stm32f4xx_hal.c ****   */
 253:HALLIB/STM32F4xx_HAL_Driver/Src/stm32f4xx_hal.c **** __weak HAL_StatusTypeDef HAL_InitTick(uint32_t TickPriority)
 254:HALLIB/STM32F4xx_HAL_Driver/Src/stm32f4xx_hal.c **** {
 126              		.loc 1 254 1 is_stmt 1 view -0
 127              		.cfi_startproc
 128              		@ args = 0, pretend = 0, frame = 0
 129              		@ frame_needed = 0, uses_anonymous_args = 0
 130              		.loc 1 254 1 is_stmt 0 view .LVU19
 131 0000 10B5     		push	{r4, lr}
 132              	.LCFI1:
 133              		.cfi_def_cfa_offset 8
 134              		.cfi_offset 4, -8
 135              		.cfi_offset 14, -4
 136 0002 0446     		mov	r4, r0
 255:HALLIB/STM32F4xx_HAL_Driver/Src/stm32f4xx_hal.c ****   /* Configure the SysTick to have interrupt in 1ms time basis*/
 256:HALLIB/STM32F4xx_HAL_Driver/Src/stm32f4xx_hal.c ****   if (HAL_SYSTICK_Config(SystemCoreClock / (1000U / uwTickFreq)) > 0U)
ARM GAS  /tmp/ccsmgGwe.s 			page 8


 137              		.loc 1 256 3 is_stmt 1 view .LVU20
 138              		.loc 1 256 51 is_stmt 0 view .LVU21
 139 0004 0E4B     		ldr	r3, .L13
 140 0006 1878     		ldrb	r0, [r3]	@ zero_extendqisi2
 141              	.LVL2:
 142              		.loc 1 256 51 view .LVU22
 143 0008 4FF47A73 		mov	r3, #1000
 144 000c B3FBF0F3 		udiv	r3, r3, r0
 145              		.loc 1 256 7 view .LVU23
 146 0010 0C4A     		ldr	r2, .L13+4
 147 0012 1068     		ldr	r0, [r2]
 148 0014 B0FBF3F0 		udiv	r0, r0, r3
 149 0018 FFF7FEFF 		bl	HAL_SYSTICK_Config
 150              	.LVL3:
 151              		.loc 1 256 6 view .LVU24
 152 001c 68B9     		cbnz	r0, .L9
 257:HALLIB/STM32F4xx_HAL_Driver/Src/stm32f4xx_hal.c ****   {
 258:HALLIB/STM32F4xx_HAL_Driver/Src/stm32f4xx_hal.c ****     return HAL_ERROR;
 259:HALLIB/STM32F4xx_HAL_Driver/Src/stm32f4xx_hal.c ****   }
 260:HALLIB/STM32F4xx_HAL_Driver/Src/stm32f4xx_hal.c **** 
 261:HALLIB/STM32F4xx_HAL_Driver/Src/stm32f4xx_hal.c ****   /* Configure the SysTick IRQ priority */
 262:HALLIB/STM32F4xx_HAL_Driver/Src/stm32f4xx_hal.c ****   if (TickPriority < (1UL << __NVIC_PRIO_BITS))
 153              		.loc 1 262 3 is_stmt 1 view .LVU25
 154              		.loc 1 262 6 is_stmt 0 view .LVU26
 155 001e 0F2C     		cmp	r4, #15
 156 0020 01D9     		bls	.L12
 263:HALLIB/STM32F4xx_HAL_Driver/Src/stm32f4xx_hal.c ****   {
 264:HALLIB/STM32F4xx_HAL_Driver/Src/stm32f4xx_hal.c ****     HAL_NVIC_SetPriority(SysTick_IRQn, TickPriority, 0U);
 265:HALLIB/STM32F4xx_HAL_Driver/Src/stm32f4xx_hal.c ****     uwTickPrio = TickPriority;
 266:HALLIB/STM32F4xx_HAL_Driver/Src/stm32f4xx_hal.c ****   }
 267:HALLIB/STM32F4xx_HAL_Driver/Src/stm32f4xx_hal.c ****   else
 268:HALLIB/STM32F4xx_HAL_Driver/Src/stm32f4xx_hal.c ****   {
 269:HALLIB/STM32F4xx_HAL_Driver/Src/stm32f4xx_hal.c ****     return HAL_ERROR;
 157              		.loc 1 269 12 view .LVU27
 158 0022 0120     		movs	r0, #1
 159 0024 0AE0     		b	.L8
 160              	.L12:
 264:HALLIB/STM32F4xx_HAL_Driver/Src/stm32f4xx_hal.c ****     uwTickPrio = TickPriority;
 161              		.loc 1 264 5 is_stmt 1 view .LVU28
 162 0026 0022     		movs	r2, #0
 163 0028 2146     		mov	r1, r4
 164 002a 4FF0FF30 		mov	r0, #-1
 165 002e FFF7FEFF 		bl	HAL_NVIC_SetPriority
 166              	.LVL4:
 265:HALLIB/STM32F4xx_HAL_Driver/Src/stm32f4xx_hal.c ****   }
 167              		.loc 1 265 5 view .LVU29
 265:HALLIB/STM32F4xx_HAL_Driver/Src/stm32f4xx_hal.c ****   }
 168              		.loc 1 265 16 is_stmt 0 view .LVU30
 169 0032 054B     		ldr	r3, .L13+8
 170 0034 1C60     		str	r4, [r3]
 270:HALLIB/STM32F4xx_HAL_Driver/Src/stm32f4xx_hal.c ****   }
 271:HALLIB/STM32F4xx_HAL_Driver/Src/stm32f4xx_hal.c **** 
 272:HALLIB/STM32F4xx_HAL_Driver/Src/stm32f4xx_hal.c ****   /* Return function status */
 273:HALLIB/STM32F4xx_HAL_Driver/Src/stm32f4xx_hal.c ****   return HAL_OK;
 171              		.loc 1 273 3 is_stmt 1 view .LVU31
 172              		.loc 1 273 10 is_stmt 0 view .LVU32
 173 0036 0020     		movs	r0, #0
ARM GAS  /tmp/ccsmgGwe.s 			page 9


 174 0038 00E0     		b	.L8
 175              	.L9:
 258:HALLIB/STM32F4xx_HAL_Driver/Src/stm32f4xx_hal.c ****   }
 176              		.loc 1 258 12 view .LVU33
 177 003a 0120     		movs	r0, #1
 178              	.L8:
 274:HALLIB/STM32F4xx_HAL_Driver/Src/stm32f4xx_hal.c **** }
 179              		.loc 1 274 1 view .LVU34
 180 003c 10BD     		pop	{r4, pc}
 181              	.LVL5:
 182              	.L14:
 183              		.loc 1 274 1 view .LVU35
 184 003e 00BF     		.align	2
 185              	.L13:
 186 0040 00000000 		.word	.LANCHOR0
 187 0044 00000000 		.word	SystemCoreClock
 188 0048 00000000 		.word	.LANCHOR1
 189              		.cfi_endproc
 190              	.LFE136:
 192              		.section	.text.HAL_Init,"ax",%progbits
 193              		.align	1
 194              		.global	HAL_Init
 195              		.syntax unified
 196              		.thumb
 197              		.thumb_func
 198              		.fpu fpv4-sp-d16
 200              	HAL_Init:
 201              	.LFB132:
 158:HALLIB/STM32F4xx_HAL_Driver/Src/stm32f4xx_hal.c ****   /* Configure Flash prefetch, Instruction cache, Data cache */ 
 202              		.loc 1 158 1 is_stmt 1 view -0
 203              		.cfi_startproc
 204              		@ args = 0, pretend = 0, frame = 0
 205              		@ frame_needed = 0, uses_anonymous_args = 0
 206 0000 08B5     		push	{r3, lr}
 207              	.LCFI2:
 208              		.cfi_def_cfa_offset 8
 209              		.cfi_offset 3, -8
 210              		.cfi_offset 14, -4
 161:HALLIB/STM32F4xx_HAL_Driver/Src/stm32f4xx_hal.c **** #endif /* INSTRUCTION_CACHE_ENABLE */
 211              		.loc 1 161 3 view .LVU37
 212 0002 094B     		ldr	r3, .L17
 213 0004 1A68     		ldr	r2, [r3]
 214 0006 42F40072 		orr	r2, r2, #512
 215 000a 1A60     		str	r2, [r3]
 165:HALLIB/STM32F4xx_HAL_Driver/Src/stm32f4xx_hal.c **** #endif /* DATA_CACHE_ENABLE */
 216              		.loc 1 165 3 view .LVU38
 217 000c 1A68     		ldr	r2, [r3]
 218 000e 42F48062 		orr	r2, r2, #1024
 219 0012 1A60     		str	r2, [r3]
 173:HALLIB/STM32F4xx_HAL_Driver/Src/stm32f4xx_hal.c **** 
 220              		.loc 1 173 3 view .LVU39
 221 0014 0520     		movs	r0, #5
 222 0016 FFF7FEFF 		bl	HAL_NVIC_SetPriorityGrouping
 223              	.LVL6:
 176:HALLIB/STM32F4xx_HAL_Driver/Src/stm32f4xx_hal.c **** 
 224              		.loc 1 176 3 view .LVU40
 225 001a 0F20     		movs	r0, #15
ARM GAS  /tmp/ccsmgGwe.s 			page 10


 226 001c FFF7FEFF 		bl	HAL_InitTick
 227              	.LVL7:
 179:HALLIB/STM32F4xx_HAL_Driver/Src/stm32f4xx_hal.c **** 
 228              		.loc 1 179 3 view .LVU41
 229 0020 FFF7FEFF 		bl	HAL_MspInit
 230              	.LVL8:
 182:HALLIB/STM32F4xx_HAL_Driver/Src/stm32f4xx_hal.c **** }
 231              		.loc 1 182 3 view .LVU42
 183:HALLIB/STM32F4xx_HAL_Driver/Src/stm32f4xx_hal.c **** 
 232              		.loc 1 183 1 is_stmt 0 view .LVU43
 233 0024 0020     		movs	r0, #0
 234 0026 08BD     		pop	{r3, pc}
 235              	.L18:
 236              		.align	2
 237              	.L17:
 238 0028 003C0240 		.word	1073888256
 239              		.cfi_endproc
 240              	.LFE132:
 242              		.section	.text.HAL_IncTick,"ax",%progbits
 243              		.align	1
 244              		.weak	HAL_IncTick
 245              		.syntax unified
 246              		.thumb
 247              		.thumb_func
 248              		.fpu fpv4-sp-d16
 250              	HAL_IncTick:
 251              	.LFB137:
 275:HALLIB/STM32F4xx_HAL_Driver/Src/stm32f4xx_hal.c **** 
 276:HALLIB/STM32F4xx_HAL_Driver/Src/stm32f4xx_hal.c **** /**
 277:HALLIB/STM32F4xx_HAL_Driver/Src/stm32f4xx_hal.c ****   * @}
 278:HALLIB/STM32F4xx_HAL_Driver/Src/stm32f4xx_hal.c ****   */
 279:HALLIB/STM32F4xx_HAL_Driver/Src/stm32f4xx_hal.c **** 
 280:HALLIB/STM32F4xx_HAL_Driver/Src/stm32f4xx_hal.c **** /** @defgroup HAL_Exported_Functions_Group2 HAL Control functions 
 281:HALLIB/STM32F4xx_HAL_Driver/Src/stm32f4xx_hal.c ****  *  @brief    HAL Control functions
 282:HALLIB/STM32F4xx_HAL_Driver/Src/stm32f4xx_hal.c ****  *
 283:HALLIB/STM32F4xx_HAL_Driver/Src/stm32f4xx_hal.c **** @verbatim
 284:HALLIB/STM32F4xx_HAL_Driver/Src/stm32f4xx_hal.c ****  ===============================================================================
 285:HALLIB/STM32F4xx_HAL_Driver/Src/stm32f4xx_hal.c ****                       ##### HAL Control functions #####
 286:HALLIB/STM32F4xx_HAL_Driver/Src/stm32f4xx_hal.c ****  ===============================================================================
 287:HALLIB/STM32F4xx_HAL_Driver/Src/stm32f4xx_hal.c ****     [..]  This section provides functions allowing to:
 288:HALLIB/STM32F4xx_HAL_Driver/Src/stm32f4xx_hal.c ****       (+) Provide a tick value in millisecond
 289:HALLIB/STM32F4xx_HAL_Driver/Src/stm32f4xx_hal.c ****       (+) Provide a blocking delay in millisecond
 290:HALLIB/STM32F4xx_HAL_Driver/Src/stm32f4xx_hal.c ****       (+) Suspend the time base source interrupt
 291:HALLIB/STM32F4xx_HAL_Driver/Src/stm32f4xx_hal.c ****       (+) Resume the time base source interrupt
 292:HALLIB/STM32F4xx_HAL_Driver/Src/stm32f4xx_hal.c ****       (+) Get the HAL API driver version
 293:HALLIB/STM32F4xx_HAL_Driver/Src/stm32f4xx_hal.c ****       (+) Get the device identifier
 294:HALLIB/STM32F4xx_HAL_Driver/Src/stm32f4xx_hal.c ****       (+) Get the device revision identifier
 295:HALLIB/STM32F4xx_HAL_Driver/Src/stm32f4xx_hal.c ****       (+) Enable/Disable Debug module during SLEEP mode
 296:HALLIB/STM32F4xx_HAL_Driver/Src/stm32f4xx_hal.c ****       (+) Enable/Disable Debug module during STOP mode
 297:HALLIB/STM32F4xx_HAL_Driver/Src/stm32f4xx_hal.c ****       (+) Enable/Disable Debug module during STANDBY mode
 298:HALLIB/STM32F4xx_HAL_Driver/Src/stm32f4xx_hal.c **** 
 299:HALLIB/STM32F4xx_HAL_Driver/Src/stm32f4xx_hal.c **** @endverbatim
 300:HALLIB/STM32F4xx_HAL_Driver/Src/stm32f4xx_hal.c ****   * @{
 301:HALLIB/STM32F4xx_HAL_Driver/Src/stm32f4xx_hal.c ****   */
 302:HALLIB/STM32F4xx_HAL_Driver/Src/stm32f4xx_hal.c **** 
 303:HALLIB/STM32F4xx_HAL_Driver/Src/stm32f4xx_hal.c **** /**
 304:HALLIB/STM32F4xx_HAL_Driver/Src/stm32f4xx_hal.c ****   * @brief This function is called to increment  a global variable "uwTick"
ARM GAS  /tmp/ccsmgGwe.s 			page 11


 305:HALLIB/STM32F4xx_HAL_Driver/Src/stm32f4xx_hal.c ****   *        used as application time base.
 306:HALLIB/STM32F4xx_HAL_Driver/Src/stm32f4xx_hal.c ****   * @note In the default implementation, this variable is incremented each 1ms
 307:HALLIB/STM32F4xx_HAL_Driver/Src/stm32f4xx_hal.c ****   *       in SysTick ISR.
 308:HALLIB/STM32F4xx_HAL_Driver/Src/stm32f4xx_hal.c ****  * @note This function is declared as __weak to be overwritten in case of other 
 309:HALLIB/STM32F4xx_HAL_Driver/Src/stm32f4xx_hal.c ****   *      implementations in user file.
 310:HALLIB/STM32F4xx_HAL_Driver/Src/stm32f4xx_hal.c ****   * @retval None
 311:HALLIB/STM32F4xx_HAL_Driver/Src/stm32f4xx_hal.c ****   */
 312:HALLIB/STM32F4xx_HAL_Driver/Src/stm32f4xx_hal.c **** __weak void HAL_IncTick(void)
 313:HALLIB/STM32F4xx_HAL_Driver/Src/stm32f4xx_hal.c **** {
 252              		.loc 1 313 1 is_stmt 1 view -0
 253              		.cfi_startproc
 254              		@ args = 0, pretend = 0, frame = 0
 255              		@ frame_needed = 0, uses_anonymous_args = 0
 256              		@ link register save eliminated.
 314:HALLIB/STM32F4xx_HAL_Driver/Src/stm32f4xx_hal.c ****   uwTick += uwTickFreq;
 257              		.loc 1 314 3 view .LVU45
 258              		.loc 1 314 10 is_stmt 0 view .LVU46
 259 0000 034A     		ldr	r2, .L20
 260 0002 1168     		ldr	r1, [r2]
 261 0004 034B     		ldr	r3, .L20+4
 262 0006 1B78     		ldrb	r3, [r3]	@ zero_extendqisi2
 263 0008 0B44     		add	r3, r3, r1
 264 000a 1360     		str	r3, [r2]
 315:HALLIB/STM32F4xx_HAL_Driver/Src/stm32f4xx_hal.c **** }
 265              		.loc 1 315 1 view .LVU47
 266 000c 7047     		bx	lr
 267              	.L21:
 268 000e 00BF     		.align	2
 269              	.L20:
 270 0010 00000000 		.word	uwTick
 271 0014 00000000 		.word	.LANCHOR0
 272              		.cfi_endproc
 273              	.LFE137:
 275              		.section	.text.HAL_GetTick,"ax",%progbits
 276              		.align	1
 277              		.weak	HAL_GetTick
 278              		.syntax unified
 279              		.thumb
 280              		.thumb_func
 281              		.fpu fpv4-sp-d16
 283              	HAL_GetTick:
 284              	.LFB138:
 316:HALLIB/STM32F4xx_HAL_Driver/Src/stm32f4xx_hal.c **** 
 317:HALLIB/STM32F4xx_HAL_Driver/Src/stm32f4xx_hal.c **** /**
 318:HALLIB/STM32F4xx_HAL_Driver/Src/stm32f4xx_hal.c ****   * @brief Provides a tick value in millisecond.
 319:HALLIB/STM32F4xx_HAL_Driver/Src/stm32f4xx_hal.c ****   * @note This function is declared as __weak to be overwritten in case of other 
 320:HALLIB/STM32F4xx_HAL_Driver/Src/stm32f4xx_hal.c ****   *       implementations in user file.
 321:HALLIB/STM32F4xx_HAL_Driver/Src/stm32f4xx_hal.c ****   * @retval tick value
 322:HALLIB/STM32F4xx_HAL_Driver/Src/stm32f4xx_hal.c ****   */
 323:HALLIB/STM32F4xx_HAL_Driver/Src/stm32f4xx_hal.c **** __weak uint32_t HAL_GetTick(void)
 324:HALLIB/STM32F4xx_HAL_Driver/Src/stm32f4xx_hal.c **** {
 285              		.loc 1 324 1 is_stmt 1 view -0
 286              		.cfi_startproc
 287              		@ args = 0, pretend = 0, frame = 0
 288              		@ frame_needed = 0, uses_anonymous_args = 0
 289              		@ link register save eliminated.
 325:HALLIB/STM32F4xx_HAL_Driver/Src/stm32f4xx_hal.c ****   return uwTick;
ARM GAS  /tmp/ccsmgGwe.s 			page 12


 290              		.loc 1 325 3 view .LVU49
 291              		.loc 1 325 10 is_stmt 0 view .LVU50
 292 0000 014B     		ldr	r3, .L23
 293 0002 1868     		ldr	r0, [r3]
 326:HALLIB/STM32F4xx_HAL_Driver/Src/stm32f4xx_hal.c **** }
 294              		.loc 1 326 1 view .LVU51
 295 0004 7047     		bx	lr
 296              	.L24:
 297 0006 00BF     		.align	2
 298              	.L23:
 299 0008 00000000 		.word	uwTick
 300              		.cfi_endproc
 301              	.LFE138:
 303              		.section	.text.HAL_GetTickPrio,"ax",%progbits
 304              		.align	1
 305              		.global	HAL_GetTickPrio
 306              		.syntax unified
 307              		.thumb
 308              		.thumb_func
 309              		.fpu fpv4-sp-d16
 311              	HAL_GetTickPrio:
 312              	.LFB139:
 327:HALLIB/STM32F4xx_HAL_Driver/Src/stm32f4xx_hal.c **** 
 328:HALLIB/STM32F4xx_HAL_Driver/Src/stm32f4xx_hal.c **** /**
 329:HALLIB/STM32F4xx_HAL_Driver/Src/stm32f4xx_hal.c ****   * @brief This function returns a tick priority.
 330:HALLIB/STM32F4xx_HAL_Driver/Src/stm32f4xx_hal.c ****   * @retval tick priority
 331:HALLIB/STM32F4xx_HAL_Driver/Src/stm32f4xx_hal.c ****   */
 332:HALLIB/STM32F4xx_HAL_Driver/Src/stm32f4xx_hal.c **** uint32_t HAL_GetTickPrio(void)
 333:HALLIB/STM32F4xx_HAL_Driver/Src/stm32f4xx_hal.c **** {
 313              		.loc 1 333 1 is_stmt 1 view -0
 314              		.cfi_startproc
 315              		@ args = 0, pretend = 0, frame = 0
 316              		@ frame_needed = 0, uses_anonymous_args = 0
 317              		@ link register save eliminated.
 334:HALLIB/STM32F4xx_HAL_Driver/Src/stm32f4xx_hal.c ****   return uwTickPrio;
 318              		.loc 1 334 3 view .LVU53
 335:HALLIB/STM32F4xx_HAL_Driver/Src/stm32f4xx_hal.c **** }
 319              		.loc 1 335 1 is_stmt 0 view .LVU54
 320 0000 014B     		ldr	r3, .L26
 321 0002 1868     		ldr	r0, [r3]
 322 0004 7047     		bx	lr
 323              	.L27:
 324 0006 00BF     		.align	2
 325              	.L26:
 326 0008 00000000 		.word	.LANCHOR1
 327              		.cfi_endproc
 328              	.LFE139:
 330              		.section	.text.HAL_SetTickFreq,"ax",%progbits
 331              		.align	1
 332              		.global	HAL_SetTickFreq
 333              		.syntax unified
 334              		.thumb
 335              		.thumb_func
 336              		.fpu fpv4-sp-d16
 338              	HAL_SetTickFreq:
 339              	.LVL9:
 340              	.LFB140:
ARM GAS  /tmp/ccsmgGwe.s 			page 13


 336:HALLIB/STM32F4xx_HAL_Driver/Src/stm32f4xx_hal.c **** 
 337:HALLIB/STM32F4xx_HAL_Driver/Src/stm32f4xx_hal.c **** /**
 338:HALLIB/STM32F4xx_HAL_Driver/Src/stm32f4xx_hal.c ****   * @brief Set new tick Freq.
 339:HALLIB/STM32F4xx_HAL_Driver/Src/stm32f4xx_hal.c ****   * @retval Status
 340:HALLIB/STM32F4xx_HAL_Driver/Src/stm32f4xx_hal.c ****   */
 341:HALLIB/STM32F4xx_HAL_Driver/Src/stm32f4xx_hal.c **** HAL_StatusTypeDef HAL_SetTickFreq(HAL_TickFreqTypeDef Freq)
 342:HALLIB/STM32F4xx_HAL_Driver/Src/stm32f4xx_hal.c **** {
 341              		.loc 1 342 1 is_stmt 1 view -0
 342              		.cfi_startproc
 343              		@ args = 0, pretend = 0, frame = 0
 344              		@ frame_needed = 0, uses_anonymous_args = 0
 345              		.loc 1 342 1 is_stmt 0 view .LVU56
 346 0000 08B5     		push	{r3, lr}
 347              	.LCFI3:
 348              		.cfi_def_cfa_offset 8
 349              		.cfi_offset 3, -8
 350              		.cfi_offset 14, -4
 343:HALLIB/STM32F4xx_HAL_Driver/Src/stm32f4xx_hal.c ****   HAL_StatusTypeDef status  = HAL_OK;
 351              		.loc 1 343 3 is_stmt 1 view .LVU57
 352              	.LVL10:
 344:HALLIB/STM32F4xx_HAL_Driver/Src/stm32f4xx_hal.c ****   assert_param(IS_TICKFREQ(Freq));
 353              		.loc 1 344 3 view .LVU58
 345:HALLIB/STM32F4xx_HAL_Driver/Src/stm32f4xx_hal.c **** 
 346:HALLIB/STM32F4xx_HAL_Driver/Src/stm32f4xx_hal.c ****   if (uwTickFreq != Freq)
 354              		.loc 1 346 3 view .LVU59
 355              		.loc 1 346 18 is_stmt 0 view .LVU60
 356 0002 064B     		ldr	r3, .L33
 357 0004 1B78     		ldrb	r3, [r3]	@ zero_extendqisi2
 358              		.loc 1 346 6 view .LVU61
 359 0006 8342     		cmp	r3, r0
 360 0008 01D1     		bne	.L32
 343:HALLIB/STM32F4xx_HAL_Driver/Src/stm32f4xx_hal.c ****   assert_param(IS_TICKFREQ(Freq));
 361              		.loc 1 343 21 view .LVU62
 362 000a 0020     		movs	r0, #0
 363              	.LVL11:
 364              	.L29:
 347:HALLIB/STM32F4xx_HAL_Driver/Src/stm32f4xx_hal.c ****   {
 348:HALLIB/STM32F4xx_HAL_Driver/Src/stm32f4xx_hal.c ****     uwTickFreq = Freq;
 349:HALLIB/STM32F4xx_HAL_Driver/Src/stm32f4xx_hal.c **** 
 350:HALLIB/STM32F4xx_HAL_Driver/Src/stm32f4xx_hal.c ****     /* Apply the new tick Freq  */
 351:HALLIB/STM32F4xx_HAL_Driver/Src/stm32f4xx_hal.c ****     status = HAL_InitTick(uwTickPrio);
 352:HALLIB/STM32F4xx_HAL_Driver/Src/stm32f4xx_hal.c ****   }
 353:HALLIB/STM32F4xx_HAL_Driver/Src/stm32f4xx_hal.c **** 
 354:HALLIB/STM32F4xx_HAL_Driver/Src/stm32f4xx_hal.c ****   return status;
 365              		.loc 1 354 3 is_stmt 1 view .LVU63
 355:HALLIB/STM32F4xx_HAL_Driver/Src/stm32f4xx_hal.c **** }
 366              		.loc 1 355 1 is_stmt 0 view .LVU64
 367 000c 08BD     		pop	{r3, pc}
 368              	.LVL12:
 369              	.L32:
 348:HALLIB/STM32F4xx_HAL_Driver/Src/stm32f4xx_hal.c **** 
 370              		.loc 1 348 5 is_stmt 1 view .LVU65
 348:HALLIB/STM32F4xx_HAL_Driver/Src/stm32f4xx_hal.c **** 
 371              		.loc 1 348 16 is_stmt 0 view .LVU66
 372 000e 034B     		ldr	r3, .L33
 373 0010 1870     		strb	r0, [r3]
 351:HALLIB/STM32F4xx_HAL_Driver/Src/stm32f4xx_hal.c ****   }
ARM GAS  /tmp/ccsmgGwe.s 			page 14


 374              		.loc 1 351 5 is_stmt 1 view .LVU67
 351:HALLIB/STM32F4xx_HAL_Driver/Src/stm32f4xx_hal.c ****   }
 375              		.loc 1 351 14 is_stmt 0 view .LVU68
 376 0012 034B     		ldr	r3, .L33+4
 377 0014 1868     		ldr	r0, [r3]
 378              	.LVL13:
 351:HALLIB/STM32F4xx_HAL_Driver/Src/stm32f4xx_hal.c ****   }
 379              		.loc 1 351 14 view .LVU69
 380 0016 FFF7FEFF 		bl	HAL_InitTick
 381              	.LVL14:
 351:HALLIB/STM32F4xx_HAL_Driver/Src/stm32f4xx_hal.c ****   }
 382              		.loc 1 351 14 view .LVU70
 383 001a F7E7     		b	.L29
 384              	.L34:
 385              		.align	2
 386              	.L33:
 387 001c 00000000 		.word	.LANCHOR0
 388 0020 00000000 		.word	.LANCHOR1
 389              		.cfi_endproc
 390              	.LFE140:
 392              		.section	.text.HAL_GetTickFreq,"ax",%progbits
 393              		.align	1
 394              		.global	HAL_GetTickFreq
 395              		.syntax unified
 396              		.thumb
 397              		.thumb_func
 398              		.fpu fpv4-sp-d16
 400              	HAL_GetTickFreq:
 401              	.LFB141:
 356:HALLIB/STM32F4xx_HAL_Driver/Src/stm32f4xx_hal.c **** 
 357:HALLIB/STM32F4xx_HAL_Driver/Src/stm32f4xx_hal.c **** /**
 358:HALLIB/STM32F4xx_HAL_Driver/Src/stm32f4xx_hal.c ****   * @brief Return tick frequency.
 359:HALLIB/STM32F4xx_HAL_Driver/Src/stm32f4xx_hal.c ****   * @retval tick period in Hz
 360:HALLIB/STM32F4xx_HAL_Driver/Src/stm32f4xx_hal.c ****   */
 361:HALLIB/STM32F4xx_HAL_Driver/Src/stm32f4xx_hal.c **** HAL_TickFreqTypeDef HAL_GetTickFreq(void)
 362:HALLIB/STM32F4xx_HAL_Driver/Src/stm32f4xx_hal.c **** {
 402              		.loc 1 362 1 is_stmt 1 view -0
 403              		.cfi_startproc
 404              		@ args = 0, pretend = 0, frame = 0
 405              		@ frame_needed = 0, uses_anonymous_args = 0
 406              		@ link register save eliminated.
 363:HALLIB/STM32F4xx_HAL_Driver/Src/stm32f4xx_hal.c ****   return uwTickFreq;
 407              		.loc 1 363 3 view .LVU72
 364:HALLIB/STM32F4xx_HAL_Driver/Src/stm32f4xx_hal.c **** }
 408              		.loc 1 364 1 is_stmt 0 view .LVU73
 409 0000 014B     		ldr	r3, .L36
 410 0002 1878     		ldrb	r0, [r3]	@ zero_extendqisi2
 411 0004 7047     		bx	lr
 412              	.L37:
 413 0006 00BF     		.align	2
 414              	.L36:
 415 0008 00000000 		.word	.LANCHOR0
 416              		.cfi_endproc
 417              	.LFE141:
 419              		.section	.text.HAL_Delay,"ax",%progbits
 420              		.align	1
 421              		.weak	HAL_Delay
ARM GAS  /tmp/ccsmgGwe.s 			page 15


 422              		.syntax unified
 423              		.thumb
 424              		.thumb_func
 425              		.fpu fpv4-sp-d16
 427              	HAL_Delay:
 428              	.LVL15:
 429              	.LFB142:
 365:HALLIB/STM32F4xx_HAL_Driver/Src/stm32f4xx_hal.c **** 
 366:HALLIB/STM32F4xx_HAL_Driver/Src/stm32f4xx_hal.c **** /**
 367:HALLIB/STM32F4xx_HAL_Driver/Src/stm32f4xx_hal.c ****   * @brief This function provides minimum delay (in milliseconds) based 
 368:HALLIB/STM32F4xx_HAL_Driver/Src/stm32f4xx_hal.c ****   *        on variable incremented.
 369:HALLIB/STM32F4xx_HAL_Driver/Src/stm32f4xx_hal.c ****   * @note In the default implementation , SysTick timer is the source of time base.
 370:HALLIB/STM32F4xx_HAL_Driver/Src/stm32f4xx_hal.c ****   *       It is used to generate interrupts at regular time intervals where uwTick
 371:HALLIB/STM32F4xx_HAL_Driver/Src/stm32f4xx_hal.c ****   *       is incremented.
 372:HALLIB/STM32F4xx_HAL_Driver/Src/stm32f4xx_hal.c ****   * @note This function is declared as __weak to be overwritten in case of other
 373:HALLIB/STM32F4xx_HAL_Driver/Src/stm32f4xx_hal.c ****   *       implementations in user file.
 374:HALLIB/STM32F4xx_HAL_Driver/Src/stm32f4xx_hal.c ****   * @param Delay specifies the delay time length, in milliseconds.
 375:HALLIB/STM32F4xx_HAL_Driver/Src/stm32f4xx_hal.c ****   * @retval None
 376:HALLIB/STM32F4xx_HAL_Driver/Src/stm32f4xx_hal.c ****   */
 377:HALLIB/STM32F4xx_HAL_Driver/Src/stm32f4xx_hal.c **** __weak void HAL_Delay(uint32_t Delay)
 378:HALLIB/STM32F4xx_HAL_Driver/Src/stm32f4xx_hal.c **** {
 430              		.loc 1 378 1 is_stmt 1 view -0
 431              		.cfi_startproc
 432              		@ args = 0, pretend = 0, frame = 0
 433              		@ frame_needed = 0, uses_anonymous_args = 0
 434              		.loc 1 378 1 is_stmt 0 view .LVU75
 435 0000 38B5     		push	{r3, r4, r5, lr}
 436              	.LCFI4:
 437              		.cfi_def_cfa_offset 16
 438              		.cfi_offset 3, -16
 439              		.cfi_offset 4, -12
 440              		.cfi_offset 5, -8
 441              		.cfi_offset 14, -4
 442 0002 0446     		mov	r4, r0
 379:HALLIB/STM32F4xx_HAL_Driver/Src/stm32f4xx_hal.c ****   uint32_t tickstart = HAL_GetTick();
 443              		.loc 1 379 3 is_stmt 1 view .LVU76
 444              		.loc 1 379 24 is_stmt 0 view .LVU77
 445 0004 FFF7FEFF 		bl	HAL_GetTick
 446              	.LVL16:
 447              		.loc 1 379 24 view .LVU78
 448 0008 0546     		mov	r5, r0
 449              	.LVL17:
 380:HALLIB/STM32F4xx_HAL_Driver/Src/stm32f4xx_hal.c ****   uint32_t wait = Delay;
 450              		.loc 1 380 3 is_stmt 1 view .LVU79
 381:HALLIB/STM32F4xx_HAL_Driver/Src/stm32f4xx_hal.c **** 
 382:HALLIB/STM32F4xx_HAL_Driver/Src/stm32f4xx_hal.c ****   /* Add a freq to guarantee minimum wait */
 383:HALLIB/STM32F4xx_HAL_Driver/Src/stm32f4xx_hal.c ****   if (wait < HAL_MAX_DELAY)
 451              		.loc 1 383 3 view .LVU80
 452              		.loc 1 383 6 is_stmt 0 view .LVU81
 453 000a B4F1FF3F 		cmp	r4, #-1
 454 000e 02D0     		beq	.L40
 384:HALLIB/STM32F4xx_HAL_Driver/Src/stm32f4xx_hal.c ****   {
 385:HALLIB/STM32F4xx_HAL_Driver/Src/stm32f4xx_hal.c ****     wait += (uint32_t)(uwTickFreq);
 455              		.loc 1 385 5 is_stmt 1 view .LVU82
 456              		.loc 1 385 13 is_stmt 0 view .LVU83
 457 0010 044B     		ldr	r3, .L42
 458 0012 1B78     		ldrb	r3, [r3]	@ zero_extendqisi2
ARM GAS  /tmp/ccsmgGwe.s 			page 16


 459              		.loc 1 385 10 view .LVU84
 460 0014 1C44     		add	r4, r4, r3
 461              	.LVL18:
 462              	.L40:
 386:HALLIB/STM32F4xx_HAL_Driver/Src/stm32f4xx_hal.c ****   }
 387:HALLIB/STM32F4xx_HAL_Driver/Src/stm32f4xx_hal.c **** 
 388:HALLIB/STM32F4xx_HAL_Driver/Src/stm32f4xx_hal.c ****   while((HAL_GetTick() - tickstart) < wait)
 389:HALLIB/STM32F4xx_HAL_Driver/Src/stm32f4xx_hal.c ****   {
 390:HALLIB/STM32F4xx_HAL_Driver/Src/stm32f4xx_hal.c ****   }
 463              		.loc 1 390 3 is_stmt 1 discriminator 1 view .LVU85
 388:HALLIB/STM32F4xx_HAL_Driver/Src/stm32f4xx_hal.c ****   {
 464              		.loc 1 388 8 discriminator 1 view .LVU86
 388:HALLIB/STM32F4xx_HAL_Driver/Src/stm32f4xx_hal.c ****   {
 465              		.loc 1 388 10 is_stmt 0 discriminator 1 view .LVU87
 466 0016 FFF7FEFF 		bl	HAL_GetTick
 467              	.LVL19:
 388:HALLIB/STM32F4xx_HAL_Driver/Src/stm32f4xx_hal.c ****   {
 468              		.loc 1 388 24 discriminator 1 view .LVU88
 469 001a 401B     		subs	r0, r0, r5
 388:HALLIB/STM32F4xx_HAL_Driver/Src/stm32f4xx_hal.c ****   {
 470              		.loc 1 388 8 discriminator 1 view .LVU89
 471 001c A042     		cmp	r0, r4
 472 001e FAD3     		bcc	.L40
 391:HALLIB/STM32F4xx_HAL_Driver/Src/stm32f4xx_hal.c **** }
 473              		.loc 1 391 1 view .LVU90
 474 0020 38BD     		pop	{r3, r4, r5, pc}
 475              	.LVL20:
 476              	.L43:
 477              		.loc 1 391 1 view .LVU91
 478 0022 00BF     		.align	2
 479              	.L42:
 480 0024 00000000 		.word	.LANCHOR0
 481              		.cfi_endproc
 482              	.LFE142:
 484              		.section	.text.HAL_SuspendTick,"ax",%progbits
 485              		.align	1
 486              		.weak	HAL_SuspendTick
 487              		.syntax unified
 488              		.thumb
 489              		.thumb_func
 490              		.fpu fpv4-sp-d16
 492              	HAL_SuspendTick:
 493              	.LFB143:
 392:HALLIB/STM32F4xx_HAL_Driver/Src/stm32f4xx_hal.c **** 
 393:HALLIB/STM32F4xx_HAL_Driver/Src/stm32f4xx_hal.c **** /**
 394:HALLIB/STM32F4xx_HAL_Driver/Src/stm32f4xx_hal.c ****   * @brief Suspend Tick increment.
 395:HALLIB/STM32F4xx_HAL_Driver/Src/stm32f4xx_hal.c ****   * @note In the default implementation , SysTick timer is the source of time base. It is
 396:HALLIB/STM32F4xx_HAL_Driver/Src/stm32f4xx_hal.c ****   *       used to generate interrupts at regular time intervals. Once HAL_SuspendTick()
 397:HALLIB/STM32F4xx_HAL_Driver/Src/stm32f4xx_hal.c ****   *       is called, the SysTick interrupt will be disabled and so Tick increment 
 398:HALLIB/STM32F4xx_HAL_Driver/Src/stm32f4xx_hal.c ****   *       is suspended.
 399:HALLIB/STM32F4xx_HAL_Driver/Src/stm32f4xx_hal.c ****   * @note This function is declared as __weak to be overwritten in case of other
 400:HALLIB/STM32F4xx_HAL_Driver/Src/stm32f4xx_hal.c ****   *       implementations in user file.
 401:HALLIB/STM32F4xx_HAL_Driver/Src/stm32f4xx_hal.c ****   * @retval None
 402:HALLIB/STM32F4xx_HAL_Driver/Src/stm32f4xx_hal.c ****   */
 403:HALLIB/STM32F4xx_HAL_Driver/Src/stm32f4xx_hal.c **** __weak void HAL_SuspendTick(void)
 404:HALLIB/STM32F4xx_HAL_Driver/Src/stm32f4xx_hal.c **** {
 494              		.loc 1 404 1 is_stmt 1 view -0
ARM GAS  /tmp/ccsmgGwe.s 			page 17


 495              		.cfi_startproc
 496              		@ args = 0, pretend = 0, frame = 0
 497              		@ frame_needed = 0, uses_anonymous_args = 0
 498              		@ link register save eliminated.
 405:HALLIB/STM32F4xx_HAL_Driver/Src/stm32f4xx_hal.c ****   /* Disable SysTick Interrupt */
 406:HALLIB/STM32F4xx_HAL_Driver/Src/stm32f4xx_hal.c ****   SysTick->CTRL &= ~SysTick_CTRL_TICKINT_Msk;
 499              		.loc 1 406 3 view .LVU93
 500              		.loc 1 406 17 is_stmt 0 view .LVU94
 501 0000 024A     		ldr	r2, .L45
 502 0002 1368     		ldr	r3, [r2]
 503 0004 23F00203 		bic	r3, r3, #2
 504 0008 1360     		str	r3, [r2]
 407:HALLIB/STM32F4xx_HAL_Driver/Src/stm32f4xx_hal.c **** }
 505              		.loc 1 407 1 view .LVU95
 506 000a 7047     		bx	lr
 507              	.L46:
 508              		.align	2
 509              	.L45:
 510 000c 10E000E0 		.word	-536813552
 511              		.cfi_endproc
 512              	.LFE143:
 514              		.section	.text.HAL_ResumeTick,"ax",%progbits
 515              		.align	1
 516              		.weak	HAL_ResumeTick
 517              		.syntax unified
 518              		.thumb
 519              		.thumb_func
 520              		.fpu fpv4-sp-d16
 522              	HAL_ResumeTick:
 523              	.LFB144:
 408:HALLIB/STM32F4xx_HAL_Driver/Src/stm32f4xx_hal.c **** 
 409:HALLIB/STM32F4xx_HAL_Driver/Src/stm32f4xx_hal.c **** /**
 410:HALLIB/STM32F4xx_HAL_Driver/Src/stm32f4xx_hal.c ****   * @brief Resume Tick increment.
 411:HALLIB/STM32F4xx_HAL_Driver/Src/stm32f4xx_hal.c ****   * @note In the default implementation , SysTick timer is the source of time base. It is
 412:HALLIB/STM32F4xx_HAL_Driver/Src/stm32f4xx_hal.c ****   *       used to generate interrupts at regular time intervals. Once HAL_ResumeTick()
 413:HALLIB/STM32F4xx_HAL_Driver/Src/stm32f4xx_hal.c ****   *       is called, the SysTick interrupt will be enabled and so Tick increment 
 414:HALLIB/STM32F4xx_HAL_Driver/Src/stm32f4xx_hal.c ****   *       is resumed.
 415:HALLIB/STM32F4xx_HAL_Driver/Src/stm32f4xx_hal.c ****   * @note This function is declared as __weak to be overwritten in case of other
 416:HALLIB/STM32F4xx_HAL_Driver/Src/stm32f4xx_hal.c ****   *       implementations in user file.
 417:HALLIB/STM32F4xx_HAL_Driver/Src/stm32f4xx_hal.c ****   * @retval None
 418:HALLIB/STM32F4xx_HAL_Driver/Src/stm32f4xx_hal.c ****   */
 419:HALLIB/STM32F4xx_HAL_Driver/Src/stm32f4xx_hal.c **** __weak void HAL_ResumeTick(void)
 420:HALLIB/STM32F4xx_HAL_Driver/Src/stm32f4xx_hal.c **** {
 524              		.loc 1 420 1 is_stmt 1 view -0
 525              		.cfi_startproc
 526              		@ args = 0, pretend = 0, frame = 0
 527              		@ frame_needed = 0, uses_anonymous_args = 0
 528              		@ link register save eliminated.
 421:HALLIB/STM32F4xx_HAL_Driver/Src/stm32f4xx_hal.c ****   /* Enable SysTick Interrupt */
 422:HALLIB/STM32F4xx_HAL_Driver/Src/stm32f4xx_hal.c ****   SysTick->CTRL  |= SysTick_CTRL_TICKINT_Msk;
 529              		.loc 1 422 3 view .LVU97
 530              		.loc 1 422 18 is_stmt 0 view .LVU98
 531 0000 024A     		ldr	r2, .L48
 532 0002 1368     		ldr	r3, [r2]
 533 0004 43F00203 		orr	r3, r3, #2
 534 0008 1360     		str	r3, [r2]
 423:HALLIB/STM32F4xx_HAL_Driver/Src/stm32f4xx_hal.c **** }
ARM GAS  /tmp/ccsmgGwe.s 			page 18


 535              		.loc 1 423 1 view .LVU99
 536 000a 7047     		bx	lr
 537              	.L49:
 538              		.align	2
 539              	.L48:
 540 000c 10E000E0 		.word	-536813552
 541              		.cfi_endproc
 542              	.LFE144:
 544              		.section	.text.HAL_GetHalVersion,"ax",%progbits
 545              		.align	1
 546              		.global	HAL_GetHalVersion
 547              		.syntax unified
 548              		.thumb
 549              		.thumb_func
 550              		.fpu fpv4-sp-d16
 552              	HAL_GetHalVersion:
 553              	.LFB145:
 424:HALLIB/STM32F4xx_HAL_Driver/Src/stm32f4xx_hal.c **** 
 425:HALLIB/STM32F4xx_HAL_Driver/Src/stm32f4xx_hal.c **** /**
 426:HALLIB/STM32F4xx_HAL_Driver/Src/stm32f4xx_hal.c ****   * @brief  Returns the HAL revision
 427:HALLIB/STM32F4xx_HAL_Driver/Src/stm32f4xx_hal.c ****   * @retval version : 0xXYZR (8bits for each decimal, R for RC)
 428:HALLIB/STM32F4xx_HAL_Driver/Src/stm32f4xx_hal.c ****   */
 429:HALLIB/STM32F4xx_HAL_Driver/Src/stm32f4xx_hal.c **** uint32_t HAL_GetHalVersion(void)
 430:HALLIB/STM32F4xx_HAL_Driver/Src/stm32f4xx_hal.c **** {
 554              		.loc 1 430 1 is_stmt 1 view -0
 555              		.cfi_startproc
 556              		@ args = 0, pretend = 0, frame = 0
 557              		@ frame_needed = 0, uses_anonymous_args = 0
 558              		@ link register save eliminated.
 431:HALLIB/STM32F4xx_HAL_Driver/Src/stm32f4xx_hal.c ****   return __STM32F4xx_HAL_VERSION;
 559              		.loc 1 431 3 view .LVU101
 432:HALLIB/STM32F4xx_HAL_Driver/Src/stm32f4xx_hal.c **** }
 560              		.loc 1 432 1 is_stmt 0 view .LVU102
 561 0000 0048     		ldr	r0, .L51
 562 0002 7047     		bx	lr
 563              	.L52:
 564              		.align	2
 565              	.L51:
 566 0004 00060701 		.word	17237504
 567              		.cfi_endproc
 568              	.LFE145:
 570              		.section	.text.HAL_GetREVID,"ax",%progbits
 571              		.align	1
 572              		.global	HAL_GetREVID
 573              		.syntax unified
 574              		.thumb
 575              		.thumb_func
 576              		.fpu fpv4-sp-d16
 578              	HAL_GetREVID:
 579              	.LFB146:
 433:HALLIB/STM32F4xx_HAL_Driver/Src/stm32f4xx_hal.c **** 
 434:HALLIB/STM32F4xx_HAL_Driver/Src/stm32f4xx_hal.c **** /**
 435:HALLIB/STM32F4xx_HAL_Driver/Src/stm32f4xx_hal.c ****   * @brief  Returns the device revision identifier.
 436:HALLIB/STM32F4xx_HAL_Driver/Src/stm32f4xx_hal.c ****   * @retval Device revision identifier
 437:HALLIB/STM32F4xx_HAL_Driver/Src/stm32f4xx_hal.c ****   */
 438:HALLIB/STM32F4xx_HAL_Driver/Src/stm32f4xx_hal.c **** uint32_t HAL_GetREVID(void)
 439:HALLIB/STM32F4xx_HAL_Driver/Src/stm32f4xx_hal.c **** {
ARM GAS  /tmp/ccsmgGwe.s 			page 19


 580              		.loc 1 439 1 is_stmt 1 view -0
 581              		.cfi_startproc
 582              		@ args = 0, pretend = 0, frame = 0
 583              		@ frame_needed = 0, uses_anonymous_args = 0
 584              		@ link register save eliminated.
 440:HALLIB/STM32F4xx_HAL_Driver/Src/stm32f4xx_hal.c ****   return((DBGMCU->IDCODE) >> 16U);
 585              		.loc 1 440 3 view .LVU104
 586              		.loc 1 440 17 is_stmt 0 view .LVU105
 587 0000 014B     		ldr	r3, .L54
 588 0002 1868     		ldr	r0, [r3]
 441:HALLIB/STM32F4xx_HAL_Driver/Src/stm32f4xx_hal.c **** }
 589              		.loc 1 441 1 view .LVU106
 590 0004 000C     		lsrs	r0, r0, #16
 591 0006 7047     		bx	lr
 592              	.L55:
 593              		.align	2
 594              	.L54:
 595 0008 002004E0 		.word	-536600576
 596              		.cfi_endproc
 597              	.LFE146:
 599              		.section	.text.HAL_GetDEVID,"ax",%progbits
 600              		.align	1
 601              		.global	HAL_GetDEVID
 602              		.syntax unified
 603              		.thumb
 604              		.thumb_func
 605              		.fpu fpv4-sp-d16
 607              	HAL_GetDEVID:
 608              	.LFB147:
 442:HALLIB/STM32F4xx_HAL_Driver/Src/stm32f4xx_hal.c **** 
 443:HALLIB/STM32F4xx_HAL_Driver/Src/stm32f4xx_hal.c **** /**
 444:HALLIB/STM32F4xx_HAL_Driver/Src/stm32f4xx_hal.c ****   * @brief  Returns the device identifier.
 445:HALLIB/STM32F4xx_HAL_Driver/Src/stm32f4xx_hal.c ****   * @retval Device identifier
 446:HALLIB/STM32F4xx_HAL_Driver/Src/stm32f4xx_hal.c ****   */
 447:HALLIB/STM32F4xx_HAL_Driver/Src/stm32f4xx_hal.c **** uint32_t HAL_GetDEVID(void)
 448:HALLIB/STM32F4xx_HAL_Driver/Src/stm32f4xx_hal.c **** {
 609              		.loc 1 448 1 is_stmt 1 view -0
 610              		.cfi_startproc
 611              		@ args = 0, pretend = 0, frame = 0
 612              		@ frame_needed = 0, uses_anonymous_args = 0
 613              		@ link register save eliminated.
 449:HALLIB/STM32F4xx_HAL_Driver/Src/stm32f4xx_hal.c ****   return((DBGMCU->IDCODE) & IDCODE_DEVID_MASK);
 614              		.loc 1 449 3 view .LVU108
 615              		.loc 1 449 17 is_stmt 0 view .LVU109
 616 0000 024B     		ldr	r3, .L57
 617 0002 1868     		ldr	r0, [r3]
 450:HALLIB/STM32F4xx_HAL_Driver/Src/stm32f4xx_hal.c **** }
 618              		.loc 1 450 1 view .LVU110
 619 0004 C0F30B00 		ubfx	r0, r0, #0, #12
 620 0008 7047     		bx	lr
 621              	.L58:
 622 000a 00BF     		.align	2
 623              	.L57:
 624 000c 002004E0 		.word	-536600576
 625              		.cfi_endproc
 626              	.LFE147:
 628              		.section	.text.HAL_DBGMCU_EnableDBGSleepMode,"ax",%progbits
ARM GAS  /tmp/ccsmgGwe.s 			page 20


 629              		.align	1
 630              		.global	HAL_DBGMCU_EnableDBGSleepMode
 631              		.syntax unified
 632              		.thumb
 633              		.thumb_func
 634              		.fpu fpv4-sp-d16
 636              	HAL_DBGMCU_EnableDBGSleepMode:
 637              	.LFB148:
 451:HALLIB/STM32F4xx_HAL_Driver/Src/stm32f4xx_hal.c **** 
 452:HALLIB/STM32F4xx_HAL_Driver/Src/stm32f4xx_hal.c **** /**
 453:HALLIB/STM32F4xx_HAL_Driver/Src/stm32f4xx_hal.c ****   * @brief  Enable the Debug Module during SLEEP mode
 454:HALLIB/STM32F4xx_HAL_Driver/Src/stm32f4xx_hal.c ****   * @retval None
 455:HALLIB/STM32F4xx_HAL_Driver/Src/stm32f4xx_hal.c ****   */
 456:HALLIB/STM32F4xx_HAL_Driver/Src/stm32f4xx_hal.c **** void HAL_DBGMCU_EnableDBGSleepMode(void)
 457:HALLIB/STM32F4xx_HAL_Driver/Src/stm32f4xx_hal.c **** {
 638              		.loc 1 457 1 is_stmt 1 view -0
 639              		.cfi_startproc
 640              		@ args = 0, pretend = 0, frame = 0
 641              		@ frame_needed = 0, uses_anonymous_args = 0
 642              		@ link register save eliminated.
 458:HALLIB/STM32F4xx_HAL_Driver/Src/stm32f4xx_hal.c ****   SET_BIT(DBGMCU->CR, DBGMCU_CR_DBG_SLEEP);
 643              		.loc 1 458 3 view .LVU112
 644 0000 024A     		ldr	r2, .L60
 645 0002 5368     		ldr	r3, [r2, #4]
 646 0004 43F00103 		orr	r3, r3, #1
 647 0008 5360     		str	r3, [r2, #4]
 459:HALLIB/STM32F4xx_HAL_Driver/Src/stm32f4xx_hal.c **** }
 648              		.loc 1 459 1 is_stmt 0 view .LVU113
 649 000a 7047     		bx	lr
 650              	.L61:
 651              		.align	2
 652              	.L60:
 653 000c 002004E0 		.word	-536600576
 654              		.cfi_endproc
 655              	.LFE148:
 657              		.section	.text.HAL_DBGMCU_DisableDBGSleepMode,"ax",%progbits
 658              		.align	1
 659              		.global	HAL_DBGMCU_DisableDBGSleepMode
 660              		.syntax unified
 661              		.thumb
 662              		.thumb_func
 663              		.fpu fpv4-sp-d16
 665              	HAL_DBGMCU_DisableDBGSleepMode:
 666              	.LFB149:
 460:HALLIB/STM32F4xx_HAL_Driver/Src/stm32f4xx_hal.c **** 
 461:HALLIB/STM32F4xx_HAL_Driver/Src/stm32f4xx_hal.c **** /**
 462:HALLIB/STM32F4xx_HAL_Driver/Src/stm32f4xx_hal.c ****   * @brief  Disable the Debug Module during SLEEP mode
 463:HALLIB/STM32F4xx_HAL_Driver/Src/stm32f4xx_hal.c ****   * @retval None
 464:HALLIB/STM32F4xx_HAL_Driver/Src/stm32f4xx_hal.c ****   */
 465:HALLIB/STM32F4xx_HAL_Driver/Src/stm32f4xx_hal.c **** void HAL_DBGMCU_DisableDBGSleepMode(void)
 466:HALLIB/STM32F4xx_HAL_Driver/Src/stm32f4xx_hal.c **** {
 667              		.loc 1 466 1 is_stmt 1 view -0
 668              		.cfi_startproc
 669              		@ args = 0, pretend = 0, frame = 0
 670              		@ frame_needed = 0, uses_anonymous_args = 0
 671              		@ link register save eliminated.
 467:HALLIB/STM32F4xx_HAL_Driver/Src/stm32f4xx_hal.c ****   CLEAR_BIT(DBGMCU->CR, DBGMCU_CR_DBG_SLEEP);
ARM GAS  /tmp/ccsmgGwe.s 			page 21


 672              		.loc 1 467 3 view .LVU115
 673 0000 024A     		ldr	r2, .L63
 674 0002 5368     		ldr	r3, [r2, #4]
 675 0004 23F00103 		bic	r3, r3, #1
 676 0008 5360     		str	r3, [r2, #4]
 468:HALLIB/STM32F4xx_HAL_Driver/Src/stm32f4xx_hal.c **** }
 677              		.loc 1 468 1 is_stmt 0 view .LVU116
 678 000a 7047     		bx	lr
 679              	.L64:
 680              		.align	2
 681              	.L63:
 682 000c 002004E0 		.word	-536600576
 683              		.cfi_endproc
 684              	.LFE149:
 686              		.section	.text.HAL_DBGMCU_EnableDBGStopMode,"ax",%progbits
 687              		.align	1
 688              		.global	HAL_DBGMCU_EnableDBGStopMode
 689              		.syntax unified
 690              		.thumb
 691              		.thumb_func
 692              		.fpu fpv4-sp-d16
 694              	HAL_DBGMCU_EnableDBGStopMode:
 695              	.LFB150:
 469:HALLIB/STM32F4xx_HAL_Driver/Src/stm32f4xx_hal.c **** 
 470:HALLIB/STM32F4xx_HAL_Driver/Src/stm32f4xx_hal.c **** /**
 471:HALLIB/STM32F4xx_HAL_Driver/Src/stm32f4xx_hal.c ****   * @brief  Enable the Debug Module during STOP mode
 472:HALLIB/STM32F4xx_HAL_Driver/Src/stm32f4xx_hal.c ****   * @retval None
 473:HALLIB/STM32F4xx_HAL_Driver/Src/stm32f4xx_hal.c ****   */
 474:HALLIB/STM32F4xx_HAL_Driver/Src/stm32f4xx_hal.c **** void HAL_DBGMCU_EnableDBGStopMode(void)
 475:HALLIB/STM32F4xx_HAL_Driver/Src/stm32f4xx_hal.c **** {
 696              		.loc 1 475 1 is_stmt 1 view -0
 697              		.cfi_startproc
 698              		@ args = 0, pretend = 0, frame = 0
 699              		@ frame_needed = 0, uses_anonymous_args = 0
 700              		@ link register save eliminated.
 476:HALLIB/STM32F4xx_HAL_Driver/Src/stm32f4xx_hal.c ****   SET_BIT(DBGMCU->CR, DBGMCU_CR_DBG_STOP);
 701              		.loc 1 476 3 view .LVU118
 702 0000 024A     		ldr	r2, .L66
 703 0002 5368     		ldr	r3, [r2, #4]
 704 0004 43F00203 		orr	r3, r3, #2
 705 0008 5360     		str	r3, [r2, #4]
 477:HALLIB/STM32F4xx_HAL_Driver/Src/stm32f4xx_hal.c **** }
 706              		.loc 1 477 1 is_stmt 0 view .LVU119
 707 000a 7047     		bx	lr
 708              	.L67:
 709              		.align	2
 710              	.L66:
 711 000c 002004E0 		.word	-536600576
 712              		.cfi_endproc
 713              	.LFE150:
 715              		.section	.text.HAL_DBGMCU_DisableDBGStopMode,"ax",%progbits
 716              		.align	1
 717              		.global	HAL_DBGMCU_DisableDBGStopMode
 718              		.syntax unified
 719              		.thumb
 720              		.thumb_func
 721              		.fpu fpv4-sp-d16
ARM GAS  /tmp/ccsmgGwe.s 			page 22


 723              	HAL_DBGMCU_DisableDBGStopMode:
 724              	.LFB151:
 478:HALLIB/STM32F4xx_HAL_Driver/Src/stm32f4xx_hal.c **** 
 479:HALLIB/STM32F4xx_HAL_Driver/Src/stm32f4xx_hal.c **** /**
 480:HALLIB/STM32F4xx_HAL_Driver/Src/stm32f4xx_hal.c ****   * @brief  Disable the Debug Module during STOP mode
 481:HALLIB/STM32F4xx_HAL_Driver/Src/stm32f4xx_hal.c ****   * @retval None
 482:HALLIB/STM32F4xx_HAL_Driver/Src/stm32f4xx_hal.c ****   */
 483:HALLIB/STM32F4xx_HAL_Driver/Src/stm32f4xx_hal.c **** void HAL_DBGMCU_DisableDBGStopMode(void)
 484:HALLIB/STM32F4xx_HAL_Driver/Src/stm32f4xx_hal.c **** {
 725              		.loc 1 484 1 is_stmt 1 view -0
 726              		.cfi_startproc
 727              		@ args = 0, pretend = 0, frame = 0
 728              		@ frame_needed = 0, uses_anonymous_args = 0
 729              		@ link register save eliminated.
 485:HALLIB/STM32F4xx_HAL_Driver/Src/stm32f4xx_hal.c ****   CLEAR_BIT(DBGMCU->CR, DBGMCU_CR_DBG_STOP);
 730              		.loc 1 485 3 view .LVU121
 731 0000 024A     		ldr	r2, .L69
 732 0002 5368     		ldr	r3, [r2, #4]
 733 0004 23F00203 		bic	r3, r3, #2
 734 0008 5360     		str	r3, [r2, #4]
 486:HALLIB/STM32F4xx_HAL_Driver/Src/stm32f4xx_hal.c **** }
 735              		.loc 1 486 1 is_stmt 0 view .LVU122
 736 000a 7047     		bx	lr
 737              	.L70:
 738              		.align	2
 739              	.L69:
 740 000c 002004E0 		.word	-536600576
 741              		.cfi_endproc
 742              	.LFE151:
 744              		.section	.text.HAL_DBGMCU_EnableDBGStandbyMode,"ax",%progbits
 745              		.align	1
 746              		.global	HAL_DBGMCU_EnableDBGStandbyMode
 747              		.syntax unified
 748              		.thumb
 749              		.thumb_func
 750              		.fpu fpv4-sp-d16
 752              	HAL_DBGMCU_EnableDBGStandbyMode:
 753              	.LFB152:
 487:HALLIB/STM32F4xx_HAL_Driver/Src/stm32f4xx_hal.c **** 
 488:HALLIB/STM32F4xx_HAL_Driver/Src/stm32f4xx_hal.c **** /**
 489:HALLIB/STM32F4xx_HAL_Driver/Src/stm32f4xx_hal.c ****   * @brief  Enable the Debug Module during STANDBY mode
 490:HALLIB/STM32F4xx_HAL_Driver/Src/stm32f4xx_hal.c ****   * @retval None
 491:HALLIB/STM32F4xx_HAL_Driver/Src/stm32f4xx_hal.c ****   */
 492:HALLIB/STM32F4xx_HAL_Driver/Src/stm32f4xx_hal.c **** void HAL_DBGMCU_EnableDBGStandbyMode(void)
 493:HALLIB/STM32F4xx_HAL_Driver/Src/stm32f4xx_hal.c **** {
 754              		.loc 1 493 1 is_stmt 1 view -0
 755              		.cfi_startproc
 756              		@ args = 0, pretend = 0, frame = 0
 757              		@ frame_needed = 0, uses_anonymous_args = 0
 758              		@ link register save eliminated.
 494:HALLIB/STM32F4xx_HAL_Driver/Src/stm32f4xx_hal.c ****   SET_BIT(DBGMCU->CR, DBGMCU_CR_DBG_STANDBY);
 759              		.loc 1 494 3 view .LVU124
 760 0000 024A     		ldr	r2, .L72
 761 0002 5368     		ldr	r3, [r2, #4]
 762 0004 43F00403 		orr	r3, r3, #4
 763 0008 5360     		str	r3, [r2, #4]
 495:HALLIB/STM32F4xx_HAL_Driver/Src/stm32f4xx_hal.c **** }
ARM GAS  /tmp/ccsmgGwe.s 			page 23


 764              		.loc 1 495 1 is_stmt 0 view .LVU125
 765 000a 7047     		bx	lr
 766              	.L73:
 767              		.align	2
 768              	.L72:
 769 000c 002004E0 		.word	-536600576
 770              		.cfi_endproc
 771              	.LFE152:
 773              		.section	.text.HAL_DBGMCU_DisableDBGStandbyMode,"ax",%progbits
 774              		.align	1
 775              		.global	HAL_DBGMCU_DisableDBGStandbyMode
 776              		.syntax unified
 777              		.thumb
 778              		.thumb_func
 779              		.fpu fpv4-sp-d16
 781              	HAL_DBGMCU_DisableDBGStandbyMode:
 782              	.LFB153:
 496:HALLIB/STM32F4xx_HAL_Driver/Src/stm32f4xx_hal.c **** 
 497:HALLIB/STM32F4xx_HAL_Driver/Src/stm32f4xx_hal.c **** /**
 498:HALLIB/STM32F4xx_HAL_Driver/Src/stm32f4xx_hal.c ****   * @brief  Disable the Debug Module during STANDBY mode
 499:HALLIB/STM32F4xx_HAL_Driver/Src/stm32f4xx_hal.c ****   * @retval None
 500:HALLIB/STM32F4xx_HAL_Driver/Src/stm32f4xx_hal.c ****   */
 501:HALLIB/STM32F4xx_HAL_Driver/Src/stm32f4xx_hal.c **** void HAL_DBGMCU_DisableDBGStandbyMode(void)
 502:HALLIB/STM32F4xx_HAL_Driver/Src/stm32f4xx_hal.c **** {
 783              		.loc 1 502 1 is_stmt 1 view -0
 784              		.cfi_startproc
 785              		@ args = 0, pretend = 0, frame = 0
 786              		@ frame_needed = 0, uses_anonymous_args = 0
 787              		@ link register save eliminated.
 503:HALLIB/STM32F4xx_HAL_Driver/Src/stm32f4xx_hal.c ****   CLEAR_BIT(DBGMCU->CR, DBGMCU_CR_DBG_STANDBY);
 788              		.loc 1 503 3 view .LVU127
 789 0000 024A     		ldr	r2, .L75
 790 0002 5368     		ldr	r3, [r2, #4]
 791 0004 23F00403 		bic	r3, r3, #4
 792 0008 5360     		str	r3, [r2, #4]
 504:HALLIB/STM32F4xx_HAL_Driver/Src/stm32f4xx_hal.c **** }
 793              		.loc 1 504 1 is_stmt 0 view .LVU128
 794 000a 7047     		bx	lr
 795              	.L76:
 796              		.align	2
 797              	.L75:
 798 000c 002004E0 		.word	-536600576
 799              		.cfi_endproc
 800              	.LFE153:
 802              		.section	.text.HAL_EnableCompensationCell,"ax",%progbits
 803              		.align	1
 804              		.global	HAL_EnableCompensationCell
 805              		.syntax unified
 806              		.thumb
 807              		.thumb_func
 808              		.fpu fpv4-sp-d16
 810              	HAL_EnableCompensationCell:
 811              	.LFB154:
 505:HALLIB/STM32F4xx_HAL_Driver/Src/stm32f4xx_hal.c **** 
 506:HALLIB/STM32F4xx_HAL_Driver/Src/stm32f4xx_hal.c **** /**
 507:HALLIB/STM32F4xx_HAL_Driver/Src/stm32f4xx_hal.c ****   * @brief  Enables the I/O Compensation Cell.
 508:HALLIB/STM32F4xx_HAL_Driver/Src/stm32f4xx_hal.c ****   * @note   The I/O compensation cell can be used only when the device supply
ARM GAS  /tmp/ccsmgGwe.s 			page 24


 509:HALLIB/STM32F4xx_HAL_Driver/Src/stm32f4xx_hal.c ****   *         voltage ranges from 2.4 to 3.6 V.  
 510:HALLIB/STM32F4xx_HAL_Driver/Src/stm32f4xx_hal.c ****   * @retval None
 511:HALLIB/STM32F4xx_HAL_Driver/Src/stm32f4xx_hal.c ****   */
 512:HALLIB/STM32F4xx_HAL_Driver/Src/stm32f4xx_hal.c **** void HAL_EnableCompensationCell(void)
 513:HALLIB/STM32F4xx_HAL_Driver/Src/stm32f4xx_hal.c **** {
 812              		.loc 1 513 1 is_stmt 1 view -0
 813              		.cfi_startproc
 814              		@ args = 0, pretend = 0, frame = 0
 815              		@ frame_needed = 0, uses_anonymous_args = 0
 816              		@ link register save eliminated.
 514:HALLIB/STM32F4xx_HAL_Driver/Src/stm32f4xx_hal.c ****   *(__IO uint32_t *)CMPCR_CMP_PD_BB = (uint32_t)ENABLE;
 817              		.loc 1 514 3 view .LVU130
 818              		.loc 1 514 37 is_stmt 0 view .LVU131
 819 0000 014B     		ldr	r3, .L78
 820 0002 0122     		movs	r2, #1
 821 0004 1A60     		str	r2, [r3]
 515:HALLIB/STM32F4xx_HAL_Driver/Src/stm32f4xx_hal.c **** }
 822              		.loc 1 515 1 view .LVU132
 823 0006 7047     		bx	lr
 824              	.L79:
 825              		.align	2
 826              	.L78:
 827 0008 00042742 		.word	1109853184
 828              		.cfi_endproc
 829              	.LFE154:
 831              		.section	.text.HAL_DisableCompensationCell,"ax",%progbits
 832              		.align	1
 833              		.global	HAL_DisableCompensationCell
 834              		.syntax unified
 835              		.thumb
 836              		.thumb_func
 837              		.fpu fpv4-sp-d16
 839              	HAL_DisableCompensationCell:
 840              	.LFB155:
 516:HALLIB/STM32F4xx_HAL_Driver/Src/stm32f4xx_hal.c **** 
 517:HALLIB/STM32F4xx_HAL_Driver/Src/stm32f4xx_hal.c **** /**
 518:HALLIB/STM32F4xx_HAL_Driver/Src/stm32f4xx_hal.c ****   * @brief  Power-down the I/O Compensation Cell.
 519:HALLIB/STM32F4xx_HAL_Driver/Src/stm32f4xx_hal.c ****   * @note   The I/O compensation cell can be used only when the device supply
 520:HALLIB/STM32F4xx_HAL_Driver/Src/stm32f4xx_hal.c ****   *         voltage ranges from 2.4 to 3.6 V.  
 521:HALLIB/STM32F4xx_HAL_Driver/Src/stm32f4xx_hal.c ****   * @retval None
 522:HALLIB/STM32F4xx_HAL_Driver/Src/stm32f4xx_hal.c ****   */
 523:HALLIB/STM32F4xx_HAL_Driver/Src/stm32f4xx_hal.c **** void HAL_DisableCompensationCell(void)
 524:HALLIB/STM32F4xx_HAL_Driver/Src/stm32f4xx_hal.c **** {
 841              		.loc 1 524 1 is_stmt 1 view -0
 842              		.cfi_startproc
 843              		@ args = 0, pretend = 0, frame = 0
 844              		@ frame_needed = 0, uses_anonymous_args = 0
 845              		@ link register save eliminated.
 525:HALLIB/STM32F4xx_HAL_Driver/Src/stm32f4xx_hal.c ****   *(__IO uint32_t *)CMPCR_CMP_PD_BB = (uint32_t)DISABLE;
 846              		.loc 1 525 3 view .LVU134
 847              		.loc 1 525 37 is_stmt 0 view .LVU135
 848 0000 014B     		ldr	r3, .L81
 849 0002 0022     		movs	r2, #0
 850 0004 1A60     		str	r2, [r3]
 526:HALLIB/STM32F4xx_HAL_Driver/Src/stm32f4xx_hal.c **** }
 851              		.loc 1 526 1 view .LVU136
 852 0006 7047     		bx	lr
ARM GAS  /tmp/ccsmgGwe.s 			page 25


 853              	.L82:
 854              		.align	2
 855              	.L81:
 856 0008 00042742 		.word	1109853184
 857              		.cfi_endproc
 858              	.LFE155:
 860              		.section	.text.HAL_GetUIDw0,"ax",%progbits
 861              		.align	1
 862              		.global	HAL_GetUIDw0
 863              		.syntax unified
 864              		.thumb
 865              		.thumb_func
 866              		.fpu fpv4-sp-d16
 868              	HAL_GetUIDw0:
 869              	.LFB156:
 527:HALLIB/STM32F4xx_HAL_Driver/Src/stm32f4xx_hal.c **** 
 528:HALLIB/STM32F4xx_HAL_Driver/Src/stm32f4xx_hal.c **** /**
 529:HALLIB/STM32F4xx_HAL_Driver/Src/stm32f4xx_hal.c ****   * @brief  Returns first word of the unique device identifier (UID based on 96 bits)
 530:HALLIB/STM32F4xx_HAL_Driver/Src/stm32f4xx_hal.c ****   * @retval Device identifier
 531:HALLIB/STM32F4xx_HAL_Driver/Src/stm32f4xx_hal.c ****   */
 532:HALLIB/STM32F4xx_HAL_Driver/Src/stm32f4xx_hal.c **** uint32_t HAL_GetUIDw0(void)
 533:HALLIB/STM32F4xx_HAL_Driver/Src/stm32f4xx_hal.c **** {
 870              		.loc 1 533 1 is_stmt 1 view -0
 871              		.cfi_startproc
 872              		@ args = 0, pretend = 0, frame = 0
 873              		@ frame_needed = 0, uses_anonymous_args = 0
 874              		@ link register save eliminated.
 534:HALLIB/STM32F4xx_HAL_Driver/Src/stm32f4xx_hal.c ****   return (READ_REG(*((uint32_t *)UID_BASE)));
 875              		.loc 1 534 3 view .LVU138
 535:HALLIB/STM32F4xx_HAL_Driver/Src/stm32f4xx_hal.c **** }
 876              		.loc 1 535 1 is_stmt 0 view .LVU139
 877 0000 014B     		ldr	r3, .L84
 878 0002 1868     		ldr	r0, [r3]
 879 0004 7047     		bx	lr
 880              	.L85:
 881 0006 00BF     		.align	2
 882              	.L84:
 883 0008 107AFF1F 		.word	536836624
 884              		.cfi_endproc
 885              	.LFE156:
 887              		.section	.text.HAL_GetUIDw1,"ax",%progbits
 888              		.align	1
 889              		.global	HAL_GetUIDw1
 890              		.syntax unified
 891              		.thumb
 892              		.thumb_func
 893              		.fpu fpv4-sp-d16
 895              	HAL_GetUIDw1:
 896              	.LFB157:
 536:HALLIB/STM32F4xx_HAL_Driver/Src/stm32f4xx_hal.c **** 
 537:HALLIB/STM32F4xx_HAL_Driver/Src/stm32f4xx_hal.c **** /**
 538:HALLIB/STM32F4xx_HAL_Driver/Src/stm32f4xx_hal.c ****   * @brief  Returns second word of the unique device identifier (UID based on 96 bits)
 539:HALLIB/STM32F4xx_HAL_Driver/Src/stm32f4xx_hal.c ****   * @retval Device identifier
 540:HALLIB/STM32F4xx_HAL_Driver/Src/stm32f4xx_hal.c ****   */
 541:HALLIB/STM32F4xx_HAL_Driver/Src/stm32f4xx_hal.c **** uint32_t HAL_GetUIDw1(void)
 542:HALLIB/STM32F4xx_HAL_Driver/Src/stm32f4xx_hal.c **** {
 897              		.loc 1 542 1 is_stmt 1 view -0
ARM GAS  /tmp/ccsmgGwe.s 			page 26


 898              		.cfi_startproc
 899              		@ args = 0, pretend = 0, frame = 0
 900              		@ frame_needed = 0, uses_anonymous_args = 0
 901              		@ link register save eliminated.
 543:HALLIB/STM32F4xx_HAL_Driver/Src/stm32f4xx_hal.c ****   return (READ_REG(*((uint32_t *)(UID_BASE + 4U))));
 902              		.loc 1 543 3 view .LVU141
 544:HALLIB/STM32F4xx_HAL_Driver/Src/stm32f4xx_hal.c **** }
 903              		.loc 1 544 1 is_stmt 0 view .LVU142
 904 0000 014B     		ldr	r3, .L87
 905 0002 1868     		ldr	r0, [r3]
 906 0004 7047     		bx	lr
 907              	.L88:
 908 0006 00BF     		.align	2
 909              	.L87:
 910 0008 147AFF1F 		.word	536836628
 911              		.cfi_endproc
 912              	.LFE157:
 914              		.section	.text.HAL_GetUIDw2,"ax",%progbits
 915              		.align	1
 916              		.global	HAL_GetUIDw2
 917              		.syntax unified
 918              		.thumb
 919              		.thumb_func
 920              		.fpu fpv4-sp-d16
 922              	HAL_GetUIDw2:
 923              	.LFB158:
 545:HALLIB/STM32F4xx_HAL_Driver/Src/stm32f4xx_hal.c **** 
 546:HALLIB/STM32F4xx_HAL_Driver/Src/stm32f4xx_hal.c **** /**
 547:HALLIB/STM32F4xx_HAL_Driver/Src/stm32f4xx_hal.c ****   * @brief  Returns third word of the unique device identifier (UID based on 96 bits)
 548:HALLIB/STM32F4xx_HAL_Driver/Src/stm32f4xx_hal.c ****   * @retval Device identifier
 549:HALLIB/STM32F4xx_HAL_Driver/Src/stm32f4xx_hal.c ****   */
 550:HALLIB/STM32F4xx_HAL_Driver/Src/stm32f4xx_hal.c **** uint32_t HAL_GetUIDw2(void)
 551:HALLIB/STM32F4xx_HAL_Driver/Src/stm32f4xx_hal.c **** {
 924              		.loc 1 551 1 is_stmt 1 view -0
 925              		.cfi_startproc
 926              		@ args = 0, pretend = 0, frame = 0
 927              		@ frame_needed = 0, uses_anonymous_args = 0
 928              		@ link register save eliminated.
 552:HALLIB/STM32F4xx_HAL_Driver/Src/stm32f4xx_hal.c ****   return (READ_REG(*((uint32_t *)(UID_BASE + 8U))));
 929              		.loc 1 552 3 view .LVU144
 553:HALLIB/STM32F4xx_HAL_Driver/Src/stm32f4xx_hal.c **** }
 930              		.loc 1 553 1 is_stmt 0 view .LVU145
 931 0000 014B     		ldr	r3, .L90
 932 0002 1868     		ldr	r0, [r3]
 933 0004 7047     		bx	lr
 934              	.L91:
 935 0006 00BF     		.align	2
 936              	.L90:
 937 0008 187AFF1F 		.word	536836632
 938              		.cfi_endproc
 939              	.LFE158:
 941              		.global	uwTickFreq
 942              		.global	uwTickPrio
 943              		.comm	uwTick,4,4
 944              		.section	.data.uwTickFreq,"aw"
 945              		.set	.LANCHOR0,. + 0
 948              	uwTickFreq:
ARM GAS  /tmp/ccsmgGwe.s 			page 27


 949 0000 01       		.byte	1
 950              		.section	.data.uwTickPrio,"aw"
 951              		.align	2
 952              		.set	.LANCHOR1,. + 0
 955              	uwTickPrio:
 956 0000 10000000 		.word	16
 957              		.text
 958              	.Letext0:
 959              		.file 2 "/opt/gcc_arm/gcc-arm-none-eabi-9-2019-q4-major/arm-none-eabi/include/machine/_default_typ
 960              		.file 3 "/opt/gcc_arm/gcc-arm-none-eabi-9-2019-q4-major/arm-none-eabi/include/sys/_stdint.h"
 961              		.file 4 "CORE/core_cm4.h"
 962              		.file 5 "USER/system_stm32f4xx.h"
 963              		.file 6 "USER/stm32f407xx.h"
 964              		.file 7 "USER/stm32f4xx.h"
 965              		.file 8 "HALLIB/STM32F4xx_HAL_Driver/Inc/stm32f4xx_hal_def.h"
 966              		.file 9 "HALLIB/STM32F4xx_HAL_Driver/Inc/stm32f4xx_hal.h"
 967              		.file 10 "HALLIB/STM32F4xx_HAL_Driver/Inc/stm32f4xx_hal_cortex.h"
ARM GAS  /tmp/ccsmgGwe.s 			page 28

