ARM GAS  /tmp/ccK4D7wz.s 			page 1


   1              		.cpu cortex-m4
   2              		.eabi_attribute 27, 1
   3              		.eabi_attribute 28, 1
   4              		.eabi_attribute 20, 1
   5              		.eabi_attribute 21, 1
   6              		.eabi_attribute 23, 3
   7              		.eabi_attribute 24, 1
   8              		.eabi_attribute 25, 1
   9              		.eabi_attribute 26, 1
  10              		.eabi_attribute 30, 1
  11              		.eabi_attribute 34, 1
  12              		.eabi_attribute 18, 4
  13              		.file	"stm32f4xx_hal_dcmi.c"
  14              		.text
  15              	.Ltext0:
  16              		.cfi_sections	.debug_frame
  17              		.section	.text.DCMI_DMAXferCplt,"ax",%progbits
  18              		.align	1
  19              		.arch armv7e-m
  20              		.syntax unified
  21              		.thumb
  22              		.thumb_func
  23              		.fpu fpv4-sp-d16
  25              	DCMI_DMAXferCplt:
  26              	.LVL0:
  27              	.LFB150:
  28              		.file 1 "HALLIB/STM32F4xx_HAL_Driver/Src/stm32f4xx_hal_dcmi.c"
   1:HALLIB/STM32F4xx_HAL_Driver/Src/stm32f4xx_hal_dcmi.c **** /**
   2:HALLIB/STM32F4xx_HAL_Driver/Src/stm32f4xx_hal_dcmi.c ****   ******************************************************************************
   3:HALLIB/STM32F4xx_HAL_Driver/Src/stm32f4xx_hal_dcmi.c ****   * @file    stm32f4xx_hal_dcmi.c
   4:HALLIB/STM32F4xx_HAL_Driver/Src/stm32f4xx_hal_dcmi.c ****   * @author  MCD Application Team
   5:HALLIB/STM32F4xx_HAL_Driver/Src/stm32f4xx_hal_dcmi.c ****   * @brief   DCMI HAL module driver
   6:HALLIB/STM32F4xx_HAL_Driver/Src/stm32f4xx_hal_dcmi.c ****   *          This file provides firmware functions to manage the following
   7:HALLIB/STM32F4xx_HAL_Driver/Src/stm32f4xx_hal_dcmi.c ****   *          functionalities of the Digital Camera Interface (DCMI) peripheral:
   8:HALLIB/STM32F4xx_HAL_Driver/Src/stm32f4xx_hal_dcmi.c ****   *           + Initialization and de-initialization functions
   9:HALLIB/STM32F4xx_HAL_Driver/Src/stm32f4xx_hal_dcmi.c ****   *           + IO operation functions
  10:HALLIB/STM32F4xx_HAL_Driver/Src/stm32f4xx_hal_dcmi.c ****   *           + Peripheral Control functions
  11:HALLIB/STM32F4xx_HAL_Driver/Src/stm32f4xx_hal_dcmi.c ****   *           + Peripheral State and Error functions
  12:HALLIB/STM32F4xx_HAL_Driver/Src/stm32f4xx_hal_dcmi.c ****   *           
  13:HALLIB/STM32F4xx_HAL_Driver/Src/stm32f4xx_hal_dcmi.c ****   @verbatim
  14:HALLIB/STM32F4xx_HAL_Driver/Src/stm32f4xx_hal_dcmi.c ****   ==============================================================================
  15:HALLIB/STM32F4xx_HAL_Driver/Src/stm32f4xx_hal_dcmi.c ****                         ##### How to use this driver #####
  16:HALLIB/STM32F4xx_HAL_Driver/Src/stm32f4xx_hal_dcmi.c ****   ==============================================================================
  17:HALLIB/STM32F4xx_HAL_Driver/Src/stm32f4xx_hal_dcmi.c ****   [..]
  18:HALLIB/STM32F4xx_HAL_Driver/Src/stm32f4xx_hal_dcmi.c ****       The sequence below describes how to use this driver to capture image
  19:HALLIB/STM32F4xx_HAL_Driver/Src/stm32f4xx_hal_dcmi.c ****       from a camera module connected to the DCMI Interface.
  20:HALLIB/STM32F4xx_HAL_Driver/Src/stm32f4xx_hal_dcmi.c ****       This sequence does not take into account the configuration of the
  21:HALLIB/STM32F4xx_HAL_Driver/Src/stm32f4xx_hal_dcmi.c ****       camera module, which should be made before to configure and enable
  22:HALLIB/STM32F4xx_HAL_Driver/Src/stm32f4xx_hal_dcmi.c ****       the DCMI to capture images.
  23:HALLIB/STM32F4xx_HAL_Driver/Src/stm32f4xx_hal_dcmi.c **** 
  24:HALLIB/STM32F4xx_HAL_Driver/Src/stm32f4xx_hal_dcmi.c ****     (#) Program the required configuration through following parameters:
  25:HALLIB/STM32F4xx_HAL_Driver/Src/stm32f4xx_hal_dcmi.c ****         horizontal and vertical polarity, pixel clock polarity, Capture Rate,
  26:HALLIB/STM32F4xx_HAL_Driver/Src/stm32f4xx_hal_dcmi.c ****         Synchronization Mode, code of the frame delimiter and data width 
  27:HALLIB/STM32F4xx_HAL_Driver/Src/stm32f4xx_hal_dcmi.c ****         using HAL_DCMI_Init() function.
  28:HALLIB/STM32F4xx_HAL_Driver/Src/stm32f4xx_hal_dcmi.c **** 
  29:HALLIB/STM32F4xx_HAL_Driver/Src/stm32f4xx_hal_dcmi.c ****     (#) Configure the DMA2_Stream1 channel1 to transfer Data from DCMI DR
  30:HALLIB/STM32F4xx_HAL_Driver/Src/stm32f4xx_hal_dcmi.c ****         register to the destination memory buffer.
ARM GAS  /tmp/ccK4D7wz.s 			page 2


  31:HALLIB/STM32F4xx_HAL_Driver/Src/stm32f4xx_hal_dcmi.c **** 
  32:HALLIB/STM32F4xx_HAL_Driver/Src/stm32f4xx_hal_dcmi.c ****     (#) Program the required configuration through following parameters:
  33:HALLIB/STM32F4xx_HAL_Driver/Src/stm32f4xx_hal_dcmi.c ****         DCMI mode, destination memory Buffer address and the data length
  34:HALLIB/STM32F4xx_HAL_Driver/Src/stm32f4xx_hal_dcmi.c ****         and enable capture using HAL_DCMI_Start_DMA() function.
  35:HALLIB/STM32F4xx_HAL_Driver/Src/stm32f4xx_hal_dcmi.c **** 
  36:HALLIB/STM32F4xx_HAL_Driver/Src/stm32f4xx_hal_dcmi.c ****     (#) Optionally, configure and Enable the CROP feature to select a rectangular
  37:HALLIB/STM32F4xx_HAL_Driver/Src/stm32f4xx_hal_dcmi.c ****         window from the received image using HAL_DCMI_ConfigCrop()
  38:HALLIB/STM32F4xx_HAL_Driver/Src/stm32f4xx_hal_dcmi.c ****         and HAL_DCMI_EnableCROP() functions
  39:HALLIB/STM32F4xx_HAL_Driver/Src/stm32f4xx_hal_dcmi.c **** 
  40:HALLIB/STM32F4xx_HAL_Driver/Src/stm32f4xx_hal_dcmi.c ****     (#) The capture can be stopped using HAL_DCMI_Stop() function.
  41:HALLIB/STM32F4xx_HAL_Driver/Src/stm32f4xx_hal_dcmi.c **** 
  42:HALLIB/STM32F4xx_HAL_Driver/Src/stm32f4xx_hal_dcmi.c ****     (#) To control DCMI state you can use the function HAL_DCMI_GetState().
  43:HALLIB/STM32F4xx_HAL_Driver/Src/stm32f4xx_hal_dcmi.c **** 
  44:HALLIB/STM32F4xx_HAL_Driver/Src/stm32f4xx_hal_dcmi.c ****      *** DCMI HAL driver macros list ***
  45:HALLIB/STM32F4xx_HAL_Driver/Src/stm32f4xx_hal_dcmi.c ****      =============================================
  46:HALLIB/STM32F4xx_HAL_Driver/Src/stm32f4xx_hal_dcmi.c ****      [..]
  47:HALLIB/STM32F4xx_HAL_Driver/Src/stm32f4xx_hal_dcmi.c ****        Below the list of most used macros in DCMI HAL driver.
  48:HALLIB/STM32F4xx_HAL_Driver/Src/stm32f4xx_hal_dcmi.c ****        
  49:HALLIB/STM32F4xx_HAL_Driver/Src/stm32f4xx_hal_dcmi.c ****       (+) __HAL_DCMI_ENABLE: Enable the DCMI peripheral.
  50:HALLIB/STM32F4xx_HAL_Driver/Src/stm32f4xx_hal_dcmi.c ****       (+) __HAL_DCMI_DISABLE: Disable the DCMI peripheral.
  51:HALLIB/STM32F4xx_HAL_Driver/Src/stm32f4xx_hal_dcmi.c ****       (+) __HAL_DCMI_GET_FLAG: Get the DCMI pending flags.
  52:HALLIB/STM32F4xx_HAL_Driver/Src/stm32f4xx_hal_dcmi.c ****       (+) __HAL_DCMI_CLEAR_FLAG: Clear the DCMI pending flags.
  53:HALLIB/STM32F4xx_HAL_Driver/Src/stm32f4xx_hal_dcmi.c ****       (+) __HAL_DCMI_ENABLE_IT: Enable the specified DCMI interrupts.
  54:HALLIB/STM32F4xx_HAL_Driver/Src/stm32f4xx_hal_dcmi.c ****       (+) __HAL_DCMI_DISABLE_IT: Disable the specified DCMI interrupts.
  55:HALLIB/STM32F4xx_HAL_Driver/Src/stm32f4xx_hal_dcmi.c ****       (+) __HAL_DCMI_GET_IT_SOURCE: Check whether the specified DCMI interrupt has occurred or not.
  56:HALLIB/STM32F4xx_HAL_Driver/Src/stm32f4xx_hal_dcmi.c **** 
  57:HALLIB/STM32F4xx_HAL_Driver/Src/stm32f4xx_hal_dcmi.c ****      [..]
  58:HALLIB/STM32F4xx_HAL_Driver/Src/stm32f4xx_hal_dcmi.c ****        (@) You can refer to the DCMI HAL driver header file for more useful macros
  59:HALLIB/STM32F4xx_HAL_Driver/Src/stm32f4xx_hal_dcmi.c ****       
  60:HALLIB/STM32F4xx_HAL_Driver/Src/stm32f4xx_hal_dcmi.c ****     *** Callback registration ***
  61:HALLIB/STM32F4xx_HAL_Driver/Src/stm32f4xx_hal_dcmi.c ****     =============================
  62:HALLIB/STM32F4xx_HAL_Driver/Src/stm32f4xx_hal_dcmi.c **** 
  63:HALLIB/STM32F4xx_HAL_Driver/Src/stm32f4xx_hal_dcmi.c ****     The compilation define USE_HAL_DCMI_REGISTER_CALLBACKS when set to 1
  64:HALLIB/STM32F4xx_HAL_Driver/Src/stm32f4xx_hal_dcmi.c ****     allows the user to configure dynamically the driver callbacks.
  65:HALLIB/STM32F4xx_HAL_Driver/Src/stm32f4xx_hal_dcmi.c ****     Use functions @ref HAL_DCMI_RegisterCallback() to register a user callback.
  66:HALLIB/STM32F4xx_HAL_Driver/Src/stm32f4xx_hal_dcmi.c **** 
  67:HALLIB/STM32F4xx_HAL_Driver/Src/stm32f4xx_hal_dcmi.c ****     Function @ref HAL_DCMI_RegisterCallback() allows to register following callbacks:
  68:HALLIB/STM32F4xx_HAL_Driver/Src/stm32f4xx_hal_dcmi.c ****       (+) FrameEventCallback : DCMI Frame Event.
  69:HALLIB/STM32F4xx_HAL_Driver/Src/stm32f4xx_hal_dcmi.c ****       (+) VsyncEventCallback : DCMI Vsync Event.
  70:HALLIB/STM32F4xx_HAL_Driver/Src/stm32f4xx_hal_dcmi.c ****       (+) LineEventCallback  : DCMI Line Event.
  71:HALLIB/STM32F4xx_HAL_Driver/Src/stm32f4xx_hal_dcmi.c ****       (+) ErrorCallback      : DCMI error.
  72:HALLIB/STM32F4xx_HAL_Driver/Src/stm32f4xx_hal_dcmi.c ****       (+) MspInitCallback    : DCMI MspInit.
  73:HALLIB/STM32F4xx_HAL_Driver/Src/stm32f4xx_hal_dcmi.c ****       (+) MspDeInitCallback  : DCMI MspDeInit.
  74:HALLIB/STM32F4xx_HAL_Driver/Src/stm32f4xx_hal_dcmi.c ****     This function takes as parameters the HAL peripheral handle, the callback ID
  75:HALLIB/STM32F4xx_HAL_Driver/Src/stm32f4xx_hal_dcmi.c ****     and a pointer to the user callback function.
  76:HALLIB/STM32F4xx_HAL_Driver/Src/stm32f4xx_hal_dcmi.c **** 
  77:HALLIB/STM32F4xx_HAL_Driver/Src/stm32f4xx_hal_dcmi.c ****     Use function @ref HAL_DCMI_UnRegisterCallback() to reset a callback to the default
  78:HALLIB/STM32F4xx_HAL_Driver/Src/stm32f4xx_hal_dcmi.c ****     weak (surcharged) function.
  79:HALLIB/STM32F4xx_HAL_Driver/Src/stm32f4xx_hal_dcmi.c ****     @ref HAL_DCMI_UnRegisterCallback() takes as parameters the HAL peripheral handle,
  80:HALLIB/STM32F4xx_HAL_Driver/Src/stm32f4xx_hal_dcmi.c ****     and the callback ID.
  81:HALLIB/STM32F4xx_HAL_Driver/Src/stm32f4xx_hal_dcmi.c ****     This function allows to reset following callbacks:
  82:HALLIB/STM32F4xx_HAL_Driver/Src/stm32f4xx_hal_dcmi.c ****       (+) FrameEventCallback : DCMI Frame Event.
  83:HALLIB/STM32F4xx_HAL_Driver/Src/stm32f4xx_hal_dcmi.c ****       (+) VsyncEventCallback : DCMI Vsync Event.
  84:HALLIB/STM32F4xx_HAL_Driver/Src/stm32f4xx_hal_dcmi.c ****       (+) LineEventCallback  : DCMI Line Event.
  85:HALLIB/STM32F4xx_HAL_Driver/Src/stm32f4xx_hal_dcmi.c ****       (+) ErrorCallback      : DCMI error.
  86:HALLIB/STM32F4xx_HAL_Driver/Src/stm32f4xx_hal_dcmi.c ****       (+) MspInitCallback    : DCMI MspInit.
  87:HALLIB/STM32F4xx_HAL_Driver/Src/stm32f4xx_hal_dcmi.c ****       (+) MspDeInitCallback  : DCMI MspDeInit.
ARM GAS  /tmp/ccK4D7wz.s 			page 3


  88:HALLIB/STM32F4xx_HAL_Driver/Src/stm32f4xx_hal_dcmi.c **** 
  89:HALLIB/STM32F4xx_HAL_Driver/Src/stm32f4xx_hal_dcmi.c ****     By default, after the @ref HAL_DCMI_Init and if the state is HAL_DCMI_STATE_RESET
  90:HALLIB/STM32F4xx_HAL_Driver/Src/stm32f4xx_hal_dcmi.c ****     all callbacks are reset to the corresponding legacy weak (surcharged) functions:
  91:HALLIB/STM32F4xx_HAL_Driver/Src/stm32f4xx_hal_dcmi.c ****     examples @ref FrameEventCallback(), @ref HAL_DCMI_ErrorCallback().
  92:HALLIB/STM32F4xx_HAL_Driver/Src/stm32f4xx_hal_dcmi.c ****     Exception done for MspInit and MspDeInit callbacks that are respectively
  93:HALLIB/STM32F4xx_HAL_Driver/Src/stm32f4xx_hal_dcmi.c ****     reset to the legacy weak (surcharged) functions in the @ref HAL_DCMI_Init
  94:HALLIB/STM32F4xx_HAL_Driver/Src/stm32f4xx_hal_dcmi.c ****     and @ref  HAL_DCMI_DeInit only when these callbacks are null (not registered beforehand).
  95:HALLIB/STM32F4xx_HAL_Driver/Src/stm32f4xx_hal_dcmi.c ****     If not, MspInit or MspDeInit are not null, the @ref HAL_DCMI_Init and @ref HAL_DCMI_DeInit
  96:HALLIB/STM32F4xx_HAL_Driver/Src/stm32f4xx_hal_dcmi.c ****     keep and use the user MspInit/MspDeInit callbacks (registered beforehand).
  97:HALLIB/STM32F4xx_HAL_Driver/Src/stm32f4xx_hal_dcmi.c **** 
  98:HALLIB/STM32F4xx_HAL_Driver/Src/stm32f4xx_hal_dcmi.c ****     Callbacks can be registered/unregistered in READY state only.
  99:HALLIB/STM32F4xx_HAL_Driver/Src/stm32f4xx_hal_dcmi.c ****     Exception done for MspInit/MspDeInit callbacks that can be registered/unregistered
 100:HALLIB/STM32F4xx_HAL_Driver/Src/stm32f4xx_hal_dcmi.c ****     in READY or RESET state, thus registered (user) MspInit/DeInit callbacks can be used
 101:HALLIB/STM32F4xx_HAL_Driver/Src/stm32f4xx_hal_dcmi.c ****     during the Init/DeInit.
 102:HALLIB/STM32F4xx_HAL_Driver/Src/stm32f4xx_hal_dcmi.c ****     In that case first register the MspInit/MspDeInit user callbacks
 103:HALLIB/STM32F4xx_HAL_Driver/Src/stm32f4xx_hal_dcmi.c ****     using @ref HAL_DCMI_RegisterCallback before calling @ref HAL_DCMI_DeInit
 104:HALLIB/STM32F4xx_HAL_Driver/Src/stm32f4xx_hal_dcmi.c ****     or @ref HAL_DCMI_Init function.
 105:HALLIB/STM32F4xx_HAL_Driver/Src/stm32f4xx_hal_dcmi.c **** 
 106:HALLIB/STM32F4xx_HAL_Driver/Src/stm32f4xx_hal_dcmi.c ****     When the compilation define USE_HAL_DCMI_REGISTER_CALLBACKS is set to 0 or
 107:HALLIB/STM32F4xx_HAL_Driver/Src/stm32f4xx_hal_dcmi.c ****     not defined, the callback registering feature is not available
 108:HALLIB/STM32F4xx_HAL_Driver/Src/stm32f4xx_hal_dcmi.c ****     and weak (surcharged) callbacks are used.
 109:HALLIB/STM32F4xx_HAL_Driver/Src/stm32f4xx_hal_dcmi.c **** 	
 110:HALLIB/STM32F4xx_HAL_Driver/Src/stm32f4xx_hal_dcmi.c ****   @endverbatim
 111:HALLIB/STM32F4xx_HAL_Driver/Src/stm32f4xx_hal_dcmi.c ****   ******************************************************************************
 112:HALLIB/STM32F4xx_HAL_Driver/Src/stm32f4xx_hal_dcmi.c ****   * @attention
 113:HALLIB/STM32F4xx_HAL_Driver/Src/stm32f4xx_hal_dcmi.c ****   *
 114:HALLIB/STM32F4xx_HAL_Driver/Src/stm32f4xx_hal_dcmi.c ****   * <h2><center>&copy; Copyright (c) 2017 STMicroelectronics.
 115:HALLIB/STM32F4xx_HAL_Driver/Src/stm32f4xx_hal_dcmi.c ****   * All rights reserved.</center></h2>
 116:HALLIB/STM32F4xx_HAL_Driver/Src/stm32f4xx_hal_dcmi.c ****   *
 117:HALLIB/STM32F4xx_HAL_Driver/Src/stm32f4xx_hal_dcmi.c ****   * This software component is licensed by ST under BSD 3-Clause license,
 118:HALLIB/STM32F4xx_HAL_Driver/Src/stm32f4xx_hal_dcmi.c ****   * the "License"; You may not use this file except in compliance with the
 119:HALLIB/STM32F4xx_HAL_Driver/Src/stm32f4xx_hal_dcmi.c ****   * License. You may obtain a copy of the License at:
 120:HALLIB/STM32F4xx_HAL_Driver/Src/stm32f4xx_hal_dcmi.c ****   *                        opensource.org/licenses/BSD-3-Clause
 121:HALLIB/STM32F4xx_HAL_Driver/Src/stm32f4xx_hal_dcmi.c ****   *
 122:HALLIB/STM32F4xx_HAL_Driver/Src/stm32f4xx_hal_dcmi.c ****   ******************************************************************************
 123:HALLIB/STM32F4xx_HAL_Driver/Src/stm32f4xx_hal_dcmi.c ****   */
 124:HALLIB/STM32F4xx_HAL_Driver/Src/stm32f4xx_hal_dcmi.c **** 
 125:HALLIB/STM32F4xx_HAL_Driver/Src/stm32f4xx_hal_dcmi.c **** /* Includes ------------------------------------------------------------------*/
 126:HALLIB/STM32F4xx_HAL_Driver/Src/stm32f4xx_hal_dcmi.c **** #include "stm32f4xx_hal.h"
 127:HALLIB/STM32F4xx_HAL_Driver/Src/stm32f4xx_hal_dcmi.c **** 
 128:HALLIB/STM32F4xx_HAL_Driver/Src/stm32f4xx_hal_dcmi.c **** /** @addtogroup STM32F4xx_HAL_Driver
 129:HALLIB/STM32F4xx_HAL_Driver/Src/stm32f4xx_hal_dcmi.c ****   * @{
 130:HALLIB/STM32F4xx_HAL_Driver/Src/stm32f4xx_hal_dcmi.c ****   */
 131:HALLIB/STM32F4xx_HAL_Driver/Src/stm32f4xx_hal_dcmi.c **** /** @defgroup DCMI DCMI
 132:HALLIB/STM32F4xx_HAL_Driver/Src/stm32f4xx_hal_dcmi.c ****   * @brief DCMI HAL module driver
 133:HALLIB/STM32F4xx_HAL_Driver/Src/stm32f4xx_hal_dcmi.c ****   * @{
 134:HALLIB/STM32F4xx_HAL_Driver/Src/stm32f4xx_hal_dcmi.c ****   */
 135:HALLIB/STM32F4xx_HAL_Driver/Src/stm32f4xx_hal_dcmi.c **** 
 136:HALLIB/STM32F4xx_HAL_Driver/Src/stm32f4xx_hal_dcmi.c **** #ifdef HAL_DCMI_MODULE_ENABLED
 137:HALLIB/STM32F4xx_HAL_Driver/Src/stm32f4xx_hal_dcmi.c **** 
 138:HALLIB/STM32F4xx_HAL_Driver/Src/stm32f4xx_hal_dcmi.c **** #if defined(STM32F407xx) || defined(STM32F417xx) || defined(STM32F427xx) || defined(STM32F437xx) ||
 139:HALLIB/STM32F4xx_HAL_Driver/Src/stm32f4xx_hal_dcmi.c ****     defined(STM32F429xx) || defined(STM32F439xx) || defined(STM32F446xx) || defined(STM32F469xx) ||
 140:HALLIB/STM32F4xx_HAL_Driver/Src/stm32f4xx_hal_dcmi.c ****     defined(STM32F479xx)
 141:HALLIB/STM32F4xx_HAL_Driver/Src/stm32f4xx_hal_dcmi.c **** /* Private typedef -----------------------------------------------------------*/
 142:HALLIB/STM32F4xx_HAL_Driver/Src/stm32f4xx_hal_dcmi.c **** /* Private define ------------------------------------------------------------*/
 143:HALLIB/STM32F4xx_HAL_Driver/Src/stm32f4xx_hal_dcmi.c **** #define HAL_TIMEOUT_DCMI_STOP    14U  /* Set timeout to 1s  */
 144:HALLIB/STM32F4xx_HAL_Driver/Src/stm32f4xx_hal_dcmi.c **** /* Private macro -------------------------------------------------------------*/
ARM GAS  /tmp/ccK4D7wz.s 			page 4


 145:HALLIB/STM32F4xx_HAL_Driver/Src/stm32f4xx_hal_dcmi.c **** /* Private variables ---------------------------------------------------------*/
 146:HALLIB/STM32F4xx_HAL_Driver/Src/stm32f4xx_hal_dcmi.c **** /* Private function prototypes -----------------------------------------------*/
 147:HALLIB/STM32F4xx_HAL_Driver/Src/stm32f4xx_hal_dcmi.c **** static void       DCMI_DMAXferCplt(DMA_HandleTypeDef *hdma);
 148:HALLIB/STM32F4xx_HAL_Driver/Src/stm32f4xx_hal_dcmi.c **** static void       DCMI_DMAError(DMA_HandleTypeDef *hdma);
 149:HALLIB/STM32F4xx_HAL_Driver/Src/stm32f4xx_hal_dcmi.c **** 
 150:HALLIB/STM32F4xx_HAL_Driver/Src/stm32f4xx_hal_dcmi.c **** /* Exported functions --------------------------------------------------------*/
 151:HALLIB/STM32F4xx_HAL_Driver/Src/stm32f4xx_hal_dcmi.c **** 
 152:HALLIB/STM32F4xx_HAL_Driver/Src/stm32f4xx_hal_dcmi.c **** /** @defgroup DCMI_Exported_Functions DCMI Exported Functions
 153:HALLIB/STM32F4xx_HAL_Driver/Src/stm32f4xx_hal_dcmi.c ****   * @{
 154:HALLIB/STM32F4xx_HAL_Driver/Src/stm32f4xx_hal_dcmi.c ****   */
 155:HALLIB/STM32F4xx_HAL_Driver/Src/stm32f4xx_hal_dcmi.c **** 
 156:HALLIB/STM32F4xx_HAL_Driver/Src/stm32f4xx_hal_dcmi.c **** /** @defgroup DCMI_Exported_Functions_Group1 Initialization and Configuration functions
 157:HALLIB/STM32F4xx_HAL_Driver/Src/stm32f4xx_hal_dcmi.c ****   *  @brief   Initialization and Configuration functions
 158:HALLIB/STM32F4xx_HAL_Driver/Src/stm32f4xx_hal_dcmi.c ****   *
 159:HALLIB/STM32F4xx_HAL_Driver/Src/stm32f4xx_hal_dcmi.c **** @verbatim
 160:HALLIB/STM32F4xx_HAL_Driver/Src/stm32f4xx_hal_dcmi.c ****  ===============================================================================
 161:HALLIB/STM32F4xx_HAL_Driver/Src/stm32f4xx_hal_dcmi.c ****                 ##### Initialization and Configuration functions #####
 162:HALLIB/STM32F4xx_HAL_Driver/Src/stm32f4xx_hal_dcmi.c ****  ===============================================================================
 163:HALLIB/STM32F4xx_HAL_Driver/Src/stm32f4xx_hal_dcmi.c ****     [..]  This section provides functions allowing to:
 164:HALLIB/STM32F4xx_HAL_Driver/Src/stm32f4xx_hal_dcmi.c ****       (+) Initialize and configure the DCMI
 165:HALLIB/STM32F4xx_HAL_Driver/Src/stm32f4xx_hal_dcmi.c ****       (+) De-initialize the DCMI 
 166:HALLIB/STM32F4xx_HAL_Driver/Src/stm32f4xx_hal_dcmi.c **** 
 167:HALLIB/STM32F4xx_HAL_Driver/Src/stm32f4xx_hal_dcmi.c **** @endverbatim
 168:HALLIB/STM32F4xx_HAL_Driver/Src/stm32f4xx_hal_dcmi.c ****   * @{
 169:HALLIB/STM32F4xx_HAL_Driver/Src/stm32f4xx_hal_dcmi.c ****   */
 170:HALLIB/STM32F4xx_HAL_Driver/Src/stm32f4xx_hal_dcmi.c **** 
 171:HALLIB/STM32F4xx_HAL_Driver/Src/stm32f4xx_hal_dcmi.c **** /**
 172:HALLIB/STM32F4xx_HAL_Driver/Src/stm32f4xx_hal_dcmi.c ****   * @brief  Initializes the DCMI according to the specified
 173:HALLIB/STM32F4xx_HAL_Driver/Src/stm32f4xx_hal_dcmi.c ****   *         parameters in the DCMI_InitTypeDef and create the associated handle.
 174:HALLIB/STM32F4xx_HAL_Driver/Src/stm32f4xx_hal_dcmi.c ****   * @param  hdcmi pointer to a DCMI_HandleTypeDef structure that contains
 175:HALLIB/STM32F4xx_HAL_Driver/Src/stm32f4xx_hal_dcmi.c ****   *                the configuration information for DCMI.
 176:HALLIB/STM32F4xx_HAL_Driver/Src/stm32f4xx_hal_dcmi.c ****   * @retval HAL status
 177:HALLIB/STM32F4xx_HAL_Driver/Src/stm32f4xx_hal_dcmi.c ****   */
 178:HALLIB/STM32F4xx_HAL_Driver/Src/stm32f4xx_hal_dcmi.c **** __weak HAL_StatusTypeDef HAL_DCMI_Init(DCMI_HandleTypeDef *hdcmi)
 179:HALLIB/STM32F4xx_HAL_Driver/Src/stm32f4xx_hal_dcmi.c **** {
 180:HALLIB/STM32F4xx_HAL_Driver/Src/stm32f4xx_hal_dcmi.c ****   /* Check the DCMI peripheral state */
 181:HALLIB/STM32F4xx_HAL_Driver/Src/stm32f4xx_hal_dcmi.c ****   if(hdcmi == NULL)
 182:HALLIB/STM32F4xx_HAL_Driver/Src/stm32f4xx_hal_dcmi.c ****   {
 183:HALLIB/STM32F4xx_HAL_Driver/Src/stm32f4xx_hal_dcmi.c ****      return HAL_ERROR;
 184:HALLIB/STM32F4xx_HAL_Driver/Src/stm32f4xx_hal_dcmi.c ****   }
 185:HALLIB/STM32F4xx_HAL_Driver/Src/stm32f4xx_hal_dcmi.c **** 
 186:HALLIB/STM32F4xx_HAL_Driver/Src/stm32f4xx_hal_dcmi.c ****   /* Check function parameters */
 187:HALLIB/STM32F4xx_HAL_Driver/Src/stm32f4xx_hal_dcmi.c ****   assert_param(IS_DCMI_ALL_INSTANCE(hdcmi->Instance));
 188:HALLIB/STM32F4xx_HAL_Driver/Src/stm32f4xx_hal_dcmi.c ****   assert_param(IS_DCMI_PCKPOLARITY(hdcmi->Init.PCKPolarity));
 189:HALLIB/STM32F4xx_HAL_Driver/Src/stm32f4xx_hal_dcmi.c ****   assert_param(IS_DCMI_VSPOLARITY(hdcmi->Init.VSPolarity));
 190:HALLIB/STM32F4xx_HAL_Driver/Src/stm32f4xx_hal_dcmi.c ****   assert_param(IS_DCMI_HSPOLARITY(hdcmi->Init.HSPolarity));
 191:HALLIB/STM32F4xx_HAL_Driver/Src/stm32f4xx_hal_dcmi.c ****   assert_param(IS_DCMI_SYNCHRO(hdcmi->Init.SynchroMode));
 192:HALLIB/STM32F4xx_HAL_Driver/Src/stm32f4xx_hal_dcmi.c ****   assert_param(IS_DCMI_CAPTURE_RATE(hdcmi->Init.CaptureRate));
 193:HALLIB/STM32F4xx_HAL_Driver/Src/stm32f4xx_hal_dcmi.c ****   assert_param(IS_DCMI_EXTENDED_DATA(hdcmi->Init.ExtendedDataMode));
 194:HALLIB/STM32F4xx_HAL_Driver/Src/stm32f4xx_hal_dcmi.c ****   assert_param(IS_DCMI_MODE_JPEG(hdcmi->Init.JPEGMode));
 195:HALLIB/STM32F4xx_HAL_Driver/Src/stm32f4xx_hal_dcmi.c **** 
 196:HALLIB/STM32F4xx_HAL_Driver/Src/stm32f4xx_hal_dcmi.c ****   if(hdcmi->State == HAL_DCMI_STATE_RESET)
 197:HALLIB/STM32F4xx_HAL_Driver/Src/stm32f4xx_hal_dcmi.c ****   {
 198:HALLIB/STM32F4xx_HAL_Driver/Src/stm32f4xx_hal_dcmi.c ****     /* Allocate lock resource and initialize it */
 199:HALLIB/STM32F4xx_HAL_Driver/Src/stm32f4xx_hal_dcmi.c ****     hdcmi->Lock = HAL_UNLOCKED;
 200:HALLIB/STM32F4xx_HAL_Driver/Src/stm32f4xx_hal_dcmi.c ****     /* Init the low level hardware */
 201:HALLIB/STM32F4xx_HAL_Driver/Src/stm32f4xx_hal_dcmi.c ****   /* Init the DCMI Callback settings */
ARM GAS  /tmp/ccK4D7wz.s 			page 5


 202:HALLIB/STM32F4xx_HAL_Driver/Src/stm32f4xx_hal_dcmi.c **** #if (USE_HAL_DCMI_REGISTER_CALLBACKS == 1)
 203:HALLIB/STM32F4xx_HAL_Driver/Src/stm32f4xx_hal_dcmi.c ****     hdcmi->FrameEventCallback = HAL_DCMI_FrameEventCallback; /* Legacy weak FrameEventCallback  */ 
 204:HALLIB/STM32F4xx_HAL_Driver/Src/stm32f4xx_hal_dcmi.c ****     hdcmi->VsyncEventCallback = HAL_DCMI_VsyncEventCallback; /* Legacy weak VsyncEventCallback  */ 
 205:HALLIB/STM32F4xx_HAL_Driver/Src/stm32f4xx_hal_dcmi.c ****     hdcmi->LineEventCallback  = HAL_DCMI_LineEventCallback;  /* Legacy weak LineEventCallback   */ 
 206:HALLIB/STM32F4xx_HAL_Driver/Src/stm32f4xx_hal_dcmi.c ****     hdcmi->ErrorCallback      = HAL_DCMI_ErrorCallback;      /* Legacy weak ErrorCallback       */ 
 207:HALLIB/STM32F4xx_HAL_Driver/Src/stm32f4xx_hal_dcmi.c ****     
 208:HALLIB/STM32F4xx_HAL_Driver/Src/stm32f4xx_hal_dcmi.c ****     if(hdcmi->MspInitCallback == NULL)  
 209:HALLIB/STM32F4xx_HAL_Driver/Src/stm32f4xx_hal_dcmi.c ****     {
 210:HALLIB/STM32F4xx_HAL_Driver/Src/stm32f4xx_hal_dcmi.c ****       /* Legacy weak MspInit Callback        */
 211:HALLIB/STM32F4xx_HAL_Driver/Src/stm32f4xx_hal_dcmi.c ****       hdcmi->MspInitCallback = HAL_DCMI_MspInit;
 212:HALLIB/STM32F4xx_HAL_Driver/Src/stm32f4xx_hal_dcmi.c ****     }
 213:HALLIB/STM32F4xx_HAL_Driver/Src/stm32f4xx_hal_dcmi.c ****     /* Initialize the low level hardware (MSP) */
 214:HALLIB/STM32F4xx_HAL_Driver/Src/stm32f4xx_hal_dcmi.c ****     hdcmi->MspInitCallback(hdcmi);
 215:HALLIB/STM32F4xx_HAL_Driver/Src/stm32f4xx_hal_dcmi.c **** #else  
 216:HALLIB/STM32F4xx_HAL_Driver/Src/stm32f4xx_hal_dcmi.c ****     /* Init the low level hardware : GPIO, CLOCK, NVIC and DMA */
 217:HALLIB/STM32F4xx_HAL_Driver/Src/stm32f4xx_hal_dcmi.c ****     HAL_DCMI_MspInit(hdcmi);
 218:HALLIB/STM32F4xx_HAL_Driver/Src/stm32f4xx_hal_dcmi.c **** #endif /* (USE_HAL_DCMI_REGISTER_CALLBACKS) */
 219:HALLIB/STM32F4xx_HAL_Driver/Src/stm32f4xx_hal_dcmi.c ****     HAL_DCMI_MspInit(hdcmi);
 220:HALLIB/STM32F4xx_HAL_Driver/Src/stm32f4xx_hal_dcmi.c ****   }
 221:HALLIB/STM32F4xx_HAL_Driver/Src/stm32f4xx_hal_dcmi.c **** 
 222:HALLIB/STM32F4xx_HAL_Driver/Src/stm32f4xx_hal_dcmi.c ****   /* Change the DCMI state */
 223:HALLIB/STM32F4xx_HAL_Driver/Src/stm32f4xx_hal_dcmi.c ****   hdcmi->State = HAL_DCMI_STATE_BUSY;
 224:HALLIB/STM32F4xx_HAL_Driver/Src/stm32f4xx_hal_dcmi.c **** 
 225:HALLIB/STM32F4xx_HAL_Driver/Src/stm32f4xx_hal_dcmi.c ****   /* Set DCMI parameters */
 226:HALLIB/STM32F4xx_HAL_Driver/Src/stm32f4xx_hal_dcmi.c ****   /* Configures the HS, VS, DE and PC polarity */
 227:HALLIB/STM32F4xx_HAL_Driver/Src/stm32f4xx_hal_dcmi.c ****   hdcmi->Instance->CR &= ~(DCMI_CR_PCKPOL | DCMI_CR_HSPOL  | DCMI_CR_VSPOL  | DCMI_CR_EDM_0 |
 228:HALLIB/STM32F4xx_HAL_Driver/Src/stm32f4xx_hal_dcmi.c ****                            DCMI_CR_EDM_1  | DCMI_CR_FCRC_0 | DCMI_CR_FCRC_1 | DCMI_CR_JPEG  |
 229:HALLIB/STM32F4xx_HAL_Driver/Src/stm32f4xx_hal_dcmi.c ****                            DCMI_CR_ESS);
 230:HALLIB/STM32F4xx_HAL_Driver/Src/stm32f4xx_hal_dcmi.c ****   hdcmi->Instance->CR |=  (uint32_t)(hdcmi->Init.SynchroMode | hdcmi->Init.CaptureRate | \
 231:HALLIB/STM32F4xx_HAL_Driver/Src/stm32f4xx_hal_dcmi.c ****                                      hdcmi->Init.VSPolarity  | hdcmi->Init.HSPolarity  | \
 232:HALLIB/STM32F4xx_HAL_Driver/Src/stm32f4xx_hal_dcmi.c ****                                      hdcmi->Init.PCKPolarity | hdcmi->Init.ExtendedDataMode | \
 233:HALLIB/STM32F4xx_HAL_Driver/Src/stm32f4xx_hal_dcmi.c ****                                      hdcmi->Init.JPEGMode);
 234:HALLIB/STM32F4xx_HAL_Driver/Src/stm32f4xx_hal_dcmi.c **** 
 235:HALLIB/STM32F4xx_HAL_Driver/Src/stm32f4xx_hal_dcmi.c ****   if(hdcmi->Init.SynchroMode == DCMI_SYNCHRO_EMBEDDED)
 236:HALLIB/STM32F4xx_HAL_Driver/Src/stm32f4xx_hal_dcmi.c ****   {
 237:HALLIB/STM32F4xx_HAL_Driver/Src/stm32f4xx_hal_dcmi.c ****     hdcmi->Instance->ESCR = (((uint32_t)hdcmi->Init.SyncroCode.FrameStartCode)    |
 238:HALLIB/STM32F4xx_HAL_Driver/Src/stm32f4xx_hal_dcmi.c ****                              ((uint32_t)hdcmi->Init.SyncroCode.LineStartCode << DCMI_POSITION_ESCR_
 239:HALLIB/STM32F4xx_HAL_Driver/Src/stm32f4xx_hal_dcmi.c ****                              ((uint32_t)hdcmi->Init.SyncroCode.LineEndCode << DCMI_POSITION_ESCR_LE
 240:HALLIB/STM32F4xx_HAL_Driver/Src/stm32f4xx_hal_dcmi.c ****                              ((uint32_t)hdcmi->Init.SyncroCode.FrameEndCode << DCMI_POSITION_ESCR_F
 241:HALLIB/STM32F4xx_HAL_Driver/Src/stm32f4xx_hal_dcmi.c ****   }
 242:HALLIB/STM32F4xx_HAL_Driver/Src/stm32f4xx_hal_dcmi.c **** 
 243:HALLIB/STM32F4xx_HAL_Driver/Src/stm32f4xx_hal_dcmi.c ****   /* Enable the Line, Vsync, Error and Overrun interrupts */
 244:HALLIB/STM32F4xx_HAL_Driver/Src/stm32f4xx_hal_dcmi.c ****   __HAL_DCMI_ENABLE_IT(hdcmi, DCMI_IT_LINE | DCMI_IT_VSYNC | DCMI_IT_ERR | DCMI_IT_OVR);
 245:HALLIB/STM32F4xx_HAL_Driver/Src/stm32f4xx_hal_dcmi.c **** 
 246:HALLIB/STM32F4xx_HAL_Driver/Src/stm32f4xx_hal_dcmi.c ****   /* Update error code */
 247:HALLIB/STM32F4xx_HAL_Driver/Src/stm32f4xx_hal_dcmi.c ****   hdcmi->ErrorCode = HAL_DCMI_ERROR_NONE;
 248:HALLIB/STM32F4xx_HAL_Driver/Src/stm32f4xx_hal_dcmi.c **** 
 249:HALLIB/STM32F4xx_HAL_Driver/Src/stm32f4xx_hal_dcmi.c ****   /* Initialize the DCMI state*/
 250:HALLIB/STM32F4xx_HAL_Driver/Src/stm32f4xx_hal_dcmi.c ****   hdcmi->State  = HAL_DCMI_STATE_READY;
 251:HALLIB/STM32F4xx_HAL_Driver/Src/stm32f4xx_hal_dcmi.c **** 
 252:HALLIB/STM32F4xx_HAL_Driver/Src/stm32f4xx_hal_dcmi.c ****   return HAL_OK;
 253:HALLIB/STM32F4xx_HAL_Driver/Src/stm32f4xx_hal_dcmi.c **** }
 254:HALLIB/STM32F4xx_HAL_Driver/Src/stm32f4xx_hal_dcmi.c **** 
 255:HALLIB/STM32F4xx_HAL_Driver/Src/stm32f4xx_hal_dcmi.c **** /**
 256:HALLIB/STM32F4xx_HAL_Driver/Src/stm32f4xx_hal_dcmi.c ****   * @brief  Deinitializes the DCMI peripheral registers to their default reset
 257:HALLIB/STM32F4xx_HAL_Driver/Src/stm32f4xx_hal_dcmi.c ****   *         values.
 258:HALLIB/STM32F4xx_HAL_Driver/Src/stm32f4xx_hal_dcmi.c ****   * @param  hdcmi pointer to a DCMI_HandleTypeDef structure that contains
ARM GAS  /tmp/ccK4D7wz.s 			page 6


 259:HALLIB/STM32F4xx_HAL_Driver/Src/stm32f4xx_hal_dcmi.c ****   *                the configuration information for DCMI.
 260:HALLIB/STM32F4xx_HAL_Driver/Src/stm32f4xx_hal_dcmi.c ****   * @retval HAL status
 261:HALLIB/STM32F4xx_HAL_Driver/Src/stm32f4xx_hal_dcmi.c ****   */
 262:HALLIB/STM32F4xx_HAL_Driver/Src/stm32f4xx_hal_dcmi.c **** 
 263:HALLIB/STM32F4xx_HAL_Driver/Src/stm32f4xx_hal_dcmi.c **** HAL_StatusTypeDef HAL_DCMI_DeInit(DCMI_HandleTypeDef *hdcmi)
 264:HALLIB/STM32F4xx_HAL_Driver/Src/stm32f4xx_hal_dcmi.c **** {
 265:HALLIB/STM32F4xx_HAL_Driver/Src/stm32f4xx_hal_dcmi.c **** #if (USE_HAL_DCMI_REGISTER_CALLBACKS == 1)  
 266:HALLIB/STM32F4xx_HAL_Driver/Src/stm32f4xx_hal_dcmi.c ****   if(hdcmi->MspDeInitCallback == NULL)  
 267:HALLIB/STM32F4xx_HAL_Driver/Src/stm32f4xx_hal_dcmi.c ****   {
 268:HALLIB/STM32F4xx_HAL_Driver/Src/stm32f4xx_hal_dcmi.c ****     hdcmi->MspDeInitCallback = HAL_DCMI_MspDeInit;
 269:HALLIB/STM32F4xx_HAL_Driver/Src/stm32f4xx_hal_dcmi.c ****   }
 270:HALLIB/STM32F4xx_HAL_Driver/Src/stm32f4xx_hal_dcmi.c ****   /* De-Initialize the low level hardware (MSP) */
 271:HALLIB/STM32F4xx_HAL_Driver/Src/stm32f4xx_hal_dcmi.c ****   hdcmi->MspDeInitCallback(hdcmi);
 272:HALLIB/STM32F4xx_HAL_Driver/Src/stm32f4xx_hal_dcmi.c **** #else
 273:HALLIB/STM32F4xx_HAL_Driver/Src/stm32f4xx_hal_dcmi.c ****   /* DeInit the low level hardware: GPIO, CLOCK, NVIC and DMA */
 274:HALLIB/STM32F4xx_HAL_Driver/Src/stm32f4xx_hal_dcmi.c ****   HAL_DCMI_MspDeInit(hdcmi);
 275:HALLIB/STM32F4xx_HAL_Driver/Src/stm32f4xx_hal_dcmi.c **** #endif /* (USE_HAL_DCMI_REGISTER_CALLBACKS) */
 276:HALLIB/STM32F4xx_HAL_Driver/Src/stm32f4xx_hal_dcmi.c **** 
 277:HALLIB/STM32F4xx_HAL_Driver/Src/stm32f4xx_hal_dcmi.c ****   /* Update error code */
 278:HALLIB/STM32F4xx_HAL_Driver/Src/stm32f4xx_hal_dcmi.c ****   hdcmi->ErrorCode = HAL_DCMI_ERROR_NONE;
 279:HALLIB/STM32F4xx_HAL_Driver/Src/stm32f4xx_hal_dcmi.c **** 
 280:HALLIB/STM32F4xx_HAL_Driver/Src/stm32f4xx_hal_dcmi.c ****   /* Initialize the DCMI state*/
 281:HALLIB/STM32F4xx_HAL_Driver/Src/stm32f4xx_hal_dcmi.c ****   hdcmi->State = HAL_DCMI_STATE_RESET;
 282:HALLIB/STM32F4xx_HAL_Driver/Src/stm32f4xx_hal_dcmi.c **** 
 283:HALLIB/STM32F4xx_HAL_Driver/Src/stm32f4xx_hal_dcmi.c ****   /* Release Lock */
 284:HALLIB/STM32F4xx_HAL_Driver/Src/stm32f4xx_hal_dcmi.c ****   __HAL_UNLOCK(hdcmi);
 285:HALLIB/STM32F4xx_HAL_Driver/Src/stm32f4xx_hal_dcmi.c **** 
 286:HALLIB/STM32F4xx_HAL_Driver/Src/stm32f4xx_hal_dcmi.c ****   return HAL_OK;
 287:HALLIB/STM32F4xx_HAL_Driver/Src/stm32f4xx_hal_dcmi.c **** }
 288:HALLIB/STM32F4xx_HAL_Driver/Src/stm32f4xx_hal_dcmi.c **** 
 289:HALLIB/STM32F4xx_HAL_Driver/Src/stm32f4xx_hal_dcmi.c **** /**
 290:HALLIB/STM32F4xx_HAL_Driver/Src/stm32f4xx_hal_dcmi.c ****   * @brief  Initializes the DCMI MSP.
 291:HALLIB/STM32F4xx_HAL_Driver/Src/stm32f4xx_hal_dcmi.c ****   * @param  hdcmi pointer to a DCMI_HandleTypeDef structure that contains
 292:HALLIB/STM32F4xx_HAL_Driver/Src/stm32f4xx_hal_dcmi.c ****   *                the configuration information for DCMI.
 293:HALLIB/STM32F4xx_HAL_Driver/Src/stm32f4xx_hal_dcmi.c ****   * @retval None
 294:HALLIB/STM32F4xx_HAL_Driver/Src/stm32f4xx_hal_dcmi.c ****   */
 295:HALLIB/STM32F4xx_HAL_Driver/Src/stm32f4xx_hal_dcmi.c **** __weak void HAL_DCMI_MspInit(DCMI_HandleTypeDef* hdcmi)
 296:HALLIB/STM32F4xx_HAL_Driver/Src/stm32f4xx_hal_dcmi.c **** {
 297:HALLIB/STM32F4xx_HAL_Driver/Src/stm32f4xx_hal_dcmi.c ****   /* Prevent unused argument(s) compilation warning */
 298:HALLIB/STM32F4xx_HAL_Driver/Src/stm32f4xx_hal_dcmi.c ****   UNUSED(hdcmi);
 299:HALLIB/STM32F4xx_HAL_Driver/Src/stm32f4xx_hal_dcmi.c ****   /* NOTE : This function Should not be modified, when the callback is needed,
 300:HALLIB/STM32F4xx_HAL_Driver/Src/stm32f4xx_hal_dcmi.c ****             the HAL_DCMI_MspInit could be implemented in the user file
 301:HALLIB/STM32F4xx_HAL_Driver/Src/stm32f4xx_hal_dcmi.c ****    */ 
 302:HALLIB/STM32F4xx_HAL_Driver/Src/stm32f4xx_hal_dcmi.c **** }
 303:HALLIB/STM32F4xx_HAL_Driver/Src/stm32f4xx_hal_dcmi.c **** 
 304:HALLIB/STM32F4xx_HAL_Driver/Src/stm32f4xx_hal_dcmi.c **** /**
 305:HALLIB/STM32F4xx_HAL_Driver/Src/stm32f4xx_hal_dcmi.c ****   * @brief  DeInitializes the DCMI MSP.
 306:HALLIB/STM32F4xx_HAL_Driver/Src/stm32f4xx_hal_dcmi.c ****   * @param  hdcmi pointer to a DCMI_HandleTypeDef structure that contains
 307:HALLIB/STM32F4xx_HAL_Driver/Src/stm32f4xx_hal_dcmi.c ****   *                the configuration information for DCMI.
 308:HALLIB/STM32F4xx_HAL_Driver/Src/stm32f4xx_hal_dcmi.c ****   * @retval None
 309:HALLIB/STM32F4xx_HAL_Driver/Src/stm32f4xx_hal_dcmi.c ****   */
 310:HALLIB/STM32F4xx_HAL_Driver/Src/stm32f4xx_hal_dcmi.c **** __weak void HAL_DCMI_MspDeInit(DCMI_HandleTypeDef* hdcmi)
 311:HALLIB/STM32F4xx_HAL_Driver/Src/stm32f4xx_hal_dcmi.c **** {
 312:HALLIB/STM32F4xx_HAL_Driver/Src/stm32f4xx_hal_dcmi.c ****   /* Prevent unused argument(s) compilation warning */
 313:HALLIB/STM32F4xx_HAL_Driver/Src/stm32f4xx_hal_dcmi.c ****   UNUSED(hdcmi);
 314:HALLIB/STM32F4xx_HAL_Driver/Src/stm32f4xx_hal_dcmi.c ****   /* NOTE : This function Should not be modified, when the callback is needed,
 315:HALLIB/STM32F4xx_HAL_Driver/Src/stm32f4xx_hal_dcmi.c ****             the HAL_DCMI_MspDeInit could be implemented in the user file
ARM GAS  /tmp/ccK4D7wz.s 			page 7


 316:HALLIB/STM32F4xx_HAL_Driver/Src/stm32f4xx_hal_dcmi.c ****    */
 317:HALLIB/STM32F4xx_HAL_Driver/Src/stm32f4xx_hal_dcmi.c **** }
 318:HALLIB/STM32F4xx_HAL_Driver/Src/stm32f4xx_hal_dcmi.c **** 
 319:HALLIB/STM32F4xx_HAL_Driver/Src/stm32f4xx_hal_dcmi.c **** /**
 320:HALLIB/STM32F4xx_HAL_Driver/Src/stm32f4xx_hal_dcmi.c ****   * @}
 321:HALLIB/STM32F4xx_HAL_Driver/Src/stm32f4xx_hal_dcmi.c ****   */
 322:HALLIB/STM32F4xx_HAL_Driver/Src/stm32f4xx_hal_dcmi.c **** /** @defgroup DCMI_Exported_Functions_Group2 IO operation functions
 323:HALLIB/STM32F4xx_HAL_Driver/Src/stm32f4xx_hal_dcmi.c ****   *  @brief   IO operation functions
 324:HALLIB/STM32F4xx_HAL_Driver/Src/stm32f4xx_hal_dcmi.c ****   *
 325:HALLIB/STM32F4xx_HAL_Driver/Src/stm32f4xx_hal_dcmi.c **** @verbatim
 326:HALLIB/STM32F4xx_HAL_Driver/Src/stm32f4xx_hal_dcmi.c ****  ===============================================================================
 327:HALLIB/STM32F4xx_HAL_Driver/Src/stm32f4xx_hal_dcmi.c ****                       #####  IO operation functions  #####
 328:HALLIB/STM32F4xx_HAL_Driver/Src/stm32f4xx_hal_dcmi.c ****  ===============================================================================
 329:HALLIB/STM32F4xx_HAL_Driver/Src/stm32f4xx_hal_dcmi.c ****     [..]  This section provides functions allowing to:
 330:HALLIB/STM32F4xx_HAL_Driver/Src/stm32f4xx_hal_dcmi.c ****       (+) Configure destination address and data length and
 331:HALLIB/STM32F4xx_HAL_Driver/Src/stm32f4xx_hal_dcmi.c ****           Enables DCMI DMA request and enables DCMI capture
 332:HALLIB/STM32F4xx_HAL_Driver/Src/stm32f4xx_hal_dcmi.c ****       (+) Stop the DCMI capture.
 333:HALLIB/STM32F4xx_HAL_Driver/Src/stm32f4xx_hal_dcmi.c ****       (+) Handles DCMI interrupt request.
 334:HALLIB/STM32F4xx_HAL_Driver/Src/stm32f4xx_hal_dcmi.c **** 
 335:HALLIB/STM32F4xx_HAL_Driver/Src/stm32f4xx_hal_dcmi.c **** @endverbatim
 336:HALLIB/STM32F4xx_HAL_Driver/Src/stm32f4xx_hal_dcmi.c ****   * @{
 337:HALLIB/STM32F4xx_HAL_Driver/Src/stm32f4xx_hal_dcmi.c ****   */
 338:HALLIB/STM32F4xx_HAL_Driver/Src/stm32f4xx_hal_dcmi.c **** 
 339:HALLIB/STM32F4xx_HAL_Driver/Src/stm32f4xx_hal_dcmi.c **** /**
 340:HALLIB/STM32F4xx_HAL_Driver/Src/stm32f4xx_hal_dcmi.c ****   * @brief  Enables DCMI DMA request and enables DCMI capture
 341:HALLIB/STM32F4xx_HAL_Driver/Src/stm32f4xx_hal_dcmi.c ****   * @param  hdcmi     pointer to a DCMI_HandleTypeDef structure that contains
 342:HALLIB/STM32F4xx_HAL_Driver/Src/stm32f4xx_hal_dcmi.c ****   *                    the configuration information for DCMI.
 343:HALLIB/STM32F4xx_HAL_Driver/Src/stm32f4xx_hal_dcmi.c ****   * @param  DCMI_Mode DCMI capture mode snapshot or continuous grab.
 344:HALLIB/STM32F4xx_HAL_Driver/Src/stm32f4xx_hal_dcmi.c ****   * @param  pData     The destination memory Buffer address (LCD Frame buffer).
 345:HALLIB/STM32F4xx_HAL_Driver/Src/stm32f4xx_hal_dcmi.c ****   * @param  Length    The length of capture to be transferred.
 346:HALLIB/STM32F4xx_HAL_Driver/Src/stm32f4xx_hal_dcmi.c ****   * @retval HAL status
 347:HALLIB/STM32F4xx_HAL_Driver/Src/stm32f4xx_hal_dcmi.c ****   */
 348:HALLIB/STM32F4xx_HAL_Driver/Src/stm32f4xx_hal_dcmi.c **** HAL_StatusTypeDef HAL_DCMI_Start_DMA(DCMI_HandleTypeDef* hdcmi, uint32_t DCMI_Mode, uint32_t pData,
 349:HALLIB/STM32F4xx_HAL_Driver/Src/stm32f4xx_hal_dcmi.c **** {
 350:HALLIB/STM32F4xx_HAL_Driver/Src/stm32f4xx_hal_dcmi.c ****   /* Initialize the second memory address */
 351:HALLIB/STM32F4xx_HAL_Driver/Src/stm32f4xx_hal_dcmi.c ****   uint32_t SecondMemAddress = 0U;
 352:HALLIB/STM32F4xx_HAL_Driver/Src/stm32f4xx_hal_dcmi.c **** 
 353:HALLIB/STM32F4xx_HAL_Driver/Src/stm32f4xx_hal_dcmi.c ****   /* Check function parameters */
 354:HALLIB/STM32F4xx_HAL_Driver/Src/stm32f4xx_hal_dcmi.c ****   assert_param(IS_DCMI_CAPTURE_MODE(DCMI_Mode));
 355:HALLIB/STM32F4xx_HAL_Driver/Src/stm32f4xx_hal_dcmi.c **** 
 356:HALLIB/STM32F4xx_HAL_Driver/Src/stm32f4xx_hal_dcmi.c ****   /* Process Locked */
 357:HALLIB/STM32F4xx_HAL_Driver/Src/stm32f4xx_hal_dcmi.c ****   __HAL_LOCK(hdcmi);
 358:HALLIB/STM32F4xx_HAL_Driver/Src/stm32f4xx_hal_dcmi.c **** 
 359:HALLIB/STM32F4xx_HAL_Driver/Src/stm32f4xx_hal_dcmi.c ****   /* Lock the DCMI peripheral state */
 360:HALLIB/STM32F4xx_HAL_Driver/Src/stm32f4xx_hal_dcmi.c ****   hdcmi->State = HAL_DCMI_STATE_BUSY;
 361:HALLIB/STM32F4xx_HAL_Driver/Src/stm32f4xx_hal_dcmi.c ****   
 362:HALLIB/STM32F4xx_HAL_Driver/Src/stm32f4xx_hal_dcmi.c ****   /* Enable DCMI by setting DCMIEN bit */
 363:HALLIB/STM32F4xx_HAL_Driver/Src/stm32f4xx_hal_dcmi.c ****   __HAL_DCMI_ENABLE(hdcmi);
 364:HALLIB/STM32F4xx_HAL_Driver/Src/stm32f4xx_hal_dcmi.c **** 
 365:HALLIB/STM32F4xx_HAL_Driver/Src/stm32f4xx_hal_dcmi.c ****   /* Configure the DCMI Mode */
 366:HALLIB/STM32F4xx_HAL_Driver/Src/stm32f4xx_hal_dcmi.c ****   hdcmi->Instance->CR &= ~(DCMI_CR_CM);
 367:HALLIB/STM32F4xx_HAL_Driver/Src/stm32f4xx_hal_dcmi.c ****   hdcmi->Instance->CR |=  (uint32_t)(DCMI_Mode);
 368:HALLIB/STM32F4xx_HAL_Driver/Src/stm32f4xx_hal_dcmi.c **** 
 369:HALLIB/STM32F4xx_HAL_Driver/Src/stm32f4xx_hal_dcmi.c ****   /* Set the DMA memory0 conversion complete callback */
 370:HALLIB/STM32F4xx_HAL_Driver/Src/stm32f4xx_hal_dcmi.c ****   hdcmi->DMA_Handle->XferCpltCallback = DCMI_DMAXferCplt;
 371:HALLIB/STM32F4xx_HAL_Driver/Src/stm32f4xx_hal_dcmi.c **** 
 372:HALLIB/STM32F4xx_HAL_Driver/Src/stm32f4xx_hal_dcmi.c ****   /* Set the DMA error callback */
ARM GAS  /tmp/ccK4D7wz.s 			page 8


 373:HALLIB/STM32F4xx_HAL_Driver/Src/stm32f4xx_hal_dcmi.c ****   hdcmi->DMA_Handle->XferErrorCallback = DCMI_DMAError;
 374:HALLIB/STM32F4xx_HAL_Driver/Src/stm32f4xx_hal_dcmi.c **** 
 375:HALLIB/STM32F4xx_HAL_Driver/Src/stm32f4xx_hal_dcmi.c ****   /* Set the dma abort callback */
 376:HALLIB/STM32F4xx_HAL_Driver/Src/stm32f4xx_hal_dcmi.c ****   hdcmi->DMA_Handle->XferAbortCallback = NULL;
 377:HALLIB/STM32F4xx_HAL_Driver/Src/stm32f4xx_hal_dcmi.c ****   
 378:HALLIB/STM32F4xx_HAL_Driver/Src/stm32f4xx_hal_dcmi.c ****   /* Reset transfer counters value */ 
 379:HALLIB/STM32F4xx_HAL_Driver/Src/stm32f4xx_hal_dcmi.c ****   hdcmi->XferCount = 0U;
 380:HALLIB/STM32F4xx_HAL_Driver/Src/stm32f4xx_hal_dcmi.c ****   hdcmi->XferTransferNumber = 0U;
 381:HALLIB/STM32F4xx_HAL_Driver/Src/stm32f4xx_hal_dcmi.c **** 
 382:HALLIB/STM32F4xx_HAL_Driver/Src/stm32f4xx_hal_dcmi.c ****   if(Length <= 0xFFFFU)
 383:HALLIB/STM32F4xx_HAL_Driver/Src/stm32f4xx_hal_dcmi.c ****   {
 384:HALLIB/STM32F4xx_HAL_Driver/Src/stm32f4xx_hal_dcmi.c ****     /* Enable the DMA Stream */
 385:HALLIB/STM32F4xx_HAL_Driver/Src/stm32f4xx_hal_dcmi.c ****     HAL_DMA_Start_IT(hdcmi->DMA_Handle, (uint32_t)&hdcmi->Instance->DR, (uint32_t)pData, Length);
 386:HALLIB/STM32F4xx_HAL_Driver/Src/stm32f4xx_hal_dcmi.c ****   }
 387:HALLIB/STM32F4xx_HAL_Driver/Src/stm32f4xx_hal_dcmi.c ****   else /* DCMI_DOUBLE_BUFFER Mode */
 388:HALLIB/STM32F4xx_HAL_Driver/Src/stm32f4xx_hal_dcmi.c ****   {
 389:HALLIB/STM32F4xx_HAL_Driver/Src/stm32f4xx_hal_dcmi.c ****     /* Set the DMA memory1 conversion complete callback */
 390:HALLIB/STM32F4xx_HAL_Driver/Src/stm32f4xx_hal_dcmi.c ****     hdcmi->DMA_Handle->XferM1CpltCallback = DCMI_DMAXferCplt;
 391:HALLIB/STM32F4xx_HAL_Driver/Src/stm32f4xx_hal_dcmi.c **** 
 392:HALLIB/STM32F4xx_HAL_Driver/Src/stm32f4xx_hal_dcmi.c ****     /* Initialize transfer parameters */
 393:HALLIB/STM32F4xx_HAL_Driver/Src/stm32f4xx_hal_dcmi.c ****     hdcmi->XferCount = 1U;
 394:HALLIB/STM32F4xx_HAL_Driver/Src/stm32f4xx_hal_dcmi.c ****     hdcmi->XferSize = Length;
 395:HALLIB/STM32F4xx_HAL_Driver/Src/stm32f4xx_hal_dcmi.c ****     hdcmi->pBuffPtr = pData;
 396:HALLIB/STM32F4xx_HAL_Driver/Src/stm32f4xx_hal_dcmi.c **** 
 397:HALLIB/STM32F4xx_HAL_Driver/Src/stm32f4xx_hal_dcmi.c ****     /* Get the number of buffer */
 398:HALLIB/STM32F4xx_HAL_Driver/Src/stm32f4xx_hal_dcmi.c ****     while(hdcmi->XferSize > 0xFFFFU)
 399:HALLIB/STM32F4xx_HAL_Driver/Src/stm32f4xx_hal_dcmi.c ****     {
 400:HALLIB/STM32F4xx_HAL_Driver/Src/stm32f4xx_hal_dcmi.c ****       hdcmi->XferSize = (hdcmi->XferSize/2U);
 401:HALLIB/STM32F4xx_HAL_Driver/Src/stm32f4xx_hal_dcmi.c ****       hdcmi->XferCount = hdcmi->XferCount*2U;
 402:HALLIB/STM32F4xx_HAL_Driver/Src/stm32f4xx_hal_dcmi.c ****     }
 403:HALLIB/STM32F4xx_HAL_Driver/Src/stm32f4xx_hal_dcmi.c **** 
 404:HALLIB/STM32F4xx_HAL_Driver/Src/stm32f4xx_hal_dcmi.c ****     /* Update DCMI counter  and transfer number*/
 405:HALLIB/STM32F4xx_HAL_Driver/Src/stm32f4xx_hal_dcmi.c ****     hdcmi->XferCount = (hdcmi->XferCount - 2U);
 406:HALLIB/STM32F4xx_HAL_Driver/Src/stm32f4xx_hal_dcmi.c ****     hdcmi->XferTransferNumber = hdcmi->XferCount;
 407:HALLIB/STM32F4xx_HAL_Driver/Src/stm32f4xx_hal_dcmi.c **** 
 408:HALLIB/STM32F4xx_HAL_Driver/Src/stm32f4xx_hal_dcmi.c ****     /* Update second memory address */
 409:HALLIB/STM32F4xx_HAL_Driver/Src/stm32f4xx_hal_dcmi.c ****     SecondMemAddress = (uint32_t)(pData + (4U*hdcmi->XferSize));
 410:HALLIB/STM32F4xx_HAL_Driver/Src/stm32f4xx_hal_dcmi.c **** 
 411:HALLIB/STM32F4xx_HAL_Driver/Src/stm32f4xx_hal_dcmi.c ****     /* Start DMA multi buffer transfer */
 412:HALLIB/STM32F4xx_HAL_Driver/Src/stm32f4xx_hal_dcmi.c ****     HAL_DMAEx_MultiBufferStart_IT(hdcmi->DMA_Handle, (uint32_t)&hdcmi->Instance->DR, (uint32_t)pDat
 413:HALLIB/STM32F4xx_HAL_Driver/Src/stm32f4xx_hal_dcmi.c ****   }
 414:HALLIB/STM32F4xx_HAL_Driver/Src/stm32f4xx_hal_dcmi.c **** 
 415:HALLIB/STM32F4xx_HAL_Driver/Src/stm32f4xx_hal_dcmi.c ****   /* Enable Capture */
 416:HALLIB/STM32F4xx_HAL_Driver/Src/stm32f4xx_hal_dcmi.c ****   hdcmi->Instance->CR |= DCMI_CR_CAPTURE;
 417:HALLIB/STM32F4xx_HAL_Driver/Src/stm32f4xx_hal_dcmi.c **** 
 418:HALLIB/STM32F4xx_HAL_Driver/Src/stm32f4xx_hal_dcmi.c ****   /* Release Lock */
 419:HALLIB/STM32F4xx_HAL_Driver/Src/stm32f4xx_hal_dcmi.c ****   __HAL_UNLOCK(hdcmi);
 420:HALLIB/STM32F4xx_HAL_Driver/Src/stm32f4xx_hal_dcmi.c **** 
 421:HALLIB/STM32F4xx_HAL_Driver/Src/stm32f4xx_hal_dcmi.c ****   /* Return function status */
 422:HALLIB/STM32F4xx_HAL_Driver/Src/stm32f4xx_hal_dcmi.c ****   return HAL_OK;
 423:HALLIB/STM32F4xx_HAL_Driver/Src/stm32f4xx_hal_dcmi.c **** }
 424:HALLIB/STM32F4xx_HAL_Driver/Src/stm32f4xx_hal_dcmi.c **** 
 425:HALLIB/STM32F4xx_HAL_Driver/Src/stm32f4xx_hal_dcmi.c **** /**
 426:HALLIB/STM32F4xx_HAL_Driver/Src/stm32f4xx_hal_dcmi.c ****   * @brief  Disable DCMI DMA request and Disable DCMI capture
 427:HALLIB/STM32F4xx_HAL_Driver/Src/stm32f4xx_hal_dcmi.c ****   * @param  hdcmi pointer to a DCMI_HandleTypeDef structure that contains
 428:HALLIB/STM32F4xx_HAL_Driver/Src/stm32f4xx_hal_dcmi.c ****   *                the configuration information for DCMI.
 429:HALLIB/STM32F4xx_HAL_Driver/Src/stm32f4xx_hal_dcmi.c ****   * @retval HAL status
ARM GAS  /tmp/ccK4D7wz.s 			page 9


 430:HALLIB/STM32F4xx_HAL_Driver/Src/stm32f4xx_hal_dcmi.c ****   */
 431:HALLIB/STM32F4xx_HAL_Driver/Src/stm32f4xx_hal_dcmi.c **** HAL_StatusTypeDef HAL_DCMI_Stop(DCMI_HandleTypeDef* hdcmi)
 432:HALLIB/STM32F4xx_HAL_Driver/Src/stm32f4xx_hal_dcmi.c **** {
 433:HALLIB/STM32F4xx_HAL_Driver/Src/stm32f4xx_hal_dcmi.c ****   __IO uint32_t count = SystemCoreClock / HAL_TIMEOUT_DCMI_STOP;
 434:HALLIB/STM32F4xx_HAL_Driver/Src/stm32f4xx_hal_dcmi.c ****   HAL_StatusTypeDef status = HAL_OK;
 435:HALLIB/STM32F4xx_HAL_Driver/Src/stm32f4xx_hal_dcmi.c **** 
 436:HALLIB/STM32F4xx_HAL_Driver/Src/stm32f4xx_hal_dcmi.c ****   /* Process locked */
 437:HALLIB/STM32F4xx_HAL_Driver/Src/stm32f4xx_hal_dcmi.c ****   __HAL_LOCK(hdcmi);
 438:HALLIB/STM32F4xx_HAL_Driver/Src/stm32f4xx_hal_dcmi.c ****   
 439:HALLIB/STM32F4xx_HAL_Driver/Src/stm32f4xx_hal_dcmi.c ****   /* Lock the DCMI peripheral state */
 440:HALLIB/STM32F4xx_HAL_Driver/Src/stm32f4xx_hal_dcmi.c ****   hdcmi->State = HAL_DCMI_STATE_BUSY;
 441:HALLIB/STM32F4xx_HAL_Driver/Src/stm32f4xx_hal_dcmi.c **** 
 442:HALLIB/STM32F4xx_HAL_Driver/Src/stm32f4xx_hal_dcmi.c ****   /* Disable Capture */
 443:HALLIB/STM32F4xx_HAL_Driver/Src/stm32f4xx_hal_dcmi.c ****   hdcmi->Instance->CR &= ~(DCMI_CR_CAPTURE);
 444:HALLIB/STM32F4xx_HAL_Driver/Src/stm32f4xx_hal_dcmi.c **** 
 445:HALLIB/STM32F4xx_HAL_Driver/Src/stm32f4xx_hal_dcmi.c ****   /* Check if the DCMI capture effectively disabled */
 446:HALLIB/STM32F4xx_HAL_Driver/Src/stm32f4xx_hal_dcmi.c ****   do
 447:HALLIB/STM32F4xx_HAL_Driver/Src/stm32f4xx_hal_dcmi.c ****   {
 448:HALLIB/STM32F4xx_HAL_Driver/Src/stm32f4xx_hal_dcmi.c ****     if (count-- == 0U)
 449:HALLIB/STM32F4xx_HAL_Driver/Src/stm32f4xx_hal_dcmi.c ****     {
 450:HALLIB/STM32F4xx_HAL_Driver/Src/stm32f4xx_hal_dcmi.c ****       /* Update error code */
 451:HALLIB/STM32F4xx_HAL_Driver/Src/stm32f4xx_hal_dcmi.c ****       hdcmi->ErrorCode |= HAL_DCMI_ERROR_TIMEOUT;
 452:HALLIB/STM32F4xx_HAL_Driver/Src/stm32f4xx_hal_dcmi.c **** 
 453:HALLIB/STM32F4xx_HAL_Driver/Src/stm32f4xx_hal_dcmi.c ****       status = HAL_TIMEOUT;
 454:HALLIB/STM32F4xx_HAL_Driver/Src/stm32f4xx_hal_dcmi.c ****       break;
 455:HALLIB/STM32F4xx_HAL_Driver/Src/stm32f4xx_hal_dcmi.c ****     }
 456:HALLIB/STM32F4xx_HAL_Driver/Src/stm32f4xx_hal_dcmi.c ****   }
 457:HALLIB/STM32F4xx_HAL_Driver/Src/stm32f4xx_hal_dcmi.c ****   while((hdcmi->Instance->CR & DCMI_CR_CAPTURE) != 0U);
 458:HALLIB/STM32F4xx_HAL_Driver/Src/stm32f4xx_hal_dcmi.c **** 
 459:HALLIB/STM32F4xx_HAL_Driver/Src/stm32f4xx_hal_dcmi.c ****   /* Disable the DCMI */
 460:HALLIB/STM32F4xx_HAL_Driver/Src/stm32f4xx_hal_dcmi.c ****   __HAL_DCMI_DISABLE(hdcmi);
 461:HALLIB/STM32F4xx_HAL_Driver/Src/stm32f4xx_hal_dcmi.c **** 
 462:HALLIB/STM32F4xx_HAL_Driver/Src/stm32f4xx_hal_dcmi.c ****   /* Disable the DMA */
 463:HALLIB/STM32F4xx_HAL_Driver/Src/stm32f4xx_hal_dcmi.c ****   HAL_DMA_Abort(hdcmi->DMA_Handle);
 464:HALLIB/STM32F4xx_HAL_Driver/Src/stm32f4xx_hal_dcmi.c **** 
 465:HALLIB/STM32F4xx_HAL_Driver/Src/stm32f4xx_hal_dcmi.c ****   /* Update error code */
 466:HALLIB/STM32F4xx_HAL_Driver/Src/stm32f4xx_hal_dcmi.c ****   hdcmi->ErrorCode |= HAL_DCMI_ERROR_NONE;
 467:HALLIB/STM32F4xx_HAL_Driver/Src/stm32f4xx_hal_dcmi.c **** 
 468:HALLIB/STM32F4xx_HAL_Driver/Src/stm32f4xx_hal_dcmi.c ****   /* Change DCMI state */
 469:HALLIB/STM32F4xx_HAL_Driver/Src/stm32f4xx_hal_dcmi.c ****   hdcmi->State = HAL_DCMI_STATE_READY;
 470:HALLIB/STM32F4xx_HAL_Driver/Src/stm32f4xx_hal_dcmi.c **** 
 471:HALLIB/STM32F4xx_HAL_Driver/Src/stm32f4xx_hal_dcmi.c ****   /* Process Unlocked */
 472:HALLIB/STM32F4xx_HAL_Driver/Src/stm32f4xx_hal_dcmi.c ****   __HAL_UNLOCK(hdcmi);
 473:HALLIB/STM32F4xx_HAL_Driver/Src/stm32f4xx_hal_dcmi.c **** 
 474:HALLIB/STM32F4xx_HAL_Driver/Src/stm32f4xx_hal_dcmi.c ****   /* Return function status */
 475:HALLIB/STM32F4xx_HAL_Driver/Src/stm32f4xx_hal_dcmi.c ****   return status;
 476:HALLIB/STM32F4xx_HAL_Driver/Src/stm32f4xx_hal_dcmi.c **** }
 477:HALLIB/STM32F4xx_HAL_Driver/Src/stm32f4xx_hal_dcmi.c **** 
 478:HALLIB/STM32F4xx_HAL_Driver/Src/stm32f4xx_hal_dcmi.c **** /**
 479:HALLIB/STM32F4xx_HAL_Driver/Src/stm32f4xx_hal_dcmi.c ****   * @brief  Suspend DCMI capture  
 480:HALLIB/STM32F4xx_HAL_Driver/Src/stm32f4xx_hal_dcmi.c ****   * @param  hdcmi pointer to a DCMI_HandleTypeDef structure that contains
 481:HALLIB/STM32F4xx_HAL_Driver/Src/stm32f4xx_hal_dcmi.c ****   *                the configuration information for DCMI. 
 482:HALLIB/STM32F4xx_HAL_Driver/Src/stm32f4xx_hal_dcmi.c ****   * @retval HAL status     
 483:HALLIB/STM32F4xx_HAL_Driver/Src/stm32f4xx_hal_dcmi.c ****   */
 484:HALLIB/STM32F4xx_HAL_Driver/Src/stm32f4xx_hal_dcmi.c **** HAL_StatusTypeDef HAL_DCMI_Suspend(DCMI_HandleTypeDef* hdcmi)
 485:HALLIB/STM32F4xx_HAL_Driver/Src/stm32f4xx_hal_dcmi.c **** {
 486:HALLIB/STM32F4xx_HAL_Driver/Src/stm32f4xx_hal_dcmi.c ****   __IO uint32_t count = SystemCoreClock / HAL_TIMEOUT_DCMI_STOP;
ARM GAS  /tmp/ccK4D7wz.s 			page 10


 487:HALLIB/STM32F4xx_HAL_Driver/Src/stm32f4xx_hal_dcmi.c ****   HAL_StatusTypeDef status = HAL_OK;
 488:HALLIB/STM32F4xx_HAL_Driver/Src/stm32f4xx_hal_dcmi.c **** 
 489:HALLIB/STM32F4xx_HAL_Driver/Src/stm32f4xx_hal_dcmi.c ****   /* Process locked */
 490:HALLIB/STM32F4xx_HAL_Driver/Src/stm32f4xx_hal_dcmi.c ****   __HAL_LOCK(hdcmi);
 491:HALLIB/STM32F4xx_HAL_Driver/Src/stm32f4xx_hal_dcmi.c **** 
 492:HALLIB/STM32F4xx_HAL_Driver/Src/stm32f4xx_hal_dcmi.c ****   if(hdcmi->State == HAL_DCMI_STATE_BUSY)
 493:HALLIB/STM32F4xx_HAL_Driver/Src/stm32f4xx_hal_dcmi.c ****   {
 494:HALLIB/STM32F4xx_HAL_Driver/Src/stm32f4xx_hal_dcmi.c ****     /* Change DCMI state */
 495:HALLIB/STM32F4xx_HAL_Driver/Src/stm32f4xx_hal_dcmi.c ****     hdcmi->State = HAL_DCMI_STATE_SUSPENDED;
 496:HALLIB/STM32F4xx_HAL_Driver/Src/stm32f4xx_hal_dcmi.c **** 
 497:HALLIB/STM32F4xx_HAL_Driver/Src/stm32f4xx_hal_dcmi.c ****     /* Disable Capture */
 498:HALLIB/STM32F4xx_HAL_Driver/Src/stm32f4xx_hal_dcmi.c ****     hdcmi->Instance->CR &= ~(DCMI_CR_CAPTURE);
 499:HALLIB/STM32F4xx_HAL_Driver/Src/stm32f4xx_hal_dcmi.c **** 
 500:HALLIB/STM32F4xx_HAL_Driver/Src/stm32f4xx_hal_dcmi.c ****     /* Check if the DCMI capture effectively disabled */
 501:HALLIB/STM32F4xx_HAL_Driver/Src/stm32f4xx_hal_dcmi.c ****     do
 502:HALLIB/STM32F4xx_HAL_Driver/Src/stm32f4xx_hal_dcmi.c ****     {
 503:HALLIB/STM32F4xx_HAL_Driver/Src/stm32f4xx_hal_dcmi.c ****       if (count-- == 0U)
 504:HALLIB/STM32F4xx_HAL_Driver/Src/stm32f4xx_hal_dcmi.c ****       {        
 505:HALLIB/STM32F4xx_HAL_Driver/Src/stm32f4xx_hal_dcmi.c ****         /* Update error code */
 506:HALLIB/STM32F4xx_HAL_Driver/Src/stm32f4xx_hal_dcmi.c ****         hdcmi->ErrorCode |= HAL_DCMI_ERROR_TIMEOUT;
 507:HALLIB/STM32F4xx_HAL_Driver/Src/stm32f4xx_hal_dcmi.c ****         
 508:HALLIB/STM32F4xx_HAL_Driver/Src/stm32f4xx_hal_dcmi.c ****         /* Change DCMI state */
 509:HALLIB/STM32F4xx_HAL_Driver/Src/stm32f4xx_hal_dcmi.c ****         hdcmi->State = HAL_DCMI_STATE_READY;
 510:HALLIB/STM32F4xx_HAL_Driver/Src/stm32f4xx_hal_dcmi.c ****         
 511:HALLIB/STM32F4xx_HAL_Driver/Src/stm32f4xx_hal_dcmi.c ****         status = HAL_TIMEOUT;
 512:HALLIB/STM32F4xx_HAL_Driver/Src/stm32f4xx_hal_dcmi.c ****         break;
 513:HALLIB/STM32F4xx_HAL_Driver/Src/stm32f4xx_hal_dcmi.c ****       }
 514:HALLIB/STM32F4xx_HAL_Driver/Src/stm32f4xx_hal_dcmi.c ****     }
 515:HALLIB/STM32F4xx_HAL_Driver/Src/stm32f4xx_hal_dcmi.c ****     while((hdcmi->Instance->CR & DCMI_CR_CAPTURE) != 0);
 516:HALLIB/STM32F4xx_HAL_Driver/Src/stm32f4xx_hal_dcmi.c ****   }    
 517:HALLIB/STM32F4xx_HAL_Driver/Src/stm32f4xx_hal_dcmi.c ****   /* Process Unlocked */
 518:HALLIB/STM32F4xx_HAL_Driver/Src/stm32f4xx_hal_dcmi.c ****   __HAL_UNLOCK(hdcmi);
 519:HALLIB/STM32F4xx_HAL_Driver/Src/stm32f4xx_hal_dcmi.c ****   
 520:HALLIB/STM32F4xx_HAL_Driver/Src/stm32f4xx_hal_dcmi.c ****   /* Return function status */
 521:HALLIB/STM32F4xx_HAL_Driver/Src/stm32f4xx_hal_dcmi.c ****   return status;
 522:HALLIB/STM32F4xx_HAL_Driver/Src/stm32f4xx_hal_dcmi.c **** }
 523:HALLIB/STM32F4xx_HAL_Driver/Src/stm32f4xx_hal_dcmi.c **** 
 524:HALLIB/STM32F4xx_HAL_Driver/Src/stm32f4xx_hal_dcmi.c **** /**
 525:HALLIB/STM32F4xx_HAL_Driver/Src/stm32f4xx_hal_dcmi.c ****   * @brief  Resume DCMI capture  
 526:HALLIB/STM32F4xx_HAL_Driver/Src/stm32f4xx_hal_dcmi.c ****   * @param  hdcmi pointer to a DCMI_HandleTypeDef structure that contains
 527:HALLIB/STM32F4xx_HAL_Driver/Src/stm32f4xx_hal_dcmi.c ****   *                the configuration information for DCMI. 
 528:HALLIB/STM32F4xx_HAL_Driver/Src/stm32f4xx_hal_dcmi.c ****   * @retval HAL status     
 529:HALLIB/STM32F4xx_HAL_Driver/Src/stm32f4xx_hal_dcmi.c ****   */
 530:HALLIB/STM32F4xx_HAL_Driver/Src/stm32f4xx_hal_dcmi.c **** HAL_StatusTypeDef HAL_DCMI_Resume(DCMI_HandleTypeDef* hdcmi)
 531:HALLIB/STM32F4xx_HAL_Driver/Src/stm32f4xx_hal_dcmi.c **** {
 532:HALLIB/STM32F4xx_HAL_Driver/Src/stm32f4xx_hal_dcmi.c ****   /* Process locked */
 533:HALLIB/STM32F4xx_HAL_Driver/Src/stm32f4xx_hal_dcmi.c ****   __HAL_LOCK(hdcmi);
 534:HALLIB/STM32F4xx_HAL_Driver/Src/stm32f4xx_hal_dcmi.c ****   
 535:HALLIB/STM32F4xx_HAL_Driver/Src/stm32f4xx_hal_dcmi.c ****   if(hdcmi->State == HAL_DCMI_STATE_SUSPENDED)
 536:HALLIB/STM32F4xx_HAL_Driver/Src/stm32f4xx_hal_dcmi.c ****   {
 537:HALLIB/STM32F4xx_HAL_Driver/Src/stm32f4xx_hal_dcmi.c ****     /* Change DCMI state */
 538:HALLIB/STM32F4xx_HAL_Driver/Src/stm32f4xx_hal_dcmi.c ****     hdcmi->State = HAL_DCMI_STATE_BUSY;
 539:HALLIB/STM32F4xx_HAL_Driver/Src/stm32f4xx_hal_dcmi.c ****     
 540:HALLIB/STM32F4xx_HAL_Driver/Src/stm32f4xx_hal_dcmi.c ****     /* Disable Capture */
 541:HALLIB/STM32F4xx_HAL_Driver/Src/stm32f4xx_hal_dcmi.c ****     hdcmi->Instance->CR |= DCMI_CR_CAPTURE;
 542:HALLIB/STM32F4xx_HAL_Driver/Src/stm32f4xx_hal_dcmi.c ****   } 
 543:HALLIB/STM32F4xx_HAL_Driver/Src/stm32f4xx_hal_dcmi.c ****   /* Process Unlocked */
ARM GAS  /tmp/ccK4D7wz.s 			page 11


 544:HALLIB/STM32F4xx_HAL_Driver/Src/stm32f4xx_hal_dcmi.c ****   __HAL_UNLOCK(hdcmi);
 545:HALLIB/STM32F4xx_HAL_Driver/Src/stm32f4xx_hal_dcmi.c ****   
 546:HALLIB/STM32F4xx_HAL_Driver/Src/stm32f4xx_hal_dcmi.c ****   /* Return function status */
 547:HALLIB/STM32F4xx_HAL_Driver/Src/stm32f4xx_hal_dcmi.c ****   return HAL_OK;
 548:HALLIB/STM32F4xx_HAL_Driver/Src/stm32f4xx_hal_dcmi.c **** }
 549:HALLIB/STM32F4xx_HAL_Driver/Src/stm32f4xx_hal_dcmi.c **** 
 550:HALLIB/STM32F4xx_HAL_Driver/Src/stm32f4xx_hal_dcmi.c **** /**
 551:HALLIB/STM32F4xx_HAL_Driver/Src/stm32f4xx_hal_dcmi.c ****   * @brief  Handles DCMI interrupt request.
 552:HALLIB/STM32F4xx_HAL_Driver/Src/stm32f4xx_hal_dcmi.c ****   * @param  hdcmi pointer to a DCMI_HandleTypeDef structure that contains
 553:HALLIB/STM32F4xx_HAL_Driver/Src/stm32f4xx_hal_dcmi.c ****   *                the configuration information for the DCMI.
 554:HALLIB/STM32F4xx_HAL_Driver/Src/stm32f4xx_hal_dcmi.c ****   * @retval None
 555:HALLIB/STM32F4xx_HAL_Driver/Src/stm32f4xx_hal_dcmi.c ****   */
 556:HALLIB/STM32F4xx_HAL_Driver/Src/stm32f4xx_hal_dcmi.c **** void HAL_DCMI_IRQHandler(DCMI_HandleTypeDef *hdcmi)
 557:HALLIB/STM32F4xx_HAL_Driver/Src/stm32f4xx_hal_dcmi.c **** {
 558:HALLIB/STM32F4xx_HAL_Driver/Src/stm32f4xx_hal_dcmi.c ****   uint32_t isr_value = READ_REG(hdcmi->Instance->MISR);
 559:HALLIB/STM32F4xx_HAL_Driver/Src/stm32f4xx_hal_dcmi.c **** 
 560:HALLIB/STM32F4xx_HAL_Driver/Src/stm32f4xx_hal_dcmi.c ****   /* Synchronization error interrupt management *******************************/
 561:HALLIB/STM32F4xx_HAL_Driver/Src/stm32f4xx_hal_dcmi.c ****   if((isr_value & DCMI_FLAG_ERRRI) == DCMI_FLAG_ERRRI)
 562:HALLIB/STM32F4xx_HAL_Driver/Src/stm32f4xx_hal_dcmi.c ****   {
 563:HALLIB/STM32F4xx_HAL_Driver/Src/stm32f4xx_hal_dcmi.c ****     /* Clear the Synchronization error flag */
 564:HALLIB/STM32F4xx_HAL_Driver/Src/stm32f4xx_hal_dcmi.c ****     __HAL_DCMI_CLEAR_FLAG(hdcmi, DCMI_FLAG_ERRRI);
 565:HALLIB/STM32F4xx_HAL_Driver/Src/stm32f4xx_hal_dcmi.c **** 
 566:HALLIB/STM32F4xx_HAL_Driver/Src/stm32f4xx_hal_dcmi.c ****     /* Update error code */
 567:HALLIB/STM32F4xx_HAL_Driver/Src/stm32f4xx_hal_dcmi.c ****     hdcmi->ErrorCode |= HAL_DCMI_ERROR_SYNC;
 568:HALLIB/STM32F4xx_HAL_Driver/Src/stm32f4xx_hal_dcmi.c **** 
 569:HALLIB/STM32F4xx_HAL_Driver/Src/stm32f4xx_hal_dcmi.c ****     /* Change DCMI state */
 570:HALLIB/STM32F4xx_HAL_Driver/Src/stm32f4xx_hal_dcmi.c ****     hdcmi->State = HAL_DCMI_STATE_ERROR;
 571:HALLIB/STM32F4xx_HAL_Driver/Src/stm32f4xx_hal_dcmi.c ****     
 572:HALLIB/STM32F4xx_HAL_Driver/Src/stm32f4xx_hal_dcmi.c ****     /* Set the synchronization error callback */
 573:HALLIB/STM32F4xx_HAL_Driver/Src/stm32f4xx_hal_dcmi.c ****     hdcmi->DMA_Handle->XferAbortCallback = DCMI_DMAError;
 574:HALLIB/STM32F4xx_HAL_Driver/Src/stm32f4xx_hal_dcmi.c **** 
 575:HALLIB/STM32F4xx_HAL_Driver/Src/stm32f4xx_hal_dcmi.c ****     /* Abort the DMA Transfer */
 576:HALLIB/STM32F4xx_HAL_Driver/Src/stm32f4xx_hal_dcmi.c ****     HAL_DMA_Abort_IT(hdcmi->DMA_Handle);
 577:HALLIB/STM32F4xx_HAL_Driver/Src/stm32f4xx_hal_dcmi.c ****   }
 578:HALLIB/STM32F4xx_HAL_Driver/Src/stm32f4xx_hal_dcmi.c ****   /* Overflow interrupt management ********************************************/
 579:HALLIB/STM32F4xx_HAL_Driver/Src/stm32f4xx_hal_dcmi.c ****   if((isr_value & DCMI_FLAG_OVRRI) == DCMI_FLAG_OVRRI)
 580:HALLIB/STM32F4xx_HAL_Driver/Src/stm32f4xx_hal_dcmi.c ****   {
 581:HALLIB/STM32F4xx_HAL_Driver/Src/stm32f4xx_hal_dcmi.c ****     /* Clear the Overflow flag */
 582:HALLIB/STM32F4xx_HAL_Driver/Src/stm32f4xx_hal_dcmi.c ****     __HAL_DCMI_CLEAR_FLAG(hdcmi, DCMI_FLAG_OVRRI);
 583:HALLIB/STM32F4xx_HAL_Driver/Src/stm32f4xx_hal_dcmi.c **** 
 584:HALLIB/STM32F4xx_HAL_Driver/Src/stm32f4xx_hal_dcmi.c ****     /* Update error code */
 585:HALLIB/STM32F4xx_HAL_Driver/Src/stm32f4xx_hal_dcmi.c ****     hdcmi->ErrorCode |= HAL_DCMI_ERROR_OVR;
 586:HALLIB/STM32F4xx_HAL_Driver/Src/stm32f4xx_hal_dcmi.c **** 
 587:HALLIB/STM32F4xx_HAL_Driver/Src/stm32f4xx_hal_dcmi.c ****     /* Change DCMI state */
 588:HALLIB/STM32F4xx_HAL_Driver/Src/stm32f4xx_hal_dcmi.c ****     hdcmi->State = HAL_DCMI_STATE_ERROR;
 589:HALLIB/STM32F4xx_HAL_Driver/Src/stm32f4xx_hal_dcmi.c ****     
 590:HALLIB/STM32F4xx_HAL_Driver/Src/stm32f4xx_hal_dcmi.c ****     /* Set the overflow callback */
 591:HALLIB/STM32F4xx_HAL_Driver/Src/stm32f4xx_hal_dcmi.c ****     hdcmi->DMA_Handle->XferAbortCallback = DCMI_DMAError;
 592:HALLIB/STM32F4xx_HAL_Driver/Src/stm32f4xx_hal_dcmi.c **** 
 593:HALLIB/STM32F4xx_HAL_Driver/Src/stm32f4xx_hal_dcmi.c ****     /* Abort the DMA Transfer */
 594:HALLIB/STM32F4xx_HAL_Driver/Src/stm32f4xx_hal_dcmi.c ****     HAL_DMA_Abort_IT(hdcmi->DMA_Handle);
 595:HALLIB/STM32F4xx_HAL_Driver/Src/stm32f4xx_hal_dcmi.c ****   }
 596:HALLIB/STM32F4xx_HAL_Driver/Src/stm32f4xx_hal_dcmi.c ****   /* Line Interrupt management ************************************************/
 597:HALLIB/STM32F4xx_HAL_Driver/Src/stm32f4xx_hal_dcmi.c ****   if((isr_value & DCMI_FLAG_LINERI) == DCMI_FLAG_LINERI)
 598:HALLIB/STM32F4xx_HAL_Driver/Src/stm32f4xx_hal_dcmi.c ****   {
 599:HALLIB/STM32F4xx_HAL_Driver/Src/stm32f4xx_hal_dcmi.c ****     /* Clear the Line interrupt flag */
 600:HALLIB/STM32F4xx_HAL_Driver/Src/stm32f4xx_hal_dcmi.c ****     __HAL_DCMI_CLEAR_FLAG(hdcmi, DCMI_FLAG_LINERI);
ARM GAS  /tmp/ccK4D7wz.s 			page 12


 601:HALLIB/STM32F4xx_HAL_Driver/Src/stm32f4xx_hal_dcmi.c ****     
 602:HALLIB/STM32F4xx_HAL_Driver/Src/stm32f4xx_hal_dcmi.c ****     /* Line interrupt Callback */
 603:HALLIB/STM32F4xx_HAL_Driver/Src/stm32f4xx_hal_dcmi.c **** #if (USE_HAL_DCMI_REGISTER_CALLBACKS == 1)
 604:HALLIB/STM32F4xx_HAL_Driver/Src/stm32f4xx_hal_dcmi.c ****     /*Call registered DCMI line event callback*/
 605:HALLIB/STM32F4xx_HAL_Driver/Src/stm32f4xx_hal_dcmi.c ****     hdcmi->LineEventCallback(hdcmi);
 606:HALLIB/STM32F4xx_HAL_Driver/Src/stm32f4xx_hal_dcmi.c **** #else  
 607:HALLIB/STM32F4xx_HAL_Driver/Src/stm32f4xx_hal_dcmi.c ****     HAL_DCMI_LineEventCallback(hdcmi);
 608:HALLIB/STM32F4xx_HAL_Driver/Src/stm32f4xx_hal_dcmi.c **** #endif /* USE_HAL_DCMI_REGISTER_CALLBACKS */     
 609:HALLIB/STM32F4xx_HAL_Driver/Src/stm32f4xx_hal_dcmi.c ****   }
 610:HALLIB/STM32F4xx_HAL_Driver/Src/stm32f4xx_hal_dcmi.c ****   /* VSYNC interrupt management ***********************************************/
 611:HALLIB/STM32F4xx_HAL_Driver/Src/stm32f4xx_hal_dcmi.c ****   if((isr_value & DCMI_FLAG_VSYNCRI) == DCMI_FLAG_VSYNCRI)
 612:HALLIB/STM32F4xx_HAL_Driver/Src/stm32f4xx_hal_dcmi.c ****   {
 613:HALLIB/STM32F4xx_HAL_Driver/Src/stm32f4xx_hal_dcmi.c ****     /* Clear the VSYNC flag */
 614:HALLIB/STM32F4xx_HAL_Driver/Src/stm32f4xx_hal_dcmi.c ****     __HAL_DCMI_CLEAR_FLAG(hdcmi, DCMI_FLAG_VSYNCRI);
 615:HALLIB/STM32F4xx_HAL_Driver/Src/stm32f4xx_hal_dcmi.c ****     
 616:HALLIB/STM32F4xx_HAL_Driver/Src/stm32f4xx_hal_dcmi.c ****     /* VSYNC Callback */
 617:HALLIB/STM32F4xx_HAL_Driver/Src/stm32f4xx_hal_dcmi.c **** #if (USE_HAL_DCMI_REGISTER_CALLBACKS == 1)
 618:HALLIB/STM32F4xx_HAL_Driver/Src/stm32f4xx_hal_dcmi.c ****     /*Call registered DCMI vsync event callback*/
 619:HALLIB/STM32F4xx_HAL_Driver/Src/stm32f4xx_hal_dcmi.c ****     hdcmi->VsyncEventCallback(hdcmi);
 620:HALLIB/STM32F4xx_HAL_Driver/Src/stm32f4xx_hal_dcmi.c **** #else  
 621:HALLIB/STM32F4xx_HAL_Driver/Src/stm32f4xx_hal_dcmi.c ****     HAL_DCMI_VsyncEventCallback(hdcmi);
 622:HALLIB/STM32F4xx_HAL_Driver/Src/stm32f4xx_hal_dcmi.c **** #endif /* USE_HAL_DCMI_REGISTER_CALLBACKS */ 
 623:HALLIB/STM32F4xx_HAL_Driver/Src/stm32f4xx_hal_dcmi.c ****   }
 624:HALLIB/STM32F4xx_HAL_Driver/Src/stm32f4xx_hal_dcmi.c ****   /* FRAME interrupt management ***********************************************/
 625:HALLIB/STM32F4xx_HAL_Driver/Src/stm32f4xx_hal_dcmi.c ****   if((isr_value & DCMI_FLAG_FRAMERI) == DCMI_FLAG_FRAMERI)
 626:HALLIB/STM32F4xx_HAL_Driver/Src/stm32f4xx_hal_dcmi.c ****   {
 627:HALLIB/STM32F4xx_HAL_Driver/Src/stm32f4xx_hal_dcmi.c ****     /* When snapshot mode, disable Vsync, Error and Overrun interrupts */
 628:HALLIB/STM32F4xx_HAL_Driver/Src/stm32f4xx_hal_dcmi.c ****     if((hdcmi->Instance->CR & DCMI_CR_CM) == DCMI_MODE_SNAPSHOT)
 629:HALLIB/STM32F4xx_HAL_Driver/Src/stm32f4xx_hal_dcmi.c ****     { 
 630:HALLIB/STM32F4xx_HAL_Driver/Src/stm32f4xx_hal_dcmi.c ****       /* Disable the Line, Vsync, Error and Overrun interrupts */
 631:HALLIB/STM32F4xx_HAL_Driver/Src/stm32f4xx_hal_dcmi.c ****       __HAL_DCMI_DISABLE_IT(hdcmi, DCMI_IT_LINE | DCMI_IT_VSYNC | DCMI_IT_ERR | DCMI_IT_OVR);
 632:HALLIB/STM32F4xx_HAL_Driver/Src/stm32f4xx_hal_dcmi.c ****     }
 633:HALLIB/STM32F4xx_HAL_Driver/Src/stm32f4xx_hal_dcmi.c **** 
 634:HALLIB/STM32F4xx_HAL_Driver/Src/stm32f4xx_hal_dcmi.c ****     /* Disable the Frame interrupt */
 635:HALLIB/STM32F4xx_HAL_Driver/Src/stm32f4xx_hal_dcmi.c ****     __HAL_DCMI_DISABLE_IT(hdcmi, DCMI_IT_FRAME);
 636:HALLIB/STM32F4xx_HAL_Driver/Src/stm32f4xx_hal_dcmi.c **** 
 637:HALLIB/STM32F4xx_HAL_Driver/Src/stm32f4xx_hal_dcmi.c ****     /* Frame Callback */
 638:HALLIB/STM32F4xx_HAL_Driver/Src/stm32f4xx_hal_dcmi.c **** #if (USE_HAL_DCMI_REGISTER_CALLBACKS == 1)
 639:HALLIB/STM32F4xx_HAL_Driver/Src/stm32f4xx_hal_dcmi.c ****     /*Call registered DCMI frame event callback*/
 640:HALLIB/STM32F4xx_HAL_Driver/Src/stm32f4xx_hal_dcmi.c ****     hdcmi->FrameEventCallback(hdcmi);
 641:HALLIB/STM32F4xx_HAL_Driver/Src/stm32f4xx_hal_dcmi.c **** #else  
 642:HALLIB/STM32F4xx_HAL_Driver/Src/stm32f4xx_hal_dcmi.c ****     HAL_DCMI_FrameEventCallback(hdcmi);
 643:HALLIB/STM32F4xx_HAL_Driver/Src/stm32f4xx_hal_dcmi.c **** #endif /* USE_HAL_DCMI_REGISTER_CALLBACKS */      
 644:HALLIB/STM32F4xx_HAL_Driver/Src/stm32f4xx_hal_dcmi.c ****   }
 645:HALLIB/STM32F4xx_HAL_Driver/Src/stm32f4xx_hal_dcmi.c **** }
 646:HALLIB/STM32F4xx_HAL_Driver/Src/stm32f4xx_hal_dcmi.c **** 
 647:HALLIB/STM32F4xx_HAL_Driver/Src/stm32f4xx_hal_dcmi.c **** /**
 648:HALLIB/STM32F4xx_HAL_Driver/Src/stm32f4xx_hal_dcmi.c ****   * @brief  Error DCMI callback.
 649:HALLIB/STM32F4xx_HAL_Driver/Src/stm32f4xx_hal_dcmi.c ****   * @param  hdcmi pointer to a DCMI_HandleTypeDef structure that contains
 650:HALLIB/STM32F4xx_HAL_Driver/Src/stm32f4xx_hal_dcmi.c ****   *                the configuration information for DCMI.
 651:HALLIB/STM32F4xx_HAL_Driver/Src/stm32f4xx_hal_dcmi.c ****   * @retval None
 652:HALLIB/STM32F4xx_HAL_Driver/Src/stm32f4xx_hal_dcmi.c ****   */
 653:HALLIB/STM32F4xx_HAL_Driver/Src/stm32f4xx_hal_dcmi.c **** __weak void HAL_DCMI_ErrorCallback(DCMI_HandleTypeDef *hdcmi)
 654:HALLIB/STM32F4xx_HAL_Driver/Src/stm32f4xx_hal_dcmi.c **** {
 655:HALLIB/STM32F4xx_HAL_Driver/Src/stm32f4xx_hal_dcmi.c ****   /* Prevent unused argument(s) compilation warning */
 656:HALLIB/STM32F4xx_HAL_Driver/Src/stm32f4xx_hal_dcmi.c ****   UNUSED(hdcmi);
 657:HALLIB/STM32F4xx_HAL_Driver/Src/stm32f4xx_hal_dcmi.c ****   /* NOTE : This function Should not be modified, when the callback is needed,
ARM GAS  /tmp/ccK4D7wz.s 			page 13


 658:HALLIB/STM32F4xx_HAL_Driver/Src/stm32f4xx_hal_dcmi.c ****             the HAL_DCMI_ErrorCallback could be implemented in the user file
 659:HALLIB/STM32F4xx_HAL_Driver/Src/stm32f4xx_hal_dcmi.c ****    */
 660:HALLIB/STM32F4xx_HAL_Driver/Src/stm32f4xx_hal_dcmi.c **** }
 661:HALLIB/STM32F4xx_HAL_Driver/Src/stm32f4xx_hal_dcmi.c **** 
 662:HALLIB/STM32F4xx_HAL_Driver/Src/stm32f4xx_hal_dcmi.c **** /**
 663:HALLIB/STM32F4xx_HAL_Driver/Src/stm32f4xx_hal_dcmi.c ****   * @brief  Line Event callback.
 664:HALLIB/STM32F4xx_HAL_Driver/Src/stm32f4xx_hal_dcmi.c ****   * @param  hdcmi pointer to a DCMI_HandleTypeDef structure that contains
 665:HALLIB/STM32F4xx_HAL_Driver/Src/stm32f4xx_hal_dcmi.c ****   *                the configuration information for DCMI.
 666:HALLIB/STM32F4xx_HAL_Driver/Src/stm32f4xx_hal_dcmi.c ****   * @retval None
 667:HALLIB/STM32F4xx_HAL_Driver/Src/stm32f4xx_hal_dcmi.c ****   */
 668:HALLIB/STM32F4xx_HAL_Driver/Src/stm32f4xx_hal_dcmi.c **** __weak void HAL_DCMI_LineEventCallback(DCMI_HandleTypeDef *hdcmi)
 669:HALLIB/STM32F4xx_HAL_Driver/Src/stm32f4xx_hal_dcmi.c **** {
 670:HALLIB/STM32F4xx_HAL_Driver/Src/stm32f4xx_hal_dcmi.c ****   /* Prevent unused argument(s) compilation warning */
 671:HALLIB/STM32F4xx_HAL_Driver/Src/stm32f4xx_hal_dcmi.c ****   UNUSED(hdcmi);
 672:HALLIB/STM32F4xx_HAL_Driver/Src/stm32f4xx_hal_dcmi.c ****   /* NOTE : This function Should not be modified, when the callback is needed,
 673:HALLIB/STM32F4xx_HAL_Driver/Src/stm32f4xx_hal_dcmi.c ****             the HAL_DCMI_LineEventCallback could be implemented in the user file
 674:HALLIB/STM32F4xx_HAL_Driver/Src/stm32f4xx_hal_dcmi.c ****    */
 675:HALLIB/STM32F4xx_HAL_Driver/Src/stm32f4xx_hal_dcmi.c **** }
 676:HALLIB/STM32F4xx_HAL_Driver/Src/stm32f4xx_hal_dcmi.c **** 
 677:HALLIB/STM32F4xx_HAL_Driver/Src/stm32f4xx_hal_dcmi.c **** /**
 678:HALLIB/STM32F4xx_HAL_Driver/Src/stm32f4xx_hal_dcmi.c ****   * @brief  VSYNC Event callback.
 679:HALLIB/STM32F4xx_HAL_Driver/Src/stm32f4xx_hal_dcmi.c ****   * @param  hdcmi pointer to a DCMI_HandleTypeDef structure that contains
 680:HALLIB/STM32F4xx_HAL_Driver/Src/stm32f4xx_hal_dcmi.c ****   *                the configuration information for DCMI.
 681:HALLIB/STM32F4xx_HAL_Driver/Src/stm32f4xx_hal_dcmi.c ****   * @retval None
 682:HALLIB/STM32F4xx_HAL_Driver/Src/stm32f4xx_hal_dcmi.c ****   */
 683:HALLIB/STM32F4xx_HAL_Driver/Src/stm32f4xx_hal_dcmi.c **** __weak void HAL_DCMI_VsyncEventCallback(DCMI_HandleTypeDef *hdcmi)
 684:HALLIB/STM32F4xx_HAL_Driver/Src/stm32f4xx_hal_dcmi.c **** {
 685:HALLIB/STM32F4xx_HAL_Driver/Src/stm32f4xx_hal_dcmi.c ****   /* Prevent unused argument(s) compilation warning */
 686:HALLIB/STM32F4xx_HAL_Driver/Src/stm32f4xx_hal_dcmi.c ****   UNUSED(hdcmi);
 687:HALLIB/STM32F4xx_HAL_Driver/Src/stm32f4xx_hal_dcmi.c ****   /* NOTE : This function Should not be modified, when the callback is needed,
 688:HALLIB/STM32F4xx_HAL_Driver/Src/stm32f4xx_hal_dcmi.c ****             the HAL_DCMI_VsyncEventCallback could be implemented in the user file
 689:HALLIB/STM32F4xx_HAL_Driver/Src/stm32f4xx_hal_dcmi.c ****    */
 690:HALLIB/STM32F4xx_HAL_Driver/Src/stm32f4xx_hal_dcmi.c **** }
 691:HALLIB/STM32F4xx_HAL_Driver/Src/stm32f4xx_hal_dcmi.c **** 
 692:HALLIB/STM32F4xx_HAL_Driver/Src/stm32f4xx_hal_dcmi.c **** /**
 693:HALLIB/STM32F4xx_HAL_Driver/Src/stm32f4xx_hal_dcmi.c ****   * @brief  Frame Event callback.
 694:HALLIB/STM32F4xx_HAL_Driver/Src/stm32f4xx_hal_dcmi.c ****   * @param  hdcmi pointer to a DCMI_HandleTypeDef structure that contains
 695:HALLIB/STM32F4xx_HAL_Driver/Src/stm32f4xx_hal_dcmi.c ****   *                the configuration information for DCMI.
 696:HALLIB/STM32F4xx_HAL_Driver/Src/stm32f4xx_hal_dcmi.c ****   * @retval None
 697:HALLIB/STM32F4xx_HAL_Driver/Src/stm32f4xx_hal_dcmi.c ****   */
 698:HALLIB/STM32F4xx_HAL_Driver/Src/stm32f4xx_hal_dcmi.c **** __weak void HAL_DCMI_FrameEventCallback(DCMI_HandleTypeDef *hdcmi)
 699:HALLIB/STM32F4xx_HAL_Driver/Src/stm32f4xx_hal_dcmi.c **** {
 700:HALLIB/STM32F4xx_HAL_Driver/Src/stm32f4xx_hal_dcmi.c ****   /* Prevent unused argument(s) compilation warning */
 701:HALLIB/STM32F4xx_HAL_Driver/Src/stm32f4xx_hal_dcmi.c ****   UNUSED(hdcmi);
 702:HALLIB/STM32F4xx_HAL_Driver/Src/stm32f4xx_hal_dcmi.c ****   /* NOTE : This function Should not be modified, when the callback is needed,
 703:HALLIB/STM32F4xx_HAL_Driver/Src/stm32f4xx_hal_dcmi.c ****             the HAL_DCMI_FrameEventCallback could be implemented in the user file
 704:HALLIB/STM32F4xx_HAL_Driver/Src/stm32f4xx_hal_dcmi.c ****    */
 705:HALLIB/STM32F4xx_HAL_Driver/Src/stm32f4xx_hal_dcmi.c **** }
 706:HALLIB/STM32F4xx_HAL_Driver/Src/stm32f4xx_hal_dcmi.c **** 
 707:HALLIB/STM32F4xx_HAL_Driver/Src/stm32f4xx_hal_dcmi.c **** /**
 708:HALLIB/STM32F4xx_HAL_Driver/Src/stm32f4xx_hal_dcmi.c ****   * @}
 709:HALLIB/STM32F4xx_HAL_Driver/Src/stm32f4xx_hal_dcmi.c ****   */
 710:HALLIB/STM32F4xx_HAL_Driver/Src/stm32f4xx_hal_dcmi.c **** 
 711:HALLIB/STM32F4xx_HAL_Driver/Src/stm32f4xx_hal_dcmi.c **** /** @defgroup DCMI_Exported_Functions_Group3 Peripheral Control functions
 712:HALLIB/STM32F4xx_HAL_Driver/Src/stm32f4xx_hal_dcmi.c ****   *  @brief    Peripheral Control functions
 713:HALLIB/STM32F4xx_HAL_Driver/Src/stm32f4xx_hal_dcmi.c ****   *
 714:HALLIB/STM32F4xx_HAL_Driver/Src/stm32f4xx_hal_dcmi.c **** @verbatim
ARM GAS  /tmp/ccK4D7wz.s 			page 14


 715:HALLIB/STM32F4xx_HAL_Driver/Src/stm32f4xx_hal_dcmi.c ****  ===============================================================================
 716:HALLIB/STM32F4xx_HAL_Driver/Src/stm32f4xx_hal_dcmi.c ****                     ##### Peripheral Control functions #####
 717:HALLIB/STM32F4xx_HAL_Driver/Src/stm32f4xx_hal_dcmi.c ****  ===============================================================================
 718:HALLIB/STM32F4xx_HAL_Driver/Src/stm32f4xx_hal_dcmi.c **** [..]  This section provides functions allowing to:
 719:HALLIB/STM32F4xx_HAL_Driver/Src/stm32f4xx_hal_dcmi.c ****       (+) Configure the CROP feature.
 720:HALLIB/STM32F4xx_HAL_Driver/Src/stm32f4xx_hal_dcmi.c ****       (+) Enable/Disable the CROP feature.
 721:HALLIB/STM32F4xx_HAL_Driver/Src/stm32f4xx_hal_dcmi.c **** 
 722:HALLIB/STM32F4xx_HAL_Driver/Src/stm32f4xx_hal_dcmi.c **** @endverbatim
 723:HALLIB/STM32F4xx_HAL_Driver/Src/stm32f4xx_hal_dcmi.c ****   * @{
 724:HALLIB/STM32F4xx_HAL_Driver/Src/stm32f4xx_hal_dcmi.c ****   */
 725:HALLIB/STM32F4xx_HAL_Driver/Src/stm32f4xx_hal_dcmi.c **** 
 726:HALLIB/STM32F4xx_HAL_Driver/Src/stm32f4xx_hal_dcmi.c **** /**
 727:HALLIB/STM32F4xx_HAL_Driver/Src/stm32f4xx_hal_dcmi.c ****   * @brief  Configure the DCMI CROP coordinate.
 728:HALLIB/STM32F4xx_HAL_Driver/Src/stm32f4xx_hal_dcmi.c ****   * @param  hdcmi pointer to a DCMI_HandleTypeDef structure that contains
 729:HALLIB/STM32F4xx_HAL_Driver/Src/stm32f4xx_hal_dcmi.c ****   *                the configuration information for DCMI.
 730:HALLIB/STM32F4xx_HAL_Driver/Src/stm32f4xx_hal_dcmi.c ****   * @param  X0    DCMI window X offset
 731:HALLIB/STM32F4xx_HAL_Driver/Src/stm32f4xx_hal_dcmi.c ****   * @param  Y0    DCMI window Y offset
 732:HALLIB/STM32F4xx_HAL_Driver/Src/stm32f4xx_hal_dcmi.c ****   * @param  XSize DCMI Pixel per line
 733:HALLIB/STM32F4xx_HAL_Driver/Src/stm32f4xx_hal_dcmi.c ****   * @param  YSize DCMI Line number
 734:HALLIB/STM32F4xx_HAL_Driver/Src/stm32f4xx_hal_dcmi.c ****   * @retval HAL status
 735:HALLIB/STM32F4xx_HAL_Driver/Src/stm32f4xx_hal_dcmi.c ****   */
 736:HALLIB/STM32F4xx_HAL_Driver/Src/stm32f4xx_hal_dcmi.c **** HAL_StatusTypeDef HAL_DCMI_ConfigCrop(DCMI_HandleTypeDef *hdcmi, uint32_t X0, uint32_t Y0, uint32_t
 737:HALLIB/STM32F4xx_HAL_Driver/Src/stm32f4xx_hal_dcmi.c **** {
 738:HALLIB/STM32F4xx_HAL_Driver/Src/stm32f4xx_hal_dcmi.c ****   /* Process Locked */
 739:HALLIB/STM32F4xx_HAL_Driver/Src/stm32f4xx_hal_dcmi.c ****   __HAL_LOCK(hdcmi);
 740:HALLIB/STM32F4xx_HAL_Driver/Src/stm32f4xx_hal_dcmi.c **** 
 741:HALLIB/STM32F4xx_HAL_Driver/Src/stm32f4xx_hal_dcmi.c ****   /* Lock the DCMI peripheral state */
 742:HALLIB/STM32F4xx_HAL_Driver/Src/stm32f4xx_hal_dcmi.c ****   hdcmi->State = HAL_DCMI_STATE_BUSY;
 743:HALLIB/STM32F4xx_HAL_Driver/Src/stm32f4xx_hal_dcmi.c **** 
 744:HALLIB/STM32F4xx_HAL_Driver/Src/stm32f4xx_hal_dcmi.c ****   /* Check the parameters */
 745:HALLIB/STM32F4xx_HAL_Driver/Src/stm32f4xx_hal_dcmi.c ****   assert_param(IS_DCMI_WINDOW_COORDINATE(X0));
 746:HALLIB/STM32F4xx_HAL_Driver/Src/stm32f4xx_hal_dcmi.c ****   assert_param(IS_DCMI_WINDOW_COORDINATE(YSize));
 747:HALLIB/STM32F4xx_HAL_Driver/Src/stm32f4xx_hal_dcmi.c ****   assert_param(IS_DCMI_WINDOW_COORDINATE(XSize));
 748:HALLIB/STM32F4xx_HAL_Driver/Src/stm32f4xx_hal_dcmi.c ****   assert_param(IS_DCMI_WINDOW_HEIGHT(Y0));
 749:HALLIB/STM32F4xx_HAL_Driver/Src/stm32f4xx_hal_dcmi.c **** 
 750:HALLIB/STM32F4xx_HAL_Driver/Src/stm32f4xx_hal_dcmi.c ****   /* Configure CROP */
 751:HALLIB/STM32F4xx_HAL_Driver/Src/stm32f4xx_hal_dcmi.c ****   hdcmi->Instance->CWSIZER = (XSize | (YSize << DCMI_POSITION_CWSIZE_VLINE));
 752:HALLIB/STM32F4xx_HAL_Driver/Src/stm32f4xx_hal_dcmi.c ****   hdcmi->Instance->CWSTRTR = (X0 | (Y0 << DCMI_POSITION_CWSTRT_VST));
 753:HALLIB/STM32F4xx_HAL_Driver/Src/stm32f4xx_hal_dcmi.c **** 
 754:HALLIB/STM32F4xx_HAL_Driver/Src/stm32f4xx_hal_dcmi.c ****   /* Initialize the DCMI state*/
 755:HALLIB/STM32F4xx_HAL_Driver/Src/stm32f4xx_hal_dcmi.c ****   hdcmi->State  = HAL_DCMI_STATE_READY;
 756:HALLIB/STM32F4xx_HAL_Driver/Src/stm32f4xx_hal_dcmi.c **** 
 757:HALLIB/STM32F4xx_HAL_Driver/Src/stm32f4xx_hal_dcmi.c ****   /* Process Unlocked */
 758:HALLIB/STM32F4xx_HAL_Driver/Src/stm32f4xx_hal_dcmi.c ****   __HAL_UNLOCK(hdcmi);
 759:HALLIB/STM32F4xx_HAL_Driver/Src/stm32f4xx_hal_dcmi.c **** 
 760:HALLIB/STM32F4xx_HAL_Driver/Src/stm32f4xx_hal_dcmi.c ****   return HAL_OK;
 761:HALLIB/STM32F4xx_HAL_Driver/Src/stm32f4xx_hal_dcmi.c **** }
 762:HALLIB/STM32F4xx_HAL_Driver/Src/stm32f4xx_hal_dcmi.c **** 
 763:HALLIB/STM32F4xx_HAL_Driver/Src/stm32f4xx_hal_dcmi.c **** /**
 764:HALLIB/STM32F4xx_HAL_Driver/Src/stm32f4xx_hal_dcmi.c ****   * @brief  Disable the Crop feature.
 765:HALLIB/STM32F4xx_HAL_Driver/Src/stm32f4xx_hal_dcmi.c ****   * @param  hdcmi pointer to a DCMI_HandleTypeDef structure that contains
 766:HALLIB/STM32F4xx_HAL_Driver/Src/stm32f4xx_hal_dcmi.c ****   *                the configuration information for DCMI.
 767:HALLIB/STM32F4xx_HAL_Driver/Src/stm32f4xx_hal_dcmi.c ****   * @retval HAL status
 768:HALLIB/STM32F4xx_HAL_Driver/Src/stm32f4xx_hal_dcmi.c ****   */
 769:HALLIB/STM32F4xx_HAL_Driver/Src/stm32f4xx_hal_dcmi.c **** HAL_StatusTypeDef HAL_DCMI_DisableCrop(DCMI_HandleTypeDef *hdcmi)
 770:HALLIB/STM32F4xx_HAL_Driver/Src/stm32f4xx_hal_dcmi.c **** {
 771:HALLIB/STM32F4xx_HAL_Driver/Src/stm32f4xx_hal_dcmi.c ****   /* Process Locked */
ARM GAS  /tmp/ccK4D7wz.s 			page 15


 772:HALLIB/STM32F4xx_HAL_Driver/Src/stm32f4xx_hal_dcmi.c ****   __HAL_LOCK(hdcmi);
 773:HALLIB/STM32F4xx_HAL_Driver/Src/stm32f4xx_hal_dcmi.c **** 
 774:HALLIB/STM32F4xx_HAL_Driver/Src/stm32f4xx_hal_dcmi.c ****   /* Lock the DCMI peripheral state */
 775:HALLIB/STM32F4xx_HAL_Driver/Src/stm32f4xx_hal_dcmi.c ****   hdcmi->State = HAL_DCMI_STATE_BUSY;
 776:HALLIB/STM32F4xx_HAL_Driver/Src/stm32f4xx_hal_dcmi.c **** 
 777:HALLIB/STM32F4xx_HAL_Driver/Src/stm32f4xx_hal_dcmi.c ****   /* Disable DCMI Crop feature */
 778:HALLIB/STM32F4xx_HAL_Driver/Src/stm32f4xx_hal_dcmi.c ****   hdcmi->Instance->CR &= ~(uint32_t)DCMI_CR_CROP;
 779:HALLIB/STM32F4xx_HAL_Driver/Src/stm32f4xx_hal_dcmi.c **** 
 780:HALLIB/STM32F4xx_HAL_Driver/Src/stm32f4xx_hal_dcmi.c ****   /* Change the DCMI state*/
 781:HALLIB/STM32F4xx_HAL_Driver/Src/stm32f4xx_hal_dcmi.c ****   hdcmi->State = HAL_DCMI_STATE_READY;
 782:HALLIB/STM32F4xx_HAL_Driver/Src/stm32f4xx_hal_dcmi.c **** 
 783:HALLIB/STM32F4xx_HAL_Driver/Src/stm32f4xx_hal_dcmi.c ****   /* Process Unlocked */
 784:HALLIB/STM32F4xx_HAL_Driver/Src/stm32f4xx_hal_dcmi.c ****   __HAL_UNLOCK(hdcmi);
 785:HALLIB/STM32F4xx_HAL_Driver/Src/stm32f4xx_hal_dcmi.c **** 
 786:HALLIB/STM32F4xx_HAL_Driver/Src/stm32f4xx_hal_dcmi.c ****   return HAL_OK;
 787:HALLIB/STM32F4xx_HAL_Driver/Src/stm32f4xx_hal_dcmi.c **** }
 788:HALLIB/STM32F4xx_HAL_Driver/Src/stm32f4xx_hal_dcmi.c **** 
 789:HALLIB/STM32F4xx_HAL_Driver/Src/stm32f4xx_hal_dcmi.c **** /**
 790:HALLIB/STM32F4xx_HAL_Driver/Src/stm32f4xx_hal_dcmi.c ****   * @brief  Enable the Crop feature.
 791:HALLIB/STM32F4xx_HAL_Driver/Src/stm32f4xx_hal_dcmi.c ****   * @param  hdcmi pointer to a DCMI_HandleTypeDef structure that contains
 792:HALLIB/STM32F4xx_HAL_Driver/Src/stm32f4xx_hal_dcmi.c ****   *                the configuration information for DCMI.
 793:HALLIB/STM32F4xx_HAL_Driver/Src/stm32f4xx_hal_dcmi.c ****   * @retval HAL status
 794:HALLIB/STM32F4xx_HAL_Driver/Src/stm32f4xx_hal_dcmi.c ****   */
 795:HALLIB/STM32F4xx_HAL_Driver/Src/stm32f4xx_hal_dcmi.c **** HAL_StatusTypeDef HAL_DCMI_EnableCrop(DCMI_HandleTypeDef *hdcmi)
 796:HALLIB/STM32F4xx_HAL_Driver/Src/stm32f4xx_hal_dcmi.c **** {
 797:HALLIB/STM32F4xx_HAL_Driver/Src/stm32f4xx_hal_dcmi.c ****   /* Process Locked */
 798:HALLIB/STM32F4xx_HAL_Driver/Src/stm32f4xx_hal_dcmi.c ****   __HAL_LOCK(hdcmi);
 799:HALLIB/STM32F4xx_HAL_Driver/Src/stm32f4xx_hal_dcmi.c **** 
 800:HALLIB/STM32F4xx_HAL_Driver/Src/stm32f4xx_hal_dcmi.c ****   /* Lock the DCMI peripheral state */
 801:HALLIB/STM32F4xx_HAL_Driver/Src/stm32f4xx_hal_dcmi.c ****   hdcmi->State = HAL_DCMI_STATE_BUSY;
 802:HALLIB/STM32F4xx_HAL_Driver/Src/stm32f4xx_hal_dcmi.c **** 
 803:HALLIB/STM32F4xx_HAL_Driver/Src/stm32f4xx_hal_dcmi.c ****   /* Enable DCMI Crop feature */
 804:HALLIB/STM32F4xx_HAL_Driver/Src/stm32f4xx_hal_dcmi.c ****   hdcmi->Instance->CR |= (uint32_t)DCMI_CR_CROP;
 805:HALLIB/STM32F4xx_HAL_Driver/Src/stm32f4xx_hal_dcmi.c **** 
 806:HALLIB/STM32F4xx_HAL_Driver/Src/stm32f4xx_hal_dcmi.c ****   /* Change the DCMI state*/
 807:HALLIB/STM32F4xx_HAL_Driver/Src/stm32f4xx_hal_dcmi.c ****   hdcmi->State = HAL_DCMI_STATE_READY;
 808:HALLIB/STM32F4xx_HAL_Driver/Src/stm32f4xx_hal_dcmi.c **** 
 809:HALLIB/STM32F4xx_HAL_Driver/Src/stm32f4xx_hal_dcmi.c ****   /* Process Unlocked */
 810:HALLIB/STM32F4xx_HAL_Driver/Src/stm32f4xx_hal_dcmi.c ****   __HAL_UNLOCK(hdcmi);
 811:HALLIB/STM32F4xx_HAL_Driver/Src/stm32f4xx_hal_dcmi.c **** 
 812:HALLIB/STM32F4xx_HAL_Driver/Src/stm32f4xx_hal_dcmi.c ****   return HAL_OK;
 813:HALLIB/STM32F4xx_HAL_Driver/Src/stm32f4xx_hal_dcmi.c **** }
 814:HALLIB/STM32F4xx_HAL_Driver/Src/stm32f4xx_hal_dcmi.c **** 
 815:HALLIB/STM32F4xx_HAL_Driver/Src/stm32f4xx_hal_dcmi.c **** /**
 816:HALLIB/STM32F4xx_HAL_Driver/Src/stm32f4xx_hal_dcmi.c ****   * @}
 817:HALLIB/STM32F4xx_HAL_Driver/Src/stm32f4xx_hal_dcmi.c ****   */
 818:HALLIB/STM32F4xx_HAL_Driver/Src/stm32f4xx_hal_dcmi.c **** 
 819:HALLIB/STM32F4xx_HAL_Driver/Src/stm32f4xx_hal_dcmi.c **** /** @defgroup DCMI_Exported_Functions_Group4 Peripheral State functions
 820:HALLIB/STM32F4xx_HAL_Driver/Src/stm32f4xx_hal_dcmi.c ****   *  @brief    Peripheral State functions
 821:HALLIB/STM32F4xx_HAL_Driver/Src/stm32f4xx_hal_dcmi.c ****   *
 822:HALLIB/STM32F4xx_HAL_Driver/Src/stm32f4xx_hal_dcmi.c **** @verbatim
 823:HALLIB/STM32F4xx_HAL_Driver/Src/stm32f4xx_hal_dcmi.c ****  ===============================================================================
 824:HALLIB/STM32F4xx_HAL_Driver/Src/stm32f4xx_hal_dcmi.c ****                ##### Peripheral State and Errors functions #####
 825:HALLIB/STM32F4xx_HAL_Driver/Src/stm32f4xx_hal_dcmi.c ****  ===============================================================================
 826:HALLIB/STM32F4xx_HAL_Driver/Src/stm32f4xx_hal_dcmi.c ****     [..]
 827:HALLIB/STM32F4xx_HAL_Driver/Src/stm32f4xx_hal_dcmi.c ****     This subsection provides functions allowing to
 828:HALLIB/STM32F4xx_HAL_Driver/Src/stm32f4xx_hal_dcmi.c ****       (+) Check the DCMI state.
ARM GAS  /tmp/ccK4D7wz.s 			page 16


 829:HALLIB/STM32F4xx_HAL_Driver/Src/stm32f4xx_hal_dcmi.c ****       (+) Get the specific DCMI error flag.
 830:HALLIB/STM32F4xx_HAL_Driver/Src/stm32f4xx_hal_dcmi.c **** 
 831:HALLIB/STM32F4xx_HAL_Driver/Src/stm32f4xx_hal_dcmi.c **** @endverbatim
 832:HALLIB/STM32F4xx_HAL_Driver/Src/stm32f4xx_hal_dcmi.c ****   * @{
 833:HALLIB/STM32F4xx_HAL_Driver/Src/stm32f4xx_hal_dcmi.c ****   */ 
 834:HALLIB/STM32F4xx_HAL_Driver/Src/stm32f4xx_hal_dcmi.c **** 
 835:HALLIB/STM32F4xx_HAL_Driver/Src/stm32f4xx_hal_dcmi.c **** /**
 836:HALLIB/STM32F4xx_HAL_Driver/Src/stm32f4xx_hal_dcmi.c ****   * @brief  Return the DCMI state
 837:HALLIB/STM32F4xx_HAL_Driver/Src/stm32f4xx_hal_dcmi.c ****   * @param  hdcmi pointer to a DCMI_HandleTypeDef structure that contains
 838:HALLIB/STM32F4xx_HAL_Driver/Src/stm32f4xx_hal_dcmi.c ****   *                the configuration information for DCMI.
 839:HALLIB/STM32F4xx_HAL_Driver/Src/stm32f4xx_hal_dcmi.c ****   * @retval HAL state
 840:HALLIB/STM32F4xx_HAL_Driver/Src/stm32f4xx_hal_dcmi.c ****   */
 841:HALLIB/STM32F4xx_HAL_Driver/Src/stm32f4xx_hal_dcmi.c **** HAL_DCMI_StateTypeDef HAL_DCMI_GetState(DCMI_HandleTypeDef *hdcmi)
 842:HALLIB/STM32F4xx_HAL_Driver/Src/stm32f4xx_hal_dcmi.c **** {
 843:HALLIB/STM32F4xx_HAL_Driver/Src/stm32f4xx_hal_dcmi.c ****   return hdcmi->State;
 844:HALLIB/STM32F4xx_HAL_Driver/Src/stm32f4xx_hal_dcmi.c **** }
 845:HALLIB/STM32F4xx_HAL_Driver/Src/stm32f4xx_hal_dcmi.c **** 
 846:HALLIB/STM32F4xx_HAL_Driver/Src/stm32f4xx_hal_dcmi.c **** /**
 847:HALLIB/STM32F4xx_HAL_Driver/Src/stm32f4xx_hal_dcmi.c ****   * @brief  Return the DCMI error code
 848:HALLIB/STM32F4xx_HAL_Driver/Src/stm32f4xx_hal_dcmi.c ****   * @param  hdcmi  pointer to a DCMI_HandleTypeDef structure that contains
 849:HALLIB/STM32F4xx_HAL_Driver/Src/stm32f4xx_hal_dcmi.c ****   *               the configuration information for DCMI.
 850:HALLIB/STM32F4xx_HAL_Driver/Src/stm32f4xx_hal_dcmi.c ****   * @retval DCMI Error Code
 851:HALLIB/STM32F4xx_HAL_Driver/Src/stm32f4xx_hal_dcmi.c ****   */
 852:HALLIB/STM32F4xx_HAL_Driver/Src/stm32f4xx_hal_dcmi.c **** uint32_t HAL_DCMI_GetError(DCMI_HandleTypeDef *hdcmi)
 853:HALLIB/STM32F4xx_HAL_Driver/Src/stm32f4xx_hal_dcmi.c **** {
 854:HALLIB/STM32F4xx_HAL_Driver/Src/stm32f4xx_hal_dcmi.c ****   return hdcmi->ErrorCode;
 855:HALLIB/STM32F4xx_HAL_Driver/Src/stm32f4xx_hal_dcmi.c **** }
 856:HALLIB/STM32F4xx_HAL_Driver/Src/stm32f4xx_hal_dcmi.c **** 
 857:HALLIB/STM32F4xx_HAL_Driver/Src/stm32f4xx_hal_dcmi.c **** #if (USE_HAL_DCMI_REGISTER_CALLBACKS == 1)
 858:HALLIB/STM32F4xx_HAL_Driver/Src/stm32f4xx_hal_dcmi.c **** /**
 859:HALLIB/STM32F4xx_HAL_Driver/Src/stm32f4xx_hal_dcmi.c ****   * @brief DCMI Callback registering
 860:HALLIB/STM32F4xx_HAL_Driver/Src/stm32f4xx_hal_dcmi.c ****   * @param hdcmi        pointer to a DCMI_HandleTypeDef structure that contains
 861:HALLIB/STM32F4xx_HAL_Driver/Src/stm32f4xx_hal_dcmi.c ****   *                     the configuration information for DCMI.
 862:HALLIB/STM32F4xx_HAL_Driver/Src/stm32f4xx_hal_dcmi.c ****   * @param CallbackID   dcmi Callback ID
 863:HALLIB/STM32F4xx_HAL_Driver/Src/stm32f4xx_hal_dcmi.c ****   * @param pCallback    pointer to DCMI_CallbackTypeDef structure
 864:HALLIB/STM32F4xx_HAL_Driver/Src/stm32f4xx_hal_dcmi.c ****   * @retval status
 865:HALLIB/STM32F4xx_HAL_Driver/Src/stm32f4xx_hal_dcmi.c ****   */
 866:HALLIB/STM32F4xx_HAL_Driver/Src/stm32f4xx_hal_dcmi.c **** HAL_StatusTypeDef HAL_DCMI_RegisterCallback(DCMI_HandleTypeDef *hdcmi, HAL_DCMI_CallbackIDTypeDef C
 867:HALLIB/STM32F4xx_HAL_Driver/Src/stm32f4xx_hal_dcmi.c **** {
 868:HALLIB/STM32F4xx_HAL_Driver/Src/stm32f4xx_hal_dcmi.c ****   HAL_StatusTypeDef status = HAL_OK;
 869:HALLIB/STM32F4xx_HAL_Driver/Src/stm32f4xx_hal_dcmi.c ****   
 870:HALLIB/STM32F4xx_HAL_Driver/Src/stm32f4xx_hal_dcmi.c ****   if(pCallback == NULL)
 871:HALLIB/STM32F4xx_HAL_Driver/Src/stm32f4xx_hal_dcmi.c ****   {
 872:HALLIB/STM32F4xx_HAL_Driver/Src/stm32f4xx_hal_dcmi.c ****     /* update the error code */
 873:HALLIB/STM32F4xx_HAL_Driver/Src/stm32f4xx_hal_dcmi.c ****     hdcmi->ErrorCode |= HAL_DCMI_ERROR_INVALID_CALLBACK;  
 874:HALLIB/STM32F4xx_HAL_Driver/Src/stm32f4xx_hal_dcmi.c ****     /* update return status */
 875:HALLIB/STM32F4xx_HAL_Driver/Src/stm32f4xx_hal_dcmi.c ****     status = HAL_ERROR;
 876:HALLIB/STM32F4xx_HAL_Driver/Src/stm32f4xx_hal_dcmi.c ****   }
 877:HALLIB/STM32F4xx_HAL_Driver/Src/stm32f4xx_hal_dcmi.c ****   else
 878:HALLIB/STM32F4xx_HAL_Driver/Src/stm32f4xx_hal_dcmi.c ****   {
 879:HALLIB/STM32F4xx_HAL_Driver/Src/stm32f4xx_hal_dcmi.c ****     if(hdcmi->State == HAL_DCMI_STATE_READY)
 880:HALLIB/STM32F4xx_HAL_Driver/Src/stm32f4xx_hal_dcmi.c ****     {
 881:HALLIB/STM32F4xx_HAL_Driver/Src/stm32f4xx_hal_dcmi.c ****       switch (CallbackID)
 882:HALLIB/STM32F4xx_HAL_Driver/Src/stm32f4xx_hal_dcmi.c ****       {
 883:HALLIB/STM32F4xx_HAL_Driver/Src/stm32f4xx_hal_dcmi.c ****       case HAL_DCMI_FRAME_EVENT_CB_ID :
 884:HALLIB/STM32F4xx_HAL_Driver/Src/stm32f4xx_hal_dcmi.c ****         hdcmi->FrameEventCallback = pCallback;
 885:HALLIB/STM32F4xx_HAL_Driver/Src/stm32f4xx_hal_dcmi.c ****         break;
ARM GAS  /tmp/ccK4D7wz.s 			page 17


 886:HALLIB/STM32F4xx_HAL_Driver/Src/stm32f4xx_hal_dcmi.c ****         
 887:HALLIB/STM32F4xx_HAL_Driver/Src/stm32f4xx_hal_dcmi.c ****       case HAL_DCMI_VSYNC_EVENT_CB_ID :
 888:HALLIB/STM32F4xx_HAL_Driver/Src/stm32f4xx_hal_dcmi.c ****         hdcmi->VsyncEventCallback = pCallback;
 889:HALLIB/STM32F4xx_HAL_Driver/Src/stm32f4xx_hal_dcmi.c ****         break; 
 890:HALLIB/STM32F4xx_HAL_Driver/Src/stm32f4xx_hal_dcmi.c ****         
 891:HALLIB/STM32F4xx_HAL_Driver/Src/stm32f4xx_hal_dcmi.c ****       case HAL_DCMI_LINE_EVENT_CB_ID :
 892:HALLIB/STM32F4xx_HAL_Driver/Src/stm32f4xx_hal_dcmi.c ****         hdcmi->LineEventCallback = pCallback;
 893:HALLIB/STM32F4xx_HAL_Driver/Src/stm32f4xx_hal_dcmi.c ****         break;
 894:HALLIB/STM32F4xx_HAL_Driver/Src/stm32f4xx_hal_dcmi.c ****         
 895:HALLIB/STM32F4xx_HAL_Driver/Src/stm32f4xx_hal_dcmi.c ****       case HAL_DCMI_ERROR_CB_ID :
 896:HALLIB/STM32F4xx_HAL_Driver/Src/stm32f4xx_hal_dcmi.c ****         hdcmi->ErrorCallback = pCallback;
 897:HALLIB/STM32F4xx_HAL_Driver/Src/stm32f4xx_hal_dcmi.c ****         break;
 898:HALLIB/STM32F4xx_HAL_Driver/Src/stm32f4xx_hal_dcmi.c ****         
 899:HALLIB/STM32F4xx_HAL_Driver/Src/stm32f4xx_hal_dcmi.c ****       case HAL_DCMI_MSPINIT_CB_ID :
 900:HALLIB/STM32F4xx_HAL_Driver/Src/stm32f4xx_hal_dcmi.c ****         hdcmi->MspInitCallback = pCallback;
 901:HALLIB/STM32F4xx_HAL_Driver/Src/stm32f4xx_hal_dcmi.c ****         break;
 902:HALLIB/STM32F4xx_HAL_Driver/Src/stm32f4xx_hal_dcmi.c ****         
 903:HALLIB/STM32F4xx_HAL_Driver/Src/stm32f4xx_hal_dcmi.c ****       case HAL_DCMI_MSPDEINIT_CB_ID :
 904:HALLIB/STM32F4xx_HAL_Driver/Src/stm32f4xx_hal_dcmi.c ****         hdcmi->MspDeInitCallback = pCallback;
 905:HALLIB/STM32F4xx_HAL_Driver/Src/stm32f4xx_hal_dcmi.c ****         break;	  
 906:HALLIB/STM32F4xx_HAL_Driver/Src/stm32f4xx_hal_dcmi.c ****         
 907:HALLIB/STM32F4xx_HAL_Driver/Src/stm32f4xx_hal_dcmi.c ****       default : 
 908:HALLIB/STM32F4xx_HAL_Driver/Src/stm32f4xx_hal_dcmi.c ****         /* Return error status */
 909:HALLIB/STM32F4xx_HAL_Driver/Src/stm32f4xx_hal_dcmi.c ****         status =  HAL_ERROR;
 910:HALLIB/STM32F4xx_HAL_Driver/Src/stm32f4xx_hal_dcmi.c ****         break;
 911:HALLIB/STM32F4xx_HAL_Driver/Src/stm32f4xx_hal_dcmi.c ****       }
 912:HALLIB/STM32F4xx_HAL_Driver/Src/stm32f4xx_hal_dcmi.c ****     }
 913:HALLIB/STM32F4xx_HAL_Driver/Src/stm32f4xx_hal_dcmi.c ****     else if(hdcmi->State == HAL_DCMI_STATE_RESET)
 914:HALLIB/STM32F4xx_HAL_Driver/Src/stm32f4xx_hal_dcmi.c ****     {
 915:HALLIB/STM32F4xx_HAL_Driver/Src/stm32f4xx_hal_dcmi.c ****       switch (CallbackID)
 916:HALLIB/STM32F4xx_HAL_Driver/Src/stm32f4xx_hal_dcmi.c ****       {
 917:HALLIB/STM32F4xx_HAL_Driver/Src/stm32f4xx_hal_dcmi.c ****       case HAL_DCMI_MSPINIT_CB_ID :
 918:HALLIB/STM32F4xx_HAL_Driver/Src/stm32f4xx_hal_dcmi.c ****         hdcmi->MspInitCallback = pCallback;
 919:HALLIB/STM32F4xx_HAL_Driver/Src/stm32f4xx_hal_dcmi.c ****         break;
 920:HALLIB/STM32F4xx_HAL_Driver/Src/stm32f4xx_hal_dcmi.c **** 
 921:HALLIB/STM32F4xx_HAL_Driver/Src/stm32f4xx_hal_dcmi.c ****       case HAL_DCMI_MSPDEINIT_CB_ID :
 922:HALLIB/STM32F4xx_HAL_Driver/Src/stm32f4xx_hal_dcmi.c ****         hdcmi->MspDeInitCallback = pCallback;
 923:HALLIB/STM32F4xx_HAL_Driver/Src/stm32f4xx_hal_dcmi.c ****         break;	  
 924:HALLIB/STM32F4xx_HAL_Driver/Src/stm32f4xx_hal_dcmi.c ****         
 925:HALLIB/STM32F4xx_HAL_Driver/Src/stm32f4xx_hal_dcmi.c ****       default : 
 926:HALLIB/STM32F4xx_HAL_Driver/Src/stm32f4xx_hal_dcmi.c ****         /* update the error code */
 927:HALLIB/STM32F4xx_HAL_Driver/Src/stm32f4xx_hal_dcmi.c ****         hdcmi->ErrorCode |= HAL_DCMI_ERROR_INVALID_CALLBACK;
 928:HALLIB/STM32F4xx_HAL_Driver/Src/stm32f4xx_hal_dcmi.c ****         /* update return status */
 929:HALLIB/STM32F4xx_HAL_Driver/Src/stm32f4xx_hal_dcmi.c ****         status = HAL_ERROR;
 930:HALLIB/STM32F4xx_HAL_Driver/Src/stm32f4xx_hal_dcmi.c ****         break;
 931:HALLIB/STM32F4xx_HAL_Driver/Src/stm32f4xx_hal_dcmi.c ****       }		
 932:HALLIB/STM32F4xx_HAL_Driver/Src/stm32f4xx_hal_dcmi.c ****     }  
 933:HALLIB/STM32F4xx_HAL_Driver/Src/stm32f4xx_hal_dcmi.c ****     else
 934:HALLIB/STM32F4xx_HAL_Driver/Src/stm32f4xx_hal_dcmi.c ****     {
 935:HALLIB/STM32F4xx_HAL_Driver/Src/stm32f4xx_hal_dcmi.c ****       /* update the error code */
 936:HALLIB/STM32F4xx_HAL_Driver/Src/stm32f4xx_hal_dcmi.c ****       hdcmi->ErrorCode |= HAL_DCMI_ERROR_INVALID_CALLBACK;
 937:HALLIB/STM32F4xx_HAL_Driver/Src/stm32f4xx_hal_dcmi.c ****       /* update return status */
 938:HALLIB/STM32F4xx_HAL_Driver/Src/stm32f4xx_hal_dcmi.c ****       status = HAL_ERROR;
 939:HALLIB/STM32F4xx_HAL_Driver/Src/stm32f4xx_hal_dcmi.c ****     }
 940:HALLIB/STM32F4xx_HAL_Driver/Src/stm32f4xx_hal_dcmi.c ****   }
 941:HALLIB/STM32F4xx_HAL_Driver/Src/stm32f4xx_hal_dcmi.c ****   
 942:HALLIB/STM32F4xx_HAL_Driver/Src/stm32f4xx_hal_dcmi.c ****   return status;
ARM GAS  /tmp/ccK4D7wz.s 			page 18


 943:HALLIB/STM32F4xx_HAL_Driver/Src/stm32f4xx_hal_dcmi.c **** }
 944:HALLIB/STM32F4xx_HAL_Driver/Src/stm32f4xx_hal_dcmi.c **** 
 945:HALLIB/STM32F4xx_HAL_Driver/Src/stm32f4xx_hal_dcmi.c **** /**
 946:HALLIB/STM32F4xx_HAL_Driver/Src/stm32f4xx_hal_dcmi.c ****   * @brief DCMI Callback Unregistering
 947:HALLIB/STM32F4xx_HAL_Driver/Src/stm32f4xx_hal_dcmi.c ****   * @param hdcmi       dcmi handle
 948:HALLIB/STM32F4xx_HAL_Driver/Src/stm32f4xx_hal_dcmi.c ****   * @param CallbackID  dcmi Callback ID
 949:HALLIB/STM32F4xx_HAL_Driver/Src/stm32f4xx_hal_dcmi.c ****   * @retval status
 950:HALLIB/STM32F4xx_HAL_Driver/Src/stm32f4xx_hal_dcmi.c ****   */
 951:HALLIB/STM32F4xx_HAL_Driver/Src/stm32f4xx_hal_dcmi.c **** HAL_StatusTypeDef HAL_DCMI_UnRegisterCallback(DCMI_HandleTypeDef *hdcmi, HAL_DCMI_CallbackIDTypeDef
 952:HALLIB/STM32F4xx_HAL_Driver/Src/stm32f4xx_hal_dcmi.c **** {
 953:HALLIB/STM32F4xx_HAL_Driver/Src/stm32f4xx_hal_dcmi.c ****   HAL_StatusTypeDef status = HAL_OK;
 954:HALLIB/STM32F4xx_HAL_Driver/Src/stm32f4xx_hal_dcmi.c ****   
 955:HALLIB/STM32F4xx_HAL_Driver/Src/stm32f4xx_hal_dcmi.c ****   if(hdcmi->State == HAL_DCMI_STATE_READY)
 956:HALLIB/STM32F4xx_HAL_Driver/Src/stm32f4xx_hal_dcmi.c ****   {
 957:HALLIB/STM32F4xx_HAL_Driver/Src/stm32f4xx_hal_dcmi.c ****     switch (CallbackID)
 958:HALLIB/STM32F4xx_HAL_Driver/Src/stm32f4xx_hal_dcmi.c ****     {
 959:HALLIB/STM32F4xx_HAL_Driver/Src/stm32f4xx_hal_dcmi.c ****     case HAL_DCMI_FRAME_EVENT_CB_ID :
 960:HALLIB/STM32F4xx_HAL_Driver/Src/stm32f4xx_hal_dcmi.c ****       hdcmi->FrameEventCallback = HAL_DCMI_FrameEventCallback;  /* Legacy weak  FrameEventCallback 
 961:HALLIB/STM32F4xx_HAL_Driver/Src/stm32f4xx_hal_dcmi.c ****       break;
 962:HALLIB/STM32F4xx_HAL_Driver/Src/stm32f4xx_hal_dcmi.c ****       
 963:HALLIB/STM32F4xx_HAL_Driver/Src/stm32f4xx_hal_dcmi.c ****     case HAL_DCMI_VSYNC_EVENT_CB_ID :
 964:HALLIB/STM32F4xx_HAL_Driver/Src/stm32f4xx_hal_dcmi.c ****       hdcmi->VsyncEventCallback = HAL_DCMI_VsyncEventCallback;  /* Legacy weak VsyncEventCallback  
 965:HALLIB/STM32F4xx_HAL_Driver/Src/stm32f4xx_hal_dcmi.c ****       break;
 966:HALLIB/STM32F4xx_HAL_Driver/Src/stm32f4xx_hal_dcmi.c ****       
 967:HALLIB/STM32F4xx_HAL_Driver/Src/stm32f4xx_hal_dcmi.c ****     case HAL_DCMI_LINE_EVENT_CB_ID :
 968:HALLIB/STM32F4xx_HAL_Driver/Src/stm32f4xx_hal_dcmi.c ****       hdcmi->LineEventCallback = HAL_DCMI_LineEventCallback;    /* Legacy weak LineEventCallback   
 969:HALLIB/STM32F4xx_HAL_Driver/Src/stm32f4xx_hal_dcmi.c ****       break;
 970:HALLIB/STM32F4xx_HAL_Driver/Src/stm32f4xx_hal_dcmi.c ****       
 971:HALLIB/STM32F4xx_HAL_Driver/Src/stm32f4xx_hal_dcmi.c ****     case HAL_DCMI_ERROR_CB_ID :
 972:HALLIB/STM32F4xx_HAL_Driver/Src/stm32f4xx_hal_dcmi.c ****       hdcmi->ErrorCallback = HAL_DCMI_ErrorCallback;           /* Legacy weak ErrorCallback        
 973:HALLIB/STM32F4xx_HAL_Driver/Src/stm32f4xx_hal_dcmi.c ****       break;  
 974:HALLIB/STM32F4xx_HAL_Driver/Src/stm32f4xx_hal_dcmi.c ****       
 975:HALLIB/STM32F4xx_HAL_Driver/Src/stm32f4xx_hal_dcmi.c ****     case HAL_DCMI_MSPINIT_CB_ID :
 976:HALLIB/STM32F4xx_HAL_Driver/Src/stm32f4xx_hal_dcmi.c ****       hdcmi->MspInitCallback = HAL_DCMI_MspInit;
 977:HALLIB/STM32F4xx_HAL_Driver/Src/stm32f4xx_hal_dcmi.c ****       break;
 978:HALLIB/STM32F4xx_HAL_Driver/Src/stm32f4xx_hal_dcmi.c ****       
 979:HALLIB/STM32F4xx_HAL_Driver/Src/stm32f4xx_hal_dcmi.c ****     case HAL_DCMI_MSPDEINIT_CB_ID :
 980:HALLIB/STM32F4xx_HAL_Driver/Src/stm32f4xx_hal_dcmi.c ****       hdcmi->MspDeInitCallback = HAL_DCMI_MspDeInit;
 981:HALLIB/STM32F4xx_HAL_Driver/Src/stm32f4xx_hal_dcmi.c ****       break;	  
 982:HALLIB/STM32F4xx_HAL_Driver/Src/stm32f4xx_hal_dcmi.c ****       
 983:HALLIB/STM32F4xx_HAL_Driver/Src/stm32f4xx_hal_dcmi.c ****     default : 
 984:HALLIB/STM32F4xx_HAL_Driver/Src/stm32f4xx_hal_dcmi.c ****       /* update the error code */
 985:HALLIB/STM32F4xx_HAL_Driver/Src/stm32f4xx_hal_dcmi.c ****       hdcmi->ErrorCode |= HAL_DCMI_ERROR_INVALID_CALLBACK;
 986:HALLIB/STM32F4xx_HAL_Driver/Src/stm32f4xx_hal_dcmi.c ****       /* update return status */
 987:HALLIB/STM32F4xx_HAL_Driver/Src/stm32f4xx_hal_dcmi.c ****       status = HAL_ERROR;
 988:HALLIB/STM32F4xx_HAL_Driver/Src/stm32f4xx_hal_dcmi.c ****       break;
 989:HALLIB/STM32F4xx_HAL_Driver/Src/stm32f4xx_hal_dcmi.c ****     }
 990:HALLIB/STM32F4xx_HAL_Driver/Src/stm32f4xx_hal_dcmi.c ****   }
 991:HALLIB/STM32F4xx_HAL_Driver/Src/stm32f4xx_hal_dcmi.c ****   else if(hdcmi->State == HAL_DCMI_STATE_RESET)
 992:HALLIB/STM32F4xx_HAL_Driver/Src/stm32f4xx_hal_dcmi.c ****   {
 993:HALLIB/STM32F4xx_HAL_Driver/Src/stm32f4xx_hal_dcmi.c ****     switch (CallbackID)
 994:HALLIB/STM32F4xx_HAL_Driver/Src/stm32f4xx_hal_dcmi.c ****     {
 995:HALLIB/STM32F4xx_HAL_Driver/Src/stm32f4xx_hal_dcmi.c ****     case HAL_DCMI_MSPINIT_CB_ID :
 996:HALLIB/STM32F4xx_HAL_Driver/Src/stm32f4xx_hal_dcmi.c ****       hdcmi->MspInitCallback = HAL_DCMI_MspInit;
 997:HALLIB/STM32F4xx_HAL_Driver/Src/stm32f4xx_hal_dcmi.c ****       break;
 998:HALLIB/STM32F4xx_HAL_Driver/Src/stm32f4xx_hal_dcmi.c ****       
 999:HALLIB/STM32F4xx_HAL_Driver/Src/stm32f4xx_hal_dcmi.c ****     case HAL_DCMI_MSPDEINIT_CB_ID :
ARM GAS  /tmp/ccK4D7wz.s 			page 19


1000:HALLIB/STM32F4xx_HAL_Driver/Src/stm32f4xx_hal_dcmi.c ****       hdcmi->MspDeInitCallback = HAL_DCMI_MspDeInit;
1001:HALLIB/STM32F4xx_HAL_Driver/Src/stm32f4xx_hal_dcmi.c ****       break;	  
1002:HALLIB/STM32F4xx_HAL_Driver/Src/stm32f4xx_hal_dcmi.c ****       
1003:HALLIB/STM32F4xx_HAL_Driver/Src/stm32f4xx_hal_dcmi.c ****     default : 
1004:HALLIB/STM32F4xx_HAL_Driver/Src/stm32f4xx_hal_dcmi.c ****       /* update the error code */
1005:HALLIB/STM32F4xx_HAL_Driver/Src/stm32f4xx_hal_dcmi.c ****       hdcmi->ErrorCode |= HAL_DCMI_ERROR_INVALID_CALLBACK;
1006:HALLIB/STM32F4xx_HAL_Driver/Src/stm32f4xx_hal_dcmi.c ****       /* update return status */
1007:HALLIB/STM32F4xx_HAL_Driver/Src/stm32f4xx_hal_dcmi.c ****       status = HAL_ERROR;
1008:HALLIB/STM32F4xx_HAL_Driver/Src/stm32f4xx_hal_dcmi.c ****       break;
1009:HALLIB/STM32F4xx_HAL_Driver/Src/stm32f4xx_hal_dcmi.c ****     }		
1010:HALLIB/STM32F4xx_HAL_Driver/Src/stm32f4xx_hal_dcmi.c ****   }   
1011:HALLIB/STM32F4xx_HAL_Driver/Src/stm32f4xx_hal_dcmi.c ****   else
1012:HALLIB/STM32F4xx_HAL_Driver/Src/stm32f4xx_hal_dcmi.c ****   {
1013:HALLIB/STM32F4xx_HAL_Driver/Src/stm32f4xx_hal_dcmi.c ****     /* update the error code */
1014:HALLIB/STM32F4xx_HAL_Driver/Src/stm32f4xx_hal_dcmi.c ****     hdcmi->ErrorCode |= HAL_DCMI_ERROR_INVALID_CALLBACK;
1015:HALLIB/STM32F4xx_HAL_Driver/Src/stm32f4xx_hal_dcmi.c ****     /* update return status */
1016:HALLIB/STM32F4xx_HAL_Driver/Src/stm32f4xx_hal_dcmi.c ****     status = HAL_ERROR;
1017:HALLIB/STM32F4xx_HAL_Driver/Src/stm32f4xx_hal_dcmi.c ****   }
1018:HALLIB/STM32F4xx_HAL_Driver/Src/stm32f4xx_hal_dcmi.c ****   
1019:HALLIB/STM32F4xx_HAL_Driver/Src/stm32f4xx_hal_dcmi.c ****   return status;
1020:HALLIB/STM32F4xx_HAL_Driver/Src/stm32f4xx_hal_dcmi.c **** }
1021:HALLIB/STM32F4xx_HAL_Driver/Src/stm32f4xx_hal_dcmi.c **** #endif /* USE_HAL_DCMI_REGISTER_CALLBACKS */
1022:HALLIB/STM32F4xx_HAL_Driver/Src/stm32f4xx_hal_dcmi.c **** 
1023:HALLIB/STM32F4xx_HAL_Driver/Src/stm32f4xx_hal_dcmi.c **** /**
1024:HALLIB/STM32F4xx_HAL_Driver/Src/stm32f4xx_hal_dcmi.c ****   * @}
1025:HALLIB/STM32F4xx_HAL_Driver/Src/stm32f4xx_hal_dcmi.c ****   */
1026:HALLIB/STM32F4xx_HAL_Driver/Src/stm32f4xx_hal_dcmi.c **** /* Private functions ---------------------------------------------------------*/
1027:HALLIB/STM32F4xx_HAL_Driver/Src/stm32f4xx_hal_dcmi.c **** /** @defgroup DCMI_Private_Functions DCMI Private Functions
1028:HALLIB/STM32F4xx_HAL_Driver/Src/stm32f4xx_hal_dcmi.c ****   * @{
1029:HALLIB/STM32F4xx_HAL_Driver/Src/stm32f4xx_hal_dcmi.c ****   */
1030:HALLIB/STM32F4xx_HAL_Driver/Src/stm32f4xx_hal_dcmi.c **** 
1031:HALLIB/STM32F4xx_HAL_Driver/Src/stm32f4xx_hal_dcmi.c **** /**
1032:HALLIB/STM32F4xx_HAL_Driver/Src/stm32f4xx_hal_dcmi.c ****   * @brief  DMA conversion complete callback.
1033:HALLIB/STM32F4xx_HAL_Driver/Src/stm32f4xx_hal_dcmi.c ****   * @param  hdma pointer to a DMA_HandleTypeDef structure that contains
1034:HALLIB/STM32F4xx_HAL_Driver/Src/stm32f4xx_hal_dcmi.c ****   *               the configuration information for the specified DMA module.
1035:HALLIB/STM32F4xx_HAL_Driver/Src/stm32f4xx_hal_dcmi.c ****   * @retval None
1036:HALLIB/STM32F4xx_HAL_Driver/Src/stm32f4xx_hal_dcmi.c ****   */
1037:HALLIB/STM32F4xx_HAL_Driver/Src/stm32f4xx_hal_dcmi.c **** static void DCMI_DMAXferCplt(DMA_HandleTypeDef *hdma)
1038:HALLIB/STM32F4xx_HAL_Driver/Src/stm32f4xx_hal_dcmi.c **** {
  29              		.loc 1 1038 1 view -0
  30              		.cfi_startproc
  31              		@ args = 0, pretend = 0, frame = 0
  32              		@ frame_needed = 0, uses_anonymous_args = 0
  33              		.loc 1 1038 1 is_stmt 0 view .LVU1
  34 0000 10B5     		push	{r4, lr}
  35              	.LCFI0:
  36              		.cfi_def_cfa_offset 8
  37              		.cfi_offset 4, -8
  38              		.cfi_offset 14, -4
1039:HALLIB/STM32F4xx_HAL_Driver/Src/stm32f4xx_hal_dcmi.c ****   uint32_t tmp = 0U;
  39              		.loc 1 1039 3 is_stmt 1 view .LVU2
  40              	.LVL1:
1040:HALLIB/STM32F4xx_HAL_Driver/Src/stm32f4xx_hal_dcmi.c ****  
1041:HALLIB/STM32F4xx_HAL_Driver/Src/stm32f4xx_hal_dcmi.c ****   DCMI_HandleTypeDef* hdcmi = ( DCMI_HandleTypeDef* )((DMA_HandleTypeDef* )hdma)->Parent;
  41              		.loc 1 1041 3 view .LVU3
  42              		.loc 1 1041 23 is_stmt 0 view .LVU4
  43 0002 846B     		ldr	r4, [r0, #56]
ARM GAS  /tmp/ccK4D7wz.s 			page 20


  44              	.LVL2:
1042:HALLIB/STM32F4xx_HAL_Driver/Src/stm32f4xx_hal_dcmi.c ****   
1043:HALLIB/STM32F4xx_HAL_Driver/Src/stm32f4xx_hal_dcmi.c ****   if(hdcmi->XferCount != 0U)
  45              		.loc 1 1043 3 is_stmt 1 view .LVU5
  46              		.loc 1 1043 11 is_stmt 0 view .LVU6
  47 0004 A36A     		ldr	r3, [r4, #40]
  48              		.loc 1 1043 5 view .LVU7
  49 0006 43B3     		cbz	r3, .L2
1044:HALLIB/STM32F4xx_HAL_Driver/Src/stm32f4xx_hal_dcmi.c ****   {
1045:HALLIB/STM32F4xx_HAL_Driver/Src/stm32f4xx_hal_dcmi.c ****     /* Update memory 0 address location */
1046:HALLIB/STM32F4xx_HAL_Driver/Src/stm32f4xx_hal_dcmi.c ****     tmp = ((hdcmi->DMA_Handle->Instance->CR) & DMA_SxCR_CT);
  50              		.loc 1 1046 5 is_stmt 1 view .LVU8
  51              		.loc 1 1046 18 is_stmt 0 view .LVU9
  52 0008 A06B     		ldr	r0, [r4, #56]
  53              	.LVL3:
  54              		.loc 1 1046 30 view .LVU10
  55 000a 0268     		ldr	r2, [r0]
  56              		.loc 1 1046 40 view .LVU11
  57 000c 1368     		ldr	r3, [r2]
  58              		.loc 1 1046 9 view .LVU12
  59 000e 03F40023 		and	r3, r3, #524288
  60              	.LVL4:
1047:HALLIB/STM32F4xx_HAL_Driver/Src/stm32f4xx_hal_dcmi.c ****     if(((hdcmi->XferCount % 2U) == 0U) && (tmp != 0U))
  61              		.loc 1 1047 5 is_stmt 1 view .LVU13
  62              		.loc 1 1047 15 is_stmt 0 view .LVU14
  63 0012 A16A     		ldr	r1, [r4, #40]
  64              		.loc 1 1047 7 view .LVU15
  65 0014 11F0010F 		tst	r1, #1
  66 0018 00D1     		bne	.L3
  67              		.loc 1 1047 40 discriminator 1 view .LVU16
  68 001a 43B9     		cbnz	r3, .L8
  69              	.L3:
1048:HALLIB/STM32F4xx_HAL_Driver/Src/stm32f4xx_hal_dcmi.c ****     {
1049:HALLIB/STM32F4xx_HAL_Driver/Src/stm32f4xx_hal_dcmi.c ****       tmp = hdcmi->DMA_Handle->Instance->M0AR;
1050:HALLIB/STM32F4xx_HAL_Driver/Src/stm32f4xx_hal_dcmi.c ****       HAL_DMAEx_ChangeMemory(hdcmi->DMA_Handle, (tmp + (8U*hdcmi->XferSize)), MEMORY0);
1051:HALLIB/STM32F4xx_HAL_Driver/Src/stm32f4xx_hal_dcmi.c ****       hdcmi->XferCount--;
1052:HALLIB/STM32F4xx_HAL_Driver/Src/stm32f4xx_hal_dcmi.c ****     }
1053:HALLIB/STM32F4xx_HAL_Driver/Src/stm32f4xx_hal_dcmi.c ****     /* Update memory 1 address location */
1054:HALLIB/STM32F4xx_HAL_Driver/Src/stm32f4xx_hal_dcmi.c ****     else if((hdcmi->DMA_Handle->Instance->CR & DMA_SxCR_CT) == 0U)
  70              		.loc 1 1054 10 is_stmt 1 view .LVU17
  71              		.loc 1 1054 41 is_stmt 0 view .LVU18
  72 001c 1368     		ldr	r3, [r2]
  73              	.LVL5:
  74              		.loc 1 1054 12 view .LVU19
  75 001e 13F4002F 		tst	r3, #524288
  76 0022 0FD0     		beq	.L9
  77              	.L4:
1055:HALLIB/STM32F4xx_HAL_Driver/Src/stm32f4xx_hal_dcmi.c ****     {
1056:HALLIB/STM32F4xx_HAL_Driver/Src/stm32f4xx_hal_dcmi.c ****       tmp = hdcmi->DMA_Handle->Instance->M1AR;
1057:HALLIB/STM32F4xx_HAL_Driver/Src/stm32f4xx_hal_dcmi.c ****       HAL_DMAEx_ChangeMemory(hdcmi->DMA_Handle, (tmp + (8U*hdcmi->XferSize)), MEMORY1);
1058:HALLIB/STM32F4xx_HAL_Driver/Src/stm32f4xx_hal_dcmi.c ****       hdcmi->XferCount--;
1059:HALLIB/STM32F4xx_HAL_Driver/Src/stm32f4xx_hal_dcmi.c ****     }
1060:HALLIB/STM32F4xx_HAL_Driver/Src/stm32f4xx_hal_dcmi.c ****   }
1061:HALLIB/STM32F4xx_HAL_Driver/Src/stm32f4xx_hal_dcmi.c ****   /* Update memory 0 address location */
1062:HALLIB/STM32F4xx_HAL_Driver/Src/stm32f4xx_hal_dcmi.c ****   else if((hdcmi->DMA_Handle->Instance->CR & DMA_SxCR_CT) != 0U)
1063:HALLIB/STM32F4xx_HAL_Driver/Src/stm32f4xx_hal_dcmi.c ****   {
1064:HALLIB/STM32F4xx_HAL_Driver/Src/stm32f4xx_hal_dcmi.c ****     hdcmi->DMA_Handle->Instance->M0AR = hdcmi->pBuffPtr;
ARM GAS  /tmp/ccK4D7wz.s 			page 21


1065:HALLIB/STM32F4xx_HAL_Driver/Src/stm32f4xx_hal_dcmi.c ****   }
1066:HALLIB/STM32F4xx_HAL_Driver/Src/stm32f4xx_hal_dcmi.c ****   /* Update memory 1 address location */
1067:HALLIB/STM32F4xx_HAL_Driver/Src/stm32f4xx_hal_dcmi.c ****   else if((hdcmi->DMA_Handle->Instance->CR & DMA_SxCR_CT) == 0U)
1068:HALLIB/STM32F4xx_HAL_Driver/Src/stm32f4xx_hal_dcmi.c ****   {
1069:HALLIB/STM32F4xx_HAL_Driver/Src/stm32f4xx_hal_dcmi.c ****     tmp = hdcmi->pBuffPtr;
1070:HALLIB/STM32F4xx_HAL_Driver/Src/stm32f4xx_hal_dcmi.c ****     hdcmi->DMA_Handle->Instance->M1AR = (tmp + (4U*hdcmi->XferSize));
1071:HALLIB/STM32F4xx_HAL_Driver/Src/stm32f4xx_hal_dcmi.c ****     hdcmi->XferCount = hdcmi->XferTransferNumber;
1072:HALLIB/STM32F4xx_HAL_Driver/Src/stm32f4xx_hal_dcmi.c ****   }
1073:HALLIB/STM32F4xx_HAL_Driver/Src/stm32f4xx_hal_dcmi.c ****   
1074:HALLIB/STM32F4xx_HAL_Driver/Src/stm32f4xx_hal_dcmi.c ****   /* Check if the frame is transferred */
1075:HALLIB/STM32F4xx_HAL_Driver/Src/stm32f4xx_hal_dcmi.c ****   if(hdcmi->XferCount == hdcmi->XferTransferNumber)
  78              		.loc 1 1075 3 is_stmt 1 view .LVU20
  79              		.loc 1 1075 11 is_stmt 0 view .LVU21
  80 0024 A26A     		ldr	r2, [r4, #40]
  81              		.loc 1 1075 31 view .LVU22
  82 0026 236B     		ldr	r3, [r4, #48]
  83              		.loc 1 1075 5 view .LVU23
  84 0028 9A42     		cmp	r2, r3
  85 002a 2BD0     		beq	.L10
  86              	.L1:
1076:HALLIB/STM32F4xx_HAL_Driver/Src/stm32f4xx_hal_dcmi.c ****   {
1077:HALLIB/STM32F4xx_HAL_Driver/Src/stm32f4xx_hal_dcmi.c ****     /* Enable the Frame interrupt */
1078:HALLIB/STM32F4xx_HAL_Driver/Src/stm32f4xx_hal_dcmi.c ****     __HAL_DCMI_ENABLE_IT(hdcmi, DCMI_IT_FRAME);
1079:HALLIB/STM32F4xx_HAL_Driver/Src/stm32f4xx_hal_dcmi.c ****     
1080:HALLIB/STM32F4xx_HAL_Driver/Src/stm32f4xx_hal_dcmi.c ****     /* When snapshot mode, set dcmi state to ready */
1081:HALLIB/STM32F4xx_HAL_Driver/Src/stm32f4xx_hal_dcmi.c ****     if((hdcmi->Instance->CR & DCMI_CR_CM) == DCMI_MODE_SNAPSHOT)
1082:HALLIB/STM32F4xx_HAL_Driver/Src/stm32f4xx_hal_dcmi.c ****     {  
1083:HALLIB/STM32F4xx_HAL_Driver/Src/stm32f4xx_hal_dcmi.c ****       hdcmi->State= HAL_DCMI_STATE_READY;
1084:HALLIB/STM32F4xx_HAL_Driver/Src/stm32f4xx_hal_dcmi.c ****     }
1085:HALLIB/STM32F4xx_HAL_Driver/Src/stm32f4xx_hal_dcmi.c ****   }
1086:HALLIB/STM32F4xx_HAL_Driver/Src/stm32f4xx_hal_dcmi.c **** }
  87              		.loc 1 1086 1 view .LVU24
  88 002c 10BD     		pop	{r4, pc}
  89              	.LVL6:
  90              	.L8:
1049:HALLIB/STM32F4xx_HAL_Driver/Src/stm32f4xx_hal_dcmi.c ****       HAL_DMAEx_ChangeMemory(hdcmi->DMA_Handle, (tmp + (8U*hdcmi->XferSize)), MEMORY0);
  91              		.loc 1 1049 7 is_stmt 1 view .LVU25
1049:HALLIB/STM32F4xx_HAL_Driver/Src/stm32f4xx_hal_dcmi.c ****       HAL_DMAEx_ChangeMemory(hdcmi->DMA_Handle, (tmp + (8U*hdcmi->XferSize)), MEMORY0);
  92              		.loc 1 1049 11 is_stmt 0 view .LVU26
  93 002e D368     		ldr	r3, [r2, #12]
  94              	.LVL7:
1050:HALLIB/STM32F4xx_HAL_Driver/Src/stm32f4xx_hal_dcmi.c ****       hdcmi->XferCount--;
  95              		.loc 1 1050 7 is_stmt 1 view .LVU27
1050:HALLIB/STM32F4xx_HAL_Driver/Src/stm32f4xx_hal_dcmi.c ****       hdcmi->XferCount--;
  96              		.loc 1 1050 65 is_stmt 0 view .LVU28
  97 0030 E16A     		ldr	r1, [r4, #44]
1050:HALLIB/STM32F4xx_HAL_Driver/Src/stm32f4xx_hal_dcmi.c ****       hdcmi->XferCount--;
  98              		.loc 1 1050 7 view .LVU29
  99 0032 0022     		movs	r2, #0
 100 0034 03EBC101 		add	r1, r3, r1, lsl #3
 101 0038 FFF7FEFF 		bl	HAL_DMAEx_ChangeMemory
 102              	.LVL8:
1051:HALLIB/STM32F4xx_HAL_Driver/Src/stm32f4xx_hal_dcmi.c ****     }
 103              		.loc 1 1051 7 is_stmt 1 view .LVU30
1051:HALLIB/STM32F4xx_HAL_Driver/Src/stm32f4xx_hal_dcmi.c ****     }
 104              		.loc 1 1051 12 is_stmt 0 view .LVU31
 105 003c A36A     		ldr	r3, [r4, #40]
ARM GAS  /tmp/ccK4D7wz.s 			page 22


1051:HALLIB/STM32F4xx_HAL_Driver/Src/stm32f4xx_hal_dcmi.c ****     }
 106              		.loc 1 1051 23 view .LVU32
 107 003e 013B     		subs	r3, r3, #1
 108 0040 A362     		str	r3, [r4, #40]
 109 0042 EFE7     		b	.L4
 110              	.L9:
1056:HALLIB/STM32F4xx_HAL_Driver/Src/stm32f4xx_hal_dcmi.c ****       HAL_DMAEx_ChangeMemory(hdcmi->DMA_Handle, (tmp + (8U*hdcmi->XferSize)), MEMORY1);
 111              		.loc 1 1056 7 is_stmt 1 view .LVU33
1056:HALLIB/STM32F4xx_HAL_Driver/Src/stm32f4xx_hal_dcmi.c ****       HAL_DMAEx_ChangeMemory(hdcmi->DMA_Handle, (tmp + (8U*hdcmi->XferSize)), MEMORY1);
 112              		.loc 1 1056 11 is_stmt 0 view .LVU34
 113 0044 1369     		ldr	r3, [r2, #16]
 114              	.LVL9:
1057:HALLIB/STM32F4xx_HAL_Driver/Src/stm32f4xx_hal_dcmi.c ****       hdcmi->XferCount--;
 115              		.loc 1 1057 7 is_stmt 1 view .LVU35
1057:HALLIB/STM32F4xx_HAL_Driver/Src/stm32f4xx_hal_dcmi.c ****       hdcmi->XferCount--;
 116              		.loc 1 1057 65 is_stmt 0 view .LVU36
 117 0046 E16A     		ldr	r1, [r4, #44]
1057:HALLIB/STM32F4xx_HAL_Driver/Src/stm32f4xx_hal_dcmi.c ****       hdcmi->XferCount--;
 118              		.loc 1 1057 7 view .LVU37
 119 0048 0122     		movs	r2, #1
 120 004a 03EBC101 		add	r1, r3, r1, lsl #3
 121 004e FFF7FEFF 		bl	HAL_DMAEx_ChangeMemory
 122              	.LVL10:
1058:HALLIB/STM32F4xx_HAL_Driver/Src/stm32f4xx_hal_dcmi.c ****     }
 123              		.loc 1 1058 7 is_stmt 1 view .LVU38
1058:HALLIB/STM32F4xx_HAL_Driver/Src/stm32f4xx_hal_dcmi.c ****     }
 124              		.loc 1 1058 12 is_stmt 0 view .LVU39
 125 0052 A36A     		ldr	r3, [r4, #40]
1058:HALLIB/STM32F4xx_HAL_Driver/Src/stm32f4xx_hal_dcmi.c ****     }
 126              		.loc 1 1058 23 view .LVU40
 127 0054 013B     		subs	r3, r3, #1
 128 0056 A362     		str	r3, [r4, #40]
 129 0058 E4E7     		b	.L4
 130              	.LVL11:
 131              	.L2:
1062:HALLIB/STM32F4xx_HAL_Driver/Src/stm32f4xx_hal_dcmi.c ****   {
 132              		.loc 1 1062 8 is_stmt 1 view .LVU41
1062:HALLIB/STM32F4xx_HAL_Driver/Src/stm32f4xx_hal_dcmi.c ****   {
 133              		.loc 1 1062 17 is_stmt 0 view .LVU42
 134 005a A36B     		ldr	r3, [r4, #56]
1062:HALLIB/STM32F4xx_HAL_Driver/Src/stm32f4xx_hal_dcmi.c ****   {
 135              		.loc 1 1062 29 view .LVU43
 136 005c 1B68     		ldr	r3, [r3]
1062:HALLIB/STM32F4xx_HAL_Driver/Src/stm32f4xx_hal_dcmi.c ****   {
 137              		.loc 1 1062 39 view .LVU44
 138 005e 1A68     		ldr	r2, [r3]
1062:HALLIB/STM32F4xx_HAL_Driver/Src/stm32f4xx_hal_dcmi.c ****   {
 139              		.loc 1 1062 10 view .LVU45
 140 0060 12F4002F 		tst	r2, #524288
 141 0064 02D0     		beq	.L5
1064:HALLIB/STM32F4xx_HAL_Driver/Src/stm32f4xx_hal_dcmi.c ****   }
 142              		.loc 1 1064 5 is_stmt 1 view .LVU46
1064:HALLIB/STM32F4xx_HAL_Driver/Src/stm32f4xx_hal_dcmi.c ****   }
 143              		.loc 1 1064 46 is_stmt 0 view .LVU47
 144 0066 626B     		ldr	r2, [r4, #52]
1064:HALLIB/STM32F4xx_HAL_Driver/Src/stm32f4xx_hal_dcmi.c ****   }
 145              		.loc 1 1064 39 view .LVU48
ARM GAS  /tmp/ccK4D7wz.s 			page 23


 146 0068 DA60     		str	r2, [r3, #12]
 147 006a DBE7     		b	.L4
 148              	.L5:
1067:HALLIB/STM32F4xx_HAL_Driver/Src/stm32f4xx_hal_dcmi.c ****   {
 149              		.loc 1 1067 8 is_stmt 1 view .LVU49
1067:HALLIB/STM32F4xx_HAL_Driver/Src/stm32f4xx_hal_dcmi.c ****   {
 150              		.loc 1 1067 39 is_stmt 0 view .LVU50
 151 006c 1A68     		ldr	r2, [r3]
1067:HALLIB/STM32F4xx_HAL_Driver/Src/stm32f4xx_hal_dcmi.c ****   {
 152              		.loc 1 1067 10 view .LVU51
 153 006e 12F4002F 		tst	r2, #524288
 154 0072 D7D1     		bne	.L4
1069:HALLIB/STM32F4xx_HAL_Driver/Src/stm32f4xx_hal_dcmi.c ****     hdcmi->DMA_Handle->Instance->M1AR = (tmp + (4U*hdcmi->XferSize));
 155              		.loc 1 1069 5 is_stmt 1 view .LVU52
1069:HALLIB/STM32F4xx_HAL_Driver/Src/stm32f4xx_hal_dcmi.c ****     hdcmi->DMA_Handle->Instance->M1AR = (tmp + (4U*hdcmi->XferSize));
 156              		.loc 1 1069 9 is_stmt 0 view .LVU53
 157 0074 626B     		ldr	r2, [r4, #52]
 158              	.LVL12:
1070:HALLIB/STM32F4xx_HAL_Driver/Src/stm32f4xx_hal_dcmi.c ****     hdcmi->XferCount = hdcmi->XferTransferNumber;
 159              		.loc 1 1070 5 is_stmt 1 view .LVU54
1070:HALLIB/STM32F4xx_HAL_Driver/Src/stm32f4xx_hal_dcmi.c ****     hdcmi->XferCount = hdcmi->XferTransferNumber;
 160              		.loc 1 1070 57 is_stmt 0 view .LVU55
 161 0076 E16A     		ldr	r1, [r4, #44]
1070:HALLIB/STM32F4xx_HAL_Driver/Src/stm32f4xx_hal_dcmi.c ****     hdcmi->XferCount = hdcmi->XferTransferNumber;
 162              		.loc 1 1070 46 view .LVU56
 163 0078 02EB8102 		add	r2, r2, r1, lsl #2
 164              	.LVL13:
1070:HALLIB/STM32F4xx_HAL_Driver/Src/stm32f4xx_hal_dcmi.c ****     hdcmi->XferCount = hdcmi->XferTransferNumber;
 165              		.loc 1 1070 39 view .LVU57
 166 007c 1A61     		str	r2, [r3, #16]
 167              	.LVL14:
1071:HALLIB/STM32F4xx_HAL_Driver/Src/stm32f4xx_hal_dcmi.c ****   }
 168              		.loc 1 1071 5 is_stmt 1 view .LVU58
1071:HALLIB/STM32F4xx_HAL_Driver/Src/stm32f4xx_hal_dcmi.c ****   }
 169              		.loc 1 1071 29 is_stmt 0 view .LVU59
 170 007e 236B     		ldr	r3, [r4, #48]
1071:HALLIB/STM32F4xx_HAL_Driver/Src/stm32f4xx_hal_dcmi.c ****   }
 171              		.loc 1 1071 22 view .LVU60
 172 0080 A362     		str	r3, [r4, #40]
 173 0082 CFE7     		b	.L4
 174              	.LVL15:
 175              	.L10:
1078:HALLIB/STM32F4xx_HAL_Driver/Src/stm32f4xx_hal_dcmi.c ****     
 176              		.loc 1 1078 5 is_stmt 1 view .LVU61
 177 0084 2268     		ldr	r2, [r4]
 178 0086 D368     		ldr	r3, [r2, #12]
 179 0088 43F00103 		orr	r3, r3, #1
 180 008c D360     		str	r3, [r2, #12]
1081:HALLIB/STM32F4xx_HAL_Driver/Src/stm32f4xx_hal_dcmi.c ****     {  
 181              		.loc 1 1081 5 view .LVU62
1081:HALLIB/STM32F4xx_HAL_Driver/Src/stm32f4xx_hal_dcmi.c ****     {  
 182              		.loc 1 1081 14 is_stmt 0 view .LVU63
 183 008e 2368     		ldr	r3, [r4]
1081:HALLIB/STM32F4xx_HAL_Driver/Src/stm32f4xx_hal_dcmi.c ****     {  
 184              		.loc 1 1081 24 view .LVU64
 185 0090 1B68     		ldr	r3, [r3]
1081:HALLIB/STM32F4xx_HAL_Driver/Src/stm32f4xx_hal_dcmi.c ****     {  
ARM GAS  /tmp/ccK4D7wz.s 			page 24


 186              		.loc 1 1081 7 view .LVU65
 187 0092 13F0020F 		tst	r3, #2
 188 0096 C9D0     		beq	.L1
1083:HALLIB/STM32F4xx_HAL_Driver/Src/stm32f4xx_hal_dcmi.c ****     }
 189              		.loc 1 1083 7 is_stmt 1 view .LVU66
1083:HALLIB/STM32F4xx_HAL_Driver/Src/stm32f4xx_hal_dcmi.c ****     }
 190              		.loc 1 1083 19 is_stmt 0 view .LVU67
 191 0098 0123     		movs	r3, #1
 192 009a 84F82530 		strb	r3, [r4, #37]
 193              		.loc 1 1086 1 view .LVU68
 194 009e C5E7     		b	.L1
 195              		.cfi_endproc
 196              	.LFE150:
 198              		.section	.text.HAL_DCMI_MspInit,"ax",%progbits
 199              		.align	1
 200              		.weak	HAL_DCMI_MspInit
 201              		.syntax unified
 202              		.thumb
 203              		.thumb_func
 204              		.fpu fpv4-sp-d16
 206              	HAL_DCMI_MspInit:
 207              	.LVL16:
 208              	.LFB134:
 296:HALLIB/STM32F4xx_HAL_Driver/Src/stm32f4xx_hal_dcmi.c ****   /* Prevent unused argument(s) compilation warning */
 209              		.loc 1 296 1 is_stmt 1 view -0
 210              		.cfi_startproc
 211              		@ args = 0, pretend = 0, frame = 0
 212              		@ frame_needed = 0, uses_anonymous_args = 0
 213              		@ link register save eliminated.
 298:HALLIB/STM32F4xx_HAL_Driver/Src/stm32f4xx_hal_dcmi.c ****   /* NOTE : This function Should not be modified, when the callback is needed,
 214              		.loc 1 298 3 view .LVU70
 302:HALLIB/STM32F4xx_HAL_Driver/Src/stm32f4xx_hal_dcmi.c **** 
 215              		.loc 1 302 1 is_stmt 0 view .LVU71
 216 0000 7047     		bx	lr
 217              		.cfi_endproc
 218              	.LFE134:
 220              		.section	.text.HAL_DCMI_Init,"ax",%progbits
 221              		.align	1
 222              		.weak	HAL_DCMI_Init
 223              		.syntax unified
 224              		.thumb
 225              		.thumb_func
 226              		.fpu fpv4-sp-d16
 228              	HAL_DCMI_Init:
 229              	.LVL17:
 230              	.LFB132:
 179:HALLIB/STM32F4xx_HAL_Driver/Src/stm32f4xx_hal_dcmi.c ****   /* Check the DCMI peripheral state */
 231              		.loc 1 179 1 is_stmt 1 view -0
 232              		.cfi_startproc
 233              		@ args = 0, pretend = 0, frame = 0
 234              		@ frame_needed = 0, uses_anonymous_args = 0
 181:HALLIB/STM32F4xx_HAL_Driver/Src/stm32f4xx_hal_dcmi.c ****   {
 235              		.loc 1 181 3 view .LVU73
 181:HALLIB/STM32F4xx_HAL_Driver/Src/stm32f4xx_hal_dcmi.c ****   {
 236              		.loc 1 181 5 is_stmt 0 view .LVU74
 237 0000 0028     		cmp	r0, #0
 238 0002 42D0     		beq	.L16
ARM GAS  /tmp/ccK4D7wz.s 			page 25


 179:HALLIB/STM32F4xx_HAL_Driver/Src/stm32f4xx_hal_dcmi.c ****   /* Check the DCMI peripheral state */
 239              		.loc 1 179 1 view .LVU75
 240 0004 10B5     		push	{r4, lr}
 241              	.LCFI1:
 242              		.cfi_def_cfa_offset 8
 243              		.cfi_offset 4, -8
 244              		.cfi_offset 14, -4
 245 0006 0446     		mov	r4, r0
 187:HALLIB/STM32F4xx_HAL_Driver/Src/stm32f4xx_hal_dcmi.c ****   assert_param(IS_DCMI_PCKPOLARITY(hdcmi->Init.PCKPolarity));
 246              		.loc 1 187 3 is_stmt 1 view .LVU76
 188:HALLIB/STM32F4xx_HAL_Driver/Src/stm32f4xx_hal_dcmi.c ****   assert_param(IS_DCMI_VSPOLARITY(hdcmi->Init.VSPolarity));
 247              		.loc 1 188 3 view .LVU77
 189:HALLIB/STM32F4xx_HAL_Driver/Src/stm32f4xx_hal_dcmi.c ****   assert_param(IS_DCMI_HSPOLARITY(hdcmi->Init.HSPolarity));
 248              		.loc 1 189 3 view .LVU78
 190:HALLIB/STM32F4xx_HAL_Driver/Src/stm32f4xx_hal_dcmi.c ****   assert_param(IS_DCMI_SYNCHRO(hdcmi->Init.SynchroMode));
 249              		.loc 1 190 3 view .LVU79
 191:HALLIB/STM32F4xx_HAL_Driver/Src/stm32f4xx_hal_dcmi.c ****   assert_param(IS_DCMI_CAPTURE_RATE(hdcmi->Init.CaptureRate));
 250              		.loc 1 191 3 view .LVU80
 192:HALLIB/STM32F4xx_HAL_Driver/Src/stm32f4xx_hal_dcmi.c ****   assert_param(IS_DCMI_EXTENDED_DATA(hdcmi->Init.ExtendedDataMode));
 251              		.loc 1 192 3 view .LVU81
 193:HALLIB/STM32F4xx_HAL_Driver/Src/stm32f4xx_hal_dcmi.c ****   assert_param(IS_DCMI_MODE_JPEG(hdcmi->Init.JPEGMode));
 252              		.loc 1 193 3 view .LVU82
 194:HALLIB/STM32F4xx_HAL_Driver/Src/stm32f4xx_hal_dcmi.c **** 
 253              		.loc 1 194 3 view .LVU83
 196:HALLIB/STM32F4xx_HAL_Driver/Src/stm32f4xx_hal_dcmi.c ****   {
 254              		.loc 1 196 3 view .LVU84
 196:HALLIB/STM32F4xx_HAL_Driver/Src/stm32f4xx_hal_dcmi.c ****   {
 255              		.loc 1 196 11 is_stmt 0 view .LVU85
 256 0008 90F82530 		ldrb	r3, [r0, #37]	@ zero_extendqisi2
 196:HALLIB/STM32F4xx_HAL_Driver/Src/stm32f4xx_hal_dcmi.c ****   {
 257              		.loc 1 196 5 view .LVU86
 258 000c 43B3     		cbz	r3, .L21
 259              	.LVL18:
 260              	.L14:
 223:HALLIB/STM32F4xx_HAL_Driver/Src/stm32f4xx_hal_dcmi.c **** 
 261              		.loc 1 223 3 is_stmt 1 view .LVU87
 223:HALLIB/STM32F4xx_HAL_Driver/Src/stm32f4xx_hal_dcmi.c **** 
 262              		.loc 1 223 16 is_stmt 0 view .LVU88
 263 000e 0223     		movs	r3, #2
 264 0010 84F82530 		strb	r3, [r4, #37]
 227:HALLIB/STM32F4xx_HAL_Driver/Src/stm32f4xx_hal_dcmi.c ****                            DCMI_CR_EDM_1  | DCMI_CR_FCRC_0 | DCMI_CR_FCRC_1 | DCMI_CR_JPEG  |
 265              		.loc 1 227 3 is_stmt 1 view .LVU89
 227:HALLIB/STM32F4xx_HAL_Driver/Src/stm32f4xx_hal_dcmi.c ****                            DCMI_CR_EDM_1  | DCMI_CR_FCRC_0 | DCMI_CR_FCRC_1 | DCMI_CR_JPEG  |
 266              		.loc 1 227 8 is_stmt 0 view .LVU90
 267 0014 2268     		ldr	r2, [r4]
 227:HALLIB/STM32F4xx_HAL_Driver/Src/stm32f4xx_hal_dcmi.c ****                            DCMI_CR_EDM_1  | DCMI_CR_FCRC_0 | DCMI_CR_FCRC_1 | DCMI_CR_JPEG  |
 268              		.loc 1 227 23 view .LVU91
 269 0016 1368     		ldr	r3, [r2]
 270 0018 23F47F63 		bic	r3, r3, #4080
 271 001c 23F00803 		bic	r3, r3, #8
 272 0020 1360     		str	r3, [r2]
 230:HALLIB/STM32F4xx_HAL_Driver/Src/stm32f4xx_hal_dcmi.c ****                                      hdcmi->Init.VSPolarity  | hdcmi->Init.HSPolarity  | \
 273              		.loc 1 230 3 is_stmt 1 view .LVU92
 230:HALLIB/STM32F4xx_HAL_Driver/Src/stm32f4xx_hal_dcmi.c ****                                      hdcmi->Init.VSPolarity  | hdcmi->Init.HSPolarity  | \
 274              		.loc 1 230 8 is_stmt 0 view .LVU93
 275 0022 2168     		ldr	r1, [r4]
 230:HALLIB/STM32F4xx_HAL_Driver/Src/stm32f4xx_hal_dcmi.c ****                                      hdcmi->Init.VSPolarity  | hdcmi->Init.HSPolarity  | \
ARM GAS  /tmp/ccK4D7wz.s 			page 26


 276              		.loc 1 230 23 view .LVU94
 277 0024 0A68     		ldr	r2, [r1]
 230:HALLIB/STM32F4xx_HAL_Driver/Src/stm32f4xx_hal_dcmi.c ****                                      hdcmi->Init.VSPolarity  | hdcmi->Init.HSPolarity  | \
 278              		.loc 1 230 49 view .LVU95
 279 0026 6368     		ldr	r3, [r4, #4]
 230:HALLIB/STM32F4xx_HAL_Driver/Src/stm32f4xx_hal_dcmi.c ****                                      hdcmi->Init.VSPolarity  | hdcmi->Init.HSPolarity  | \
 280              		.loc 1 230 75 view .LVU96
 281 0028 6069     		ldr	r0, [r4, #20]
 230:HALLIB/STM32F4xx_HAL_Driver/Src/stm32f4xx_hal_dcmi.c ****                                      hdcmi->Init.VSPolarity  | hdcmi->Init.HSPolarity  | \
 282              		.loc 1 230 62 view .LVU97
 283 002a 0343     		orrs	r3, r3, r0
 231:HALLIB/STM32F4xx_HAL_Driver/Src/stm32f4xx_hal_dcmi.c ****                                      hdcmi->Init.PCKPolarity | hdcmi->Init.ExtendedDataMode | \
 284              		.loc 1 231 49 view .LVU98
 285 002c E068     		ldr	r0, [r4, #12]
 230:HALLIB/STM32F4xx_HAL_Driver/Src/stm32f4xx_hal_dcmi.c ****                                      hdcmi->Init.VSPolarity  | hdcmi->Init.HSPolarity  | \
 286              		.loc 1 230 88 view .LVU99
 287 002e 0343     		orrs	r3, r3, r0
 231:HALLIB/STM32F4xx_HAL_Driver/Src/stm32f4xx_hal_dcmi.c ****                                      hdcmi->Init.PCKPolarity | hdcmi->Init.ExtendedDataMode | \
 288              		.loc 1 231 75 view .LVU100
 289 0030 2069     		ldr	r0, [r4, #16]
 231:HALLIB/STM32F4xx_HAL_Driver/Src/stm32f4xx_hal_dcmi.c ****                                      hdcmi->Init.PCKPolarity | hdcmi->Init.ExtendedDataMode | \
 290              		.loc 1 231 62 view .LVU101
 291 0032 0343     		orrs	r3, r3, r0
 232:HALLIB/STM32F4xx_HAL_Driver/Src/stm32f4xx_hal_dcmi.c ****                                      hdcmi->Init.JPEGMode);
 292              		.loc 1 232 49 view .LVU102
 293 0034 A068     		ldr	r0, [r4, #8]
 231:HALLIB/STM32F4xx_HAL_Driver/Src/stm32f4xx_hal_dcmi.c ****                                      hdcmi->Init.PCKPolarity | hdcmi->Init.ExtendedDataMode | \
 294              		.loc 1 231 88 view .LVU103
 295 0036 0343     		orrs	r3, r3, r0
 232:HALLIB/STM32F4xx_HAL_Driver/Src/stm32f4xx_hal_dcmi.c ****                                      hdcmi->Init.JPEGMode);
 296              		.loc 1 232 75 view .LVU104
 297 0038 A069     		ldr	r0, [r4, #24]
 232:HALLIB/STM32F4xx_HAL_Driver/Src/stm32f4xx_hal_dcmi.c ****                                      hdcmi->Init.JPEGMode);
 298              		.loc 1 232 62 view .LVU105
 299 003a 0343     		orrs	r3, r3, r0
 233:HALLIB/STM32F4xx_HAL_Driver/Src/stm32f4xx_hal_dcmi.c **** 
 300              		.loc 1 233 49 view .LVU106
 301 003c 206A     		ldr	r0, [r4, #32]
 232:HALLIB/STM32F4xx_HAL_Driver/Src/stm32f4xx_hal_dcmi.c ****                                      hdcmi->Init.JPEGMode);
 302              		.loc 1 232 93 view .LVU107
 303 003e 0343     		orrs	r3, r3, r0
 230:HALLIB/STM32F4xx_HAL_Driver/Src/stm32f4xx_hal_dcmi.c ****                                      hdcmi->Init.VSPolarity  | hdcmi->Init.HSPolarity  | \
 304              		.loc 1 230 23 view .LVU108
 305 0040 1343     		orrs	r3, r3, r2
 306 0042 0B60     		str	r3, [r1]
 235:HALLIB/STM32F4xx_HAL_Driver/Src/stm32f4xx_hal_dcmi.c ****   {
 307              		.loc 1 235 3 is_stmt 1 view .LVU109
 235:HALLIB/STM32F4xx_HAL_Driver/Src/stm32f4xx_hal_dcmi.c ****   {
 308              		.loc 1 235 17 is_stmt 0 view .LVU110
 309 0044 6368     		ldr	r3, [r4, #4]
 235:HALLIB/STM32F4xx_HAL_Driver/Src/stm32f4xx_hal_dcmi.c ****   {
 310              		.loc 1 235 5 view .LVU111
 311 0046 102B     		cmp	r3, #16
 312 0048 12D0     		beq	.L22
 313              	.L15:
 244:HALLIB/STM32F4xx_HAL_Driver/Src/stm32f4xx_hal_dcmi.c **** 
 314              		.loc 1 244 3 is_stmt 1 view .LVU112
ARM GAS  /tmp/ccK4D7wz.s 			page 27


 315 004a 2268     		ldr	r2, [r4]
 316 004c D368     		ldr	r3, [r2, #12]
 317 004e 43F01E03 		orr	r3, r3, #30
 318 0052 D360     		str	r3, [r2, #12]
 247:HALLIB/STM32F4xx_HAL_Driver/Src/stm32f4xx_hal_dcmi.c **** 
 319              		.loc 1 247 3 view .LVU113
 247:HALLIB/STM32F4xx_HAL_Driver/Src/stm32f4xx_hal_dcmi.c **** 
 320              		.loc 1 247 20 is_stmt 0 view .LVU114
 321 0054 0020     		movs	r0, #0
 322 0056 E063     		str	r0, [r4, #60]
 250:HALLIB/STM32F4xx_HAL_Driver/Src/stm32f4xx_hal_dcmi.c **** 
 323              		.loc 1 250 3 is_stmt 1 view .LVU115
 250:HALLIB/STM32F4xx_HAL_Driver/Src/stm32f4xx_hal_dcmi.c **** 
 324              		.loc 1 250 17 is_stmt 0 view .LVU116
 325 0058 0123     		movs	r3, #1
 326 005a 84F82530 		strb	r3, [r4, #37]
 252:HALLIB/STM32F4xx_HAL_Driver/Src/stm32f4xx_hal_dcmi.c **** }
 327              		.loc 1 252 3 is_stmt 1 view .LVU117
 253:HALLIB/STM32F4xx_HAL_Driver/Src/stm32f4xx_hal_dcmi.c **** 
 328              		.loc 1 253 1 is_stmt 0 view .LVU118
 329 005e 10BD     		pop	{r4, pc}
 330              	.LVL19:
 331              	.L21:
 199:HALLIB/STM32F4xx_HAL_Driver/Src/stm32f4xx_hal_dcmi.c ****     /* Init the low level hardware */
 332              		.loc 1 199 5 is_stmt 1 view .LVU119
 199:HALLIB/STM32F4xx_HAL_Driver/Src/stm32f4xx_hal_dcmi.c ****     /* Init the low level hardware */
 333              		.loc 1 199 17 is_stmt 0 view .LVU120
 334 0060 80F82430 		strb	r3, [r0, #36]
 217:HALLIB/STM32F4xx_HAL_Driver/Src/stm32f4xx_hal_dcmi.c **** #endif /* (USE_HAL_DCMI_REGISTER_CALLBACKS) */
 335              		.loc 1 217 5 is_stmt 1 view .LVU121
 336 0064 FFF7FEFF 		bl	HAL_DCMI_MspInit
 337              	.LVL20:
 219:HALLIB/STM32F4xx_HAL_Driver/Src/stm32f4xx_hal_dcmi.c ****   }
 338              		.loc 1 219 5 view .LVU122
 339 0068 2046     		mov	r0, r4
 340 006a FFF7FEFF 		bl	HAL_DCMI_MspInit
 341              	.LVL21:
 342 006e CEE7     		b	.L14
 343              	.L22:
 237:HALLIB/STM32F4xx_HAL_Driver/Src/stm32f4xx_hal_dcmi.c ****                              ((uint32_t)hdcmi->Init.SyncroCode.LineStartCode << DCMI_POSITION_ESCR_
 344              		.loc 1 237 5 view .LVU123
 237:HALLIB/STM32F4xx_HAL_Driver/Src/stm32f4xx_hal_dcmi.c ****                              ((uint32_t)hdcmi->Init.SyncroCode.LineStartCode << DCMI_POSITION_ESCR_
 345              		.loc 1 237 63 is_stmt 0 view .LVU124
 346 0070 237F     		ldrb	r3, [r4, #28]	@ zero_extendqisi2
 238:HALLIB/STM32F4xx_HAL_Driver/Src/stm32f4xx_hal_dcmi.c ****                              ((uint32_t)hdcmi->Init.SyncroCode.LineEndCode << DCMI_POSITION_ESCR_LE
 347              		.loc 1 238 63 view .LVU125
 348 0072 627F     		ldrb	r2, [r4, #29]	@ zero_extendqisi2
 237:HALLIB/STM32F4xx_HAL_Driver/Src/stm32f4xx_hal_dcmi.c ****                              ((uint32_t)hdcmi->Init.SyncroCode.LineStartCode << DCMI_POSITION_ESCR_
 349              		.loc 1 237 83 view .LVU126
 350 0074 43EA0223 		orr	r3, r3, r2, lsl #8
 239:HALLIB/STM32F4xx_HAL_Driver/Src/stm32f4xx_hal_dcmi.c ****                              ((uint32_t)hdcmi->Init.SyncroCode.FrameEndCode << DCMI_POSITION_ESCR_F
 351              		.loc 1 239 63 view .LVU127
 352 0078 A27F     		ldrb	r2, [r4, #30]	@ zero_extendqisi2
 238:HALLIB/STM32F4xx_HAL_Driver/Src/stm32f4xx_hal_dcmi.c ****                              ((uint32_t)hdcmi->Init.SyncroCode.LineEndCode << DCMI_POSITION_ESCR_LE
 353              		.loc 1 238 104 view .LVU128
 354 007a 43EA0243 		orr	r3, r3, r2, lsl #16
 240:HALLIB/STM32F4xx_HAL_Driver/Src/stm32f4xx_hal_dcmi.c ****   }
ARM GAS  /tmp/ccK4D7wz.s 			page 28


 355              		.loc 1 240 63 view .LVU129
 356 007e E17F     		ldrb	r1, [r4, #31]	@ zero_extendqisi2
 237:HALLIB/STM32F4xx_HAL_Driver/Src/stm32f4xx_hal_dcmi.c ****                              ((uint32_t)hdcmi->Init.SyncroCode.LineStartCode << DCMI_POSITION_ESCR_
 357              		.loc 1 237 10 view .LVU130
 358 0080 2268     		ldr	r2, [r4]
 239:HALLIB/STM32F4xx_HAL_Driver/Src/stm32f4xx_hal_dcmi.c ****                              ((uint32_t)hdcmi->Init.SyncroCode.FrameEndCode << DCMI_POSITION_ESCR_F
 359              		.loc 1 239 103 view .LVU131
 360 0082 43EA0163 		orr	r3, r3, r1, lsl #24
 237:HALLIB/STM32F4xx_HAL_Driver/Src/stm32f4xx_hal_dcmi.c ****                              ((uint32_t)hdcmi->Init.SyncroCode.LineStartCode << DCMI_POSITION_ESCR_
 361              		.loc 1 237 27 view .LVU132
 362 0086 9361     		str	r3, [r2, #24]
 363 0088 DFE7     		b	.L15
 364              	.LVL22:
 365              	.L16:
 366              	.LCFI2:
 367              		.cfi_def_cfa_offset 0
 368              		.cfi_restore 4
 369              		.cfi_restore 14
 183:HALLIB/STM32F4xx_HAL_Driver/Src/stm32f4xx_hal_dcmi.c ****   }
 370              		.loc 1 183 13 view .LVU133
 371 008a 0120     		movs	r0, #1
 372              	.LVL23:
 253:HALLIB/STM32F4xx_HAL_Driver/Src/stm32f4xx_hal_dcmi.c **** 
 373              		.loc 1 253 1 view .LVU134
 374 008c 7047     		bx	lr
 375              		.cfi_endproc
 376              	.LFE132:
 378              		.section	.text.HAL_DCMI_MspDeInit,"ax",%progbits
 379              		.align	1
 380              		.weak	HAL_DCMI_MspDeInit
 381              		.syntax unified
 382              		.thumb
 383              		.thumb_func
 384              		.fpu fpv4-sp-d16
 386              	HAL_DCMI_MspDeInit:
 387              	.LVL24:
 388              	.LFB135:
 311:HALLIB/STM32F4xx_HAL_Driver/Src/stm32f4xx_hal_dcmi.c ****   /* Prevent unused argument(s) compilation warning */
 389              		.loc 1 311 1 is_stmt 1 view -0
 390              		.cfi_startproc
 391              		@ args = 0, pretend = 0, frame = 0
 392              		@ frame_needed = 0, uses_anonymous_args = 0
 393              		@ link register save eliminated.
 313:HALLIB/STM32F4xx_HAL_Driver/Src/stm32f4xx_hal_dcmi.c ****   /* NOTE : This function Should not be modified, when the callback is needed,
 394              		.loc 1 313 3 view .LVU136
 317:HALLIB/STM32F4xx_HAL_Driver/Src/stm32f4xx_hal_dcmi.c **** 
 395              		.loc 1 317 1 is_stmt 0 view .LVU137
 396 0000 7047     		bx	lr
 397              		.cfi_endproc
 398              	.LFE135:
 400              		.section	.text.HAL_DCMI_DeInit,"ax",%progbits
 401              		.align	1
 402              		.global	HAL_DCMI_DeInit
 403              		.syntax unified
 404              		.thumb
 405              		.thumb_func
 406              		.fpu fpv4-sp-d16
ARM GAS  /tmp/ccK4D7wz.s 			page 29


 408              	HAL_DCMI_DeInit:
 409              	.LVL25:
 410              	.LFB133:
 264:HALLIB/STM32F4xx_HAL_Driver/Src/stm32f4xx_hal_dcmi.c **** #if (USE_HAL_DCMI_REGISTER_CALLBACKS == 1)  
 411              		.loc 1 264 1 is_stmt 1 view -0
 412              		.cfi_startproc
 413              		@ args = 0, pretend = 0, frame = 0
 414              		@ frame_needed = 0, uses_anonymous_args = 0
 264:HALLIB/STM32F4xx_HAL_Driver/Src/stm32f4xx_hal_dcmi.c **** #if (USE_HAL_DCMI_REGISTER_CALLBACKS == 1)  
 415              		.loc 1 264 1 is_stmt 0 view .LVU139
 416 0000 10B5     		push	{r4, lr}
 417              	.LCFI3:
 418              		.cfi_def_cfa_offset 8
 419              		.cfi_offset 4, -8
 420              		.cfi_offset 14, -4
 421 0002 0446     		mov	r4, r0
 274:HALLIB/STM32F4xx_HAL_Driver/Src/stm32f4xx_hal_dcmi.c **** #endif /* (USE_HAL_DCMI_REGISTER_CALLBACKS) */
 422              		.loc 1 274 3 is_stmt 1 view .LVU140
 423 0004 FFF7FEFF 		bl	HAL_DCMI_MspDeInit
 424              	.LVL26:
 278:HALLIB/STM32F4xx_HAL_Driver/Src/stm32f4xx_hal_dcmi.c **** 
 425              		.loc 1 278 3 view .LVU141
 278:HALLIB/STM32F4xx_HAL_Driver/Src/stm32f4xx_hal_dcmi.c **** 
 426              		.loc 1 278 20 is_stmt 0 view .LVU142
 427 0008 0020     		movs	r0, #0
 428 000a E063     		str	r0, [r4, #60]
 281:HALLIB/STM32F4xx_HAL_Driver/Src/stm32f4xx_hal_dcmi.c **** 
 429              		.loc 1 281 3 is_stmt 1 view .LVU143
 281:HALLIB/STM32F4xx_HAL_Driver/Src/stm32f4xx_hal_dcmi.c **** 
 430              		.loc 1 281 16 is_stmt 0 view .LVU144
 431 000c 84F82500 		strb	r0, [r4, #37]
 284:HALLIB/STM32F4xx_HAL_Driver/Src/stm32f4xx_hal_dcmi.c **** 
 432              		.loc 1 284 3 is_stmt 1 view .LVU145
 284:HALLIB/STM32F4xx_HAL_Driver/Src/stm32f4xx_hal_dcmi.c **** 
 433              		.loc 1 284 3 view .LVU146
 434 0010 84F82400 		strb	r0, [r4, #36]
 284:HALLIB/STM32F4xx_HAL_Driver/Src/stm32f4xx_hal_dcmi.c **** 
 435              		.loc 1 284 3 view .LVU147
 286:HALLIB/STM32F4xx_HAL_Driver/Src/stm32f4xx_hal_dcmi.c **** }
 436              		.loc 1 286 3 view .LVU148
 287:HALLIB/STM32F4xx_HAL_Driver/Src/stm32f4xx_hal_dcmi.c **** 
 437              		.loc 1 287 1 is_stmt 0 view .LVU149
 438 0014 10BD     		pop	{r4, pc}
 287:HALLIB/STM32F4xx_HAL_Driver/Src/stm32f4xx_hal_dcmi.c **** 
 439              		.loc 1 287 1 view .LVU150
 440              		.cfi_endproc
 441              	.LFE133:
 443              		.section	.text.HAL_DCMI_Start_DMA,"ax",%progbits
 444              		.align	1
 445              		.global	HAL_DCMI_Start_DMA
 446              		.syntax unified
 447              		.thumb
 448              		.thumb_func
 449              		.fpu fpv4-sp-d16
 451              	HAL_DCMI_Start_DMA:
 452              	.LVL27:
 453              	.LFB136:
ARM GAS  /tmp/ccK4D7wz.s 			page 30


 349:HALLIB/STM32F4xx_HAL_Driver/Src/stm32f4xx_hal_dcmi.c ****   /* Initialize the second memory address */
 454              		.loc 1 349 1 is_stmt 1 view -0
 455              		.cfi_startproc
 456              		@ args = 0, pretend = 0, frame = 0
 457              		@ frame_needed = 0, uses_anonymous_args = 0
 349:HALLIB/STM32F4xx_HAL_Driver/Src/stm32f4xx_hal_dcmi.c ****   /* Initialize the second memory address */
 458              		.loc 1 349 1 is_stmt 0 view .LVU152
 459 0000 30B5     		push	{r4, r5, lr}
 460              	.LCFI4:
 461              		.cfi_def_cfa_offset 12
 462              		.cfi_offset 4, -12
 463              		.cfi_offset 5, -8
 464              		.cfi_offset 14, -4
 465 0002 83B0     		sub	sp, sp, #12
 466              	.LCFI5:
 467              		.cfi_def_cfa_offset 24
 468 0004 0446     		mov	r4, r0
 351:HALLIB/STM32F4xx_HAL_Driver/Src/stm32f4xx_hal_dcmi.c **** 
 469              		.loc 1 351 3 is_stmt 1 view .LVU153
 470              	.LVL28:
 354:HALLIB/STM32F4xx_HAL_Driver/Src/stm32f4xx_hal_dcmi.c **** 
 471              		.loc 1 354 3 view .LVU154
 357:HALLIB/STM32F4xx_HAL_Driver/Src/stm32f4xx_hal_dcmi.c **** 
 472              		.loc 1 357 3 view .LVU155
 357:HALLIB/STM32F4xx_HAL_Driver/Src/stm32f4xx_hal_dcmi.c **** 
 473              		.loc 1 357 3 view .LVU156
 474 0006 90F82400 		ldrb	r0, [r0, #36]	@ zero_extendqisi2
 475              	.LVL29:
 357:HALLIB/STM32F4xx_HAL_Driver/Src/stm32f4xx_hal_dcmi.c **** 
 476              		.loc 1 357 3 is_stmt 0 view .LVU157
 477 000a 0128     		cmp	r0, #1
 478 000c 52D0     		beq	.L32
 357:HALLIB/STM32F4xx_HAL_Driver/Src/stm32f4xx_hal_dcmi.c **** 
 479              		.loc 1 357 3 is_stmt 1 discriminator 2 view .LVU158
 480 000e 0120     		movs	r0, #1
 481 0010 84F82400 		strb	r0, [r4, #36]
 357:HALLIB/STM32F4xx_HAL_Driver/Src/stm32f4xx_hal_dcmi.c **** 
 482              		.loc 1 357 3 discriminator 2 view .LVU159
 360:HALLIB/STM32F4xx_HAL_Driver/Src/stm32f4xx_hal_dcmi.c ****   
 483              		.loc 1 360 3 discriminator 2 view .LVU160
 360:HALLIB/STM32F4xx_HAL_Driver/Src/stm32f4xx_hal_dcmi.c ****   
 484              		.loc 1 360 16 is_stmt 0 discriminator 2 view .LVU161
 485 0014 0220     		movs	r0, #2
 486 0016 84F82500 		strb	r0, [r4, #37]
 363:HALLIB/STM32F4xx_HAL_Driver/Src/stm32f4xx_hal_dcmi.c **** 
 487              		.loc 1 363 3 is_stmt 1 discriminator 2 view .LVU162
 488 001a 2568     		ldr	r5, [r4]
 489 001c 2868     		ldr	r0, [r5]
 490 001e 40F48040 		orr	r0, r0, #16384
 491 0022 2860     		str	r0, [r5]
 366:HALLIB/STM32F4xx_HAL_Driver/Src/stm32f4xx_hal_dcmi.c ****   hdcmi->Instance->CR |=  (uint32_t)(DCMI_Mode);
 492              		.loc 1 366 3 discriminator 2 view .LVU163
 366:HALLIB/STM32F4xx_HAL_Driver/Src/stm32f4xx_hal_dcmi.c ****   hdcmi->Instance->CR |=  (uint32_t)(DCMI_Mode);
 493              		.loc 1 366 8 is_stmt 0 discriminator 2 view .LVU164
 494 0024 2568     		ldr	r5, [r4]
 366:HALLIB/STM32F4xx_HAL_Driver/Src/stm32f4xx_hal_dcmi.c ****   hdcmi->Instance->CR |=  (uint32_t)(DCMI_Mode);
 495              		.loc 1 366 23 discriminator 2 view .LVU165
ARM GAS  /tmp/ccK4D7wz.s 			page 31


 496 0026 2868     		ldr	r0, [r5]
 497 0028 20F00200 		bic	r0, r0, #2
 498 002c 2860     		str	r0, [r5]
 367:HALLIB/STM32F4xx_HAL_Driver/Src/stm32f4xx_hal_dcmi.c **** 
 499              		.loc 1 367 3 is_stmt 1 discriminator 2 view .LVU166
 367:HALLIB/STM32F4xx_HAL_Driver/Src/stm32f4xx_hal_dcmi.c **** 
 500              		.loc 1 367 8 is_stmt 0 discriminator 2 view .LVU167
 501 002e 2568     		ldr	r5, [r4]
 367:HALLIB/STM32F4xx_HAL_Driver/Src/stm32f4xx_hal_dcmi.c **** 
 502              		.loc 1 367 23 discriminator 2 view .LVU168
 503 0030 2868     		ldr	r0, [r5]
 504 0032 0143     		orrs	r1, r1, r0
 505              	.LVL30:
 367:HALLIB/STM32F4xx_HAL_Driver/Src/stm32f4xx_hal_dcmi.c **** 
 506              		.loc 1 367 23 discriminator 2 view .LVU169
 507 0034 2960     		str	r1, [r5]
 370:HALLIB/STM32F4xx_HAL_Driver/Src/stm32f4xx_hal_dcmi.c **** 
 508              		.loc 1 370 3 is_stmt 1 discriminator 2 view .LVU170
 370:HALLIB/STM32F4xx_HAL_Driver/Src/stm32f4xx_hal_dcmi.c **** 
 509              		.loc 1 370 8 is_stmt 0 discriminator 2 view .LVU171
 510 0036 A16B     		ldr	r1, [r4, #56]
 370:HALLIB/STM32F4xx_HAL_Driver/Src/stm32f4xx_hal_dcmi.c **** 
 511              		.loc 1 370 39 discriminator 2 view .LVU172
 512 0038 1F48     		ldr	r0, .L35
 513 003a C863     		str	r0, [r1, #60]
 373:HALLIB/STM32F4xx_HAL_Driver/Src/stm32f4xx_hal_dcmi.c **** 
 514              		.loc 1 373 3 is_stmt 1 discriminator 2 view .LVU173
 373:HALLIB/STM32F4xx_HAL_Driver/Src/stm32f4xx_hal_dcmi.c **** 
 515              		.loc 1 373 8 is_stmt 0 discriminator 2 view .LVU174
 516 003c A16B     		ldr	r1, [r4, #56]
 373:HALLIB/STM32F4xx_HAL_Driver/Src/stm32f4xx_hal_dcmi.c **** 
 517              		.loc 1 373 40 discriminator 2 view .LVU175
 518 003e 1F48     		ldr	r0, .L35+4
 519 0040 C864     		str	r0, [r1, #76]
 376:HALLIB/STM32F4xx_HAL_Driver/Src/stm32f4xx_hal_dcmi.c ****   
 520              		.loc 1 376 3 is_stmt 1 discriminator 2 view .LVU176
 376:HALLIB/STM32F4xx_HAL_Driver/Src/stm32f4xx_hal_dcmi.c ****   
 521              		.loc 1 376 8 is_stmt 0 discriminator 2 view .LVU177
 522 0042 A06B     		ldr	r0, [r4, #56]
 376:HALLIB/STM32F4xx_HAL_Driver/Src/stm32f4xx_hal_dcmi.c ****   
 523              		.loc 1 376 40 discriminator 2 view .LVU178
 524 0044 0021     		movs	r1, #0
 525 0046 0165     		str	r1, [r0, #80]
 379:HALLIB/STM32F4xx_HAL_Driver/Src/stm32f4xx_hal_dcmi.c ****   hdcmi->XferTransferNumber = 0U;
 526              		.loc 1 379 3 is_stmt 1 discriminator 2 view .LVU179
 379:HALLIB/STM32F4xx_HAL_Driver/Src/stm32f4xx_hal_dcmi.c ****   hdcmi->XferTransferNumber = 0U;
 527              		.loc 1 379 20 is_stmt 0 discriminator 2 view .LVU180
 528 0048 A162     		str	r1, [r4, #40]
 380:HALLIB/STM32F4xx_HAL_Driver/Src/stm32f4xx_hal_dcmi.c **** 
 529              		.loc 1 380 3 is_stmt 1 discriminator 2 view .LVU181
 380:HALLIB/STM32F4xx_HAL_Driver/Src/stm32f4xx_hal_dcmi.c **** 
 530              		.loc 1 380 29 is_stmt 0 discriminator 2 view .LVU182
 531 004a 2163     		str	r1, [r4, #48]
 382:HALLIB/STM32F4xx_HAL_Driver/Src/stm32f4xx_hal_dcmi.c ****   {
 532              		.loc 1 382 3 is_stmt 1 discriminator 2 view .LVU183
 382:HALLIB/STM32F4xx_HAL_Driver/Src/stm32f4xx_hal_dcmi.c ****   {
 533              		.loc 1 382 5 is_stmt 0 discriminator 2 view .LVU184
ARM GAS  /tmp/ccK4D7wz.s 			page 32


 534 004c B3F5803F 		cmp	r3, #65536
 535 0050 07D3     		bcc	.L34
 390:HALLIB/STM32F4xx_HAL_Driver/Src/stm32f4xx_hal_dcmi.c **** 
 536              		.loc 1 390 5 is_stmt 1 view .LVU185
 390:HALLIB/STM32F4xx_HAL_Driver/Src/stm32f4xx_hal_dcmi.c **** 
 537              		.loc 1 390 10 is_stmt 0 view .LVU186
 538 0052 A16B     		ldr	r1, [r4, #56]
 390:HALLIB/STM32F4xx_HAL_Driver/Src/stm32f4xx_hal_dcmi.c **** 
 539              		.loc 1 390 43 view .LVU187
 540 0054 1848     		ldr	r0, .L35
 541 0056 4864     		str	r0, [r1, #68]
 393:HALLIB/STM32F4xx_HAL_Driver/Src/stm32f4xx_hal_dcmi.c ****     hdcmi->XferSize = Length;
 542              		.loc 1 393 5 is_stmt 1 view .LVU188
 393:HALLIB/STM32F4xx_HAL_Driver/Src/stm32f4xx_hal_dcmi.c ****     hdcmi->XferSize = Length;
 543              		.loc 1 393 22 is_stmt 0 view .LVU189
 544 0058 0121     		movs	r1, #1
 545 005a A162     		str	r1, [r4, #40]
 394:HALLIB/STM32F4xx_HAL_Driver/Src/stm32f4xx_hal_dcmi.c ****     hdcmi->pBuffPtr = pData;
 546              		.loc 1 394 5 is_stmt 1 view .LVU190
 394:HALLIB/STM32F4xx_HAL_Driver/Src/stm32f4xx_hal_dcmi.c ****     hdcmi->pBuffPtr = pData;
 547              		.loc 1 394 21 is_stmt 0 view .LVU191
 548 005c E362     		str	r3, [r4, #44]
 395:HALLIB/STM32F4xx_HAL_Driver/Src/stm32f4xx_hal_dcmi.c **** 
 549              		.loc 1 395 5 is_stmt 1 view .LVU192
 395:HALLIB/STM32F4xx_HAL_Driver/Src/stm32f4xx_hal_dcmi.c **** 
 550              		.loc 1 395 21 is_stmt 0 view .LVU193
 551 005e 6263     		str	r2, [r4, #52]
 398:HALLIB/STM32F4xx_HAL_Driver/Src/stm32f4xx_hal_dcmi.c ****     {
 552              		.loc 1 398 5 is_stmt 1 view .LVU194
 398:HALLIB/STM32F4xx_HAL_Driver/Src/stm32f4xx_hal_dcmi.c ****     {
 553              		.loc 1 398 10 is_stmt 0 view .LVU195
 554 0060 0BE0     		b	.L30
 555              	.L34:
 385:HALLIB/STM32F4xx_HAL_Driver/Src/stm32f4xx_hal_dcmi.c ****   }
 556              		.loc 1 385 5 is_stmt 1 view .LVU196
 385:HALLIB/STM32F4xx_HAL_Driver/Src/stm32f4xx_hal_dcmi.c ****   }
 557              		.loc 1 385 57 is_stmt 0 view .LVU197
 558 0062 2168     		ldr	r1, [r4]
 385:HALLIB/STM32F4xx_HAL_Driver/Src/stm32f4xx_hal_dcmi.c ****   }
 559              		.loc 1 385 5 view .LVU198
 560 0064 2831     		adds	r1, r1, #40
 561 0066 A06B     		ldr	r0, [r4, #56]
 562 0068 FFF7FEFF 		bl	HAL_DMA_Start_IT
 563              	.LVL31:
 385:HALLIB/STM32F4xx_HAL_Driver/Src/stm32f4xx_hal_dcmi.c ****   }
 564              		.loc 1 385 5 view .LVU199
 565 006c 18E0     		b	.L29
 566              	.LVL32:
 567              	.L31:
 400:HALLIB/STM32F4xx_HAL_Driver/Src/stm32f4xx_hal_dcmi.c ****       hdcmi->XferCount = hdcmi->XferCount*2U;
 568              		.loc 1 400 7 is_stmt 1 view .LVU200
 400:HALLIB/STM32F4xx_HAL_Driver/Src/stm32f4xx_hal_dcmi.c ****       hdcmi->XferCount = hdcmi->XferCount*2U;
 569              		.loc 1 400 31 is_stmt 0 view .LVU201
 570 006e E36A     		ldr	r3, [r4, #44]
 400:HALLIB/STM32F4xx_HAL_Driver/Src/stm32f4xx_hal_dcmi.c ****       hdcmi->XferCount = hdcmi->XferCount*2U;
 571              		.loc 1 400 41 view .LVU202
 572 0070 5B08     		lsrs	r3, r3, #1
ARM GAS  /tmp/ccK4D7wz.s 			page 33


 400:HALLIB/STM32F4xx_HAL_Driver/Src/stm32f4xx_hal_dcmi.c ****       hdcmi->XferCount = hdcmi->XferCount*2U;
 573              		.loc 1 400 23 view .LVU203
 574 0072 E362     		str	r3, [r4, #44]
 401:HALLIB/STM32F4xx_HAL_Driver/Src/stm32f4xx_hal_dcmi.c ****     }
 575              		.loc 1 401 7 is_stmt 1 view .LVU204
 401:HALLIB/STM32F4xx_HAL_Driver/Src/stm32f4xx_hal_dcmi.c ****     }
 576              		.loc 1 401 31 is_stmt 0 view .LVU205
 577 0074 A36A     		ldr	r3, [r4, #40]
 401:HALLIB/STM32F4xx_HAL_Driver/Src/stm32f4xx_hal_dcmi.c ****     }
 578              		.loc 1 401 42 view .LVU206
 579 0076 5B00     		lsls	r3, r3, #1
 401:HALLIB/STM32F4xx_HAL_Driver/Src/stm32f4xx_hal_dcmi.c ****     }
 580              		.loc 1 401 24 view .LVU207
 581 0078 A362     		str	r3, [r4, #40]
 582              	.L30:
 398:HALLIB/STM32F4xx_HAL_Driver/Src/stm32f4xx_hal_dcmi.c ****     {
 583              		.loc 1 398 10 is_stmt 1 view .LVU208
 398:HALLIB/STM32F4xx_HAL_Driver/Src/stm32f4xx_hal_dcmi.c ****     {
 584              		.loc 1 398 16 is_stmt 0 view .LVU209
 585 007a E36A     		ldr	r3, [r4, #44]
 398:HALLIB/STM32F4xx_HAL_Driver/Src/stm32f4xx_hal_dcmi.c ****     {
 586              		.loc 1 398 10 view .LVU210
 587 007c B3F5803F 		cmp	r3, #65536
 588 0080 F5D2     		bcs	.L31
 405:HALLIB/STM32F4xx_HAL_Driver/Src/stm32f4xx_hal_dcmi.c ****     hdcmi->XferTransferNumber = hdcmi->XferCount;
 589              		.loc 1 405 5 is_stmt 1 view .LVU211
 405:HALLIB/STM32F4xx_HAL_Driver/Src/stm32f4xx_hal_dcmi.c ****     hdcmi->XferTransferNumber = hdcmi->XferCount;
 590              		.loc 1 405 30 is_stmt 0 view .LVU212
 591 0082 A36A     		ldr	r3, [r4, #40]
 405:HALLIB/STM32F4xx_HAL_Driver/Src/stm32f4xx_hal_dcmi.c ****     hdcmi->XferTransferNumber = hdcmi->XferCount;
 592              		.loc 1 405 42 view .LVU213
 593 0084 023B     		subs	r3, r3, #2
 405:HALLIB/STM32F4xx_HAL_Driver/Src/stm32f4xx_hal_dcmi.c ****     hdcmi->XferTransferNumber = hdcmi->XferCount;
 594              		.loc 1 405 22 view .LVU214
 595 0086 A362     		str	r3, [r4, #40]
 406:HALLIB/STM32F4xx_HAL_Driver/Src/stm32f4xx_hal_dcmi.c **** 
 596              		.loc 1 406 5 is_stmt 1 view .LVU215
 406:HALLIB/STM32F4xx_HAL_Driver/Src/stm32f4xx_hal_dcmi.c **** 
 597              		.loc 1 406 38 is_stmt 0 view .LVU216
 598 0088 A36A     		ldr	r3, [r4, #40]
 406:HALLIB/STM32F4xx_HAL_Driver/Src/stm32f4xx_hal_dcmi.c **** 
 599              		.loc 1 406 31 view .LVU217
 600 008a 2363     		str	r3, [r4, #48]
 409:HALLIB/STM32F4xx_HAL_Driver/Src/stm32f4xx_hal_dcmi.c **** 
 601              		.loc 1 409 5 is_stmt 1 view .LVU218
 409:HALLIB/STM32F4xx_HAL_Driver/Src/stm32f4xx_hal_dcmi.c **** 
 602              		.loc 1 409 52 is_stmt 0 view .LVU219
 603 008c E36A     		ldr	r3, [r4, #44]
 604              	.LVL33:
 412:HALLIB/STM32F4xx_HAL_Driver/Src/stm32f4xx_hal_dcmi.c ****   }
 605              		.loc 1 412 5 is_stmt 1 view .LVU220
 412:HALLIB/STM32F4xx_HAL_Driver/Src/stm32f4xx_hal_dcmi.c ****   }
 606              		.loc 1 412 70 is_stmt 0 view .LVU221
 607 008e 2168     		ldr	r1, [r4]
 412:HALLIB/STM32F4xx_HAL_Driver/Src/stm32f4xx_hal_dcmi.c ****   }
 608              		.loc 1 412 5 view .LVU222
 609 0090 E06A     		ldr	r0, [r4, #44]
ARM GAS  /tmp/ccK4D7wz.s 			page 34


 610 0092 0090     		str	r0, [sp]
 611 0094 02EB8303 		add	r3, r2, r3, lsl #2
 612              	.LVL34:
 412:HALLIB/STM32F4xx_HAL_Driver/Src/stm32f4xx_hal_dcmi.c ****   }
 613              		.loc 1 412 5 view .LVU223
 614 0098 2831     		adds	r1, r1, #40
 615 009a A06B     		ldr	r0, [r4, #56]
 616 009c FFF7FEFF 		bl	HAL_DMAEx_MultiBufferStart_IT
 617              	.LVL35:
 618              	.L29:
 416:HALLIB/STM32F4xx_HAL_Driver/Src/stm32f4xx_hal_dcmi.c **** 
 619              		.loc 1 416 3 is_stmt 1 view .LVU224
 416:HALLIB/STM32F4xx_HAL_Driver/Src/stm32f4xx_hal_dcmi.c **** 
 620              		.loc 1 416 8 is_stmt 0 view .LVU225
 621 00a0 2268     		ldr	r2, [r4]
 416:HALLIB/STM32F4xx_HAL_Driver/Src/stm32f4xx_hal_dcmi.c **** 
 622              		.loc 1 416 23 view .LVU226
 623 00a2 1368     		ldr	r3, [r2]
 624 00a4 43F00103 		orr	r3, r3, #1
 625 00a8 1360     		str	r3, [r2]
 419:HALLIB/STM32F4xx_HAL_Driver/Src/stm32f4xx_hal_dcmi.c **** 
 626              		.loc 1 419 3 is_stmt 1 view .LVU227
 419:HALLIB/STM32F4xx_HAL_Driver/Src/stm32f4xx_hal_dcmi.c **** 
 627              		.loc 1 419 3 view .LVU228
 628 00aa 0020     		movs	r0, #0
 629 00ac 84F82400 		strb	r0, [r4, #36]
 419:HALLIB/STM32F4xx_HAL_Driver/Src/stm32f4xx_hal_dcmi.c **** 
 630              		.loc 1 419 3 view .LVU229
 422:HALLIB/STM32F4xx_HAL_Driver/Src/stm32f4xx_hal_dcmi.c **** }
 631              		.loc 1 422 3 view .LVU230
 632              	.L27:
 423:HALLIB/STM32F4xx_HAL_Driver/Src/stm32f4xx_hal_dcmi.c **** 
 633              		.loc 1 423 1 is_stmt 0 view .LVU231
 634 00b0 03B0     		add	sp, sp, #12
 635              	.LCFI6:
 636              		.cfi_remember_state
 637              		.cfi_def_cfa_offset 12
 638              		@ sp needed
 639 00b2 30BD     		pop	{r4, r5, pc}
 640              	.LVL36:
 641              	.L32:
 642              	.LCFI7:
 643              		.cfi_restore_state
 357:HALLIB/STM32F4xx_HAL_Driver/Src/stm32f4xx_hal_dcmi.c **** 
 644              		.loc 1 357 3 view .LVU232
 645 00b4 0220     		movs	r0, #2
 646 00b6 FBE7     		b	.L27
 647              	.L36:
 648              		.align	2
 649              	.L35:
 650 00b8 00000000 		.word	DCMI_DMAXferCplt
 651 00bc 00000000 		.word	DCMI_DMAError
 652              		.cfi_endproc
 653              	.LFE136:
 655              		.section	.text.HAL_DCMI_Stop,"ax",%progbits
 656              		.align	1
 657              		.global	HAL_DCMI_Stop
ARM GAS  /tmp/ccK4D7wz.s 			page 35


 658              		.syntax unified
 659              		.thumb
 660              		.thumb_func
 661              		.fpu fpv4-sp-d16
 663              	HAL_DCMI_Stop:
 664              	.LVL37:
 665              	.LFB137:
 432:HALLIB/STM32F4xx_HAL_Driver/Src/stm32f4xx_hal_dcmi.c ****   __IO uint32_t count = SystemCoreClock / HAL_TIMEOUT_DCMI_STOP;
 666              		.loc 1 432 1 is_stmt 1 view -0
 667              		.cfi_startproc
 668              		@ args = 0, pretend = 0, frame = 8
 669              		@ frame_needed = 0, uses_anonymous_args = 0
 432:HALLIB/STM32F4xx_HAL_Driver/Src/stm32f4xx_hal_dcmi.c ****   __IO uint32_t count = SystemCoreClock / HAL_TIMEOUT_DCMI_STOP;
 670              		.loc 1 432 1 is_stmt 0 view .LVU234
 671 0000 30B5     		push	{r4, r5, lr}
 672              	.LCFI8:
 673              		.cfi_def_cfa_offset 12
 674              		.cfi_offset 4, -12
 675              		.cfi_offset 5, -8
 676              		.cfi_offset 14, -4
 677 0002 83B0     		sub	sp, sp, #12
 678              	.LCFI9:
 679              		.cfi_def_cfa_offset 24
 433:HALLIB/STM32F4xx_HAL_Driver/Src/stm32f4xx_hal_dcmi.c ****   HAL_StatusTypeDef status = HAL_OK;
 680              		.loc 1 433 3 is_stmt 1 view .LVU235
 433:HALLIB/STM32F4xx_HAL_Driver/Src/stm32f4xx_hal_dcmi.c ****   HAL_StatusTypeDef status = HAL_OK;
 681              		.loc 1 433 41 is_stmt 0 view .LVU236
 682 0004 1E4B     		ldr	r3, .L45
 683 0006 1B68     		ldr	r3, [r3]
 684 0008 5B08     		lsrs	r3, r3, #1
 685 000a 1E4A     		ldr	r2, .L45+4
 686 000c A2FB0323 		umull	r2, r3, r2, r3
 687 0010 9B08     		lsrs	r3, r3, #2
 433:HALLIB/STM32F4xx_HAL_Driver/Src/stm32f4xx_hal_dcmi.c ****   HAL_StatusTypeDef status = HAL_OK;
 688              		.loc 1 433 17 view .LVU237
 689 0012 0193     		str	r3, [sp, #4]
 434:HALLIB/STM32F4xx_HAL_Driver/Src/stm32f4xx_hal_dcmi.c **** 
 690              		.loc 1 434 3 is_stmt 1 view .LVU238
 691              	.LVL38:
 437:HALLIB/STM32F4xx_HAL_Driver/Src/stm32f4xx_hal_dcmi.c ****   
 692              		.loc 1 437 3 view .LVU239
 437:HALLIB/STM32F4xx_HAL_Driver/Src/stm32f4xx_hal_dcmi.c ****   
 693              		.loc 1 437 3 view .LVU240
 694 0014 90F82430 		ldrb	r3, [r0, #36]	@ zero_extendqisi2
 695 0018 012B     		cmp	r3, #1
 696 001a 2ED0     		beq	.L42
 697 001c 0446     		mov	r4, r0
 437:HALLIB/STM32F4xx_HAL_Driver/Src/stm32f4xx_hal_dcmi.c ****   
 698              		.loc 1 437 3 discriminator 2 view .LVU241
 699 001e 0123     		movs	r3, #1
 700 0020 80F82430 		strb	r3, [r0, #36]
 437:HALLIB/STM32F4xx_HAL_Driver/Src/stm32f4xx_hal_dcmi.c ****   
 701              		.loc 1 437 3 discriminator 2 view .LVU242
 440:HALLIB/STM32F4xx_HAL_Driver/Src/stm32f4xx_hal_dcmi.c **** 
 702              		.loc 1 440 3 discriminator 2 view .LVU243
 440:HALLIB/STM32F4xx_HAL_Driver/Src/stm32f4xx_hal_dcmi.c **** 
 703              		.loc 1 440 16 is_stmt 0 discriminator 2 view .LVU244
ARM GAS  /tmp/ccK4D7wz.s 			page 36


 704 0024 0223     		movs	r3, #2
 705 0026 80F82530 		strb	r3, [r0, #37]
 443:HALLIB/STM32F4xx_HAL_Driver/Src/stm32f4xx_hal_dcmi.c **** 
 706              		.loc 1 443 3 is_stmt 1 discriminator 2 view .LVU245
 443:HALLIB/STM32F4xx_HAL_Driver/Src/stm32f4xx_hal_dcmi.c **** 
 707              		.loc 1 443 8 is_stmt 0 discriminator 2 view .LVU246
 708 002a 0268     		ldr	r2, [r0]
 443:HALLIB/STM32F4xx_HAL_Driver/Src/stm32f4xx_hal_dcmi.c **** 
 709              		.loc 1 443 23 discriminator 2 view .LVU247
 710 002c 1368     		ldr	r3, [r2]
 711 002e 23F00103 		bic	r3, r3, #1
 712 0032 1360     		str	r3, [r2]
 713              	.L41:
 446:HALLIB/STM32F4xx_HAL_Driver/Src/stm32f4xx_hal_dcmi.c ****   {
 714              		.loc 1 446 3 is_stmt 1 view .LVU248
 448:HALLIB/STM32F4xx_HAL_Driver/Src/stm32f4xx_hal_dcmi.c ****     {
 715              		.loc 1 448 5 view .LVU249
 448:HALLIB/STM32F4xx_HAL_Driver/Src/stm32f4xx_hal_dcmi.c ****     {
 716              		.loc 1 448 14 is_stmt 0 view .LVU250
 717 0034 019B     		ldr	r3, [sp, #4]
 718 0036 5A1E     		subs	r2, r3, #1
 719 0038 0192     		str	r2, [sp, #4]
 448:HALLIB/STM32F4xx_HAL_Driver/Src/stm32f4xx_hal_dcmi.c ****     {
 720              		.loc 1 448 8 view .LVU251
 721 003a 33B1     		cbz	r3, .L44
 457:HALLIB/STM32F4xx_HAL_Driver/Src/stm32f4xx_hal_dcmi.c **** 
 722              		.loc 1 457 8 is_stmt 1 view .LVU252
 457:HALLIB/STM32F4xx_HAL_Driver/Src/stm32f4xx_hal_dcmi.c **** 
 723              		.loc 1 457 15 is_stmt 0 view .LVU253
 724 003c 2368     		ldr	r3, [r4]
 457:HALLIB/STM32F4xx_HAL_Driver/Src/stm32f4xx_hal_dcmi.c **** 
 725              		.loc 1 457 25 view .LVU254
 726 003e 1B68     		ldr	r3, [r3]
 457:HALLIB/STM32F4xx_HAL_Driver/Src/stm32f4xx_hal_dcmi.c **** 
 727              		.loc 1 457 3 view .LVU255
 728 0040 13F0010F 		tst	r3, #1
 729 0044 F6D1     		bne	.L41
 434:HALLIB/STM32F4xx_HAL_Driver/Src/stm32f4xx_hal_dcmi.c **** 
 730              		.loc 1 434 21 view .LVU256
 731 0046 0025     		movs	r5, #0
 732 0048 04E0     		b	.L40
 733              	.L44:
 451:HALLIB/STM32F4xx_HAL_Driver/Src/stm32f4xx_hal_dcmi.c **** 
 734              		.loc 1 451 7 is_stmt 1 view .LVU257
 451:HALLIB/STM32F4xx_HAL_Driver/Src/stm32f4xx_hal_dcmi.c **** 
 735              		.loc 1 451 24 is_stmt 0 view .LVU258
 736 004a E36B     		ldr	r3, [r4, #60]
 737 004c 43F02003 		orr	r3, r3, #32
 738 0050 E363     		str	r3, [r4, #60]
 453:HALLIB/STM32F4xx_HAL_Driver/Src/stm32f4xx_hal_dcmi.c ****       break;
 739              		.loc 1 453 7 is_stmt 1 view .LVU259
 740              	.LVL39:
 454:HALLIB/STM32F4xx_HAL_Driver/Src/stm32f4xx_hal_dcmi.c ****     }
 741              		.loc 1 454 7 view .LVU260
 453:HALLIB/STM32F4xx_HAL_Driver/Src/stm32f4xx_hal_dcmi.c ****       break;
 742              		.loc 1 453 14 is_stmt 0 view .LVU261
 743 0052 0325     		movs	r5, #3
ARM GAS  /tmp/ccK4D7wz.s 			page 37


 744              	.LVL40:
 745              	.L40:
 460:HALLIB/STM32F4xx_HAL_Driver/Src/stm32f4xx_hal_dcmi.c **** 
 746              		.loc 1 460 3 is_stmt 1 view .LVU262
 747 0054 2268     		ldr	r2, [r4]
 748 0056 1368     		ldr	r3, [r2]
 749 0058 23F48043 		bic	r3, r3, #16384
 750 005c 1360     		str	r3, [r2]
 463:HALLIB/STM32F4xx_HAL_Driver/Src/stm32f4xx_hal_dcmi.c **** 
 751              		.loc 1 463 3 view .LVU263
 752 005e A06B     		ldr	r0, [r4, #56]
 753              	.LVL41:
 463:HALLIB/STM32F4xx_HAL_Driver/Src/stm32f4xx_hal_dcmi.c **** 
 754              		.loc 1 463 3 is_stmt 0 view .LVU264
 755 0060 FFF7FEFF 		bl	HAL_DMA_Abort
 756              	.LVL42:
 466:HALLIB/STM32F4xx_HAL_Driver/Src/stm32f4xx_hal_dcmi.c **** 
 757              		.loc 1 466 3 is_stmt 1 view .LVU265
 466:HALLIB/STM32F4xx_HAL_Driver/Src/stm32f4xx_hal_dcmi.c **** 
 758              		.loc 1 466 20 is_stmt 0 view .LVU266
 759 0064 E36B     		ldr	r3, [r4, #60]
 760 0066 E363     		str	r3, [r4, #60]
 469:HALLIB/STM32F4xx_HAL_Driver/Src/stm32f4xx_hal_dcmi.c **** 
 761              		.loc 1 469 3 is_stmt 1 view .LVU267
 469:HALLIB/STM32F4xx_HAL_Driver/Src/stm32f4xx_hal_dcmi.c **** 
 762              		.loc 1 469 16 is_stmt 0 view .LVU268
 763 0068 0123     		movs	r3, #1
 764 006a 84F82530 		strb	r3, [r4, #37]
 472:HALLIB/STM32F4xx_HAL_Driver/Src/stm32f4xx_hal_dcmi.c **** 
 765              		.loc 1 472 3 is_stmt 1 view .LVU269
 472:HALLIB/STM32F4xx_HAL_Driver/Src/stm32f4xx_hal_dcmi.c **** 
 766              		.loc 1 472 3 view .LVU270
 767 006e 0023     		movs	r3, #0
 768 0070 84F82430 		strb	r3, [r4, #36]
 472:HALLIB/STM32F4xx_HAL_Driver/Src/stm32f4xx_hal_dcmi.c **** 
 769              		.loc 1 472 3 view .LVU271
 475:HALLIB/STM32F4xx_HAL_Driver/Src/stm32f4xx_hal_dcmi.c **** }
 770              		.loc 1 475 3 view .LVU272
 771              	.LVL43:
 772              	.L38:
 476:HALLIB/STM32F4xx_HAL_Driver/Src/stm32f4xx_hal_dcmi.c **** 
 773              		.loc 1 476 1 is_stmt 0 view .LVU273
 774 0074 2846     		mov	r0, r5
 775 0076 03B0     		add	sp, sp, #12
 776              	.LCFI10:
 777              		.cfi_remember_state
 778              		.cfi_def_cfa_offset 12
 779              		@ sp needed
 780 0078 30BD     		pop	{r4, r5, pc}
 781              	.LVL44:
 782              	.L42:
 783              	.LCFI11:
 784              		.cfi_restore_state
 437:HALLIB/STM32F4xx_HAL_Driver/Src/stm32f4xx_hal_dcmi.c ****   
 785              		.loc 1 437 3 view .LVU274
 786 007a 0225     		movs	r5, #2
 787 007c FAE7     		b	.L38
ARM GAS  /tmp/ccK4D7wz.s 			page 38


 788              	.L46:
 789 007e 00BF     		.align	2
 790              	.L45:
 791 0080 00000000 		.word	SystemCoreClock
 792 0084 93244992 		.word	-1840700269
 793              		.cfi_endproc
 794              	.LFE137:
 796              		.section	.text.HAL_DCMI_Suspend,"ax",%progbits
 797              		.align	1
 798              		.global	HAL_DCMI_Suspend
 799              		.syntax unified
 800              		.thumb
 801              		.thumb_func
 802              		.fpu fpv4-sp-d16
 804              	HAL_DCMI_Suspend:
 805              	.LVL45:
 806              	.LFB138:
 485:HALLIB/STM32F4xx_HAL_Driver/Src/stm32f4xx_hal_dcmi.c ****   __IO uint32_t count = SystemCoreClock / HAL_TIMEOUT_DCMI_STOP;
 807              		.loc 1 485 1 is_stmt 1 view -0
 808              		.cfi_startproc
 809              		@ args = 0, pretend = 0, frame = 8
 810              		@ frame_needed = 0, uses_anonymous_args = 0
 811              		@ link register save eliminated.
 485:HALLIB/STM32F4xx_HAL_Driver/Src/stm32f4xx_hal_dcmi.c ****   __IO uint32_t count = SystemCoreClock / HAL_TIMEOUT_DCMI_STOP;
 812              		.loc 1 485 1 is_stmt 0 view .LVU276
 813 0000 82B0     		sub	sp, sp, #8
 814              	.LCFI12:
 815              		.cfi_def_cfa_offset 8
 486:HALLIB/STM32F4xx_HAL_Driver/Src/stm32f4xx_hal_dcmi.c ****   HAL_StatusTypeDef status = HAL_OK;
 816              		.loc 1 486 3 is_stmt 1 view .LVU277
 486:HALLIB/STM32F4xx_HAL_Driver/Src/stm32f4xx_hal_dcmi.c ****   HAL_StatusTypeDef status = HAL_OK;
 817              		.loc 1 486 41 is_stmt 0 view .LVU278
 818 0002 1C4A     		ldr	r2, .L57
 819 0004 1268     		ldr	r2, [r2]
 820 0006 5208     		lsrs	r2, r2, #1
 821 0008 1B49     		ldr	r1, .L57+4
 822 000a A1FB0212 		umull	r1, r2, r1, r2
 823 000e 9208     		lsrs	r2, r2, #2
 486:HALLIB/STM32F4xx_HAL_Driver/Src/stm32f4xx_hal_dcmi.c ****   HAL_StatusTypeDef status = HAL_OK;
 824              		.loc 1 486 17 view .LVU279
 825 0010 0192     		str	r2, [sp, #4]
 487:HALLIB/STM32F4xx_HAL_Driver/Src/stm32f4xx_hal_dcmi.c **** 
 826              		.loc 1 487 3 is_stmt 1 view .LVU280
 827              	.LVL46:
 490:HALLIB/STM32F4xx_HAL_Driver/Src/stm32f4xx_hal_dcmi.c **** 
 828              		.loc 1 490 3 view .LVU281
 490:HALLIB/STM32F4xx_HAL_Driver/Src/stm32f4xx_hal_dcmi.c **** 
 829              		.loc 1 490 3 view .LVU282
 830 0012 90F82420 		ldrb	r2, [r0, #36]	@ zero_extendqisi2
 831 0016 012A     		cmp	r2, #1
 832 0018 2AD0     		beq	.L52
 833 001a 0346     		mov	r3, r0
 490:HALLIB/STM32F4xx_HAL_Driver/Src/stm32f4xx_hal_dcmi.c **** 
 834              		.loc 1 490 3 discriminator 2 view .LVU283
 835 001c 0122     		movs	r2, #1
 836 001e 80F82420 		strb	r2, [r0, #36]
 490:HALLIB/STM32F4xx_HAL_Driver/Src/stm32f4xx_hal_dcmi.c **** 
ARM GAS  /tmp/ccK4D7wz.s 			page 39


 837              		.loc 1 490 3 discriminator 2 view .LVU284
 492:HALLIB/STM32F4xx_HAL_Driver/Src/stm32f4xx_hal_dcmi.c ****   {
 838              		.loc 1 492 3 discriminator 2 view .LVU285
 492:HALLIB/STM32F4xx_HAL_Driver/Src/stm32f4xx_hal_dcmi.c ****   {
 839              		.loc 1 492 11 is_stmt 0 discriminator 2 view .LVU286
 840 0022 90F82520 		ldrb	r2, [r0, #37]	@ zero_extendqisi2
 841 0026 D2B2     		uxtb	r2, r2
 492:HALLIB/STM32F4xx_HAL_Driver/Src/stm32f4xx_hal_dcmi.c ****   {
 842              		.loc 1 492 5 discriminator 2 view .LVU287
 843 0028 022A     		cmp	r2, #2
 844 002a 05D0     		beq	.L55
 487:HALLIB/STM32F4xx_HAL_Driver/Src/stm32f4xx_hal_dcmi.c **** 
 845              		.loc 1 487 21 view .LVU288
 846 002c 0020     		movs	r0, #0
 847              	.LVL47:
 848              	.L49:
 518:HALLIB/STM32F4xx_HAL_Driver/Src/stm32f4xx_hal_dcmi.c ****   
 849              		.loc 1 518 3 is_stmt 1 view .LVU289
 518:HALLIB/STM32F4xx_HAL_Driver/Src/stm32f4xx_hal_dcmi.c ****   
 850              		.loc 1 518 3 view .LVU290
 851 002e 0022     		movs	r2, #0
 852 0030 83F82420 		strb	r2, [r3, #36]
 518:HALLIB/STM32F4xx_HAL_Driver/Src/stm32f4xx_hal_dcmi.c ****   
 853              		.loc 1 518 3 view .LVU291
 521:HALLIB/STM32F4xx_HAL_Driver/Src/stm32f4xx_hal_dcmi.c **** }
 854              		.loc 1 521 3 view .LVU292
 855              	.LVL48:
 856              	.L48:
 522:HALLIB/STM32F4xx_HAL_Driver/Src/stm32f4xx_hal_dcmi.c **** 
 857              		.loc 1 522 1 is_stmt 0 view .LVU293
 858 0034 02B0     		add	sp, sp, #8
 859              	.LCFI13:
 860              		.cfi_remember_state
 861              		.cfi_def_cfa_offset 0
 862              		@ sp needed
 863 0036 7047     		bx	lr
 864              	.LVL49:
 865              	.L55:
 866              	.LCFI14:
 867              		.cfi_restore_state
 495:HALLIB/STM32F4xx_HAL_Driver/Src/stm32f4xx_hal_dcmi.c **** 
 868              		.loc 1 495 5 is_stmt 1 view .LVU294
 495:HALLIB/STM32F4xx_HAL_Driver/Src/stm32f4xx_hal_dcmi.c **** 
 869              		.loc 1 495 18 is_stmt 0 view .LVU295
 870 0038 0522     		movs	r2, #5
 871 003a 80F82520 		strb	r2, [r0, #37]
 498:HALLIB/STM32F4xx_HAL_Driver/Src/stm32f4xx_hal_dcmi.c **** 
 872              		.loc 1 498 5 is_stmt 1 view .LVU296
 498:HALLIB/STM32F4xx_HAL_Driver/Src/stm32f4xx_hal_dcmi.c **** 
 873              		.loc 1 498 10 is_stmt 0 view .LVU297
 874 003e 0168     		ldr	r1, [r0]
 498:HALLIB/STM32F4xx_HAL_Driver/Src/stm32f4xx_hal_dcmi.c **** 
 875              		.loc 1 498 25 view .LVU298
 876 0040 0A68     		ldr	r2, [r1]
 877 0042 22F00102 		bic	r2, r2, #1
 878 0046 0A60     		str	r2, [r1]
 879              	.L51:
ARM GAS  /tmp/ccK4D7wz.s 			page 40


 501:HALLIB/STM32F4xx_HAL_Driver/Src/stm32f4xx_hal_dcmi.c ****     {
 880              		.loc 1 501 5 is_stmt 1 view .LVU299
 503:HALLIB/STM32F4xx_HAL_Driver/Src/stm32f4xx_hal_dcmi.c ****       {        
 881              		.loc 1 503 7 view .LVU300
 503:HALLIB/STM32F4xx_HAL_Driver/Src/stm32f4xx_hal_dcmi.c ****       {        
 882              		.loc 1 503 16 is_stmt 0 view .LVU301
 883 0048 019A     		ldr	r2, [sp, #4]
 884 004a 511E     		subs	r1, r2, #1
 885 004c 0191     		str	r1, [sp, #4]
 503:HALLIB/STM32F4xx_HAL_Driver/Src/stm32f4xx_hal_dcmi.c ****       {        
 886              		.loc 1 503 10 view .LVU302
 887 004e 32B1     		cbz	r2, .L56
 515:HALLIB/STM32F4xx_HAL_Driver/Src/stm32f4xx_hal_dcmi.c ****   }    
 888              		.loc 1 515 10 is_stmt 1 view .LVU303
 515:HALLIB/STM32F4xx_HAL_Driver/Src/stm32f4xx_hal_dcmi.c ****   }    
 889              		.loc 1 515 17 is_stmt 0 view .LVU304
 890 0050 1A68     		ldr	r2, [r3]
 515:HALLIB/STM32F4xx_HAL_Driver/Src/stm32f4xx_hal_dcmi.c ****   }    
 891              		.loc 1 515 27 view .LVU305
 892 0052 1268     		ldr	r2, [r2]
 515:HALLIB/STM32F4xx_HAL_Driver/Src/stm32f4xx_hal_dcmi.c ****   }    
 893              		.loc 1 515 5 view .LVU306
 894 0054 12F0010F 		tst	r2, #1
 895 0058 F6D1     		bne	.L51
 487:HALLIB/STM32F4xx_HAL_Driver/Src/stm32f4xx_hal_dcmi.c **** 
 896              		.loc 1 487 21 view .LVU307
 897 005a 0020     		movs	r0, #0
 898              	.LVL50:
 487:HALLIB/STM32F4xx_HAL_Driver/Src/stm32f4xx_hal_dcmi.c **** 
 899              		.loc 1 487 21 view .LVU308
 900 005c E7E7     		b	.L49
 901              	.LVL51:
 902              	.L56:
 506:HALLIB/STM32F4xx_HAL_Driver/Src/stm32f4xx_hal_dcmi.c ****         
 903              		.loc 1 506 9 is_stmt 1 view .LVU309
 506:HALLIB/STM32F4xx_HAL_Driver/Src/stm32f4xx_hal_dcmi.c ****         
 904              		.loc 1 506 26 is_stmt 0 view .LVU310
 905 005e DA6B     		ldr	r2, [r3, #60]
 906 0060 42F02002 		orr	r2, r2, #32
 907 0064 DA63     		str	r2, [r3, #60]
 509:HALLIB/STM32F4xx_HAL_Driver/Src/stm32f4xx_hal_dcmi.c ****         
 908              		.loc 1 509 9 is_stmt 1 view .LVU311
 509:HALLIB/STM32F4xx_HAL_Driver/Src/stm32f4xx_hal_dcmi.c ****         
 909              		.loc 1 509 22 is_stmt 0 view .LVU312
 910 0066 0122     		movs	r2, #1
 911 0068 83F82520 		strb	r2, [r3, #37]
 511:HALLIB/STM32F4xx_HAL_Driver/Src/stm32f4xx_hal_dcmi.c ****         break;
 912              		.loc 1 511 9 is_stmt 1 view .LVU313
 913              	.LVL52:
 512:HALLIB/STM32F4xx_HAL_Driver/Src/stm32f4xx_hal_dcmi.c ****       }
 914              		.loc 1 512 9 view .LVU314
 511:HALLIB/STM32F4xx_HAL_Driver/Src/stm32f4xx_hal_dcmi.c ****         break;
 915              		.loc 1 511 16 is_stmt 0 view .LVU315
 916 006c 0320     		movs	r0, #3
 917              	.LVL53:
 512:HALLIB/STM32F4xx_HAL_Driver/Src/stm32f4xx_hal_dcmi.c ****       }
 918              		.loc 1 512 9 view .LVU316
ARM GAS  /tmp/ccK4D7wz.s 			page 41


 919 006e DEE7     		b	.L49
 920              	.LVL54:
 921              	.L52:
 490:HALLIB/STM32F4xx_HAL_Driver/Src/stm32f4xx_hal_dcmi.c **** 
 922              		.loc 1 490 3 view .LVU317
 923 0070 0220     		movs	r0, #2
 924              	.LVL55:
 490:HALLIB/STM32F4xx_HAL_Driver/Src/stm32f4xx_hal_dcmi.c **** 
 925              		.loc 1 490 3 view .LVU318
 926 0072 DFE7     		b	.L48
 927              	.L58:
 928              		.align	2
 929              	.L57:
 930 0074 00000000 		.word	SystemCoreClock
 931 0078 93244992 		.word	-1840700269
 932              		.cfi_endproc
 933              	.LFE138:
 935              		.section	.text.HAL_DCMI_Resume,"ax",%progbits
 936              		.align	1
 937              		.global	HAL_DCMI_Resume
 938              		.syntax unified
 939              		.thumb
 940              		.thumb_func
 941              		.fpu fpv4-sp-d16
 943              	HAL_DCMI_Resume:
 944              	.LVL56:
 945              	.LFB139:
 531:HALLIB/STM32F4xx_HAL_Driver/Src/stm32f4xx_hal_dcmi.c ****   /* Process locked */
 946              		.loc 1 531 1 is_stmt 1 view -0
 947              		.cfi_startproc
 948              		@ args = 0, pretend = 0, frame = 0
 949              		@ frame_needed = 0, uses_anonymous_args = 0
 950              		@ link register save eliminated.
 533:HALLIB/STM32F4xx_HAL_Driver/Src/stm32f4xx_hal_dcmi.c ****   
 951              		.loc 1 533 3 view .LVU320
 533:HALLIB/STM32F4xx_HAL_Driver/Src/stm32f4xx_hal_dcmi.c ****   
 952              		.loc 1 533 3 view .LVU321
 953 0000 90F82430 		ldrb	r3, [r0, #36]	@ zero_extendqisi2
 954 0004 012B     		cmp	r3, #1
 955 0006 15D0     		beq	.L62
 533:HALLIB/STM32F4xx_HAL_Driver/Src/stm32f4xx_hal_dcmi.c ****   
 956              		.loc 1 533 3 discriminator 2 view .LVU322
 957 0008 0123     		movs	r3, #1
 958 000a 80F82430 		strb	r3, [r0, #36]
 533:HALLIB/STM32F4xx_HAL_Driver/Src/stm32f4xx_hal_dcmi.c ****   
 959              		.loc 1 533 3 discriminator 2 view .LVU323
 535:HALLIB/STM32F4xx_HAL_Driver/Src/stm32f4xx_hal_dcmi.c ****   {
 960              		.loc 1 535 3 discriminator 2 view .LVU324
 535:HALLIB/STM32F4xx_HAL_Driver/Src/stm32f4xx_hal_dcmi.c ****   {
 961              		.loc 1 535 11 is_stmt 0 discriminator 2 view .LVU325
 962 000e 90F82530 		ldrb	r3, [r0, #37]	@ zero_extendqisi2
 963 0012 DBB2     		uxtb	r3, r3
 535:HALLIB/STM32F4xx_HAL_Driver/Src/stm32f4xx_hal_dcmi.c ****   {
 964              		.loc 1 535 5 discriminator 2 view .LVU326
 965 0014 052B     		cmp	r3, #5
 966 0016 04D0     		beq	.L63
 967              	.L61:
ARM GAS  /tmp/ccK4D7wz.s 			page 42


 544:HALLIB/STM32F4xx_HAL_Driver/Src/stm32f4xx_hal_dcmi.c ****   
 968              		.loc 1 544 3 is_stmt 1 view .LVU327
 544:HALLIB/STM32F4xx_HAL_Driver/Src/stm32f4xx_hal_dcmi.c ****   
 969              		.loc 1 544 3 view .LVU328
 970 0018 0023     		movs	r3, #0
 971 001a 80F82430 		strb	r3, [r0, #36]
 544:HALLIB/STM32F4xx_HAL_Driver/Src/stm32f4xx_hal_dcmi.c ****   
 972              		.loc 1 544 3 view .LVU329
 547:HALLIB/STM32F4xx_HAL_Driver/Src/stm32f4xx_hal_dcmi.c **** }
 973              		.loc 1 547 3 view .LVU330
 547:HALLIB/STM32F4xx_HAL_Driver/Src/stm32f4xx_hal_dcmi.c **** }
 974              		.loc 1 547 10 is_stmt 0 view .LVU331
 975 001e 1846     		mov	r0, r3
 976              	.LVL57:
 547:HALLIB/STM32F4xx_HAL_Driver/Src/stm32f4xx_hal_dcmi.c **** }
 977              		.loc 1 547 10 view .LVU332
 978 0020 7047     		bx	lr
 979              	.LVL58:
 980              	.L63:
 538:HALLIB/STM32F4xx_HAL_Driver/Src/stm32f4xx_hal_dcmi.c ****     
 981              		.loc 1 538 5 is_stmt 1 view .LVU333
 538:HALLIB/STM32F4xx_HAL_Driver/Src/stm32f4xx_hal_dcmi.c ****     
 982              		.loc 1 538 18 is_stmt 0 view .LVU334
 983 0022 0223     		movs	r3, #2
 984 0024 80F82530 		strb	r3, [r0, #37]
 541:HALLIB/STM32F4xx_HAL_Driver/Src/stm32f4xx_hal_dcmi.c ****   } 
 985              		.loc 1 541 5 is_stmt 1 view .LVU335
 541:HALLIB/STM32F4xx_HAL_Driver/Src/stm32f4xx_hal_dcmi.c ****   } 
 986              		.loc 1 541 10 is_stmt 0 view .LVU336
 987 0028 0268     		ldr	r2, [r0]
 541:HALLIB/STM32F4xx_HAL_Driver/Src/stm32f4xx_hal_dcmi.c ****   } 
 988              		.loc 1 541 25 view .LVU337
 989 002a 1368     		ldr	r3, [r2]
 990 002c 43F00103 		orr	r3, r3, #1
 991 0030 1360     		str	r3, [r2]
 992 0032 F1E7     		b	.L61
 993              	.L62:
 533:HALLIB/STM32F4xx_HAL_Driver/Src/stm32f4xx_hal_dcmi.c ****   
 994              		.loc 1 533 3 view .LVU338
 995 0034 0220     		movs	r0, #2
 996              	.LVL59:
 548:HALLIB/STM32F4xx_HAL_Driver/Src/stm32f4xx_hal_dcmi.c **** 
 997              		.loc 1 548 1 view .LVU339
 998 0036 7047     		bx	lr
 999              		.cfi_endproc
 1000              	.LFE139:
 1002              		.section	.text.HAL_DCMI_ErrorCallback,"ax",%progbits
 1003              		.align	1
 1004              		.weak	HAL_DCMI_ErrorCallback
 1005              		.syntax unified
 1006              		.thumb
 1007              		.thumb_func
 1008              		.fpu fpv4-sp-d16
 1010              	HAL_DCMI_ErrorCallback:
 1011              	.LVL60:
 1012              	.LFB141:
 654:HALLIB/STM32F4xx_HAL_Driver/Src/stm32f4xx_hal_dcmi.c ****   /* Prevent unused argument(s) compilation warning */
ARM GAS  /tmp/ccK4D7wz.s 			page 43


 1013              		.loc 1 654 1 is_stmt 1 view -0
 1014              		.cfi_startproc
 1015              		@ args = 0, pretend = 0, frame = 0
 1016              		@ frame_needed = 0, uses_anonymous_args = 0
 1017              		@ link register save eliminated.
 656:HALLIB/STM32F4xx_HAL_Driver/Src/stm32f4xx_hal_dcmi.c ****   /* NOTE : This function Should not be modified, when the callback is needed,
 1018              		.loc 1 656 3 view .LVU341
 660:HALLIB/STM32F4xx_HAL_Driver/Src/stm32f4xx_hal_dcmi.c **** 
 1019              		.loc 1 660 1 is_stmt 0 view .LVU342
 1020 0000 7047     		bx	lr
 1021              		.cfi_endproc
 1022              	.LFE141:
 1024              		.section	.text.DCMI_DMAError,"ax",%progbits
 1025              		.align	1
 1026              		.syntax unified
 1027              		.thumb
 1028              		.thumb_func
 1029              		.fpu fpv4-sp-d16
 1031              	DCMI_DMAError:
 1032              	.LVL61:
 1033              	.LFB151:
1087:HALLIB/STM32F4xx_HAL_Driver/Src/stm32f4xx_hal_dcmi.c **** 
1088:HALLIB/STM32F4xx_HAL_Driver/Src/stm32f4xx_hal_dcmi.c **** /**
1089:HALLIB/STM32F4xx_HAL_Driver/Src/stm32f4xx_hal_dcmi.c ****   * @brief  DMA error callback 
1090:HALLIB/STM32F4xx_HAL_Driver/Src/stm32f4xx_hal_dcmi.c ****   * @param  hdma pointer to a DMA_HandleTypeDef structure that contains
1091:HALLIB/STM32F4xx_HAL_Driver/Src/stm32f4xx_hal_dcmi.c ****   *                the configuration information for the specified DMA module.
1092:HALLIB/STM32F4xx_HAL_Driver/Src/stm32f4xx_hal_dcmi.c ****   * @retval None
1093:HALLIB/STM32F4xx_HAL_Driver/Src/stm32f4xx_hal_dcmi.c ****   */
1094:HALLIB/STM32F4xx_HAL_Driver/Src/stm32f4xx_hal_dcmi.c **** static void DCMI_DMAError(DMA_HandleTypeDef *hdma)
1095:HALLIB/STM32F4xx_HAL_Driver/Src/stm32f4xx_hal_dcmi.c **** {
 1034              		.loc 1 1095 1 is_stmt 1 view -0
 1035              		.cfi_startproc
 1036              		@ args = 0, pretend = 0, frame = 0
 1037              		@ frame_needed = 0, uses_anonymous_args = 0
 1038              		.loc 1 1095 1 is_stmt 0 view .LVU344
 1039 0000 08B5     		push	{r3, lr}
 1040              	.LCFI15:
 1041              		.cfi_def_cfa_offset 8
 1042              		.cfi_offset 3, -8
 1043              		.cfi_offset 14, -4
1096:HALLIB/STM32F4xx_HAL_Driver/Src/stm32f4xx_hal_dcmi.c ****   DCMI_HandleTypeDef* hdcmi = ( DCMI_HandleTypeDef* )((DMA_HandleTypeDef* )hdma)->Parent;
 1044              		.loc 1 1096 3 is_stmt 1 view .LVU345
 1045              		.loc 1 1096 23 is_stmt 0 view .LVU346
 1046 0002 806B     		ldr	r0, [r0, #56]
 1047              	.LVL62:
1097:HALLIB/STM32F4xx_HAL_Driver/Src/stm32f4xx_hal_dcmi.c ****   
1098:HALLIB/STM32F4xx_HAL_Driver/Src/stm32f4xx_hal_dcmi.c ****   if(hdcmi->DMA_Handle->ErrorCode != HAL_DMA_ERROR_FE)
 1048              		.loc 1 1098 3 is_stmt 1 view .LVU347
 1049              		.loc 1 1098 11 is_stmt 0 view .LVU348
 1050 0004 836B     		ldr	r3, [r0, #56]
 1051              		.loc 1 1098 23 view .LVU349
 1052 0006 5B6D     		ldr	r3, [r3, #84]
 1053              		.loc 1 1098 5 view .LVU350
 1054 0008 022B     		cmp	r3, #2
 1055 000a 02D0     		beq	.L66
1099:HALLIB/STM32F4xx_HAL_Driver/Src/stm32f4xx_hal_dcmi.c ****   {
1100:HALLIB/STM32F4xx_HAL_Driver/Src/stm32f4xx_hal_dcmi.c ****     /* Initialize the DCMI state*/
ARM GAS  /tmp/ccK4D7wz.s 			page 44


1101:HALLIB/STM32F4xx_HAL_Driver/Src/stm32f4xx_hal_dcmi.c ****     hdcmi->State = HAL_DCMI_STATE_READY;
 1056              		.loc 1 1101 5 is_stmt 1 view .LVU351
 1057              		.loc 1 1101 18 is_stmt 0 view .LVU352
 1058 000c 0123     		movs	r3, #1
 1059 000e 80F82530 		strb	r3, [r0, #37]
 1060              	.L66:
1102:HALLIB/STM32F4xx_HAL_Driver/Src/stm32f4xx_hal_dcmi.c ****   }
1103:HALLIB/STM32F4xx_HAL_Driver/Src/stm32f4xx_hal_dcmi.c **** 
1104:HALLIB/STM32F4xx_HAL_Driver/Src/stm32f4xx_hal_dcmi.c ****   /* DCMI error Callback */
1105:HALLIB/STM32F4xx_HAL_Driver/Src/stm32f4xx_hal_dcmi.c **** #if (USE_HAL_DCMI_REGISTER_CALLBACKS == 1)
1106:HALLIB/STM32F4xx_HAL_Driver/Src/stm32f4xx_hal_dcmi.c ****     /*Call registered DCMI error callback*/
1107:HALLIB/STM32F4xx_HAL_Driver/Src/stm32f4xx_hal_dcmi.c ****     hdcmi->ErrorCallback(hdcmi);
1108:HALLIB/STM32F4xx_HAL_Driver/Src/stm32f4xx_hal_dcmi.c **** #else  
1109:HALLIB/STM32F4xx_HAL_Driver/Src/stm32f4xx_hal_dcmi.c ****   HAL_DCMI_ErrorCallback(hdcmi);
 1061              		.loc 1 1109 3 is_stmt 1 view .LVU353
 1062 0012 FFF7FEFF 		bl	HAL_DCMI_ErrorCallback
 1063              	.LVL63:
1110:HALLIB/STM32F4xx_HAL_Driver/Src/stm32f4xx_hal_dcmi.c **** #endif /* USE_HAL_DCMI_REGISTER_CALLBACKS */   
1111:HALLIB/STM32F4xx_HAL_Driver/Src/stm32f4xx_hal_dcmi.c **** 
1112:HALLIB/STM32F4xx_HAL_Driver/Src/stm32f4xx_hal_dcmi.c **** }
 1064              		.loc 1 1112 1 is_stmt 0 view .LVU354
 1065 0016 08BD     		pop	{r3, pc}
 1066              		.cfi_endproc
 1067              	.LFE151:
 1069              		.section	.text.HAL_DCMI_LineEventCallback,"ax",%progbits
 1070              		.align	1
 1071              		.weak	HAL_DCMI_LineEventCallback
 1072              		.syntax unified
 1073              		.thumb
 1074              		.thumb_func
 1075              		.fpu fpv4-sp-d16
 1077              	HAL_DCMI_LineEventCallback:
 1078              	.LVL64:
 1079              	.LFB142:
 669:HALLIB/STM32F4xx_HAL_Driver/Src/stm32f4xx_hal_dcmi.c ****   /* Prevent unused argument(s) compilation warning */
 1080              		.loc 1 669 1 is_stmt 1 view -0
 1081              		.cfi_startproc
 1082              		@ args = 0, pretend = 0, frame = 0
 1083              		@ frame_needed = 0, uses_anonymous_args = 0
 1084              		@ link register save eliminated.
 671:HALLIB/STM32F4xx_HAL_Driver/Src/stm32f4xx_hal_dcmi.c ****   /* NOTE : This function Should not be modified, when the callback is needed,
 1085              		.loc 1 671 3 view .LVU356
 675:HALLIB/STM32F4xx_HAL_Driver/Src/stm32f4xx_hal_dcmi.c **** 
 1086              		.loc 1 675 1 is_stmt 0 view .LVU357
 1087 0000 7047     		bx	lr
 1088              		.cfi_endproc
 1089              	.LFE142:
 1091              		.section	.text.HAL_DCMI_VsyncEventCallback,"ax",%progbits
 1092              		.align	1
 1093              		.weak	HAL_DCMI_VsyncEventCallback
 1094              		.syntax unified
 1095              		.thumb
 1096              		.thumb_func
 1097              		.fpu fpv4-sp-d16
 1099              	HAL_DCMI_VsyncEventCallback:
 1100              	.LVL65:
 1101              	.LFB143:
ARM GAS  /tmp/ccK4D7wz.s 			page 45


 684:HALLIB/STM32F4xx_HAL_Driver/Src/stm32f4xx_hal_dcmi.c ****   /* Prevent unused argument(s) compilation warning */
 1102              		.loc 1 684 1 is_stmt 1 view -0
 1103              		.cfi_startproc
 1104              		@ args = 0, pretend = 0, frame = 0
 1105              		@ frame_needed = 0, uses_anonymous_args = 0
 1106              		@ link register save eliminated.
 686:HALLIB/STM32F4xx_HAL_Driver/Src/stm32f4xx_hal_dcmi.c ****   /* NOTE : This function Should not be modified, when the callback is needed,
 1107              		.loc 1 686 3 view .LVU359
 690:HALLIB/STM32F4xx_HAL_Driver/Src/stm32f4xx_hal_dcmi.c **** 
 1108              		.loc 1 690 1 is_stmt 0 view .LVU360
 1109 0000 7047     		bx	lr
 1110              		.cfi_endproc
 1111              	.LFE143:
 1113              		.section	.text.HAL_DCMI_FrameEventCallback,"ax",%progbits
 1114              		.align	1
 1115              		.weak	HAL_DCMI_FrameEventCallback
 1116              		.syntax unified
 1117              		.thumb
 1118              		.thumb_func
 1119              		.fpu fpv4-sp-d16
 1121              	HAL_DCMI_FrameEventCallback:
 1122              	.LVL66:
 1123              	.LFB144:
 699:HALLIB/STM32F4xx_HAL_Driver/Src/stm32f4xx_hal_dcmi.c ****   /* Prevent unused argument(s) compilation warning */
 1124              		.loc 1 699 1 is_stmt 1 view -0
 1125              		.cfi_startproc
 1126              		@ args = 0, pretend = 0, frame = 0
 1127              		@ frame_needed = 0, uses_anonymous_args = 0
 1128              		@ link register save eliminated.
 701:HALLIB/STM32F4xx_HAL_Driver/Src/stm32f4xx_hal_dcmi.c ****   /* NOTE : This function Should not be modified, when the callback is needed,
 1129              		.loc 1 701 3 view .LVU362
 705:HALLIB/STM32F4xx_HAL_Driver/Src/stm32f4xx_hal_dcmi.c **** 
 1130              		.loc 1 705 1 is_stmt 0 view .LVU363
 1131 0000 7047     		bx	lr
 1132              		.cfi_endproc
 1133              	.LFE144:
 1135              		.section	.text.HAL_DCMI_IRQHandler,"ax",%progbits
 1136              		.align	1
 1137              		.global	HAL_DCMI_IRQHandler
 1138              		.syntax unified
 1139              		.thumb
 1140              		.thumb_func
 1141              		.fpu fpv4-sp-d16
 1143              	HAL_DCMI_IRQHandler:
 1144              	.LVL67:
 1145              	.LFB140:
 557:HALLIB/STM32F4xx_HAL_Driver/Src/stm32f4xx_hal_dcmi.c ****   uint32_t isr_value = READ_REG(hdcmi->Instance->MISR);
 1146              		.loc 1 557 1 is_stmt 1 view -0
 1147              		.cfi_startproc
 1148              		@ args = 0, pretend = 0, frame = 0
 1149              		@ frame_needed = 0, uses_anonymous_args = 0
 557:HALLIB/STM32F4xx_HAL_Driver/Src/stm32f4xx_hal_dcmi.c ****   uint32_t isr_value = READ_REG(hdcmi->Instance->MISR);
 1150              		.loc 1 557 1 is_stmt 0 view .LVU365
 1151 0000 38B5     		push	{r3, r4, r5, lr}
 1152              	.LCFI16:
 1153              		.cfi_def_cfa_offset 16
 1154              		.cfi_offset 3, -16
ARM GAS  /tmp/ccK4D7wz.s 			page 46


 1155              		.cfi_offset 4, -12
 1156              		.cfi_offset 5, -8
 1157              		.cfi_offset 14, -4
 1158 0002 0446     		mov	r4, r0
 558:HALLIB/STM32F4xx_HAL_Driver/Src/stm32f4xx_hal_dcmi.c **** 
 1159              		.loc 1 558 3 is_stmt 1 view .LVU366
 558:HALLIB/STM32F4xx_HAL_Driver/Src/stm32f4xx_hal_dcmi.c **** 
 1160              		.loc 1 558 24 is_stmt 0 view .LVU367
 1161 0004 0368     		ldr	r3, [r0]
 558:HALLIB/STM32F4xx_HAL_Driver/Src/stm32f4xx_hal_dcmi.c **** 
 1162              		.loc 1 558 12 view .LVU368
 1163 0006 1D69     		ldr	r5, [r3, #16]
 1164              	.LVL68:
 561:HALLIB/STM32F4xx_HAL_Driver/Src/stm32f4xx_hal_dcmi.c ****   {
 1165              		.loc 1 561 3 is_stmt 1 view .LVU369
 561:HALLIB/STM32F4xx_HAL_Driver/Src/stm32f4xx_hal_dcmi.c ****   {
 1166              		.loc 1 561 5 is_stmt 0 view .LVU370
 1167 0008 15F0040F 		tst	r5, #4
 1168 000c 1DD1     		bne	.L79
 1169              	.LVL69:
 1170              	.L72:
 579:HALLIB/STM32F4xx_HAL_Driver/Src/stm32f4xx_hal_dcmi.c ****   {
 1171              		.loc 1 579 3 is_stmt 1 view .LVU371
 579:HALLIB/STM32F4xx_HAL_Driver/Src/stm32f4xx_hal_dcmi.c ****   {
 1172              		.loc 1 579 5 is_stmt 0 view .LVU372
 1173 000e 15F0020F 		tst	r5, #2
 1174 0012 29D1     		bne	.L80
 1175              	.L73:
 597:HALLIB/STM32F4xx_HAL_Driver/Src/stm32f4xx_hal_dcmi.c ****   {
 1176              		.loc 1 597 3 is_stmt 1 view .LVU373
 597:HALLIB/STM32F4xx_HAL_Driver/Src/stm32f4xx_hal_dcmi.c ****   {
 1177              		.loc 1 597 5 is_stmt 0 view .LVU374
 1178 0014 15F0100F 		tst	r5, #16
 1179 0018 37D1     		bne	.L81
 1180              	.L74:
 611:HALLIB/STM32F4xx_HAL_Driver/Src/stm32f4xx_hal_dcmi.c ****   {
 1181              		.loc 1 611 3 is_stmt 1 view .LVU375
 611:HALLIB/STM32F4xx_HAL_Driver/Src/stm32f4xx_hal_dcmi.c ****   {
 1182              		.loc 1 611 5 is_stmt 0 view .LVU376
 1183 001a 15F0080F 		tst	r5, #8
 1184 001e 3BD1     		bne	.L82
 1185              	.L75:
 625:HALLIB/STM32F4xx_HAL_Driver/Src/stm32f4xx_hal_dcmi.c ****   {
 1186              		.loc 1 625 3 is_stmt 1 view .LVU377
 625:HALLIB/STM32F4xx_HAL_Driver/Src/stm32f4xx_hal_dcmi.c ****   {
 1187              		.loc 1 625 5 is_stmt 0 view .LVU378
 1188 0020 15F0010F 		tst	r5, #1
 1189 0024 10D0     		beq	.L71
 628:HALLIB/STM32F4xx_HAL_Driver/Src/stm32f4xx_hal_dcmi.c ****     { 
 1190              		.loc 1 628 5 is_stmt 1 view .LVU379
 628:HALLIB/STM32F4xx_HAL_Driver/Src/stm32f4xx_hal_dcmi.c ****     { 
 1191              		.loc 1 628 14 is_stmt 0 view .LVU380
 1192 0026 2368     		ldr	r3, [r4]
 628:HALLIB/STM32F4xx_HAL_Driver/Src/stm32f4xx_hal_dcmi.c ****     { 
 1193              		.loc 1 628 24 view .LVU381
 1194 0028 1A68     		ldr	r2, [r3]
 628:HALLIB/STM32F4xx_HAL_Driver/Src/stm32f4xx_hal_dcmi.c ****     { 
ARM GAS  /tmp/ccK4D7wz.s 			page 47


 1195              		.loc 1 628 7 view .LVU382
 1196 002a 12F0020F 		tst	r2, #2
 1197 002e 03D0     		beq	.L77
 631:HALLIB/STM32F4xx_HAL_Driver/Src/stm32f4xx_hal_dcmi.c ****     }
 1198              		.loc 1 631 7 is_stmt 1 view .LVU383
 1199 0030 DA68     		ldr	r2, [r3, #12]
 1200 0032 22F01E02 		bic	r2, r2, #30
 1201 0036 DA60     		str	r2, [r3, #12]
 1202              	.L77:
 635:HALLIB/STM32F4xx_HAL_Driver/Src/stm32f4xx_hal_dcmi.c **** 
 1203              		.loc 1 635 5 view .LVU384
 1204 0038 2268     		ldr	r2, [r4]
 1205 003a D368     		ldr	r3, [r2, #12]
 1206 003c 23F00103 		bic	r3, r3, #1
 1207 0040 D360     		str	r3, [r2, #12]
 642:HALLIB/STM32F4xx_HAL_Driver/Src/stm32f4xx_hal_dcmi.c **** #endif /* USE_HAL_DCMI_REGISTER_CALLBACKS */      
 1208              		.loc 1 642 5 view .LVU385
 1209 0042 2046     		mov	r0, r4
 1210 0044 FFF7FEFF 		bl	HAL_DCMI_FrameEventCallback
 1211              	.LVL70:
 1212              	.L71:
 645:HALLIB/STM32F4xx_HAL_Driver/Src/stm32f4xx_hal_dcmi.c **** 
 1213              		.loc 1 645 1 is_stmt 0 view .LVU386
 1214 0048 38BD     		pop	{r3, r4, r5, pc}
 1215              	.LVL71:
 1216              	.L79:
 564:HALLIB/STM32F4xx_HAL_Driver/Src/stm32f4xx_hal_dcmi.c **** 
 1217              		.loc 1 564 5 is_stmt 1 view .LVU387
 1218 004a 0422     		movs	r2, #4
 1219 004c 5A61     		str	r2, [r3, #20]
 567:HALLIB/STM32F4xx_HAL_Driver/Src/stm32f4xx_hal_dcmi.c **** 
 1220              		.loc 1 567 5 view .LVU388
 567:HALLIB/STM32F4xx_HAL_Driver/Src/stm32f4xx_hal_dcmi.c **** 
 1221              		.loc 1 567 22 is_stmt 0 view .LVU389
 1222 004e C36B     		ldr	r3, [r0, #60]
 1223 0050 43F00203 		orr	r3, r3, #2
 1224 0054 C363     		str	r3, [r0, #60]
 570:HALLIB/STM32F4xx_HAL_Driver/Src/stm32f4xx_hal_dcmi.c ****     
 1225              		.loc 1 570 5 is_stmt 1 view .LVU390
 570:HALLIB/STM32F4xx_HAL_Driver/Src/stm32f4xx_hal_dcmi.c ****     
 1226              		.loc 1 570 18 is_stmt 0 view .LVU391
 1227 0056 80F82520 		strb	r2, [r0, #37]
 573:HALLIB/STM32F4xx_HAL_Driver/Src/stm32f4xx_hal_dcmi.c **** 
 1228              		.loc 1 573 5 is_stmt 1 view .LVU392
 573:HALLIB/STM32F4xx_HAL_Driver/Src/stm32f4xx_hal_dcmi.c **** 
 1229              		.loc 1 573 10 is_stmt 0 view .LVU393
 1230 005a 836B     		ldr	r3, [r0, #56]
 573:HALLIB/STM32F4xx_HAL_Driver/Src/stm32f4xx_hal_dcmi.c **** 
 1231              		.loc 1 573 42 view .LVU394
 1232 005c 124A     		ldr	r2, .L83
 1233 005e 1A65     		str	r2, [r3, #80]
 576:HALLIB/STM32F4xx_HAL_Driver/Src/stm32f4xx_hal_dcmi.c ****   }
 1234              		.loc 1 576 5 is_stmt 1 view .LVU395
 1235 0060 806B     		ldr	r0, [r0, #56]
 1236              	.LVL72:
 576:HALLIB/STM32F4xx_HAL_Driver/Src/stm32f4xx_hal_dcmi.c ****   }
 1237              		.loc 1 576 5 is_stmt 0 view .LVU396
ARM GAS  /tmp/ccK4D7wz.s 			page 48


 1238 0062 FFF7FEFF 		bl	HAL_DMA_Abort_IT
 1239              	.LVL73:
 1240 0066 D2E7     		b	.L72
 1241              	.L80:
 582:HALLIB/STM32F4xx_HAL_Driver/Src/stm32f4xx_hal_dcmi.c **** 
 1242              		.loc 1 582 5 is_stmt 1 view .LVU397
 1243 0068 2368     		ldr	r3, [r4]
 1244 006a 0222     		movs	r2, #2
 1245 006c 5A61     		str	r2, [r3, #20]
 585:HALLIB/STM32F4xx_HAL_Driver/Src/stm32f4xx_hal_dcmi.c **** 
 1246              		.loc 1 585 5 view .LVU398
 585:HALLIB/STM32F4xx_HAL_Driver/Src/stm32f4xx_hal_dcmi.c **** 
 1247              		.loc 1 585 22 is_stmt 0 view .LVU399
 1248 006e E36B     		ldr	r3, [r4, #60]
 1249 0070 43F00103 		orr	r3, r3, #1
 1250 0074 E363     		str	r3, [r4, #60]
 588:HALLIB/STM32F4xx_HAL_Driver/Src/stm32f4xx_hal_dcmi.c ****     
 1251              		.loc 1 588 5 is_stmt 1 view .LVU400
 588:HALLIB/STM32F4xx_HAL_Driver/Src/stm32f4xx_hal_dcmi.c ****     
 1252              		.loc 1 588 18 is_stmt 0 view .LVU401
 1253 0076 0423     		movs	r3, #4
 1254 0078 84F82530 		strb	r3, [r4, #37]
 591:HALLIB/STM32F4xx_HAL_Driver/Src/stm32f4xx_hal_dcmi.c **** 
 1255              		.loc 1 591 5 is_stmt 1 view .LVU402
 591:HALLIB/STM32F4xx_HAL_Driver/Src/stm32f4xx_hal_dcmi.c **** 
 1256              		.loc 1 591 10 is_stmt 0 view .LVU403
 1257 007c A36B     		ldr	r3, [r4, #56]
 591:HALLIB/STM32F4xx_HAL_Driver/Src/stm32f4xx_hal_dcmi.c **** 
 1258              		.loc 1 591 42 view .LVU404
 1259 007e 0A4A     		ldr	r2, .L83
 1260 0080 1A65     		str	r2, [r3, #80]
 594:HALLIB/STM32F4xx_HAL_Driver/Src/stm32f4xx_hal_dcmi.c ****   }
 1261              		.loc 1 594 5 is_stmt 1 view .LVU405
 1262 0082 A06B     		ldr	r0, [r4, #56]
 1263 0084 FFF7FEFF 		bl	HAL_DMA_Abort_IT
 1264              	.LVL74:
 1265 0088 C4E7     		b	.L73
 1266              	.L81:
 600:HALLIB/STM32F4xx_HAL_Driver/Src/stm32f4xx_hal_dcmi.c ****     
 1267              		.loc 1 600 5 view .LVU406
 1268 008a 2368     		ldr	r3, [r4]
 1269 008c 1022     		movs	r2, #16
 1270 008e 5A61     		str	r2, [r3, #20]
 607:HALLIB/STM32F4xx_HAL_Driver/Src/stm32f4xx_hal_dcmi.c **** #endif /* USE_HAL_DCMI_REGISTER_CALLBACKS */     
 1271              		.loc 1 607 5 view .LVU407
 1272 0090 2046     		mov	r0, r4
 1273 0092 FFF7FEFF 		bl	HAL_DCMI_LineEventCallback
 1274              	.LVL75:
 1275 0096 C0E7     		b	.L74
 1276              	.L82:
 614:HALLIB/STM32F4xx_HAL_Driver/Src/stm32f4xx_hal_dcmi.c ****     
 1277              		.loc 1 614 5 view .LVU408
 1278 0098 2368     		ldr	r3, [r4]
 1279 009a 0822     		movs	r2, #8
 1280 009c 5A61     		str	r2, [r3, #20]
 621:HALLIB/STM32F4xx_HAL_Driver/Src/stm32f4xx_hal_dcmi.c **** #endif /* USE_HAL_DCMI_REGISTER_CALLBACKS */ 
 1281              		.loc 1 621 5 view .LVU409
ARM GAS  /tmp/ccK4D7wz.s 			page 49


 1282 009e 2046     		mov	r0, r4
 1283 00a0 FFF7FEFF 		bl	HAL_DCMI_VsyncEventCallback
 1284              	.LVL76:
 1285 00a4 BCE7     		b	.L75
 1286              	.L84:
 1287 00a6 00BF     		.align	2
 1288              	.L83:
 1289 00a8 00000000 		.word	DCMI_DMAError
 1290              		.cfi_endproc
 1291              	.LFE140:
 1293              		.section	.text.HAL_DCMI_ConfigCrop,"ax",%progbits
 1294              		.align	1
 1295              		.global	HAL_DCMI_ConfigCrop
 1296              		.syntax unified
 1297              		.thumb
 1298              		.thumb_func
 1299              		.fpu fpv4-sp-d16
 1301              	HAL_DCMI_ConfigCrop:
 1302              	.LVL77:
 1303              	.LFB145:
 737:HALLIB/STM32F4xx_HAL_Driver/Src/stm32f4xx_hal_dcmi.c ****   /* Process Locked */
 1304              		.loc 1 737 1 view -0
 1305              		.cfi_startproc
 1306              		@ args = 4, pretend = 0, frame = 0
 1307              		@ frame_needed = 0, uses_anonymous_args = 0
 1308              		@ link register save eliminated.
 737:HALLIB/STM32F4xx_HAL_Driver/Src/stm32f4xx_hal_dcmi.c ****   /* Process Locked */
 1309              		.loc 1 737 1 is_stmt 0 view .LVU411
 1310 0000 30B4     		push	{r4, r5}
 1311              	.LCFI17:
 1312              		.cfi_def_cfa_offset 8
 1313              		.cfi_offset 4, -8
 1314              		.cfi_offset 5, -4
 739:HALLIB/STM32F4xx_HAL_Driver/Src/stm32f4xx_hal_dcmi.c **** 
 1315              		.loc 1 739 3 is_stmt 1 view .LVU412
 739:HALLIB/STM32F4xx_HAL_Driver/Src/stm32f4xx_hal_dcmi.c **** 
 1316              		.loc 1 739 3 view .LVU413
 1317 0002 90F82440 		ldrb	r4, [r0, #36]	@ zero_extendqisi2
 1318 0006 012C     		cmp	r4, #1
 1319 0008 14D0     		beq	.L87
 739:HALLIB/STM32F4xx_HAL_Driver/Src/stm32f4xx_hal_dcmi.c **** 
 1320              		.loc 1 739 3 discriminator 2 view .LVU414
 739:HALLIB/STM32F4xx_HAL_Driver/Src/stm32f4xx_hal_dcmi.c **** 
 1321              		.loc 1 739 3 discriminator 2 view .LVU415
 742:HALLIB/STM32F4xx_HAL_Driver/Src/stm32f4xx_hal_dcmi.c **** 
 1322              		.loc 1 742 3 discriminator 2 view .LVU416
 742:HALLIB/STM32F4xx_HAL_Driver/Src/stm32f4xx_hal_dcmi.c **** 
 1323              		.loc 1 742 16 is_stmt 0 discriminator 2 view .LVU417
 1324 000a 0224     		movs	r4, #2
 1325 000c 80F82540 		strb	r4, [r0, #37]
 745:HALLIB/STM32F4xx_HAL_Driver/Src/stm32f4xx_hal_dcmi.c ****   assert_param(IS_DCMI_WINDOW_COORDINATE(YSize));
 1326              		.loc 1 745 3 is_stmt 1 discriminator 2 view .LVU418
 746:HALLIB/STM32F4xx_HAL_Driver/Src/stm32f4xx_hal_dcmi.c ****   assert_param(IS_DCMI_WINDOW_COORDINATE(XSize));
 1327              		.loc 1 746 3 discriminator 2 view .LVU419
 747:HALLIB/STM32F4xx_HAL_Driver/Src/stm32f4xx_hal_dcmi.c ****   assert_param(IS_DCMI_WINDOW_HEIGHT(Y0));
 1328              		.loc 1 747 3 discriminator 2 view .LVU420
 748:HALLIB/STM32F4xx_HAL_Driver/Src/stm32f4xx_hal_dcmi.c **** 
ARM GAS  /tmp/ccK4D7wz.s 			page 50


 1329              		.loc 1 748 3 discriminator 2 view .LVU421
 751:HALLIB/STM32F4xx_HAL_Driver/Src/stm32f4xx_hal_dcmi.c ****   hdcmi->Instance->CWSTRTR = (X0 | (Y0 << DCMI_POSITION_CWSTRT_VST));
 1330              		.loc 1 751 3 discriminator 2 view .LVU422
 751:HALLIB/STM32F4xx_HAL_Driver/Src/stm32f4xx_hal_dcmi.c ****   hdcmi->Instance->CWSTRTR = (X0 | (Y0 << DCMI_POSITION_CWSTRT_VST));
 1331              		.loc 1 751 8 is_stmt 0 discriminator 2 view .LVU423
 1332 0010 0468     		ldr	r4, [r0]
 751:HALLIB/STM32F4xx_HAL_Driver/Src/stm32f4xx_hal_dcmi.c ****   hdcmi->Instance->CWSTRTR = (X0 | (Y0 << DCMI_POSITION_CWSTRT_VST));
 1333              		.loc 1 751 37 discriminator 2 view .LVU424
 1334 0012 029D     		ldr	r5, [sp, #8]
 1335 0014 43EA0543 		orr	r3, r3, r5, lsl #16
 1336              	.LVL78:
 751:HALLIB/STM32F4xx_HAL_Driver/Src/stm32f4xx_hal_dcmi.c ****   hdcmi->Instance->CWSTRTR = (X0 | (Y0 << DCMI_POSITION_CWSTRT_VST));
 1337              		.loc 1 751 28 discriminator 2 view .LVU425
 1338 0018 6362     		str	r3, [r4, #36]
 752:HALLIB/STM32F4xx_HAL_Driver/Src/stm32f4xx_hal_dcmi.c **** 
 1339              		.loc 1 752 3 is_stmt 1 discriminator 2 view .LVU426
 752:HALLIB/STM32F4xx_HAL_Driver/Src/stm32f4xx_hal_dcmi.c **** 
 1340              		.loc 1 752 8 is_stmt 0 discriminator 2 view .LVU427
 1341 001a 0368     		ldr	r3, [r0]
 752:HALLIB/STM32F4xx_HAL_Driver/Src/stm32f4xx_hal_dcmi.c **** 
 1342              		.loc 1 752 34 discriminator 2 view .LVU428
 1343 001c 41EA0241 		orr	r1, r1, r2, lsl #16
 1344              	.LVL79:
 752:HALLIB/STM32F4xx_HAL_Driver/Src/stm32f4xx_hal_dcmi.c **** 
 1345              		.loc 1 752 28 discriminator 2 view .LVU429
 1346 0020 1962     		str	r1, [r3, #32]
 755:HALLIB/STM32F4xx_HAL_Driver/Src/stm32f4xx_hal_dcmi.c **** 
 1347              		.loc 1 755 3 is_stmt 1 discriminator 2 view .LVU430
 755:HALLIB/STM32F4xx_HAL_Driver/Src/stm32f4xx_hal_dcmi.c **** 
 1348              		.loc 1 755 17 is_stmt 0 discriminator 2 view .LVU431
 1349 0022 0123     		movs	r3, #1
 1350 0024 80F82530 		strb	r3, [r0, #37]
 758:HALLIB/STM32F4xx_HAL_Driver/Src/stm32f4xx_hal_dcmi.c **** 
 1351              		.loc 1 758 3 is_stmt 1 discriminator 2 view .LVU432
 758:HALLIB/STM32F4xx_HAL_Driver/Src/stm32f4xx_hal_dcmi.c **** 
 1352              		.loc 1 758 3 discriminator 2 view .LVU433
 1353 0028 0023     		movs	r3, #0
 1354 002a 80F82430 		strb	r3, [r0, #36]
 758:HALLIB/STM32F4xx_HAL_Driver/Src/stm32f4xx_hal_dcmi.c **** 
 1355              		.loc 1 758 3 discriminator 2 view .LVU434
 760:HALLIB/STM32F4xx_HAL_Driver/Src/stm32f4xx_hal_dcmi.c **** }
 1356              		.loc 1 760 3 discriminator 2 view .LVU435
 760:HALLIB/STM32F4xx_HAL_Driver/Src/stm32f4xx_hal_dcmi.c **** }
 1357              		.loc 1 760 10 is_stmt 0 discriminator 2 view .LVU436
 1358 002e 1846     		mov	r0, r3
 1359              	.LVL80:
 1360              	.L86:
 761:HALLIB/STM32F4xx_HAL_Driver/Src/stm32f4xx_hal_dcmi.c **** 
 1361              		.loc 1 761 1 view .LVU437
 1362 0030 30BC     		pop	{r4, r5}
 1363              	.LCFI18:
 1364              		.cfi_remember_state
 1365              		.cfi_restore 5
 1366              		.cfi_restore 4
 1367              		.cfi_def_cfa_offset 0
 1368              	.LVL81:
 761:HALLIB/STM32F4xx_HAL_Driver/Src/stm32f4xx_hal_dcmi.c **** 
ARM GAS  /tmp/ccK4D7wz.s 			page 51


 1369              		.loc 1 761 1 view .LVU438
 1370 0032 7047     		bx	lr
 1371              	.LVL82:
 1372              	.L87:
 1373              	.LCFI19:
 1374              		.cfi_restore_state
 739:HALLIB/STM32F4xx_HAL_Driver/Src/stm32f4xx_hal_dcmi.c **** 
 1375              		.loc 1 739 3 view .LVU439
 1376 0034 0220     		movs	r0, #2
 1377              	.LVL83:
 739:HALLIB/STM32F4xx_HAL_Driver/Src/stm32f4xx_hal_dcmi.c **** 
 1378              		.loc 1 739 3 view .LVU440
 1379 0036 FBE7     		b	.L86
 1380              		.cfi_endproc
 1381              	.LFE145:
 1383              		.section	.text.HAL_DCMI_DisableCrop,"ax",%progbits
 1384              		.align	1
 1385              		.global	HAL_DCMI_DisableCrop
 1386              		.syntax unified
 1387              		.thumb
 1388              		.thumb_func
 1389              		.fpu fpv4-sp-d16
 1391              	HAL_DCMI_DisableCrop:
 1392              	.LVL84:
 1393              	.LFB146:
 770:HALLIB/STM32F4xx_HAL_Driver/Src/stm32f4xx_hal_dcmi.c ****   /* Process Locked */
 1394              		.loc 1 770 1 is_stmt 1 view -0
 1395              		.cfi_startproc
 1396              		@ args = 0, pretend = 0, frame = 0
 1397              		@ frame_needed = 0, uses_anonymous_args = 0
 1398              		@ link register save eliminated.
 772:HALLIB/STM32F4xx_HAL_Driver/Src/stm32f4xx_hal_dcmi.c **** 
 1399              		.loc 1 772 3 view .LVU442
 772:HALLIB/STM32F4xx_HAL_Driver/Src/stm32f4xx_hal_dcmi.c **** 
 1400              		.loc 1 772 3 view .LVU443
 1401 0000 90F82430 		ldrb	r3, [r0, #36]	@ zero_extendqisi2
 1402 0004 012B     		cmp	r3, #1
 1403 0006 11D0     		beq	.L91
 772:HALLIB/STM32F4xx_HAL_Driver/Src/stm32f4xx_hal_dcmi.c **** 
 1404              		.loc 1 772 3 discriminator 2 view .LVU444
 1405 0008 0122     		movs	r2, #1
 1406 000a 80F82420 		strb	r2, [r0, #36]
 772:HALLIB/STM32F4xx_HAL_Driver/Src/stm32f4xx_hal_dcmi.c **** 
 1407              		.loc 1 772 3 discriminator 2 view .LVU445
 775:HALLIB/STM32F4xx_HAL_Driver/Src/stm32f4xx_hal_dcmi.c **** 
 1408              		.loc 1 775 3 discriminator 2 view .LVU446
 775:HALLIB/STM32F4xx_HAL_Driver/Src/stm32f4xx_hal_dcmi.c **** 
 1409              		.loc 1 775 16 is_stmt 0 discriminator 2 view .LVU447
 1410 000e 0223     		movs	r3, #2
 1411 0010 80F82530 		strb	r3, [r0, #37]
 778:HALLIB/STM32F4xx_HAL_Driver/Src/stm32f4xx_hal_dcmi.c **** 
 1412              		.loc 1 778 3 is_stmt 1 discriminator 2 view .LVU448
 778:HALLIB/STM32F4xx_HAL_Driver/Src/stm32f4xx_hal_dcmi.c **** 
 1413              		.loc 1 778 8 is_stmt 0 discriminator 2 view .LVU449
 1414 0014 0168     		ldr	r1, [r0]
 778:HALLIB/STM32F4xx_HAL_Driver/Src/stm32f4xx_hal_dcmi.c **** 
 1415              		.loc 1 778 23 discriminator 2 view .LVU450
ARM GAS  /tmp/ccK4D7wz.s 			page 52


 1416 0016 0B68     		ldr	r3, [r1]
 1417 0018 23F00403 		bic	r3, r3, #4
 1418 001c 0B60     		str	r3, [r1]
 781:HALLIB/STM32F4xx_HAL_Driver/Src/stm32f4xx_hal_dcmi.c **** 
 1419              		.loc 1 781 3 is_stmt 1 discriminator 2 view .LVU451
 781:HALLIB/STM32F4xx_HAL_Driver/Src/stm32f4xx_hal_dcmi.c **** 
 1420              		.loc 1 781 16 is_stmt 0 discriminator 2 view .LVU452
 1421 001e 80F82520 		strb	r2, [r0, #37]
 784:HALLIB/STM32F4xx_HAL_Driver/Src/stm32f4xx_hal_dcmi.c **** 
 1422              		.loc 1 784 3 is_stmt 1 discriminator 2 view .LVU453
 784:HALLIB/STM32F4xx_HAL_Driver/Src/stm32f4xx_hal_dcmi.c **** 
 1423              		.loc 1 784 3 discriminator 2 view .LVU454
 1424 0022 0023     		movs	r3, #0
 1425 0024 80F82430 		strb	r3, [r0, #36]
 784:HALLIB/STM32F4xx_HAL_Driver/Src/stm32f4xx_hal_dcmi.c **** 
 1426              		.loc 1 784 3 discriminator 2 view .LVU455
 786:HALLIB/STM32F4xx_HAL_Driver/Src/stm32f4xx_hal_dcmi.c **** }
 1427              		.loc 1 786 3 discriminator 2 view .LVU456
 786:HALLIB/STM32F4xx_HAL_Driver/Src/stm32f4xx_hal_dcmi.c **** }
 1428              		.loc 1 786 10 is_stmt 0 discriminator 2 view .LVU457
 1429 0028 1846     		mov	r0, r3
 1430              	.LVL85:
 786:HALLIB/STM32F4xx_HAL_Driver/Src/stm32f4xx_hal_dcmi.c **** }
 1431              		.loc 1 786 10 discriminator 2 view .LVU458
 1432 002a 7047     		bx	lr
 1433              	.LVL86:
 1434              	.L91:
 772:HALLIB/STM32F4xx_HAL_Driver/Src/stm32f4xx_hal_dcmi.c **** 
 1435              		.loc 1 772 3 view .LVU459
 1436 002c 0220     		movs	r0, #2
 1437              	.LVL87:
 787:HALLIB/STM32F4xx_HAL_Driver/Src/stm32f4xx_hal_dcmi.c **** 
 1438              		.loc 1 787 1 view .LVU460
 1439 002e 7047     		bx	lr
 1440              		.cfi_endproc
 1441              	.LFE146:
 1443              		.section	.text.HAL_DCMI_EnableCrop,"ax",%progbits
 1444              		.align	1
 1445              		.global	HAL_DCMI_EnableCrop
 1446              		.syntax unified
 1447              		.thumb
 1448              		.thumb_func
 1449              		.fpu fpv4-sp-d16
 1451              	HAL_DCMI_EnableCrop:
 1452              	.LVL88:
 1453              	.LFB147:
 796:HALLIB/STM32F4xx_HAL_Driver/Src/stm32f4xx_hal_dcmi.c ****   /* Process Locked */
 1454              		.loc 1 796 1 is_stmt 1 view -0
 1455              		.cfi_startproc
 1456              		@ args = 0, pretend = 0, frame = 0
 1457              		@ frame_needed = 0, uses_anonymous_args = 0
 1458              		@ link register save eliminated.
 798:HALLIB/STM32F4xx_HAL_Driver/Src/stm32f4xx_hal_dcmi.c **** 
 1459              		.loc 1 798 3 view .LVU462
 798:HALLIB/STM32F4xx_HAL_Driver/Src/stm32f4xx_hal_dcmi.c **** 
 1460              		.loc 1 798 3 view .LVU463
 1461 0000 90F82430 		ldrb	r3, [r0, #36]	@ zero_extendqisi2
ARM GAS  /tmp/ccK4D7wz.s 			page 53


 1462 0004 012B     		cmp	r3, #1
 1463 0006 11D0     		beq	.L94
 798:HALLIB/STM32F4xx_HAL_Driver/Src/stm32f4xx_hal_dcmi.c **** 
 1464              		.loc 1 798 3 discriminator 2 view .LVU464
 1465 0008 0122     		movs	r2, #1
 1466 000a 80F82420 		strb	r2, [r0, #36]
 798:HALLIB/STM32F4xx_HAL_Driver/Src/stm32f4xx_hal_dcmi.c **** 
 1467              		.loc 1 798 3 discriminator 2 view .LVU465
 801:HALLIB/STM32F4xx_HAL_Driver/Src/stm32f4xx_hal_dcmi.c **** 
 1468              		.loc 1 801 3 discriminator 2 view .LVU466
 801:HALLIB/STM32F4xx_HAL_Driver/Src/stm32f4xx_hal_dcmi.c **** 
 1469              		.loc 1 801 16 is_stmt 0 discriminator 2 view .LVU467
 1470 000e 0223     		movs	r3, #2
 1471 0010 80F82530 		strb	r3, [r0, #37]
 804:HALLIB/STM32F4xx_HAL_Driver/Src/stm32f4xx_hal_dcmi.c **** 
 1472              		.loc 1 804 3 is_stmt 1 discriminator 2 view .LVU468
 804:HALLIB/STM32F4xx_HAL_Driver/Src/stm32f4xx_hal_dcmi.c **** 
 1473              		.loc 1 804 8 is_stmt 0 discriminator 2 view .LVU469
 1474 0014 0168     		ldr	r1, [r0]
 804:HALLIB/STM32F4xx_HAL_Driver/Src/stm32f4xx_hal_dcmi.c **** 
 1475              		.loc 1 804 23 discriminator 2 view .LVU470
 1476 0016 0B68     		ldr	r3, [r1]
 1477 0018 43F00403 		orr	r3, r3, #4
 1478 001c 0B60     		str	r3, [r1]
 807:HALLIB/STM32F4xx_HAL_Driver/Src/stm32f4xx_hal_dcmi.c **** 
 1479              		.loc 1 807 3 is_stmt 1 discriminator 2 view .LVU471
 807:HALLIB/STM32F4xx_HAL_Driver/Src/stm32f4xx_hal_dcmi.c **** 
 1480              		.loc 1 807 16 is_stmt 0 discriminator 2 view .LVU472
 1481 001e 80F82520 		strb	r2, [r0, #37]
 810:HALLIB/STM32F4xx_HAL_Driver/Src/stm32f4xx_hal_dcmi.c **** 
 1482              		.loc 1 810 3 is_stmt 1 discriminator 2 view .LVU473
 810:HALLIB/STM32F4xx_HAL_Driver/Src/stm32f4xx_hal_dcmi.c **** 
 1483              		.loc 1 810 3 discriminator 2 view .LVU474
 1484 0022 0023     		movs	r3, #0
 1485 0024 80F82430 		strb	r3, [r0, #36]
 810:HALLIB/STM32F4xx_HAL_Driver/Src/stm32f4xx_hal_dcmi.c **** 
 1486              		.loc 1 810 3 discriminator 2 view .LVU475
 812:HALLIB/STM32F4xx_HAL_Driver/Src/stm32f4xx_hal_dcmi.c **** }
 1487              		.loc 1 812 3 discriminator 2 view .LVU476
 812:HALLIB/STM32F4xx_HAL_Driver/Src/stm32f4xx_hal_dcmi.c **** }
 1488              		.loc 1 812 10 is_stmt 0 discriminator 2 view .LVU477
 1489 0028 1846     		mov	r0, r3
 1490              	.LVL89:
 812:HALLIB/STM32F4xx_HAL_Driver/Src/stm32f4xx_hal_dcmi.c **** }
 1491              		.loc 1 812 10 discriminator 2 view .LVU478
 1492 002a 7047     		bx	lr
 1493              	.LVL90:
 1494              	.L94:
 798:HALLIB/STM32F4xx_HAL_Driver/Src/stm32f4xx_hal_dcmi.c **** 
 1495              		.loc 1 798 3 view .LVU479
 1496 002c 0220     		movs	r0, #2
 1497              	.LVL91:
 813:HALLIB/STM32F4xx_HAL_Driver/Src/stm32f4xx_hal_dcmi.c **** 
 1498              		.loc 1 813 1 view .LVU480
 1499 002e 7047     		bx	lr
 1500              		.cfi_endproc
 1501              	.LFE147:
ARM GAS  /tmp/ccK4D7wz.s 			page 54


 1503              		.section	.text.HAL_DCMI_GetState,"ax",%progbits
 1504              		.align	1
 1505              		.global	HAL_DCMI_GetState
 1506              		.syntax unified
 1507              		.thumb
 1508              		.thumb_func
 1509              		.fpu fpv4-sp-d16
 1511              	HAL_DCMI_GetState:
 1512              	.LVL92:
 1513              	.LFB148:
 842:HALLIB/STM32F4xx_HAL_Driver/Src/stm32f4xx_hal_dcmi.c ****   return hdcmi->State;
 1514              		.loc 1 842 1 is_stmt 1 view -0
 1515              		.cfi_startproc
 1516              		@ args = 0, pretend = 0, frame = 0
 1517              		@ frame_needed = 0, uses_anonymous_args = 0
 1518              		@ link register save eliminated.
 843:HALLIB/STM32F4xx_HAL_Driver/Src/stm32f4xx_hal_dcmi.c **** }
 1519              		.loc 1 843 3 view .LVU482
 843:HALLIB/STM32F4xx_HAL_Driver/Src/stm32f4xx_hal_dcmi.c **** }
 1520              		.loc 1 843 15 is_stmt 0 view .LVU483
 1521 0000 90F82500 		ldrb	r0, [r0, #37]	@ zero_extendqisi2
 1522              	.LVL93:
 844:HALLIB/STM32F4xx_HAL_Driver/Src/stm32f4xx_hal_dcmi.c **** 
 1523              		.loc 1 844 1 view .LVU484
 1524 0004 7047     		bx	lr
 1525              		.cfi_endproc
 1526              	.LFE148:
 1528              		.section	.text.HAL_DCMI_GetError,"ax",%progbits
 1529              		.align	1
 1530              		.global	HAL_DCMI_GetError
 1531              		.syntax unified
 1532              		.thumb
 1533              		.thumb_func
 1534              		.fpu fpv4-sp-d16
 1536              	HAL_DCMI_GetError:
 1537              	.LVL94:
 1538              	.LFB149:
 853:HALLIB/STM32F4xx_HAL_Driver/Src/stm32f4xx_hal_dcmi.c ****   return hdcmi->ErrorCode;
 1539              		.loc 1 853 1 is_stmt 1 view -0
 1540              		.cfi_startproc
 1541              		@ args = 0, pretend = 0, frame = 0
 1542              		@ frame_needed = 0, uses_anonymous_args = 0
 1543              		@ link register save eliminated.
 854:HALLIB/STM32F4xx_HAL_Driver/Src/stm32f4xx_hal_dcmi.c **** }
 1544              		.loc 1 854 3 view .LVU486
 854:HALLIB/STM32F4xx_HAL_Driver/Src/stm32f4xx_hal_dcmi.c **** }
 1545              		.loc 1 854 15 is_stmt 0 view .LVU487
 1546 0000 C06B     		ldr	r0, [r0, #60]
 1547              	.LVL95:
 855:HALLIB/STM32F4xx_HAL_Driver/Src/stm32f4xx_hal_dcmi.c **** 
 1548              		.loc 1 855 1 view .LVU488
 1549 0002 7047     		bx	lr
 1550              		.cfi_endproc
 1551              	.LFE149:
 1553              		.text
 1554              	.Letext0:
 1555              		.file 2 "/opt/gcc_arm/gcc-arm-none-eabi-9-2019-q4-major/arm-none-eabi/include/machine/_default_typ
ARM GAS  /tmp/ccK4D7wz.s 			page 55


 1556              		.file 3 "/opt/gcc_arm/gcc-arm-none-eabi-9-2019-q4-major/arm-none-eabi/include/sys/_stdint.h"
 1557              		.file 4 "CORE/core_cm4.h"
 1558              		.file 5 "USER/system_stm32f4xx.h"
 1559              		.file 6 "USER/stm32f407xx.h"
 1560              		.file 7 "HALLIB/STM32F4xx_HAL_Driver/Inc/stm32f4xx_hal_def.h"
 1561              		.file 8 "HALLIB/STM32F4xx_HAL_Driver/Inc/stm32f4xx_hal_dma.h"
 1562              		.file 9 "HALLIB/STM32F4xx_HAL_Driver/Inc/stm32f4xx_hal_dma_ex.h"
 1563              		.file 10 "HALLIB/STM32F4xx_HAL_Driver/Inc/stm32f4xx_hal_dcmi_ex.h"
 1564              		.file 11 "HALLIB/STM32F4xx_HAL_Driver/Inc/stm32f4xx_hal_dcmi.h"
ARM GAS  /tmp/ccK4D7wz.s 			page 56


DEFINED SYMBOLS
                            *ABS*:0000000000000000 stm32f4xx_hal_dcmi.c
     /tmp/ccK4D7wz.s:18     .text.DCMI_DMAXferCplt:0000000000000000 $t
     /tmp/ccK4D7wz.s:25     .text.DCMI_DMAXferCplt:0000000000000000 DCMI_DMAXferCplt
     /tmp/ccK4D7wz.s:199    .text.HAL_DCMI_MspInit:0000000000000000 $t
     /tmp/ccK4D7wz.s:206    .text.HAL_DCMI_MspInit:0000000000000000 HAL_DCMI_MspInit
     /tmp/ccK4D7wz.s:221    .text.HAL_DCMI_Init:0000000000000000 $t
     /tmp/ccK4D7wz.s:228    .text.HAL_DCMI_Init:0000000000000000 HAL_DCMI_Init
     /tmp/ccK4D7wz.s:379    .text.HAL_DCMI_MspDeInit:0000000000000000 $t
     /tmp/ccK4D7wz.s:386    .text.HAL_DCMI_MspDeInit:0000000000000000 HAL_DCMI_MspDeInit
     /tmp/ccK4D7wz.s:401    .text.HAL_DCMI_DeInit:0000000000000000 $t
     /tmp/ccK4D7wz.s:408    .text.HAL_DCMI_DeInit:0000000000000000 HAL_DCMI_DeInit
     /tmp/ccK4D7wz.s:444    .text.HAL_DCMI_Start_DMA:0000000000000000 $t
     /tmp/ccK4D7wz.s:451    .text.HAL_DCMI_Start_DMA:0000000000000000 HAL_DCMI_Start_DMA
     /tmp/ccK4D7wz.s:650    .text.HAL_DCMI_Start_DMA:00000000000000b8 $d
     /tmp/ccK4D7wz.s:1031   .text.DCMI_DMAError:0000000000000000 DCMI_DMAError
     /tmp/ccK4D7wz.s:656    .text.HAL_DCMI_Stop:0000000000000000 $t
     /tmp/ccK4D7wz.s:663    .text.HAL_DCMI_Stop:0000000000000000 HAL_DCMI_Stop
     /tmp/ccK4D7wz.s:791    .text.HAL_DCMI_Stop:0000000000000080 $d
     /tmp/ccK4D7wz.s:797    .text.HAL_DCMI_Suspend:0000000000000000 $t
     /tmp/ccK4D7wz.s:804    .text.HAL_DCMI_Suspend:0000000000000000 HAL_DCMI_Suspend
     /tmp/ccK4D7wz.s:930    .text.HAL_DCMI_Suspend:0000000000000074 $d
     /tmp/ccK4D7wz.s:936    .text.HAL_DCMI_Resume:0000000000000000 $t
     /tmp/ccK4D7wz.s:943    .text.HAL_DCMI_Resume:0000000000000000 HAL_DCMI_Resume
     /tmp/ccK4D7wz.s:1003   .text.HAL_DCMI_ErrorCallback:0000000000000000 $t
     /tmp/ccK4D7wz.s:1010   .text.HAL_DCMI_ErrorCallback:0000000000000000 HAL_DCMI_ErrorCallback
     /tmp/ccK4D7wz.s:1025   .text.DCMI_DMAError:0000000000000000 $t
     /tmp/ccK4D7wz.s:1070   .text.HAL_DCMI_LineEventCallback:0000000000000000 $t
     /tmp/ccK4D7wz.s:1077   .text.HAL_DCMI_LineEventCallback:0000000000000000 HAL_DCMI_LineEventCallback
     /tmp/ccK4D7wz.s:1092   .text.HAL_DCMI_VsyncEventCallback:0000000000000000 $t
     /tmp/ccK4D7wz.s:1099   .text.HAL_DCMI_VsyncEventCallback:0000000000000000 HAL_DCMI_VsyncEventCallback
     /tmp/ccK4D7wz.s:1114   .text.HAL_DCMI_FrameEventCallback:0000000000000000 $t
     /tmp/ccK4D7wz.s:1121   .text.HAL_DCMI_FrameEventCallback:0000000000000000 HAL_DCMI_FrameEventCallback
     /tmp/ccK4D7wz.s:1136   .text.HAL_DCMI_IRQHandler:0000000000000000 $t
     /tmp/ccK4D7wz.s:1143   .text.HAL_DCMI_IRQHandler:0000000000000000 HAL_DCMI_IRQHandler
     /tmp/ccK4D7wz.s:1289   .text.HAL_DCMI_IRQHandler:00000000000000a8 $d
     /tmp/ccK4D7wz.s:1294   .text.HAL_DCMI_ConfigCrop:0000000000000000 $t
     /tmp/ccK4D7wz.s:1301   .text.HAL_DCMI_ConfigCrop:0000000000000000 HAL_DCMI_ConfigCrop
     /tmp/ccK4D7wz.s:1384   .text.HAL_DCMI_DisableCrop:0000000000000000 $t
     /tmp/ccK4D7wz.s:1391   .text.HAL_DCMI_DisableCrop:0000000000000000 HAL_DCMI_DisableCrop
     /tmp/ccK4D7wz.s:1444   .text.HAL_DCMI_EnableCrop:0000000000000000 $t
     /tmp/ccK4D7wz.s:1451   .text.HAL_DCMI_EnableCrop:0000000000000000 HAL_DCMI_EnableCrop
     /tmp/ccK4D7wz.s:1504   .text.HAL_DCMI_GetState:0000000000000000 $t
     /tmp/ccK4D7wz.s:1511   .text.HAL_DCMI_GetState:0000000000000000 HAL_DCMI_GetState
     /tmp/ccK4D7wz.s:1529   .text.HAL_DCMI_GetError:0000000000000000 $t
     /tmp/ccK4D7wz.s:1536   .text.HAL_DCMI_GetError:0000000000000000 HAL_DCMI_GetError

UNDEFINED SYMBOLS
HAL_DMAEx_ChangeMemory
HAL_DMA_Start_IT
HAL_DMAEx_MultiBufferStart_IT
HAL_DMA_Abort
SystemCoreClock
HAL_DMA_Abort_IT
