ARM GAS  /tmp/cce5sGk9.s 			page 1


   1              		.cpu cortex-m4
   2              		.eabi_attribute 27, 1
   3              		.eabi_attribute 28, 1
   4              		.eabi_attribute 20, 1
   5              		.eabi_attribute 21, 1
   6              		.eabi_attribute 23, 3
   7              		.eabi_attribute 24, 1
   8              		.eabi_attribute 25, 1
   9              		.eabi_attribute 26, 1
  10              		.eabi_attribute 30, 1
  11              		.eabi_attribute 34, 1
  12              		.eabi_attribute 18, 4
  13              		.file	"stm32f4xx_ll_sdmmc.c"
  14              		.text
  15              	.Ltext0:
  16              		.cfi_sections	.debug_frame
  17              		.section	.text.SDMMC_GetCmdError,"ax",%progbits
  18              		.align	1
  19              		.arch armv7e-m
  20              		.syntax unified
  21              		.thumb
  22              		.thumb_func
  23              		.fpu fpv4-sp-d16
  25              	SDMMC_GetCmdError:
  26              	.LVL0:
  27              	.LFB170:
  28              		.file 1 "HALLIB/STM32F4xx_HAL_Driver/Src/stm32f4xx_ll_sdmmc.c"
   1:HALLIB/STM32F4xx_HAL_Driver/Src/stm32f4xx_ll_sdmmc.c **** /**
   2:HALLIB/STM32F4xx_HAL_Driver/Src/stm32f4xx_ll_sdmmc.c ****   ******************************************************************************
   3:HALLIB/STM32F4xx_HAL_Driver/Src/stm32f4xx_ll_sdmmc.c ****   * @file    stm32f4xx_ll_sdmmc.c
   4:HALLIB/STM32F4xx_HAL_Driver/Src/stm32f4xx_ll_sdmmc.c ****   * @author  MCD Application Team
   5:HALLIB/STM32F4xx_HAL_Driver/Src/stm32f4xx_ll_sdmmc.c ****   * @brief   SDMMC Low Layer HAL module driver.
   6:HALLIB/STM32F4xx_HAL_Driver/Src/stm32f4xx_ll_sdmmc.c ****   *    
   7:HALLIB/STM32F4xx_HAL_Driver/Src/stm32f4xx_ll_sdmmc.c ****   *          This file provides firmware functions to manage the following 
   8:HALLIB/STM32F4xx_HAL_Driver/Src/stm32f4xx_ll_sdmmc.c ****   *          functionalities of the SDMMC peripheral:
   9:HALLIB/STM32F4xx_HAL_Driver/Src/stm32f4xx_ll_sdmmc.c ****   *           + Initialization/de-initialization functions
  10:HALLIB/STM32F4xx_HAL_Driver/Src/stm32f4xx_ll_sdmmc.c ****   *           + I/O operation functions
  11:HALLIB/STM32F4xx_HAL_Driver/Src/stm32f4xx_ll_sdmmc.c ****   *           + Peripheral Control functions 
  12:HALLIB/STM32F4xx_HAL_Driver/Src/stm32f4xx_ll_sdmmc.c ****   *           + Peripheral State functions
  13:HALLIB/STM32F4xx_HAL_Driver/Src/stm32f4xx_ll_sdmmc.c ****   *         
  14:HALLIB/STM32F4xx_HAL_Driver/Src/stm32f4xx_ll_sdmmc.c ****   @verbatim
  15:HALLIB/STM32F4xx_HAL_Driver/Src/stm32f4xx_ll_sdmmc.c ****   ==============================================================================
  16:HALLIB/STM32F4xx_HAL_Driver/Src/stm32f4xx_ll_sdmmc.c ****                        ##### SDMMC peripheral features #####
  17:HALLIB/STM32F4xx_HAL_Driver/Src/stm32f4xx_ll_sdmmc.c ****   ==============================================================================        
  18:HALLIB/STM32F4xx_HAL_Driver/Src/stm32f4xx_ll_sdmmc.c ****     [..] The SD/SDMMC MMC card host interface (SDMMC) provides an interface between the APB2
  19:HALLIB/STM32F4xx_HAL_Driver/Src/stm32f4xx_ll_sdmmc.c ****          peripheral bus and MultiMedia cards (MMCs), SD memory cards, SDMMC cards and CE-ATA
  20:HALLIB/STM32F4xx_HAL_Driver/Src/stm32f4xx_ll_sdmmc.c ****          devices.
  21:HALLIB/STM32F4xx_HAL_Driver/Src/stm32f4xx_ll_sdmmc.c ****     
  22:HALLIB/STM32F4xx_HAL_Driver/Src/stm32f4xx_ll_sdmmc.c ****     [..] The SDMMC features include the following:
  23:HALLIB/STM32F4xx_HAL_Driver/Src/stm32f4xx_ll_sdmmc.c ****          (+) Full compliance with MultiMedia Card System Specification Version 4.2. Card support
  24:HALLIB/STM32F4xx_HAL_Driver/Src/stm32f4xx_ll_sdmmc.c ****              for three different databus modes: 1-bit (default), 4-bit and 8-bit
  25:HALLIB/STM32F4xx_HAL_Driver/Src/stm32f4xx_ll_sdmmc.c ****          (+) Full compatibility with previous versions of MultiMedia Cards (forward compatibility)
  26:HALLIB/STM32F4xx_HAL_Driver/Src/stm32f4xx_ll_sdmmc.c ****          (+) Full compliance with SD Memory Card Specifications Version 2.0
  27:HALLIB/STM32F4xx_HAL_Driver/Src/stm32f4xx_ll_sdmmc.c ****          (+) Full compliance with SD I/O Card Specification Version 2.0: card support for two
  28:HALLIB/STM32F4xx_HAL_Driver/Src/stm32f4xx_ll_sdmmc.c ****              different data bus modes: 1-bit (default) and 4-bit
  29:HALLIB/STM32F4xx_HAL_Driver/Src/stm32f4xx_ll_sdmmc.c ****          (+) Full support of the CE-ATA features (full compliance with CE-ATA digital protocol
  30:HALLIB/STM32F4xx_HAL_Driver/Src/stm32f4xx_ll_sdmmc.c ****              Rev1.1)
ARM GAS  /tmp/cce5sGk9.s 			page 2


  31:HALLIB/STM32F4xx_HAL_Driver/Src/stm32f4xx_ll_sdmmc.c ****          (+) Data transfer up to 48 MHz for the 8 bit mode
  32:HALLIB/STM32F4xx_HAL_Driver/Src/stm32f4xx_ll_sdmmc.c ****          (+) Data and command output enable signals to control external bidirectional drivers.
  33:HALLIB/STM32F4xx_HAL_Driver/Src/stm32f4xx_ll_sdmmc.c ****                  
  34:HALLIB/STM32F4xx_HAL_Driver/Src/stm32f4xx_ll_sdmmc.c ****    
  35:HALLIB/STM32F4xx_HAL_Driver/Src/stm32f4xx_ll_sdmmc.c ****                            ##### How to use this driver #####
  36:HALLIB/STM32F4xx_HAL_Driver/Src/stm32f4xx_ll_sdmmc.c ****   ==============================================================================
  37:HALLIB/STM32F4xx_HAL_Driver/Src/stm32f4xx_ll_sdmmc.c ****     [..]
  38:HALLIB/STM32F4xx_HAL_Driver/Src/stm32f4xx_ll_sdmmc.c ****       This driver is a considered as a driver of service for external devices drivers 
  39:HALLIB/STM32F4xx_HAL_Driver/Src/stm32f4xx_ll_sdmmc.c ****       that interfaces with the SDMMC peripheral.
  40:HALLIB/STM32F4xx_HAL_Driver/Src/stm32f4xx_ll_sdmmc.c ****       According to the device used (SD card/ MMC card / SDMMC card ...), a set of APIs 
  41:HALLIB/STM32F4xx_HAL_Driver/Src/stm32f4xx_ll_sdmmc.c ****       is used in the device's driver to perform SDMMC operations and functionalities.
  42:HALLIB/STM32F4xx_HAL_Driver/Src/stm32f4xx_ll_sdmmc.c ****    
  43:HALLIB/STM32F4xx_HAL_Driver/Src/stm32f4xx_ll_sdmmc.c ****       This driver is almost transparent for the final user, it is only used to implement other
  44:HALLIB/STM32F4xx_HAL_Driver/Src/stm32f4xx_ll_sdmmc.c ****       functionalities of the external device.
  45:HALLIB/STM32F4xx_HAL_Driver/Src/stm32f4xx_ll_sdmmc.c ****    
  46:HALLIB/STM32F4xx_HAL_Driver/Src/stm32f4xx_ll_sdmmc.c ****     [..]
  47:HALLIB/STM32F4xx_HAL_Driver/Src/stm32f4xx_ll_sdmmc.c ****       (+) The SDMMC clock (SDMMCCLK = 48 MHz) is coming from a specific output of PLL 
  48:HALLIB/STM32F4xx_HAL_Driver/Src/stm32f4xx_ll_sdmmc.c ****           (PLL48CLK). Before start working with SDMMC peripheral make sure that the
  49:HALLIB/STM32F4xx_HAL_Driver/Src/stm32f4xx_ll_sdmmc.c ****           PLL is well configured.
  50:HALLIB/STM32F4xx_HAL_Driver/Src/stm32f4xx_ll_sdmmc.c ****           The SDMMC peripheral uses two clock signals:
  51:HALLIB/STM32F4xx_HAL_Driver/Src/stm32f4xx_ll_sdmmc.c ****           (++) SDMMC adapter clock (SDMMCCLK = 48 MHz)
  52:HALLIB/STM32F4xx_HAL_Driver/Src/stm32f4xx_ll_sdmmc.c ****           (++) APB2 bus clock (PCLK2)
  53:HALLIB/STM32F4xx_HAL_Driver/Src/stm32f4xx_ll_sdmmc.c ****        
  54:HALLIB/STM32F4xx_HAL_Driver/Src/stm32f4xx_ll_sdmmc.c ****           -@@- PCLK2 and SDMMC_CK clock frequencies must respect the following condition:
  55:HALLIB/STM32F4xx_HAL_Driver/Src/stm32f4xx_ll_sdmmc.c ****                Frequency(PCLK2) >= (3 / 8 x Frequency(SDMMC_CK))
  56:HALLIB/STM32F4xx_HAL_Driver/Src/stm32f4xx_ll_sdmmc.c ****   
  57:HALLIB/STM32F4xx_HAL_Driver/Src/stm32f4xx_ll_sdmmc.c ****       (+) Enable/Disable peripheral clock using RCC peripheral macros related to SDMMC
  58:HALLIB/STM32F4xx_HAL_Driver/Src/stm32f4xx_ll_sdmmc.c ****           peripheral.
  59:HALLIB/STM32F4xx_HAL_Driver/Src/stm32f4xx_ll_sdmmc.c **** 
  60:HALLIB/STM32F4xx_HAL_Driver/Src/stm32f4xx_ll_sdmmc.c ****       (+) Enable the Power ON State using the SDIO_PowerState_ON(SDIOx) 
  61:HALLIB/STM32F4xx_HAL_Driver/Src/stm32f4xx_ll_sdmmc.c ****           function and disable it using the function SDIO_PowerState_ON(SDIOx).
  62:HALLIB/STM32F4xx_HAL_Driver/Src/stm32f4xx_ll_sdmmc.c ****                 
  63:HALLIB/STM32F4xx_HAL_Driver/Src/stm32f4xx_ll_sdmmc.c ****       (+) Enable/Disable the clock using the __SDIO_ENABLE()/__SDIO_DISABLE() macros.
  64:HALLIB/STM32F4xx_HAL_Driver/Src/stm32f4xx_ll_sdmmc.c ****   
  65:HALLIB/STM32F4xx_HAL_Driver/Src/stm32f4xx_ll_sdmmc.c ****       (+) Enable/Disable the peripheral interrupts using the macros __SDIO_ENABLE_IT(hSDIO, IT) 
  66:HALLIB/STM32F4xx_HAL_Driver/Src/stm32f4xx_ll_sdmmc.c ****           and __SDIO_DISABLE_IT(hSDIO, IT) if you need to use interrupt mode. 
  67:HALLIB/STM32F4xx_HAL_Driver/Src/stm32f4xx_ll_sdmmc.c ****   
  68:HALLIB/STM32F4xx_HAL_Driver/Src/stm32f4xx_ll_sdmmc.c ****       (+) When using the DMA mode 
  69:HALLIB/STM32F4xx_HAL_Driver/Src/stm32f4xx_ll_sdmmc.c ****           (++) Configure the DMA in the MSP layer of the external device
  70:HALLIB/STM32F4xx_HAL_Driver/Src/stm32f4xx_ll_sdmmc.c ****           (++) Active the needed channel Request 
  71:HALLIB/STM32F4xx_HAL_Driver/Src/stm32f4xx_ll_sdmmc.c ****           (++) Enable the DMA using __SDIO_DMA_ENABLE() macro or Disable it using the macro
  72:HALLIB/STM32F4xx_HAL_Driver/Src/stm32f4xx_ll_sdmmc.c ****                __SDIO_DMA_DISABLE().
  73:HALLIB/STM32F4xx_HAL_Driver/Src/stm32f4xx_ll_sdmmc.c ****   
  74:HALLIB/STM32F4xx_HAL_Driver/Src/stm32f4xx_ll_sdmmc.c ****       (+) To control the CPSM (Command Path State Machine) and send 
  75:HALLIB/STM32F4xx_HAL_Driver/Src/stm32f4xx_ll_sdmmc.c ****           commands to the card use the SDIO_SendCommand(), 
  76:HALLIB/STM32F4xx_HAL_Driver/Src/stm32f4xx_ll_sdmmc.c ****           SDIO_GetCommandResponse() and SDIO_GetResponse() functions. First, user has
  77:HALLIB/STM32F4xx_HAL_Driver/Src/stm32f4xx_ll_sdmmc.c ****           to fill the command structure (pointer to SDIO_CmdInitTypeDef) according 
  78:HALLIB/STM32F4xx_HAL_Driver/Src/stm32f4xx_ll_sdmmc.c ****           to the selected command to be sent.
  79:HALLIB/STM32F4xx_HAL_Driver/Src/stm32f4xx_ll_sdmmc.c ****           The parameters that should be filled are:
  80:HALLIB/STM32F4xx_HAL_Driver/Src/stm32f4xx_ll_sdmmc.c ****            (++) Command Argument
  81:HALLIB/STM32F4xx_HAL_Driver/Src/stm32f4xx_ll_sdmmc.c ****            (++) Command Index
  82:HALLIB/STM32F4xx_HAL_Driver/Src/stm32f4xx_ll_sdmmc.c ****            (++) Command Response type
  83:HALLIB/STM32F4xx_HAL_Driver/Src/stm32f4xx_ll_sdmmc.c ****            (++) Command Wait
  84:HALLIB/STM32F4xx_HAL_Driver/Src/stm32f4xx_ll_sdmmc.c ****            (++) CPSM Status (Enable or Disable).
  85:HALLIB/STM32F4xx_HAL_Driver/Src/stm32f4xx_ll_sdmmc.c ****   
  86:HALLIB/STM32F4xx_HAL_Driver/Src/stm32f4xx_ll_sdmmc.c ****           -@@- To check if the command is well received, read the SDIO_CMDRESP
  87:HALLIB/STM32F4xx_HAL_Driver/Src/stm32f4xx_ll_sdmmc.c ****               register using the SDIO_GetCommandResponse().
ARM GAS  /tmp/cce5sGk9.s 			page 3


  88:HALLIB/STM32F4xx_HAL_Driver/Src/stm32f4xx_ll_sdmmc.c ****               The SDMMC responses registers (SDIO_RESP1 to SDIO_RESP2), use the
  89:HALLIB/STM32F4xx_HAL_Driver/Src/stm32f4xx_ll_sdmmc.c ****               SDIO_GetResponse() function.
  90:HALLIB/STM32F4xx_HAL_Driver/Src/stm32f4xx_ll_sdmmc.c ****   
  91:HALLIB/STM32F4xx_HAL_Driver/Src/stm32f4xx_ll_sdmmc.c ****       (+) To control the DPSM (Data Path State Machine) and send/receive 
  92:HALLIB/STM32F4xx_HAL_Driver/Src/stm32f4xx_ll_sdmmc.c ****            data to/from the card use the SDIO_ConfigData(), SDIO_GetDataCounter(), 
  93:HALLIB/STM32F4xx_HAL_Driver/Src/stm32f4xx_ll_sdmmc.c ****           SDIO_ReadFIFO(), SDIO_WriteFIFO() and SDIO_GetFIFOCount() functions.
  94:HALLIB/STM32F4xx_HAL_Driver/Src/stm32f4xx_ll_sdmmc.c ****   
  95:HALLIB/STM32F4xx_HAL_Driver/Src/stm32f4xx_ll_sdmmc.c ****     *** Read Operations ***
  96:HALLIB/STM32F4xx_HAL_Driver/Src/stm32f4xx_ll_sdmmc.c ****     =======================
  97:HALLIB/STM32F4xx_HAL_Driver/Src/stm32f4xx_ll_sdmmc.c ****     [..]
  98:HALLIB/STM32F4xx_HAL_Driver/Src/stm32f4xx_ll_sdmmc.c ****       (#) First, user has to fill the data structure (pointer to
  99:HALLIB/STM32F4xx_HAL_Driver/Src/stm32f4xx_ll_sdmmc.c ****           SDIO_DataInitTypeDef) according to the selected data type to be received.
 100:HALLIB/STM32F4xx_HAL_Driver/Src/stm32f4xx_ll_sdmmc.c ****           The parameters that should be filled are:
 101:HALLIB/STM32F4xx_HAL_Driver/Src/stm32f4xx_ll_sdmmc.c ****            (++) Data TimeOut
 102:HALLIB/STM32F4xx_HAL_Driver/Src/stm32f4xx_ll_sdmmc.c ****            (++) Data Length
 103:HALLIB/STM32F4xx_HAL_Driver/Src/stm32f4xx_ll_sdmmc.c ****            (++) Data Block size
 104:HALLIB/STM32F4xx_HAL_Driver/Src/stm32f4xx_ll_sdmmc.c ****            (++) Data Transfer direction: should be from card (To SDMMC)
 105:HALLIB/STM32F4xx_HAL_Driver/Src/stm32f4xx_ll_sdmmc.c ****            (++) Data Transfer mode
 106:HALLIB/STM32F4xx_HAL_Driver/Src/stm32f4xx_ll_sdmmc.c ****            (++) DPSM Status (Enable or Disable)
 107:HALLIB/STM32F4xx_HAL_Driver/Src/stm32f4xx_ll_sdmmc.c ****                                      
 108:HALLIB/STM32F4xx_HAL_Driver/Src/stm32f4xx_ll_sdmmc.c ****       (#) Configure the SDMMC resources to receive the data from the card
 109:HALLIB/STM32F4xx_HAL_Driver/Src/stm32f4xx_ll_sdmmc.c ****           according to selected transfer mode (Refer to Step 8, 9 and 10).
 110:HALLIB/STM32F4xx_HAL_Driver/Src/stm32f4xx_ll_sdmmc.c ****   
 111:HALLIB/STM32F4xx_HAL_Driver/Src/stm32f4xx_ll_sdmmc.c ****       (#) Send the selected Read command (refer to step 11).
 112:HALLIB/STM32F4xx_HAL_Driver/Src/stm32f4xx_ll_sdmmc.c ****                     
 113:HALLIB/STM32F4xx_HAL_Driver/Src/stm32f4xx_ll_sdmmc.c ****       (#) Use the SDIO flags/interrupts to check the transfer status.
 114:HALLIB/STM32F4xx_HAL_Driver/Src/stm32f4xx_ll_sdmmc.c ****   
 115:HALLIB/STM32F4xx_HAL_Driver/Src/stm32f4xx_ll_sdmmc.c ****     *** Write Operations ***
 116:HALLIB/STM32F4xx_HAL_Driver/Src/stm32f4xx_ll_sdmmc.c ****     ========================
 117:HALLIB/STM32F4xx_HAL_Driver/Src/stm32f4xx_ll_sdmmc.c ****     [..]
 118:HALLIB/STM32F4xx_HAL_Driver/Src/stm32f4xx_ll_sdmmc.c ****      (#) First, user has to fill the data structure (pointer to
 119:HALLIB/STM32F4xx_HAL_Driver/Src/stm32f4xx_ll_sdmmc.c ****          SDIO_DataInitTypeDef) according to the selected data type to be received.
 120:HALLIB/STM32F4xx_HAL_Driver/Src/stm32f4xx_ll_sdmmc.c ****          The parameters that should be filled are:
 121:HALLIB/STM32F4xx_HAL_Driver/Src/stm32f4xx_ll_sdmmc.c ****           (++) Data TimeOut
 122:HALLIB/STM32F4xx_HAL_Driver/Src/stm32f4xx_ll_sdmmc.c ****           (++) Data Length
 123:HALLIB/STM32F4xx_HAL_Driver/Src/stm32f4xx_ll_sdmmc.c ****           (++) Data Block size
 124:HALLIB/STM32F4xx_HAL_Driver/Src/stm32f4xx_ll_sdmmc.c ****           (++) Data Transfer direction:  should be to card (To CARD)
 125:HALLIB/STM32F4xx_HAL_Driver/Src/stm32f4xx_ll_sdmmc.c ****           (++) Data Transfer mode
 126:HALLIB/STM32F4xx_HAL_Driver/Src/stm32f4xx_ll_sdmmc.c ****           (++) DPSM Status (Enable or Disable)
 127:HALLIB/STM32F4xx_HAL_Driver/Src/stm32f4xx_ll_sdmmc.c ****   
 128:HALLIB/STM32F4xx_HAL_Driver/Src/stm32f4xx_ll_sdmmc.c ****      (#) Configure the SDMMC resources to send the data to the card according to 
 129:HALLIB/STM32F4xx_HAL_Driver/Src/stm32f4xx_ll_sdmmc.c ****          selected transfer mode.
 130:HALLIB/STM32F4xx_HAL_Driver/Src/stm32f4xx_ll_sdmmc.c ****                      
 131:HALLIB/STM32F4xx_HAL_Driver/Src/stm32f4xx_ll_sdmmc.c ****      (#) Send the selected Write command.
 132:HALLIB/STM32F4xx_HAL_Driver/Src/stm32f4xx_ll_sdmmc.c ****                     
 133:HALLIB/STM32F4xx_HAL_Driver/Src/stm32f4xx_ll_sdmmc.c ****      (#) Use the SDIO flags/interrupts to check the transfer status.
 134:HALLIB/STM32F4xx_HAL_Driver/Src/stm32f4xx_ll_sdmmc.c ****        
 135:HALLIB/STM32F4xx_HAL_Driver/Src/stm32f4xx_ll_sdmmc.c ****     *** Command management operations ***
 136:HALLIB/STM32F4xx_HAL_Driver/Src/stm32f4xx_ll_sdmmc.c ****     =====================================
 137:HALLIB/STM32F4xx_HAL_Driver/Src/stm32f4xx_ll_sdmmc.c ****     [..]
 138:HALLIB/STM32F4xx_HAL_Driver/Src/stm32f4xx_ll_sdmmc.c ****      (#) The commands used for Read/Write/Erase operations are managed in 
 139:HALLIB/STM32F4xx_HAL_Driver/Src/stm32f4xx_ll_sdmmc.c ****          separate functions. 
 140:HALLIB/STM32F4xx_HAL_Driver/Src/stm32f4xx_ll_sdmmc.c ****          Each function allows to send the needed command with the related argument,
 141:HALLIB/STM32F4xx_HAL_Driver/Src/stm32f4xx_ll_sdmmc.c ****          then check the response.
 142:HALLIB/STM32F4xx_HAL_Driver/Src/stm32f4xx_ll_sdmmc.c ****          By the same approach, you could implement a command and check the response.
 143:HALLIB/STM32F4xx_HAL_Driver/Src/stm32f4xx_ll_sdmmc.c ****   
 144:HALLIB/STM32F4xx_HAL_Driver/Src/stm32f4xx_ll_sdmmc.c ****   @endverbatim
ARM GAS  /tmp/cce5sGk9.s 			page 4


 145:HALLIB/STM32F4xx_HAL_Driver/Src/stm32f4xx_ll_sdmmc.c ****   ******************************************************************************
 146:HALLIB/STM32F4xx_HAL_Driver/Src/stm32f4xx_ll_sdmmc.c ****   * @attention
 147:HALLIB/STM32F4xx_HAL_Driver/Src/stm32f4xx_ll_sdmmc.c ****   *
 148:HALLIB/STM32F4xx_HAL_Driver/Src/stm32f4xx_ll_sdmmc.c ****   * <h2><center>&copy; Copyright (c) 2017 STMicroelectronics.
 149:HALLIB/STM32F4xx_HAL_Driver/Src/stm32f4xx_ll_sdmmc.c ****   * All rights reserved.</center></h2>
 150:HALLIB/STM32F4xx_HAL_Driver/Src/stm32f4xx_ll_sdmmc.c ****   *
 151:HALLIB/STM32F4xx_HAL_Driver/Src/stm32f4xx_ll_sdmmc.c ****   * This software component is licensed by ST under BSD 3-Clause license,
 152:HALLIB/STM32F4xx_HAL_Driver/Src/stm32f4xx_ll_sdmmc.c ****   * the "License"; You may not use this file except in compliance with the
 153:HALLIB/STM32F4xx_HAL_Driver/Src/stm32f4xx_ll_sdmmc.c ****   * License. You may obtain a copy of the License at:
 154:HALLIB/STM32F4xx_HAL_Driver/Src/stm32f4xx_ll_sdmmc.c ****   *                        opensource.org/licenses/BSD-3-Clause
 155:HALLIB/STM32F4xx_HAL_Driver/Src/stm32f4xx_ll_sdmmc.c ****   *
 156:HALLIB/STM32F4xx_HAL_Driver/Src/stm32f4xx_ll_sdmmc.c ****   ******************************************************************************
 157:HALLIB/STM32F4xx_HAL_Driver/Src/stm32f4xx_ll_sdmmc.c ****   */ 
 158:HALLIB/STM32F4xx_HAL_Driver/Src/stm32f4xx_ll_sdmmc.c **** 
 159:HALLIB/STM32F4xx_HAL_Driver/Src/stm32f4xx_ll_sdmmc.c **** /* Includes ------------------------------------------------------------------*/
 160:HALLIB/STM32F4xx_HAL_Driver/Src/stm32f4xx_ll_sdmmc.c **** #include "stm32f4xx_hal.h"
 161:HALLIB/STM32F4xx_HAL_Driver/Src/stm32f4xx_ll_sdmmc.c **** 
 162:HALLIB/STM32F4xx_HAL_Driver/Src/stm32f4xx_ll_sdmmc.c **** /** @addtogroup STM32F4xx_HAL_Driver
 163:HALLIB/STM32F4xx_HAL_Driver/Src/stm32f4xx_ll_sdmmc.c ****   * @{
 164:HALLIB/STM32F4xx_HAL_Driver/Src/stm32f4xx_ll_sdmmc.c ****   */
 165:HALLIB/STM32F4xx_HAL_Driver/Src/stm32f4xx_ll_sdmmc.c **** 
 166:HALLIB/STM32F4xx_HAL_Driver/Src/stm32f4xx_ll_sdmmc.c **** /** @defgroup SDMMC_LL SDMMC Low Layer
 167:HALLIB/STM32F4xx_HAL_Driver/Src/stm32f4xx_ll_sdmmc.c ****   * @brief Low layer module for SD
 168:HALLIB/STM32F4xx_HAL_Driver/Src/stm32f4xx_ll_sdmmc.c ****   * @{
 169:HALLIB/STM32F4xx_HAL_Driver/Src/stm32f4xx_ll_sdmmc.c ****   */
 170:HALLIB/STM32F4xx_HAL_Driver/Src/stm32f4xx_ll_sdmmc.c **** 
 171:HALLIB/STM32F4xx_HAL_Driver/Src/stm32f4xx_ll_sdmmc.c **** #if defined(HAL_SD_MODULE_ENABLED) || defined(HAL_MMC_MODULE_ENABLED)
 172:HALLIB/STM32F4xx_HAL_Driver/Src/stm32f4xx_ll_sdmmc.c **** #if defined(STM32F405xx) || defined(STM32F415xx) || defined(STM32F407xx) || defined(STM32F417xx) ||
 173:HALLIB/STM32F4xx_HAL_Driver/Src/stm32f4xx_ll_sdmmc.c ****     defined(STM32F427xx) || defined(STM32F437xx) || defined(STM32F429xx) || defined(STM32F439xx) ||
 174:HALLIB/STM32F4xx_HAL_Driver/Src/stm32f4xx_ll_sdmmc.c ****     defined(STM32F401xC) || defined(STM32F401xE) || defined(STM32F411xE) || defined(STM32F446xx) ||
 175:HALLIB/STM32F4xx_HAL_Driver/Src/stm32f4xx_ll_sdmmc.c ****     defined(STM32F469xx) || defined(STM32F479xx) || defined(STM32F412Zx) || defined(STM32F412Vx) ||
 176:HALLIB/STM32F4xx_HAL_Driver/Src/stm32f4xx_ll_sdmmc.c ****     defined(STM32F412Rx) || defined(STM32F412Cx) || defined(STM32F413xx) || defined(STM32F423xx)
 177:HALLIB/STM32F4xx_HAL_Driver/Src/stm32f4xx_ll_sdmmc.c **** 
 178:HALLIB/STM32F4xx_HAL_Driver/Src/stm32f4xx_ll_sdmmc.c **** /* Private typedef -----------------------------------------------------------*/
 179:HALLIB/STM32F4xx_HAL_Driver/Src/stm32f4xx_ll_sdmmc.c **** /* Private define ------------------------------------------------------------*/
 180:HALLIB/STM32F4xx_HAL_Driver/Src/stm32f4xx_ll_sdmmc.c **** /* Private macro -------------------------------------------------------------*/
 181:HALLIB/STM32F4xx_HAL_Driver/Src/stm32f4xx_ll_sdmmc.c **** /* Private variables ---------------------------------------------------------*/
 182:HALLIB/STM32F4xx_HAL_Driver/Src/stm32f4xx_ll_sdmmc.c **** /* Private function prototypes -----------------------------------------------*/
 183:HALLIB/STM32F4xx_HAL_Driver/Src/stm32f4xx_ll_sdmmc.c **** static uint32_t SDMMC_GetCmdError(SDIO_TypeDef *SDIOx);
 184:HALLIB/STM32F4xx_HAL_Driver/Src/stm32f4xx_ll_sdmmc.c **** static uint32_t SDMMC_GetCmdResp1(SDIO_TypeDef *SDIOx, uint8_t SD_CMD, uint32_t Timeout);
 185:HALLIB/STM32F4xx_HAL_Driver/Src/stm32f4xx_ll_sdmmc.c **** static uint32_t SDMMC_GetCmdResp2(SDIO_TypeDef *SDIOx);
 186:HALLIB/STM32F4xx_HAL_Driver/Src/stm32f4xx_ll_sdmmc.c **** static uint32_t SDMMC_GetCmdResp3(SDIO_TypeDef *SDIOx);
 187:HALLIB/STM32F4xx_HAL_Driver/Src/stm32f4xx_ll_sdmmc.c **** static uint32_t SDMMC_GetCmdResp7(SDIO_TypeDef *SDIOx);
 188:HALLIB/STM32F4xx_HAL_Driver/Src/stm32f4xx_ll_sdmmc.c **** static uint32_t SDMMC_GetCmdResp6(SDIO_TypeDef *SDIOx, uint8_t SD_CMD, uint16_t *pRCA);
 189:HALLIB/STM32F4xx_HAL_Driver/Src/stm32f4xx_ll_sdmmc.c **** 
 190:HALLIB/STM32F4xx_HAL_Driver/Src/stm32f4xx_ll_sdmmc.c **** /* Exported functions --------------------------------------------------------*/
 191:HALLIB/STM32F4xx_HAL_Driver/Src/stm32f4xx_ll_sdmmc.c **** 
 192:HALLIB/STM32F4xx_HAL_Driver/Src/stm32f4xx_ll_sdmmc.c **** /** @defgroup SDMMC_LL_Exported_Functions SDMMC Low Layer Exported Functions
 193:HALLIB/STM32F4xx_HAL_Driver/Src/stm32f4xx_ll_sdmmc.c ****   * @{
 194:HALLIB/STM32F4xx_HAL_Driver/Src/stm32f4xx_ll_sdmmc.c ****   */
 195:HALLIB/STM32F4xx_HAL_Driver/Src/stm32f4xx_ll_sdmmc.c **** 
 196:HALLIB/STM32F4xx_HAL_Driver/Src/stm32f4xx_ll_sdmmc.c **** /** @defgroup HAL_SDMMC_LL_Group1 Initialization de-initialization functions 
 197:HALLIB/STM32F4xx_HAL_Driver/Src/stm32f4xx_ll_sdmmc.c ****  *  @brief    Initialization and Configuration functions 
 198:HALLIB/STM32F4xx_HAL_Driver/Src/stm32f4xx_ll_sdmmc.c ****  *
 199:HALLIB/STM32F4xx_HAL_Driver/Src/stm32f4xx_ll_sdmmc.c **** @verbatim    
 200:HALLIB/STM32F4xx_HAL_Driver/Src/stm32f4xx_ll_sdmmc.c ****  ===============================================================================
 201:HALLIB/STM32F4xx_HAL_Driver/Src/stm32f4xx_ll_sdmmc.c ****               ##### Initialization/de-initialization functions #####
ARM GAS  /tmp/cce5sGk9.s 			page 5


 202:HALLIB/STM32F4xx_HAL_Driver/Src/stm32f4xx_ll_sdmmc.c ****  ===============================================================================
 203:HALLIB/STM32F4xx_HAL_Driver/Src/stm32f4xx_ll_sdmmc.c ****     [..]  This section provides functions allowing to:
 204:HALLIB/STM32F4xx_HAL_Driver/Src/stm32f4xx_ll_sdmmc.c ****  
 205:HALLIB/STM32F4xx_HAL_Driver/Src/stm32f4xx_ll_sdmmc.c **** @endverbatim
 206:HALLIB/STM32F4xx_HAL_Driver/Src/stm32f4xx_ll_sdmmc.c ****   * @{
 207:HALLIB/STM32F4xx_HAL_Driver/Src/stm32f4xx_ll_sdmmc.c ****   */
 208:HALLIB/STM32F4xx_HAL_Driver/Src/stm32f4xx_ll_sdmmc.c **** 
 209:HALLIB/STM32F4xx_HAL_Driver/Src/stm32f4xx_ll_sdmmc.c **** /**
 210:HALLIB/STM32F4xx_HAL_Driver/Src/stm32f4xx_ll_sdmmc.c ****   * @brief  Initializes the SDMMC according to the specified
 211:HALLIB/STM32F4xx_HAL_Driver/Src/stm32f4xx_ll_sdmmc.c ****   *         parameters in the SDMMC_InitTypeDef and create the associated handle.
 212:HALLIB/STM32F4xx_HAL_Driver/Src/stm32f4xx_ll_sdmmc.c ****   * @param  SDIOx Pointer to SDMMC register base
 213:HALLIB/STM32F4xx_HAL_Driver/Src/stm32f4xx_ll_sdmmc.c ****   * @param  Init SDMMC initialization structure   
 214:HALLIB/STM32F4xx_HAL_Driver/Src/stm32f4xx_ll_sdmmc.c ****   * @retval HAL status
 215:HALLIB/STM32F4xx_HAL_Driver/Src/stm32f4xx_ll_sdmmc.c ****   */
 216:HALLIB/STM32F4xx_HAL_Driver/Src/stm32f4xx_ll_sdmmc.c **** HAL_StatusTypeDef SDIO_Init(SDIO_TypeDef *SDIOx, SDIO_InitTypeDef Init)
 217:HALLIB/STM32F4xx_HAL_Driver/Src/stm32f4xx_ll_sdmmc.c **** {
 218:HALLIB/STM32F4xx_HAL_Driver/Src/stm32f4xx_ll_sdmmc.c ****   uint32_t tmpreg = 0U;
 219:HALLIB/STM32F4xx_HAL_Driver/Src/stm32f4xx_ll_sdmmc.c **** 
 220:HALLIB/STM32F4xx_HAL_Driver/Src/stm32f4xx_ll_sdmmc.c ****   /* Check the parameters */
 221:HALLIB/STM32F4xx_HAL_Driver/Src/stm32f4xx_ll_sdmmc.c ****   assert_param(IS_SDIO_ALL_INSTANCE(SDIOx));
 222:HALLIB/STM32F4xx_HAL_Driver/Src/stm32f4xx_ll_sdmmc.c ****   assert_param(IS_SDIO_CLOCK_EDGE(Init.ClockEdge)); 
 223:HALLIB/STM32F4xx_HAL_Driver/Src/stm32f4xx_ll_sdmmc.c ****   assert_param(IS_SDIO_CLOCK_BYPASS(Init.ClockBypass));
 224:HALLIB/STM32F4xx_HAL_Driver/Src/stm32f4xx_ll_sdmmc.c ****   assert_param(IS_SDIO_CLOCK_POWER_SAVE(Init.ClockPowerSave));
 225:HALLIB/STM32F4xx_HAL_Driver/Src/stm32f4xx_ll_sdmmc.c ****   assert_param(IS_SDIO_BUS_WIDE(Init.BusWide));
 226:HALLIB/STM32F4xx_HAL_Driver/Src/stm32f4xx_ll_sdmmc.c ****   assert_param(IS_SDIO_HARDWARE_FLOW_CONTROL(Init.HardwareFlowControl));
 227:HALLIB/STM32F4xx_HAL_Driver/Src/stm32f4xx_ll_sdmmc.c ****   assert_param(IS_SDIO_CLKDIV(Init.ClockDiv));
 228:HALLIB/STM32F4xx_HAL_Driver/Src/stm32f4xx_ll_sdmmc.c ****   
 229:HALLIB/STM32F4xx_HAL_Driver/Src/stm32f4xx_ll_sdmmc.c ****   /* Set SDMMC configuration parameters */
 230:HALLIB/STM32F4xx_HAL_Driver/Src/stm32f4xx_ll_sdmmc.c ****   tmpreg |= (Init.ClockEdge           |\
 231:HALLIB/STM32F4xx_HAL_Driver/Src/stm32f4xx_ll_sdmmc.c ****              Init.ClockBypass         |\
 232:HALLIB/STM32F4xx_HAL_Driver/Src/stm32f4xx_ll_sdmmc.c ****              Init.ClockPowerSave      |\
 233:HALLIB/STM32F4xx_HAL_Driver/Src/stm32f4xx_ll_sdmmc.c ****              Init.BusWide             |\
 234:HALLIB/STM32F4xx_HAL_Driver/Src/stm32f4xx_ll_sdmmc.c ****              Init.HardwareFlowControl |\
 235:HALLIB/STM32F4xx_HAL_Driver/Src/stm32f4xx_ll_sdmmc.c ****              Init.ClockDiv
 236:HALLIB/STM32F4xx_HAL_Driver/Src/stm32f4xx_ll_sdmmc.c ****              ); 
 237:HALLIB/STM32F4xx_HAL_Driver/Src/stm32f4xx_ll_sdmmc.c ****   
 238:HALLIB/STM32F4xx_HAL_Driver/Src/stm32f4xx_ll_sdmmc.c ****   /* Write to SDMMC CLKCR */
 239:HALLIB/STM32F4xx_HAL_Driver/Src/stm32f4xx_ll_sdmmc.c ****   MODIFY_REG(SDIOx->CLKCR, CLKCR_CLEAR_MASK, tmpreg);  
 240:HALLIB/STM32F4xx_HAL_Driver/Src/stm32f4xx_ll_sdmmc.c **** 
 241:HALLIB/STM32F4xx_HAL_Driver/Src/stm32f4xx_ll_sdmmc.c ****   return HAL_OK;
 242:HALLIB/STM32F4xx_HAL_Driver/Src/stm32f4xx_ll_sdmmc.c **** }
 243:HALLIB/STM32F4xx_HAL_Driver/Src/stm32f4xx_ll_sdmmc.c **** 
 244:HALLIB/STM32F4xx_HAL_Driver/Src/stm32f4xx_ll_sdmmc.c **** 
 245:HALLIB/STM32F4xx_HAL_Driver/Src/stm32f4xx_ll_sdmmc.c **** /**
 246:HALLIB/STM32F4xx_HAL_Driver/Src/stm32f4xx_ll_sdmmc.c ****   * @}
 247:HALLIB/STM32F4xx_HAL_Driver/Src/stm32f4xx_ll_sdmmc.c ****   */
 248:HALLIB/STM32F4xx_HAL_Driver/Src/stm32f4xx_ll_sdmmc.c **** 
 249:HALLIB/STM32F4xx_HAL_Driver/Src/stm32f4xx_ll_sdmmc.c **** /** @defgroup HAL_SDMMC_LL_Group2 IO operation functions 
 250:HALLIB/STM32F4xx_HAL_Driver/Src/stm32f4xx_ll_sdmmc.c ****  *  @brief   Data transfers functions 
 251:HALLIB/STM32F4xx_HAL_Driver/Src/stm32f4xx_ll_sdmmc.c ****  *
 252:HALLIB/STM32F4xx_HAL_Driver/Src/stm32f4xx_ll_sdmmc.c **** @verbatim   
 253:HALLIB/STM32F4xx_HAL_Driver/Src/stm32f4xx_ll_sdmmc.c ****  ===============================================================================
 254:HALLIB/STM32F4xx_HAL_Driver/Src/stm32f4xx_ll_sdmmc.c ****                       ##### I/O operation functions #####
 255:HALLIB/STM32F4xx_HAL_Driver/Src/stm32f4xx_ll_sdmmc.c ****  ===============================================================================  
 256:HALLIB/STM32F4xx_HAL_Driver/Src/stm32f4xx_ll_sdmmc.c ****     [..]
 257:HALLIB/STM32F4xx_HAL_Driver/Src/stm32f4xx_ll_sdmmc.c ****     This subsection provides a set of functions allowing to manage the SDMMC data 
 258:HALLIB/STM32F4xx_HAL_Driver/Src/stm32f4xx_ll_sdmmc.c ****     transfers.
ARM GAS  /tmp/cce5sGk9.s 			page 6


 259:HALLIB/STM32F4xx_HAL_Driver/Src/stm32f4xx_ll_sdmmc.c **** 
 260:HALLIB/STM32F4xx_HAL_Driver/Src/stm32f4xx_ll_sdmmc.c **** @endverbatim
 261:HALLIB/STM32F4xx_HAL_Driver/Src/stm32f4xx_ll_sdmmc.c ****   * @{
 262:HALLIB/STM32F4xx_HAL_Driver/Src/stm32f4xx_ll_sdmmc.c ****   */
 263:HALLIB/STM32F4xx_HAL_Driver/Src/stm32f4xx_ll_sdmmc.c **** 
 264:HALLIB/STM32F4xx_HAL_Driver/Src/stm32f4xx_ll_sdmmc.c **** /**
 265:HALLIB/STM32F4xx_HAL_Driver/Src/stm32f4xx_ll_sdmmc.c ****   * @brief  Read data (word) from Rx FIFO in blocking mode (polling) 
 266:HALLIB/STM32F4xx_HAL_Driver/Src/stm32f4xx_ll_sdmmc.c ****   * @param  SDIOx Pointer to SDMMC register base
 267:HALLIB/STM32F4xx_HAL_Driver/Src/stm32f4xx_ll_sdmmc.c ****   * @retval HAL status
 268:HALLIB/STM32F4xx_HAL_Driver/Src/stm32f4xx_ll_sdmmc.c ****   */
 269:HALLIB/STM32F4xx_HAL_Driver/Src/stm32f4xx_ll_sdmmc.c **** uint32_t SDIO_ReadFIFO(SDIO_TypeDef *SDIOx)
 270:HALLIB/STM32F4xx_HAL_Driver/Src/stm32f4xx_ll_sdmmc.c **** {
 271:HALLIB/STM32F4xx_HAL_Driver/Src/stm32f4xx_ll_sdmmc.c ****   /* Read data from Rx FIFO */ 
 272:HALLIB/STM32F4xx_HAL_Driver/Src/stm32f4xx_ll_sdmmc.c ****   return (SDIOx->FIFO);
 273:HALLIB/STM32F4xx_HAL_Driver/Src/stm32f4xx_ll_sdmmc.c **** }
 274:HALLIB/STM32F4xx_HAL_Driver/Src/stm32f4xx_ll_sdmmc.c **** 
 275:HALLIB/STM32F4xx_HAL_Driver/Src/stm32f4xx_ll_sdmmc.c **** /**
 276:HALLIB/STM32F4xx_HAL_Driver/Src/stm32f4xx_ll_sdmmc.c ****   * @brief  Write data (word) to Tx FIFO in blocking mode (polling) 
 277:HALLIB/STM32F4xx_HAL_Driver/Src/stm32f4xx_ll_sdmmc.c ****   * @param  SDIOx Pointer to SDMMC register base
 278:HALLIB/STM32F4xx_HAL_Driver/Src/stm32f4xx_ll_sdmmc.c ****   * @param  pWriteData pointer to data to write
 279:HALLIB/STM32F4xx_HAL_Driver/Src/stm32f4xx_ll_sdmmc.c ****   * @retval HAL status
 280:HALLIB/STM32F4xx_HAL_Driver/Src/stm32f4xx_ll_sdmmc.c ****   */
 281:HALLIB/STM32F4xx_HAL_Driver/Src/stm32f4xx_ll_sdmmc.c **** HAL_StatusTypeDef SDIO_WriteFIFO(SDIO_TypeDef *SDIOx, uint32_t *pWriteData)
 282:HALLIB/STM32F4xx_HAL_Driver/Src/stm32f4xx_ll_sdmmc.c **** { 
 283:HALLIB/STM32F4xx_HAL_Driver/Src/stm32f4xx_ll_sdmmc.c ****   /* Write data to FIFO */ 
 284:HALLIB/STM32F4xx_HAL_Driver/Src/stm32f4xx_ll_sdmmc.c ****   SDIOx->FIFO = *pWriteData;
 285:HALLIB/STM32F4xx_HAL_Driver/Src/stm32f4xx_ll_sdmmc.c **** 
 286:HALLIB/STM32F4xx_HAL_Driver/Src/stm32f4xx_ll_sdmmc.c ****   return HAL_OK;
 287:HALLIB/STM32F4xx_HAL_Driver/Src/stm32f4xx_ll_sdmmc.c **** }
 288:HALLIB/STM32F4xx_HAL_Driver/Src/stm32f4xx_ll_sdmmc.c **** 
 289:HALLIB/STM32F4xx_HAL_Driver/Src/stm32f4xx_ll_sdmmc.c **** /**
 290:HALLIB/STM32F4xx_HAL_Driver/Src/stm32f4xx_ll_sdmmc.c ****   * @}
 291:HALLIB/STM32F4xx_HAL_Driver/Src/stm32f4xx_ll_sdmmc.c ****   */
 292:HALLIB/STM32F4xx_HAL_Driver/Src/stm32f4xx_ll_sdmmc.c **** 
 293:HALLIB/STM32F4xx_HAL_Driver/Src/stm32f4xx_ll_sdmmc.c **** /** @defgroup HAL_SDMMC_LL_Group3 Peripheral Control functions 
 294:HALLIB/STM32F4xx_HAL_Driver/Src/stm32f4xx_ll_sdmmc.c ****  *  @brief   management functions 
 295:HALLIB/STM32F4xx_HAL_Driver/Src/stm32f4xx_ll_sdmmc.c ****  *
 296:HALLIB/STM32F4xx_HAL_Driver/Src/stm32f4xx_ll_sdmmc.c **** @verbatim   
 297:HALLIB/STM32F4xx_HAL_Driver/Src/stm32f4xx_ll_sdmmc.c ****  ===============================================================================
 298:HALLIB/STM32F4xx_HAL_Driver/Src/stm32f4xx_ll_sdmmc.c ****                       ##### Peripheral Control functions #####
 299:HALLIB/STM32F4xx_HAL_Driver/Src/stm32f4xx_ll_sdmmc.c ****  ===============================================================================  
 300:HALLIB/STM32F4xx_HAL_Driver/Src/stm32f4xx_ll_sdmmc.c ****     [..]
 301:HALLIB/STM32F4xx_HAL_Driver/Src/stm32f4xx_ll_sdmmc.c ****     This subsection provides a set of functions allowing to control the SDMMC data 
 302:HALLIB/STM32F4xx_HAL_Driver/Src/stm32f4xx_ll_sdmmc.c ****     transfers.
 303:HALLIB/STM32F4xx_HAL_Driver/Src/stm32f4xx_ll_sdmmc.c **** 
 304:HALLIB/STM32F4xx_HAL_Driver/Src/stm32f4xx_ll_sdmmc.c **** @endverbatim
 305:HALLIB/STM32F4xx_HAL_Driver/Src/stm32f4xx_ll_sdmmc.c ****   * @{
 306:HALLIB/STM32F4xx_HAL_Driver/Src/stm32f4xx_ll_sdmmc.c ****   */
 307:HALLIB/STM32F4xx_HAL_Driver/Src/stm32f4xx_ll_sdmmc.c **** 
 308:HALLIB/STM32F4xx_HAL_Driver/Src/stm32f4xx_ll_sdmmc.c **** /**
 309:HALLIB/STM32F4xx_HAL_Driver/Src/stm32f4xx_ll_sdmmc.c ****   * @brief  Set SDMMC Power state to ON. 
 310:HALLIB/STM32F4xx_HAL_Driver/Src/stm32f4xx_ll_sdmmc.c ****   * @param  SDIOx Pointer to SDMMC register base
 311:HALLIB/STM32F4xx_HAL_Driver/Src/stm32f4xx_ll_sdmmc.c ****   * @retval HAL status
 312:HALLIB/STM32F4xx_HAL_Driver/Src/stm32f4xx_ll_sdmmc.c ****   */
 313:HALLIB/STM32F4xx_HAL_Driver/Src/stm32f4xx_ll_sdmmc.c **** HAL_StatusTypeDef SDIO_PowerState_ON(SDIO_TypeDef *SDIOx)
 314:HALLIB/STM32F4xx_HAL_Driver/Src/stm32f4xx_ll_sdmmc.c **** {  
 315:HALLIB/STM32F4xx_HAL_Driver/Src/stm32f4xx_ll_sdmmc.c ****   /* Set power state to ON */ 
ARM GAS  /tmp/cce5sGk9.s 			page 7


 316:HALLIB/STM32F4xx_HAL_Driver/Src/stm32f4xx_ll_sdmmc.c ****   SDIOx->POWER = SDIO_POWER_PWRCTRL;
 317:HALLIB/STM32F4xx_HAL_Driver/Src/stm32f4xx_ll_sdmmc.c ****   
 318:HALLIB/STM32F4xx_HAL_Driver/Src/stm32f4xx_ll_sdmmc.c ****   return HAL_OK;
 319:HALLIB/STM32F4xx_HAL_Driver/Src/stm32f4xx_ll_sdmmc.c **** }
 320:HALLIB/STM32F4xx_HAL_Driver/Src/stm32f4xx_ll_sdmmc.c **** 
 321:HALLIB/STM32F4xx_HAL_Driver/Src/stm32f4xx_ll_sdmmc.c **** /**
 322:HALLIB/STM32F4xx_HAL_Driver/Src/stm32f4xx_ll_sdmmc.c ****   * @brief  Set SDMMC Power state to OFF. 
 323:HALLIB/STM32F4xx_HAL_Driver/Src/stm32f4xx_ll_sdmmc.c ****   * @param  SDIOx Pointer to SDMMC register base
 324:HALLIB/STM32F4xx_HAL_Driver/Src/stm32f4xx_ll_sdmmc.c ****   * @retval HAL status
 325:HALLIB/STM32F4xx_HAL_Driver/Src/stm32f4xx_ll_sdmmc.c ****   */
 326:HALLIB/STM32F4xx_HAL_Driver/Src/stm32f4xx_ll_sdmmc.c **** HAL_StatusTypeDef SDIO_PowerState_OFF(SDIO_TypeDef *SDIOx)
 327:HALLIB/STM32F4xx_HAL_Driver/Src/stm32f4xx_ll_sdmmc.c **** {
 328:HALLIB/STM32F4xx_HAL_Driver/Src/stm32f4xx_ll_sdmmc.c ****   /* Set power state to OFF */
 329:HALLIB/STM32F4xx_HAL_Driver/Src/stm32f4xx_ll_sdmmc.c ****   SDIOx->POWER = 0x00000000U;
 330:HALLIB/STM32F4xx_HAL_Driver/Src/stm32f4xx_ll_sdmmc.c ****   
 331:HALLIB/STM32F4xx_HAL_Driver/Src/stm32f4xx_ll_sdmmc.c ****   return HAL_OK;
 332:HALLIB/STM32F4xx_HAL_Driver/Src/stm32f4xx_ll_sdmmc.c **** }
 333:HALLIB/STM32F4xx_HAL_Driver/Src/stm32f4xx_ll_sdmmc.c **** 
 334:HALLIB/STM32F4xx_HAL_Driver/Src/stm32f4xx_ll_sdmmc.c **** /**
 335:HALLIB/STM32F4xx_HAL_Driver/Src/stm32f4xx_ll_sdmmc.c ****   * @brief  Get SDMMC Power state. 
 336:HALLIB/STM32F4xx_HAL_Driver/Src/stm32f4xx_ll_sdmmc.c ****   * @param  SDIOx Pointer to SDMMC register base
 337:HALLIB/STM32F4xx_HAL_Driver/Src/stm32f4xx_ll_sdmmc.c ****   * @retval Power status of the controller. The returned value can be one of the 
 338:HALLIB/STM32F4xx_HAL_Driver/Src/stm32f4xx_ll_sdmmc.c ****   *         following values:
 339:HALLIB/STM32F4xx_HAL_Driver/Src/stm32f4xx_ll_sdmmc.c ****   *            - 0x00: Power OFF
 340:HALLIB/STM32F4xx_HAL_Driver/Src/stm32f4xx_ll_sdmmc.c ****   *            - 0x02: Power UP
 341:HALLIB/STM32F4xx_HAL_Driver/Src/stm32f4xx_ll_sdmmc.c ****   *            - 0x03: Power ON 
 342:HALLIB/STM32F4xx_HAL_Driver/Src/stm32f4xx_ll_sdmmc.c ****   */
 343:HALLIB/STM32F4xx_HAL_Driver/Src/stm32f4xx_ll_sdmmc.c **** uint32_t SDIO_GetPowerState(SDIO_TypeDef *SDIOx)  
 344:HALLIB/STM32F4xx_HAL_Driver/Src/stm32f4xx_ll_sdmmc.c **** {
 345:HALLIB/STM32F4xx_HAL_Driver/Src/stm32f4xx_ll_sdmmc.c ****   return (SDIOx->POWER & SDIO_POWER_PWRCTRL);
 346:HALLIB/STM32F4xx_HAL_Driver/Src/stm32f4xx_ll_sdmmc.c **** }
 347:HALLIB/STM32F4xx_HAL_Driver/Src/stm32f4xx_ll_sdmmc.c **** 
 348:HALLIB/STM32F4xx_HAL_Driver/Src/stm32f4xx_ll_sdmmc.c **** /**
 349:HALLIB/STM32F4xx_HAL_Driver/Src/stm32f4xx_ll_sdmmc.c ****   * @brief  Configure the SDMMC command path according to the specified parameters in
 350:HALLIB/STM32F4xx_HAL_Driver/Src/stm32f4xx_ll_sdmmc.c ****   *         SDIO_CmdInitTypeDef structure and send the command 
 351:HALLIB/STM32F4xx_HAL_Driver/Src/stm32f4xx_ll_sdmmc.c ****   * @param  SDIOx Pointer to SDMMC register base
 352:HALLIB/STM32F4xx_HAL_Driver/Src/stm32f4xx_ll_sdmmc.c ****   * @param  Command pointer to a SDIO_CmdInitTypeDef structure that contains 
 353:HALLIB/STM32F4xx_HAL_Driver/Src/stm32f4xx_ll_sdmmc.c ****   *         the configuration information for the SDMMC command
 354:HALLIB/STM32F4xx_HAL_Driver/Src/stm32f4xx_ll_sdmmc.c ****   * @retval HAL status
 355:HALLIB/STM32F4xx_HAL_Driver/Src/stm32f4xx_ll_sdmmc.c ****   */
 356:HALLIB/STM32F4xx_HAL_Driver/Src/stm32f4xx_ll_sdmmc.c **** HAL_StatusTypeDef SDIO_SendCommand(SDIO_TypeDef *SDIOx, SDIO_CmdInitTypeDef *Command)
 357:HALLIB/STM32F4xx_HAL_Driver/Src/stm32f4xx_ll_sdmmc.c **** {
 358:HALLIB/STM32F4xx_HAL_Driver/Src/stm32f4xx_ll_sdmmc.c ****   uint32_t tmpreg = 0U;
 359:HALLIB/STM32F4xx_HAL_Driver/Src/stm32f4xx_ll_sdmmc.c ****   
 360:HALLIB/STM32F4xx_HAL_Driver/Src/stm32f4xx_ll_sdmmc.c ****   /* Check the parameters */
 361:HALLIB/STM32F4xx_HAL_Driver/Src/stm32f4xx_ll_sdmmc.c ****   assert_param(IS_SDIO_CMD_INDEX(Command->CmdIndex));
 362:HALLIB/STM32F4xx_HAL_Driver/Src/stm32f4xx_ll_sdmmc.c ****   assert_param(IS_SDIO_RESPONSE(Command->Response));
 363:HALLIB/STM32F4xx_HAL_Driver/Src/stm32f4xx_ll_sdmmc.c ****   assert_param(IS_SDIO_WAIT(Command->WaitForInterrupt));
 364:HALLIB/STM32F4xx_HAL_Driver/Src/stm32f4xx_ll_sdmmc.c ****   assert_param(IS_SDIO_CPSM(Command->CPSM));
 365:HALLIB/STM32F4xx_HAL_Driver/Src/stm32f4xx_ll_sdmmc.c **** 
 366:HALLIB/STM32F4xx_HAL_Driver/Src/stm32f4xx_ll_sdmmc.c ****   /* Set the SDMMC Argument value */
 367:HALLIB/STM32F4xx_HAL_Driver/Src/stm32f4xx_ll_sdmmc.c ****   SDIOx->ARG = Command->Argument;
 368:HALLIB/STM32F4xx_HAL_Driver/Src/stm32f4xx_ll_sdmmc.c **** 
 369:HALLIB/STM32F4xx_HAL_Driver/Src/stm32f4xx_ll_sdmmc.c ****   /* Set SDMMC command parameters */
 370:HALLIB/STM32F4xx_HAL_Driver/Src/stm32f4xx_ll_sdmmc.c ****   tmpreg |= (uint32_t)(Command->CmdIndex         |\
 371:HALLIB/STM32F4xx_HAL_Driver/Src/stm32f4xx_ll_sdmmc.c ****                        Command->Response         |\
 372:HALLIB/STM32F4xx_HAL_Driver/Src/stm32f4xx_ll_sdmmc.c ****                        Command->WaitForInterrupt |\
ARM GAS  /tmp/cce5sGk9.s 			page 8


 373:HALLIB/STM32F4xx_HAL_Driver/Src/stm32f4xx_ll_sdmmc.c ****                        Command->CPSM);
 374:HALLIB/STM32F4xx_HAL_Driver/Src/stm32f4xx_ll_sdmmc.c ****   
 375:HALLIB/STM32F4xx_HAL_Driver/Src/stm32f4xx_ll_sdmmc.c ****   /* Write to SDMMC CMD register */
 376:HALLIB/STM32F4xx_HAL_Driver/Src/stm32f4xx_ll_sdmmc.c ****   MODIFY_REG(SDIOx->CMD, CMD_CLEAR_MASK, tmpreg); 
 377:HALLIB/STM32F4xx_HAL_Driver/Src/stm32f4xx_ll_sdmmc.c ****   
 378:HALLIB/STM32F4xx_HAL_Driver/Src/stm32f4xx_ll_sdmmc.c ****   return HAL_OK;  
 379:HALLIB/STM32F4xx_HAL_Driver/Src/stm32f4xx_ll_sdmmc.c **** }
 380:HALLIB/STM32F4xx_HAL_Driver/Src/stm32f4xx_ll_sdmmc.c **** 
 381:HALLIB/STM32F4xx_HAL_Driver/Src/stm32f4xx_ll_sdmmc.c **** /**
 382:HALLIB/STM32F4xx_HAL_Driver/Src/stm32f4xx_ll_sdmmc.c ****   * @brief  Return the command index of last command for which response received
 383:HALLIB/STM32F4xx_HAL_Driver/Src/stm32f4xx_ll_sdmmc.c ****   * @param  SDIOx Pointer to SDMMC register base
 384:HALLIB/STM32F4xx_HAL_Driver/Src/stm32f4xx_ll_sdmmc.c ****   * @retval Command index of the last command response received
 385:HALLIB/STM32F4xx_HAL_Driver/Src/stm32f4xx_ll_sdmmc.c ****   */
 386:HALLIB/STM32F4xx_HAL_Driver/Src/stm32f4xx_ll_sdmmc.c **** uint8_t SDIO_GetCommandResponse(SDIO_TypeDef *SDIOx)
 387:HALLIB/STM32F4xx_HAL_Driver/Src/stm32f4xx_ll_sdmmc.c **** {
 388:HALLIB/STM32F4xx_HAL_Driver/Src/stm32f4xx_ll_sdmmc.c ****   return (uint8_t)(SDIOx->RESPCMD);
 389:HALLIB/STM32F4xx_HAL_Driver/Src/stm32f4xx_ll_sdmmc.c **** }
 390:HALLIB/STM32F4xx_HAL_Driver/Src/stm32f4xx_ll_sdmmc.c **** 
 391:HALLIB/STM32F4xx_HAL_Driver/Src/stm32f4xx_ll_sdmmc.c **** 
 392:HALLIB/STM32F4xx_HAL_Driver/Src/stm32f4xx_ll_sdmmc.c **** /**
 393:HALLIB/STM32F4xx_HAL_Driver/Src/stm32f4xx_ll_sdmmc.c ****   * @brief  Return the response received from the card for the last command
 394:HALLIB/STM32F4xx_HAL_Driver/Src/stm32f4xx_ll_sdmmc.c ****   * @param  SDIOx Pointer to SDMMC register base    
 395:HALLIB/STM32F4xx_HAL_Driver/Src/stm32f4xx_ll_sdmmc.c ****   * @param  Response Specifies the SDMMC response register. 
 396:HALLIB/STM32F4xx_HAL_Driver/Src/stm32f4xx_ll_sdmmc.c ****   *          This parameter can be one of the following values:
 397:HALLIB/STM32F4xx_HAL_Driver/Src/stm32f4xx_ll_sdmmc.c ****   *            @arg SDIO_RESP1: Response Register 1
 398:HALLIB/STM32F4xx_HAL_Driver/Src/stm32f4xx_ll_sdmmc.c ****   *            @arg SDIO_RESP1: Response Register 2
 399:HALLIB/STM32F4xx_HAL_Driver/Src/stm32f4xx_ll_sdmmc.c ****   *            @arg SDIO_RESP1: Response Register 3
 400:HALLIB/STM32F4xx_HAL_Driver/Src/stm32f4xx_ll_sdmmc.c ****   *            @arg SDIO_RESP1: Response Register 4  
 401:HALLIB/STM32F4xx_HAL_Driver/Src/stm32f4xx_ll_sdmmc.c ****   * @retval The Corresponding response register value
 402:HALLIB/STM32F4xx_HAL_Driver/Src/stm32f4xx_ll_sdmmc.c ****   */
 403:HALLIB/STM32F4xx_HAL_Driver/Src/stm32f4xx_ll_sdmmc.c **** uint32_t SDIO_GetResponse(SDIO_TypeDef *SDIOx, uint32_t Response)
 404:HALLIB/STM32F4xx_HAL_Driver/Src/stm32f4xx_ll_sdmmc.c **** {
 405:HALLIB/STM32F4xx_HAL_Driver/Src/stm32f4xx_ll_sdmmc.c ****   __IO uint32_t tmp = 0U;
 406:HALLIB/STM32F4xx_HAL_Driver/Src/stm32f4xx_ll_sdmmc.c **** 
 407:HALLIB/STM32F4xx_HAL_Driver/Src/stm32f4xx_ll_sdmmc.c ****   /* Check the parameters */
 408:HALLIB/STM32F4xx_HAL_Driver/Src/stm32f4xx_ll_sdmmc.c ****   assert_param(IS_SDIO_RESP(Response));
 409:HALLIB/STM32F4xx_HAL_Driver/Src/stm32f4xx_ll_sdmmc.c ****   
 410:HALLIB/STM32F4xx_HAL_Driver/Src/stm32f4xx_ll_sdmmc.c ****   /* Get the response */
 411:HALLIB/STM32F4xx_HAL_Driver/Src/stm32f4xx_ll_sdmmc.c ****   tmp = (uint32_t)&(SDIOx->RESP1) + Response;
 412:HALLIB/STM32F4xx_HAL_Driver/Src/stm32f4xx_ll_sdmmc.c ****   
 413:HALLIB/STM32F4xx_HAL_Driver/Src/stm32f4xx_ll_sdmmc.c ****   return (*(__IO uint32_t *) tmp);
 414:HALLIB/STM32F4xx_HAL_Driver/Src/stm32f4xx_ll_sdmmc.c **** }  
 415:HALLIB/STM32F4xx_HAL_Driver/Src/stm32f4xx_ll_sdmmc.c **** 
 416:HALLIB/STM32F4xx_HAL_Driver/Src/stm32f4xx_ll_sdmmc.c **** /**
 417:HALLIB/STM32F4xx_HAL_Driver/Src/stm32f4xx_ll_sdmmc.c ****   * @brief  Configure the SDMMC data path according to the specified 
 418:HALLIB/STM32F4xx_HAL_Driver/Src/stm32f4xx_ll_sdmmc.c ****   *         parameters in the SDIO_DataInitTypeDef.
 419:HALLIB/STM32F4xx_HAL_Driver/Src/stm32f4xx_ll_sdmmc.c ****   * @param  SDIOx Pointer to SDMMC register base  
 420:HALLIB/STM32F4xx_HAL_Driver/Src/stm32f4xx_ll_sdmmc.c ****   * @param  Data  pointer to a SDIO_DataInitTypeDef structure 
 421:HALLIB/STM32F4xx_HAL_Driver/Src/stm32f4xx_ll_sdmmc.c ****   *         that contains the configuration information for the SDMMC data.
 422:HALLIB/STM32F4xx_HAL_Driver/Src/stm32f4xx_ll_sdmmc.c ****   * @retval HAL status
 423:HALLIB/STM32F4xx_HAL_Driver/Src/stm32f4xx_ll_sdmmc.c ****   */
 424:HALLIB/STM32F4xx_HAL_Driver/Src/stm32f4xx_ll_sdmmc.c **** HAL_StatusTypeDef SDIO_ConfigData(SDIO_TypeDef *SDIOx, SDIO_DataInitTypeDef* Data)
 425:HALLIB/STM32F4xx_HAL_Driver/Src/stm32f4xx_ll_sdmmc.c **** {
 426:HALLIB/STM32F4xx_HAL_Driver/Src/stm32f4xx_ll_sdmmc.c ****   uint32_t tmpreg = 0U;
 427:HALLIB/STM32F4xx_HAL_Driver/Src/stm32f4xx_ll_sdmmc.c ****   
 428:HALLIB/STM32F4xx_HAL_Driver/Src/stm32f4xx_ll_sdmmc.c ****   /* Check the parameters */
 429:HALLIB/STM32F4xx_HAL_Driver/Src/stm32f4xx_ll_sdmmc.c ****   assert_param(IS_SDIO_DATA_LENGTH(Data->DataLength));
ARM GAS  /tmp/cce5sGk9.s 			page 9


 430:HALLIB/STM32F4xx_HAL_Driver/Src/stm32f4xx_ll_sdmmc.c ****   assert_param(IS_SDIO_BLOCK_SIZE(Data->DataBlockSize));
 431:HALLIB/STM32F4xx_HAL_Driver/Src/stm32f4xx_ll_sdmmc.c ****   assert_param(IS_SDIO_TRANSFER_DIR(Data->TransferDir));
 432:HALLIB/STM32F4xx_HAL_Driver/Src/stm32f4xx_ll_sdmmc.c ****   assert_param(IS_SDIO_TRANSFER_MODE(Data->TransferMode));
 433:HALLIB/STM32F4xx_HAL_Driver/Src/stm32f4xx_ll_sdmmc.c ****   assert_param(IS_SDIO_DPSM(Data->DPSM));
 434:HALLIB/STM32F4xx_HAL_Driver/Src/stm32f4xx_ll_sdmmc.c **** 
 435:HALLIB/STM32F4xx_HAL_Driver/Src/stm32f4xx_ll_sdmmc.c ****   /* Set the SDMMC Data TimeOut value */
 436:HALLIB/STM32F4xx_HAL_Driver/Src/stm32f4xx_ll_sdmmc.c ****   SDIOx->DTIMER = Data->DataTimeOut;
 437:HALLIB/STM32F4xx_HAL_Driver/Src/stm32f4xx_ll_sdmmc.c **** 
 438:HALLIB/STM32F4xx_HAL_Driver/Src/stm32f4xx_ll_sdmmc.c ****   /* Set the SDMMC DataLength value */
 439:HALLIB/STM32F4xx_HAL_Driver/Src/stm32f4xx_ll_sdmmc.c ****   SDIOx->DLEN = Data->DataLength;
 440:HALLIB/STM32F4xx_HAL_Driver/Src/stm32f4xx_ll_sdmmc.c **** 
 441:HALLIB/STM32F4xx_HAL_Driver/Src/stm32f4xx_ll_sdmmc.c ****   /* Set the SDMMC data configuration parameters */
 442:HALLIB/STM32F4xx_HAL_Driver/Src/stm32f4xx_ll_sdmmc.c ****   tmpreg |= (uint32_t)(Data->DataBlockSize |\
 443:HALLIB/STM32F4xx_HAL_Driver/Src/stm32f4xx_ll_sdmmc.c ****                        Data->TransferDir   |\
 444:HALLIB/STM32F4xx_HAL_Driver/Src/stm32f4xx_ll_sdmmc.c ****                        Data->TransferMode  |\
 445:HALLIB/STM32F4xx_HAL_Driver/Src/stm32f4xx_ll_sdmmc.c ****                        Data->DPSM);
 446:HALLIB/STM32F4xx_HAL_Driver/Src/stm32f4xx_ll_sdmmc.c ****   
 447:HALLIB/STM32F4xx_HAL_Driver/Src/stm32f4xx_ll_sdmmc.c ****   /* Write to SDMMC DCTRL */
 448:HALLIB/STM32F4xx_HAL_Driver/Src/stm32f4xx_ll_sdmmc.c ****   MODIFY_REG(SDIOx->DCTRL, DCTRL_CLEAR_MASK, tmpreg);
 449:HALLIB/STM32F4xx_HAL_Driver/Src/stm32f4xx_ll_sdmmc.c **** 
 450:HALLIB/STM32F4xx_HAL_Driver/Src/stm32f4xx_ll_sdmmc.c ****   return HAL_OK;
 451:HALLIB/STM32F4xx_HAL_Driver/Src/stm32f4xx_ll_sdmmc.c **** 
 452:HALLIB/STM32F4xx_HAL_Driver/Src/stm32f4xx_ll_sdmmc.c **** }
 453:HALLIB/STM32F4xx_HAL_Driver/Src/stm32f4xx_ll_sdmmc.c **** 
 454:HALLIB/STM32F4xx_HAL_Driver/Src/stm32f4xx_ll_sdmmc.c **** /**
 455:HALLIB/STM32F4xx_HAL_Driver/Src/stm32f4xx_ll_sdmmc.c ****   * @brief  Returns number of remaining data bytes to be transferred.
 456:HALLIB/STM32F4xx_HAL_Driver/Src/stm32f4xx_ll_sdmmc.c ****   * @param  SDIOx Pointer to SDMMC register base
 457:HALLIB/STM32F4xx_HAL_Driver/Src/stm32f4xx_ll_sdmmc.c ****   * @retval Number of remaining data bytes to be transferred
 458:HALLIB/STM32F4xx_HAL_Driver/Src/stm32f4xx_ll_sdmmc.c ****   */
 459:HALLIB/STM32F4xx_HAL_Driver/Src/stm32f4xx_ll_sdmmc.c **** uint32_t SDIO_GetDataCounter(SDIO_TypeDef *SDIOx)
 460:HALLIB/STM32F4xx_HAL_Driver/Src/stm32f4xx_ll_sdmmc.c **** {
 461:HALLIB/STM32F4xx_HAL_Driver/Src/stm32f4xx_ll_sdmmc.c ****   return (SDIOx->DCOUNT);
 462:HALLIB/STM32F4xx_HAL_Driver/Src/stm32f4xx_ll_sdmmc.c **** }
 463:HALLIB/STM32F4xx_HAL_Driver/Src/stm32f4xx_ll_sdmmc.c **** 
 464:HALLIB/STM32F4xx_HAL_Driver/Src/stm32f4xx_ll_sdmmc.c **** /**
 465:HALLIB/STM32F4xx_HAL_Driver/Src/stm32f4xx_ll_sdmmc.c ****   * @brief  Get the FIFO data
 466:HALLIB/STM32F4xx_HAL_Driver/Src/stm32f4xx_ll_sdmmc.c ****   * @param  SDIOx Pointer to SDMMC register base 
 467:HALLIB/STM32F4xx_HAL_Driver/Src/stm32f4xx_ll_sdmmc.c ****   * @retval Data received
 468:HALLIB/STM32F4xx_HAL_Driver/Src/stm32f4xx_ll_sdmmc.c ****   */
 469:HALLIB/STM32F4xx_HAL_Driver/Src/stm32f4xx_ll_sdmmc.c **** uint32_t SDIO_GetFIFOCount(SDIO_TypeDef *SDIOx)
 470:HALLIB/STM32F4xx_HAL_Driver/Src/stm32f4xx_ll_sdmmc.c **** {
 471:HALLIB/STM32F4xx_HAL_Driver/Src/stm32f4xx_ll_sdmmc.c ****   return (SDIOx->FIFO);
 472:HALLIB/STM32F4xx_HAL_Driver/Src/stm32f4xx_ll_sdmmc.c **** }
 473:HALLIB/STM32F4xx_HAL_Driver/Src/stm32f4xx_ll_sdmmc.c **** 
 474:HALLIB/STM32F4xx_HAL_Driver/Src/stm32f4xx_ll_sdmmc.c **** /**
 475:HALLIB/STM32F4xx_HAL_Driver/Src/stm32f4xx_ll_sdmmc.c ****   * @brief  Sets one of the two options of inserting read wait interval.
 476:HALLIB/STM32F4xx_HAL_Driver/Src/stm32f4xx_ll_sdmmc.c ****   * @param  SDIOx Pointer to SDMMC register base   
 477:HALLIB/STM32F4xx_HAL_Driver/Src/stm32f4xx_ll_sdmmc.c ****   * @param  SDIO_ReadWaitMode SDMMC Read Wait operation mode.
 478:HALLIB/STM32F4xx_HAL_Driver/Src/stm32f4xx_ll_sdmmc.c ****   *          This parameter can be:
 479:HALLIB/STM32F4xx_HAL_Driver/Src/stm32f4xx_ll_sdmmc.c ****   *            @arg SDIO_READ_WAIT_MODE_CLK: Read Wait control by stopping SDMMCCLK
 480:HALLIB/STM32F4xx_HAL_Driver/Src/stm32f4xx_ll_sdmmc.c ****   *            @arg SDIO_READ_WAIT_MODE_DATA2: Read Wait control using SDMMC_DATA2
 481:HALLIB/STM32F4xx_HAL_Driver/Src/stm32f4xx_ll_sdmmc.c ****   * @retval None
 482:HALLIB/STM32F4xx_HAL_Driver/Src/stm32f4xx_ll_sdmmc.c ****   */
 483:HALLIB/STM32F4xx_HAL_Driver/Src/stm32f4xx_ll_sdmmc.c **** HAL_StatusTypeDef SDIO_SetSDMMCReadWaitMode(SDIO_TypeDef *SDIOx, uint32_t SDIO_ReadWaitMode)
 484:HALLIB/STM32F4xx_HAL_Driver/Src/stm32f4xx_ll_sdmmc.c **** {
 485:HALLIB/STM32F4xx_HAL_Driver/Src/stm32f4xx_ll_sdmmc.c ****   /* Check the parameters */
 486:HALLIB/STM32F4xx_HAL_Driver/Src/stm32f4xx_ll_sdmmc.c ****   assert_param(IS_SDIO_READWAIT_MODE(SDIO_ReadWaitMode));
ARM GAS  /tmp/cce5sGk9.s 			page 10


 487:HALLIB/STM32F4xx_HAL_Driver/Src/stm32f4xx_ll_sdmmc.c **** 
 488:HALLIB/STM32F4xx_HAL_Driver/Src/stm32f4xx_ll_sdmmc.c ****   /* Set SDMMC read wait mode */
 489:HALLIB/STM32F4xx_HAL_Driver/Src/stm32f4xx_ll_sdmmc.c ****   MODIFY_REG(SDIOx->DCTRL, SDIO_DCTRL_RWMOD, SDIO_ReadWaitMode);
 490:HALLIB/STM32F4xx_HAL_Driver/Src/stm32f4xx_ll_sdmmc.c ****   
 491:HALLIB/STM32F4xx_HAL_Driver/Src/stm32f4xx_ll_sdmmc.c ****   return HAL_OK;  
 492:HALLIB/STM32F4xx_HAL_Driver/Src/stm32f4xx_ll_sdmmc.c **** }
 493:HALLIB/STM32F4xx_HAL_Driver/Src/stm32f4xx_ll_sdmmc.c **** 
 494:HALLIB/STM32F4xx_HAL_Driver/Src/stm32f4xx_ll_sdmmc.c **** /**
 495:HALLIB/STM32F4xx_HAL_Driver/Src/stm32f4xx_ll_sdmmc.c ****   * @}
 496:HALLIB/STM32F4xx_HAL_Driver/Src/stm32f4xx_ll_sdmmc.c ****   */
 497:HALLIB/STM32F4xx_HAL_Driver/Src/stm32f4xx_ll_sdmmc.c **** 
 498:HALLIB/STM32F4xx_HAL_Driver/Src/stm32f4xx_ll_sdmmc.c **** 
 499:HALLIB/STM32F4xx_HAL_Driver/Src/stm32f4xx_ll_sdmmc.c **** /** @defgroup HAL_SDMMC_LL_Group4 Command management functions 
 500:HALLIB/STM32F4xx_HAL_Driver/Src/stm32f4xx_ll_sdmmc.c ****  *  @brief   Data transfers functions 
 501:HALLIB/STM32F4xx_HAL_Driver/Src/stm32f4xx_ll_sdmmc.c ****  *
 502:HALLIB/STM32F4xx_HAL_Driver/Src/stm32f4xx_ll_sdmmc.c **** @verbatim   
 503:HALLIB/STM32F4xx_HAL_Driver/Src/stm32f4xx_ll_sdmmc.c ****  ===============================================================================
 504:HALLIB/STM32F4xx_HAL_Driver/Src/stm32f4xx_ll_sdmmc.c ****                    ##### Commands management functions #####
 505:HALLIB/STM32F4xx_HAL_Driver/Src/stm32f4xx_ll_sdmmc.c ****  ===============================================================================  
 506:HALLIB/STM32F4xx_HAL_Driver/Src/stm32f4xx_ll_sdmmc.c ****     [..]
 507:HALLIB/STM32F4xx_HAL_Driver/Src/stm32f4xx_ll_sdmmc.c ****     This subsection provides a set of functions allowing to manage the needed commands.
 508:HALLIB/STM32F4xx_HAL_Driver/Src/stm32f4xx_ll_sdmmc.c **** 
 509:HALLIB/STM32F4xx_HAL_Driver/Src/stm32f4xx_ll_sdmmc.c **** @endverbatim
 510:HALLIB/STM32F4xx_HAL_Driver/Src/stm32f4xx_ll_sdmmc.c ****   * @{
 511:HALLIB/STM32F4xx_HAL_Driver/Src/stm32f4xx_ll_sdmmc.c ****   */
 512:HALLIB/STM32F4xx_HAL_Driver/Src/stm32f4xx_ll_sdmmc.c **** 
 513:HALLIB/STM32F4xx_HAL_Driver/Src/stm32f4xx_ll_sdmmc.c **** /**
 514:HALLIB/STM32F4xx_HAL_Driver/Src/stm32f4xx_ll_sdmmc.c ****   * @brief  Send the Data Block Lenght command and check the response
 515:HALLIB/STM32F4xx_HAL_Driver/Src/stm32f4xx_ll_sdmmc.c ****   * @param  SDIOx Pointer to SDMMC register base 
 516:HALLIB/STM32F4xx_HAL_Driver/Src/stm32f4xx_ll_sdmmc.c ****   * @retval HAL status
 517:HALLIB/STM32F4xx_HAL_Driver/Src/stm32f4xx_ll_sdmmc.c ****   */
 518:HALLIB/STM32F4xx_HAL_Driver/Src/stm32f4xx_ll_sdmmc.c **** uint32_t SDMMC_CmdBlockLength(SDIO_TypeDef *SDIOx, uint32_t BlockSize)
 519:HALLIB/STM32F4xx_HAL_Driver/Src/stm32f4xx_ll_sdmmc.c **** {
 520:HALLIB/STM32F4xx_HAL_Driver/Src/stm32f4xx_ll_sdmmc.c ****   SDIO_CmdInitTypeDef  sdmmc_cmdinit;
 521:HALLIB/STM32F4xx_HAL_Driver/Src/stm32f4xx_ll_sdmmc.c ****   uint32_t errorstate = SDMMC_ERROR_NONE;
 522:HALLIB/STM32F4xx_HAL_Driver/Src/stm32f4xx_ll_sdmmc.c ****   
 523:HALLIB/STM32F4xx_HAL_Driver/Src/stm32f4xx_ll_sdmmc.c ****   /* Set Block Size for Card */ 
 524:HALLIB/STM32F4xx_HAL_Driver/Src/stm32f4xx_ll_sdmmc.c ****   sdmmc_cmdinit.Argument         = (uint32_t)BlockSize;
 525:HALLIB/STM32F4xx_HAL_Driver/Src/stm32f4xx_ll_sdmmc.c ****   sdmmc_cmdinit.CmdIndex         = SDMMC_CMD_SET_BLOCKLEN;
 526:HALLIB/STM32F4xx_HAL_Driver/Src/stm32f4xx_ll_sdmmc.c ****   sdmmc_cmdinit.Response         = SDIO_RESPONSE_SHORT;
 527:HALLIB/STM32F4xx_HAL_Driver/Src/stm32f4xx_ll_sdmmc.c ****   sdmmc_cmdinit.WaitForInterrupt = SDIO_WAIT_NO;
 528:HALLIB/STM32F4xx_HAL_Driver/Src/stm32f4xx_ll_sdmmc.c ****   sdmmc_cmdinit.CPSM             = SDIO_CPSM_ENABLE;
 529:HALLIB/STM32F4xx_HAL_Driver/Src/stm32f4xx_ll_sdmmc.c ****   SDIO_SendCommand(SDIOx, &sdmmc_cmdinit);
 530:HALLIB/STM32F4xx_HAL_Driver/Src/stm32f4xx_ll_sdmmc.c ****   
 531:HALLIB/STM32F4xx_HAL_Driver/Src/stm32f4xx_ll_sdmmc.c ****   /* Check for error conditions */
 532:HALLIB/STM32F4xx_HAL_Driver/Src/stm32f4xx_ll_sdmmc.c ****   errorstate = SDMMC_GetCmdResp1(SDIOx, SDMMC_CMD_SET_BLOCKLEN, SDIO_CMDTIMEOUT);
 533:HALLIB/STM32F4xx_HAL_Driver/Src/stm32f4xx_ll_sdmmc.c **** 
 534:HALLIB/STM32F4xx_HAL_Driver/Src/stm32f4xx_ll_sdmmc.c ****   return errorstate;
 535:HALLIB/STM32F4xx_HAL_Driver/Src/stm32f4xx_ll_sdmmc.c **** }
 536:HALLIB/STM32F4xx_HAL_Driver/Src/stm32f4xx_ll_sdmmc.c **** 
 537:HALLIB/STM32F4xx_HAL_Driver/Src/stm32f4xx_ll_sdmmc.c **** /**
 538:HALLIB/STM32F4xx_HAL_Driver/Src/stm32f4xx_ll_sdmmc.c ****   * @brief  Send the Read Single Block command and check the response
 539:HALLIB/STM32F4xx_HAL_Driver/Src/stm32f4xx_ll_sdmmc.c ****   * @param  SDIOx Pointer to SDMMC register base 
 540:HALLIB/STM32F4xx_HAL_Driver/Src/stm32f4xx_ll_sdmmc.c ****   * @retval HAL status
 541:HALLIB/STM32F4xx_HAL_Driver/Src/stm32f4xx_ll_sdmmc.c ****   */
 542:HALLIB/STM32F4xx_HAL_Driver/Src/stm32f4xx_ll_sdmmc.c **** uint32_t SDMMC_CmdReadSingleBlock(SDIO_TypeDef *SDIOx, uint32_t ReadAdd)
 543:HALLIB/STM32F4xx_HAL_Driver/Src/stm32f4xx_ll_sdmmc.c **** {
ARM GAS  /tmp/cce5sGk9.s 			page 11


 544:HALLIB/STM32F4xx_HAL_Driver/Src/stm32f4xx_ll_sdmmc.c ****   SDIO_CmdInitTypeDef  sdmmc_cmdinit;
 545:HALLIB/STM32F4xx_HAL_Driver/Src/stm32f4xx_ll_sdmmc.c ****   uint32_t errorstate = SDMMC_ERROR_NONE;
 546:HALLIB/STM32F4xx_HAL_Driver/Src/stm32f4xx_ll_sdmmc.c ****   
 547:HALLIB/STM32F4xx_HAL_Driver/Src/stm32f4xx_ll_sdmmc.c ****   /* Set Block Size for Card */ 
 548:HALLIB/STM32F4xx_HAL_Driver/Src/stm32f4xx_ll_sdmmc.c ****   sdmmc_cmdinit.Argument         = (uint32_t)ReadAdd;
 549:HALLIB/STM32F4xx_HAL_Driver/Src/stm32f4xx_ll_sdmmc.c ****   sdmmc_cmdinit.CmdIndex         = SDMMC_CMD_READ_SINGLE_BLOCK;
 550:HALLIB/STM32F4xx_HAL_Driver/Src/stm32f4xx_ll_sdmmc.c ****   sdmmc_cmdinit.Response         = SDIO_RESPONSE_SHORT;
 551:HALLIB/STM32F4xx_HAL_Driver/Src/stm32f4xx_ll_sdmmc.c ****   sdmmc_cmdinit.WaitForInterrupt = SDIO_WAIT_NO;
 552:HALLIB/STM32F4xx_HAL_Driver/Src/stm32f4xx_ll_sdmmc.c ****   sdmmc_cmdinit.CPSM             = SDIO_CPSM_ENABLE;
 553:HALLIB/STM32F4xx_HAL_Driver/Src/stm32f4xx_ll_sdmmc.c ****   SDIO_SendCommand(SDIOx, &sdmmc_cmdinit);
 554:HALLIB/STM32F4xx_HAL_Driver/Src/stm32f4xx_ll_sdmmc.c ****   
 555:HALLIB/STM32F4xx_HAL_Driver/Src/stm32f4xx_ll_sdmmc.c ****   /* Check for error conditions */
 556:HALLIB/STM32F4xx_HAL_Driver/Src/stm32f4xx_ll_sdmmc.c ****   errorstate = SDMMC_GetCmdResp1(SDIOx, SDMMC_CMD_READ_SINGLE_BLOCK, SDIO_CMDTIMEOUT);
 557:HALLIB/STM32F4xx_HAL_Driver/Src/stm32f4xx_ll_sdmmc.c **** 
 558:HALLIB/STM32F4xx_HAL_Driver/Src/stm32f4xx_ll_sdmmc.c ****   return errorstate;
 559:HALLIB/STM32F4xx_HAL_Driver/Src/stm32f4xx_ll_sdmmc.c **** }
 560:HALLIB/STM32F4xx_HAL_Driver/Src/stm32f4xx_ll_sdmmc.c **** 
 561:HALLIB/STM32F4xx_HAL_Driver/Src/stm32f4xx_ll_sdmmc.c **** /**
 562:HALLIB/STM32F4xx_HAL_Driver/Src/stm32f4xx_ll_sdmmc.c ****   * @brief  Send the Read Multi Block command and check the response
 563:HALLIB/STM32F4xx_HAL_Driver/Src/stm32f4xx_ll_sdmmc.c ****   * @param  SDIOx Pointer to SDIO register base 
 564:HALLIB/STM32F4xx_HAL_Driver/Src/stm32f4xx_ll_sdmmc.c ****   * @retval HAL status
 565:HALLIB/STM32F4xx_HAL_Driver/Src/stm32f4xx_ll_sdmmc.c ****   */
 566:HALLIB/STM32F4xx_HAL_Driver/Src/stm32f4xx_ll_sdmmc.c **** uint32_t SDMMC_CmdReadMultiBlock(SDIO_TypeDef *SDIOx, uint32_t ReadAdd)
 567:HALLIB/STM32F4xx_HAL_Driver/Src/stm32f4xx_ll_sdmmc.c **** {
 568:HALLIB/STM32F4xx_HAL_Driver/Src/stm32f4xx_ll_sdmmc.c ****   SDIO_CmdInitTypeDef  sdmmc_cmdinit;
 569:HALLIB/STM32F4xx_HAL_Driver/Src/stm32f4xx_ll_sdmmc.c ****   uint32_t errorstate = SDMMC_ERROR_NONE;
 570:HALLIB/STM32F4xx_HAL_Driver/Src/stm32f4xx_ll_sdmmc.c ****   
 571:HALLIB/STM32F4xx_HAL_Driver/Src/stm32f4xx_ll_sdmmc.c ****   /* Set Block Size for Card */ 
 572:HALLIB/STM32F4xx_HAL_Driver/Src/stm32f4xx_ll_sdmmc.c ****   sdmmc_cmdinit.Argument         = (uint32_t)ReadAdd;
 573:HALLIB/STM32F4xx_HAL_Driver/Src/stm32f4xx_ll_sdmmc.c ****   sdmmc_cmdinit.CmdIndex         = SDMMC_CMD_READ_MULT_BLOCK;
 574:HALLIB/STM32F4xx_HAL_Driver/Src/stm32f4xx_ll_sdmmc.c ****   sdmmc_cmdinit.Response         = SDIO_RESPONSE_SHORT;
 575:HALLIB/STM32F4xx_HAL_Driver/Src/stm32f4xx_ll_sdmmc.c ****   sdmmc_cmdinit.WaitForInterrupt = SDIO_WAIT_NO;
 576:HALLIB/STM32F4xx_HAL_Driver/Src/stm32f4xx_ll_sdmmc.c ****   sdmmc_cmdinit.CPSM             = SDIO_CPSM_ENABLE;
 577:HALLIB/STM32F4xx_HAL_Driver/Src/stm32f4xx_ll_sdmmc.c ****   SDIO_SendCommand(SDIOx, &sdmmc_cmdinit);
 578:HALLIB/STM32F4xx_HAL_Driver/Src/stm32f4xx_ll_sdmmc.c ****   
 579:HALLIB/STM32F4xx_HAL_Driver/Src/stm32f4xx_ll_sdmmc.c ****   /* Check for error conditions */
 580:HALLIB/STM32F4xx_HAL_Driver/Src/stm32f4xx_ll_sdmmc.c ****   errorstate = SDMMC_GetCmdResp1(SDIOx, SDMMC_CMD_READ_MULT_BLOCK, SDIO_CMDTIMEOUT);
 581:HALLIB/STM32F4xx_HAL_Driver/Src/stm32f4xx_ll_sdmmc.c **** 
 582:HALLIB/STM32F4xx_HAL_Driver/Src/stm32f4xx_ll_sdmmc.c ****   return errorstate;
 583:HALLIB/STM32F4xx_HAL_Driver/Src/stm32f4xx_ll_sdmmc.c **** }
 584:HALLIB/STM32F4xx_HAL_Driver/Src/stm32f4xx_ll_sdmmc.c **** 
 585:HALLIB/STM32F4xx_HAL_Driver/Src/stm32f4xx_ll_sdmmc.c **** /**
 586:HALLIB/STM32F4xx_HAL_Driver/Src/stm32f4xx_ll_sdmmc.c ****   * @brief  Send the Write Single Block command and check the response
 587:HALLIB/STM32F4xx_HAL_Driver/Src/stm32f4xx_ll_sdmmc.c ****   * @param  SDIOx Pointer to SDIO register base 
 588:HALLIB/STM32F4xx_HAL_Driver/Src/stm32f4xx_ll_sdmmc.c ****   * @retval HAL status
 589:HALLIB/STM32F4xx_HAL_Driver/Src/stm32f4xx_ll_sdmmc.c ****   */
 590:HALLIB/STM32F4xx_HAL_Driver/Src/stm32f4xx_ll_sdmmc.c **** uint32_t SDMMC_CmdWriteSingleBlock(SDIO_TypeDef *SDIOx, uint32_t WriteAdd)
 591:HALLIB/STM32F4xx_HAL_Driver/Src/stm32f4xx_ll_sdmmc.c **** {
 592:HALLIB/STM32F4xx_HAL_Driver/Src/stm32f4xx_ll_sdmmc.c ****   SDIO_CmdInitTypeDef  sdmmc_cmdinit;
 593:HALLIB/STM32F4xx_HAL_Driver/Src/stm32f4xx_ll_sdmmc.c ****   uint32_t errorstate = SDMMC_ERROR_NONE;
 594:HALLIB/STM32F4xx_HAL_Driver/Src/stm32f4xx_ll_sdmmc.c ****   
 595:HALLIB/STM32F4xx_HAL_Driver/Src/stm32f4xx_ll_sdmmc.c ****   /* Set Block Size for Card */ 
 596:HALLIB/STM32F4xx_HAL_Driver/Src/stm32f4xx_ll_sdmmc.c ****   sdmmc_cmdinit.Argument         = (uint32_t)WriteAdd;
 597:HALLIB/STM32F4xx_HAL_Driver/Src/stm32f4xx_ll_sdmmc.c ****   sdmmc_cmdinit.CmdIndex         = SDMMC_CMD_WRITE_SINGLE_BLOCK;
 598:HALLIB/STM32F4xx_HAL_Driver/Src/stm32f4xx_ll_sdmmc.c ****   sdmmc_cmdinit.Response         = SDIO_RESPONSE_SHORT;
 599:HALLIB/STM32F4xx_HAL_Driver/Src/stm32f4xx_ll_sdmmc.c ****   sdmmc_cmdinit.WaitForInterrupt = SDIO_WAIT_NO;
 600:HALLIB/STM32F4xx_HAL_Driver/Src/stm32f4xx_ll_sdmmc.c ****   sdmmc_cmdinit.CPSM             = SDIO_CPSM_ENABLE;
ARM GAS  /tmp/cce5sGk9.s 			page 12


 601:HALLIB/STM32F4xx_HAL_Driver/Src/stm32f4xx_ll_sdmmc.c ****   SDIO_SendCommand(SDIOx, &sdmmc_cmdinit);
 602:HALLIB/STM32F4xx_HAL_Driver/Src/stm32f4xx_ll_sdmmc.c ****   
 603:HALLIB/STM32F4xx_HAL_Driver/Src/stm32f4xx_ll_sdmmc.c ****   /* Check for error conditions */
 604:HALLIB/STM32F4xx_HAL_Driver/Src/stm32f4xx_ll_sdmmc.c ****   errorstate = SDMMC_GetCmdResp1(SDIOx, SDMMC_CMD_WRITE_SINGLE_BLOCK, SDIO_CMDTIMEOUT);
 605:HALLIB/STM32F4xx_HAL_Driver/Src/stm32f4xx_ll_sdmmc.c **** 
 606:HALLIB/STM32F4xx_HAL_Driver/Src/stm32f4xx_ll_sdmmc.c ****   return errorstate;
 607:HALLIB/STM32F4xx_HAL_Driver/Src/stm32f4xx_ll_sdmmc.c **** }
 608:HALLIB/STM32F4xx_HAL_Driver/Src/stm32f4xx_ll_sdmmc.c **** 
 609:HALLIB/STM32F4xx_HAL_Driver/Src/stm32f4xx_ll_sdmmc.c **** /**
 610:HALLIB/STM32F4xx_HAL_Driver/Src/stm32f4xx_ll_sdmmc.c ****   * @brief  Send the Write Multi Block command and check the response
 611:HALLIB/STM32F4xx_HAL_Driver/Src/stm32f4xx_ll_sdmmc.c ****   * @param  SDIOx Pointer to SDIO register base 
 612:HALLIB/STM32F4xx_HAL_Driver/Src/stm32f4xx_ll_sdmmc.c ****   * @retval HAL status
 613:HALLIB/STM32F4xx_HAL_Driver/Src/stm32f4xx_ll_sdmmc.c ****   */
 614:HALLIB/STM32F4xx_HAL_Driver/Src/stm32f4xx_ll_sdmmc.c **** uint32_t SDMMC_CmdWriteMultiBlock(SDIO_TypeDef *SDIOx, uint32_t WriteAdd)
 615:HALLIB/STM32F4xx_HAL_Driver/Src/stm32f4xx_ll_sdmmc.c **** {
 616:HALLIB/STM32F4xx_HAL_Driver/Src/stm32f4xx_ll_sdmmc.c ****   SDIO_CmdInitTypeDef  sdmmc_cmdinit;
 617:HALLIB/STM32F4xx_HAL_Driver/Src/stm32f4xx_ll_sdmmc.c ****   uint32_t errorstate = SDMMC_ERROR_NONE;
 618:HALLIB/STM32F4xx_HAL_Driver/Src/stm32f4xx_ll_sdmmc.c ****   
 619:HALLIB/STM32F4xx_HAL_Driver/Src/stm32f4xx_ll_sdmmc.c ****   /* Set Block Size for Card */ 
 620:HALLIB/STM32F4xx_HAL_Driver/Src/stm32f4xx_ll_sdmmc.c ****   sdmmc_cmdinit.Argument         = (uint32_t)WriteAdd;
 621:HALLIB/STM32F4xx_HAL_Driver/Src/stm32f4xx_ll_sdmmc.c ****   sdmmc_cmdinit.CmdIndex         = SDMMC_CMD_WRITE_MULT_BLOCK;
 622:HALLIB/STM32F4xx_HAL_Driver/Src/stm32f4xx_ll_sdmmc.c ****   sdmmc_cmdinit.Response         = SDIO_RESPONSE_SHORT;
 623:HALLIB/STM32F4xx_HAL_Driver/Src/stm32f4xx_ll_sdmmc.c ****   sdmmc_cmdinit.WaitForInterrupt = SDIO_WAIT_NO;
 624:HALLIB/STM32F4xx_HAL_Driver/Src/stm32f4xx_ll_sdmmc.c ****   sdmmc_cmdinit.CPSM             = SDIO_CPSM_ENABLE;
 625:HALLIB/STM32F4xx_HAL_Driver/Src/stm32f4xx_ll_sdmmc.c ****   SDIO_SendCommand(SDIOx, &sdmmc_cmdinit);
 626:HALLIB/STM32F4xx_HAL_Driver/Src/stm32f4xx_ll_sdmmc.c ****   
 627:HALLIB/STM32F4xx_HAL_Driver/Src/stm32f4xx_ll_sdmmc.c ****   /* Check for error conditions */
 628:HALLIB/STM32F4xx_HAL_Driver/Src/stm32f4xx_ll_sdmmc.c ****   errorstate = SDMMC_GetCmdResp1(SDIOx, SDMMC_CMD_WRITE_MULT_BLOCK, SDIO_CMDTIMEOUT);
 629:HALLIB/STM32F4xx_HAL_Driver/Src/stm32f4xx_ll_sdmmc.c **** 
 630:HALLIB/STM32F4xx_HAL_Driver/Src/stm32f4xx_ll_sdmmc.c ****   return errorstate;
 631:HALLIB/STM32F4xx_HAL_Driver/Src/stm32f4xx_ll_sdmmc.c **** }
 632:HALLIB/STM32F4xx_HAL_Driver/Src/stm32f4xx_ll_sdmmc.c **** 
 633:HALLIB/STM32F4xx_HAL_Driver/Src/stm32f4xx_ll_sdmmc.c **** /**
 634:HALLIB/STM32F4xx_HAL_Driver/Src/stm32f4xx_ll_sdmmc.c ****   * @brief  Send the Start Address Erase command for SD and check the response
 635:HALLIB/STM32F4xx_HAL_Driver/Src/stm32f4xx_ll_sdmmc.c ****   * @param  SDIOx Pointer to SDIO register base 
 636:HALLIB/STM32F4xx_HAL_Driver/Src/stm32f4xx_ll_sdmmc.c ****   * @retval HAL status
 637:HALLIB/STM32F4xx_HAL_Driver/Src/stm32f4xx_ll_sdmmc.c ****   */
 638:HALLIB/STM32F4xx_HAL_Driver/Src/stm32f4xx_ll_sdmmc.c **** uint32_t SDMMC_CmdSDEraseStartAdd(SDIO_TypeDef *SDIOx, uint32_t StartAdd)
 639:HALLIB/STM32F4xx_HAL_Driver/Src/stm32f4xx_ll_sdmmc.c **** {
 640:HALLIB/STM32F4xx_HAL_Driver/Src/stm32f4xx_ll_sdmmc.c ****   SDIO_CmdInitTypeDef  sdmmc_cmdinit;
 641:HALLIB/STM32F4xx_HAL_Driver/Src/stm32f4xx_ll_sdmmc.c ****   uint32_t errorstate = SDMMC_ERROR_NONE;
 642:HALLIB/STM32F4xx_HAL_Driver/Src/stm32f4xx_ll_sdmmc.c ****   
 643:HALLIB/STM32F4xx_HAL_Driver/Src/stm32f4xx_ll_sdmmc.c ****   /* Set Block Size for Card */ 
 644:HALLIB/STM32F4xx_HAL_Driver/Src/stm32f4xx_ll_sdmmc.c ****   sdmmc_cmdinit.Argument         = (uint32_t)StartAdd;
 645:HALLIB/STM32F4xx_HAL_Driver/Src/stm32f4xx_ll_sdmmc.c ****   sdmmc_cmdinit.CmdIndex         = SDMMC_CMD_SD_ERASE_GRP_START;
 646:HALLIB/STM32F4xx_HAL_Driver/Src/stm32f4xx_ll_sdmmc.c ****   sdmmc_cmdinit.Response         = SDIO_RESPONSE_SHORT;
 647:HALLIB/STM32F4xx_HAL_Driver/Src/stm32f4xx_ll_sdmmc.c ****   sdmmc_cmdinit.WaitForInterrupt = SDIO_WAIT_NO;
 648:HALLIB/STM32F4xx_HAL_Driver/Src/stm32f4xx_ll_sdmmc.c ****   sdmmc_cmdinit.CPSM             = SDIO_CPSM_ENABLE;
 649:HALLIB/STM32F4xx_HAL_Driver/Src/stm32f4xx_ll_sdmmc.c ****   SDIO_SendCommand(SDIOx, &sdmmc_cmdinit);
 650:HALLIB/STM32F4xx_HAL_Driver/Src/stm32f4xx_ll_sdmmc.c ****   
 651:HALLIB/STM32F4xx_HAL_Driver/Src/stm32f4xx_ll_sdmmc.c ****   /* Check for error conditions */
 652:HALLIB/STM32F4xx_HAL_Driver/Src/stm32f4xx_ll_sdmmc.c ****   errorstate = SDMMC_GetCmdResp1(SDIOx, SDMMC_CMD_SD_ERASE_GRP_START, SDIO_CMDTIMEOUT);
 653:HALLIB/STM32F4xx_HAL_Driver/Src/stm32f4xx_ll_sdmmc.c **** 
 654:HALLIB/STM32F4xx_HAL_Driver/Src/stm32f4xx_ll_sdmmc.c ****   return errorstate;
 655:HALLIB/STM32F4xx_HAL_Driver/Src/stm32f4xx_ll_sdmmc.c **** }
 656:HALLIB/STM32F4xx_HAL_Driver/Src/stm32f4xx_ll_sdmmc.c **** 
 657:HALLIB/STM32F4xx_HAL_Driver/Src/stm32f4xx_ll_sdmmc.c **** /**
ARM GAS  /tmp/cce5sGk9.s 			page 13


 658:HALLIB/STM32F4xx_HAL_Driver/Src/stm32f4xx_ll_sdmmc.c ****   * @brief  Send the End Address Erase command for SD and check the response
 659:HALLIB/STM32F4xx_HAL_Driver/Src/stm32f4xx_ll_sdmmc.c ****   * @param  SDIOx Pointer to SDIO register base 
 660:HALLIB/STM32F4xx_HAL_Driver/Src/stm32f4xx_ll_sdmmc.c ****   * @retval HAL status
 661:HALLIB/STM32F4xx_HAL_Driver/Src/stm32f4xx_ll_sdmmc.c ****   */
 662:HALLIB/STM32F4xx_HAL_Driver/Src/stm32f4xx_ll_sdmmc.c **** uint32_t SDMMC_CmdSDEraseEndAdd(SDIO_TypeDef *SDIOx, uint32_t EndAdd)
 663:HALLIB/STM32F4xx_HAL_Driver/Src/stm32f4xx_ll_sdmmc.c **** {
 664:HALLIB/STM32F4xx_HAL_Driver/Src/stm32f4xx_ll_sdmmc.c ****   SDIO_CmdInitTypeDef  sdmmc_cmdinit;
 665:HALLIB/STM32F4xx_HAL_Driver/Src/stm32f4xx_ll_sdmmc.c ****   uint32_t errorstate = SDMMC_ERROR_NONE;
 666:HALLIB/STM32F4xx_HAL_Driver/Src/stm32f4xx_ll_sdmmc.c ****   
 667:HALLIB/STM32F4xx_HAL_Driver/Src/stm32f4xx_ll_sdmmc.c ****   /* Set Block Size for Card */ 
 668:HALLIB/STM32F4xx_HAL_Driver/Src/stm32f4xx_ll_sdmmc.c ****   sdmmc_cmdinit.Argument         = (uint32_t)EndAdd;
 669:HALLIB/STM32F4xx_HAL_Driver/Src/stm32f4xx_ll_sdmmc.c ****   sdmmc_cmdinit.CmdIndex         = SDMMC_CMD_SD_ERASE_GRP_END;
 670:HALLIB/STM32F4xx_HAL_Driver/Src/stm32f4xx_ll_sdmmc.c ****   sdmmc_cmdinit.Response         = SDIO_RESPONSE_SHORT;
 671:HALLIB/STM32F4xx_HAL_Driver/Src/stm32f4xx_ll_sdmmc.c ****   sdmmc_cmdinit.WaitForInterrupt = SDIO_WAIT_NO;
 672:HALLIB/STM32F4xx_HAL_Driver/Src/stm32f4xx_ll_sdmmc.c ****   sdmmc_cmdinit.CPSM             = SDIO_CPSM_ENABLE;
 673:HALLIB/STM32F4xx_HAL_Driver/Src/stm32f4xx_ll_sdmmc.c ****   SDIO_SendCommand(SDIOx, &sdmmc_cmdinit);
 674:HALLIB/STM32F4xx_HAL_Driver/Src/stm32f4xx_ll_sdmmc.c ****   
 675:HALLIB/STM32F4xx_HAL_Driver/Src/stm32f4xx_ll_sdmmc.c ****   /* Check for error conditions */
 676:HALLIB/STM32F4xx_HAL_Driver/Src/stm32f4xx_ll_sdmmc.c ****   errorstate = SDMMC_GetCmdResp1(SDIOx, SDMMC_CMD_SD_ERASE_GRP_END, SDIO_CMDTIMEOUT);
 677:HALLIB/STM32F4xx_HAL_Driver/Src/stm32f4xx_ll_sdmmc.c **** 
 678:HALLIB/STM32F4xx_HAL_Driver/Src/stm32f4xx_ll_sdmmc.c ****   return errorstate;
 679:HALLIB/STM32F4xx_HAL_Driver/Src/stm32f4xx_ll_sdmmc.c **** }
 680:HALLIB/STM32F4xx_HAL_Driver/Src/stm32f4xx_ll_sdmmc.c **** 
 681:HALLIB/STM32F4xx_HAL_Driver/Src/stm32f4xx_ll_sdmmc.c **** /**
 682:HALLIB/STM32F4xx_HAL_Driver/Src/stm32f4xx_ll_sdmmc.c ****   * @brief  Send the Start Address Erase command and check the response
 683:HALLIB/STM32F4xx_HAL_Driver/Src/stm32f4xx_ll_sdmmc.c ****   * @param  SDIOx Pointer to SDIO register base 
 684:HALLIB/STM32F4xx_HAL_Driver/Src/stm32f4xx_ll_sdmmc.c ****   * @retval HAL status
 685:HALLIB/STM32F4xx_HAL_Driver/Src/stm32f4xx_ll_sdmmc.c ****   */
 686:HALLIB/STM32F4xx_HAL_Driver/Src/stm32f4xx_ll_sdmmc.c **** uint32_t SDMMC_CmdEraseStartAdd(SDIO_TypeDef *SDIOx, uint32_t StartAdd)
 687:HALLIB/STM32F4xx_HAL_Driver/Src/stm32f4xx_ll_sdmmc.c **** {
 688:HALLIB/STM32F4xx_HAL_Driver/Src/stm32f4xx_ll_sdmmc.c ****   SDIO_CmdInitTypeDef  sdmmc_cmdinit;
 689:HALLIB/STM32F4xx_HAL_Driver/Src/stm32f4xx_ll_sdmmc.c ****   uint32_t errorstate = SDMMC_ERROR_NONE;
 690:HALLIB/STM32F4xx_HAL_Driver/Src/stm32f4xx_ll_sdmmc.c ****   
 691:HALLIB/STM32F4xx_HAL_Driver/Src/stm32f4xx_ll_sdmmc.c ****   /* Set Block Size for Card */ 
 692:HALLIB/STM32F4xx_HAL_Driver/Src/stm32f4xx_ll_sdmmc.c ****   sdmmc_cmdinit.Argument         = (uint32_t)StartAdd;
 693:HALLIB/STM32F4xx_HAL_Driver/Src/stm32f4xx_ll_sdmmc.c ****   sdmmc_cmdinit.CmdIndex         = SDMMC_CMD_ERASE_GRP_START;
 694:HALLIB/STM32F4xx_HAL_Driver/Src/stm32f4xx_ll_sdmmc.c ****   sdmmc_cmdinit.Response         = SDIO_RESPONSE_SHORT;
 695:HALLIB/STM32F4xx_HAL_Driver/Src/stm32f4xx_ll_sdmmc.c ****   sdmmc_cmdinit.WaitForInterrupt = SDIO_WAIT_NO;
 696:HALLIB/STM32F4xx_HAL_Driver/Src/stm32f4xx_ll_sdmmc.c ****   sdmmc_cmdinit.CPSM             = SDIO_CPSM_ENABLE;
 697:HALLIB/STM32F4xx_HAL_Driver/Src/stm32f4xx_ll_sdmmc.c ****   SDIO_SendCommand(SDIOx, &sdmmc_cmdinit);
 698:HALLIB/STM32F4xx_HAL_Driver/Src/stm32f4xx_ll_sdmmc.c ****   
 699:HALLIB/STM32F4xx_HAL_Driver/Src/stm32f4xx_ll_sdmmc.c ****   /* Check for error conditions */
 700:HALLIB/STM32F4xx_HAL_Driver/Src/stm32f4xx_ll_sdmmc.c ****   errorstate = SDMMC_GetCmdResp1(SDIOx, SDMMC_CMD_ERASE_GRP_START, SDIO_CMDTIMEOUT);
 701:HALLIB/STM32F4xx_HAL_Driver/Src/stm32f4xx_ll_sdmmc.c **** 
 702:HALLIB/STM32F4xx_HAL_Driver/Src/stm32f4xx_ll_sdmmc.c ****   return errorstate;
 703:HALLIB/STM32F4xx_HAL_Driver/Src/stm32f4xx_ll_sdmmc.c **** }
 704:HALLIB/STM32F4xx_HAL_Driver/Src/stm32f4xx_ll_sdmmc.c **** 
 705:HALLIB/STM32F4xx_HAL_Driver/Src/stm32f4xx_ll_sdmmc.c **** /**
 706:HALLIB/STM32F4xx_HAL_Driver/Src/stm32f4xx_ll_sdmmc.c ****   * @brief  Send the End Address Erase command and check the response
 707:HALLIB/STM32F4xx_HAL_Driver/Src/stm32f4xx_ll_sdmmc.c ****   * @param  SDIOx Pointer to SDIO register base 
 708:HALLIB/STM32F4xx_HAL_Driver/Src/stm32f4xx_ll_sdmmc.c ****   * @retval HAL status
 709:HALLIB/STM32F4xx_HAL_Driver/Src/stm32f4xx_ll_sdmmc.c ****   */
 710:HALLIB/STM32F4xx_HAL_Driver/Src/stm32f4xx_ll_sdmmc.c **** uint32_t SDMMC_CmdEraseEndAdd(SDIO_TypeDef *SDIOx, uint32_t EndAdd)
 711:HALLIB/STM32F4xx_HAL_Driver/Src/stm32f4xx_ll_sdmmc.c **** {
 712:HALLIB/STM32F4xx_HAL_Driver/Src/stm32f4xx_ll_sdmmc.c ****   SDIO_CmdInitTypeDef  sdmmc_cmdinit;
 713:HALLIB/STM32F4xx_HAL_Driver/Src/stm32f4xx_ll_sdmmc.c ****   uint32_t errorstate = SDMMC_ERROR_NONE;
 714:HALLIB/STM32F4xx_HAL_Driver/Src/stm32f4xx_ll_sdmmc.c ****   
ARM GAS  /tmp/cce5sGk9.s 			page 14


 715:HALLIB/STM32F4xx_HAL_Driver/Src/stm32f4xx_ll_sdmmc.c ****   /* Set Block Size for Card */ 
 716:HALLIB/STM32F4xx_HAL_Driver/Src/stm32f4xx_ll_sdmmc.c ****   sdmmc_cmdinit.Argument         = (uint32_t)EndAdd;
 717:HALLIB/STM32F4xx_HAL_Driver/Src/stm32f4xx_ll_sdmmc.c ****   sdmmc_cmdinit.CmdIndex         = SDMMC_CMD_ERASE_GRP_END;
 718:HALLIB/STM32F4xx_HAL_Driver/Src/stm32f4xx_ll_sdmmc.c ****   sdmmc_cmdinit.Response         = SDIO_RESPONSE_SHORT;
 719:HALLIB/STM32F4xx_HAL_Driver/Src/stm32f4xx_ll_sdmmc.c ****   sdmmc_cmdinit.WaitForInterrupt = SDIO_WAIT_NO;
 720:HALLIB/STM32F4xx_HAL_Driver/Src/stm32f4xx_ll_sdmmc.c ****   sdmmc_cmdinit.CPSM             = SDIO_CPSM_ENABLE;
 721:HALLIB/STM32F4xx_HAL_Driver/Src/stm32f4xx_ll_sdmmc.c ****   SDIO_SendCommand(SDIOx, &sdmmc_cmdinit);
 722:HALLIB/STM32F4xx_HAL_Driver/Src/stm32f4xx_ll_sdmmc.c ****   
 723:HALLIB/STM32F4xx_HAL_Driver/Src/stm32f4xx_ll_sdmmc.c ****   /* Check for error conditions */
 724:HALLIB/STM32F4xx_HAL_Driver/Src/stm32f4xx_ll_sdmmc.c ****   errorstate = SDMMC_GetCmdResp1(SDIOx, SDMMC_CMD_ERASE_GRP_END, SDIO_CMDTIMEOUT);
 725:HALLIB/STM32F4xx_HAL_Driver/Src/stm32f4xx_ll_sdmmc.c **** 
 726:HALLIB/STM32F4xx_HAL_Driver/Src/stm32f4xx_ll_sdmmc.c ****   return errorstate;
 727:HALLIB/STM32F4xx_HAL_Driver/Src/stm32f4xx_ll_sdmmc.c **** }
 728:HALLIB/STM32F4xx_HAL_Driver/Src/stm32f4xx_ll_sdmmc.c **** 
 729:HALLIB/STM32F4xx_HAL_Driver/Src/stm32f4xx_ll_sdmmc.c **** /**
 730:HALLIB/STM32F4xx_HAL_Driver/Src/stm32f4xx_ll_sdmmc.c ****   * @brief  Send the Erase command and check the response
 731:HALLIB/STM32F4xx_HAL_Driver/Src/stm32f4xx_ll_sdmmc.c ****   * @param  SDIOx Pointer to SDIO register base 
 732:HALLIB/STM32F4xx_HAL_Driver/Src/stm32f4xx_ll_sdmmc.c ****   * @retval HAL status
 733:HALLIB/STM32F4xx_HAL_Driver/Src/stm32f4xx_ll_sdmmc.c ****   */
 734:HALLIB/STM32F4xx_HAL_Driver/Src/stm32f4xx_ll_sdmmc.c **** uint32_t SDMMC_CmdErase(SDIO_TypeDef *SDIOx)
 735:HALLIB/STM32F4xx_HAL_Driver/Src/stm32f4xx_ll_sdmmc.c **** {
 736:HALLIB/STM32F4xx_HAL_Driver/Src/stm32f4xx_ll_sdmmc.c ****   SDIO_CmdInitTypeDef  sdmmc_cmdinit;
 737:HALLIB/STM32F4xx_HAL_Driver/Src/stm32f4xx_ll_sdmmc.c ****   uint32_t errorstate = SDMMC_ERROR_NONE;
 738:HALLIB/STM32F4xx_HAL_Driver/Src/stm32f4xx_ll_sdmmc.c ****   
 739:HALLIB/STM32F4xx_HAL_Driver/Src/stm32f4xx_ll_sdmmc.c ****   /* Set Block Size for Card */ 
 740:HALLIB/STM32F4xx_HAL_Driver/Src/stm32f4xx_ll_sdmmc.c ****   sdmmc_cmdinit.Argument         = 0U;
 741:HALLIB/STM32F4xx_HAL_Driver/Src/stm32f4xx_ll_sdmmc.c ****   sdmmc_cmdinit.CmdIndex         = SDMMC_CMD_ERASE;
 742:HALLIB/STM32F4xx_HAL_Driver/Src/stm32f4xx_ll_sdmmc.c ****   sdmmc_cmdinit.Response         = SDIO_RESPONSE_SHORT;
 743:HALLIB/STM32F4xx_HAL_Driver/Src/stm32f4xx_ll_sdmmc.c ****   sdmmc_cmdinit.WaitForInterrupt = SDIO_WAIT_NO;
 744:HALLIB/STM32F4xx_HAL_Driver/Src/stm32f4xx_ll_sdmmc.c ****   sdmmc_cmdinit.CPSM             = SDIO_CPSM_ENABLE;
 745:HALLIB/STM32F4xx_HAL_Driver/Src/stm32f4xx_ll_sdmmc.c ****   SDIO_SendCommand(SDIOx, &sdmmc_cmdinit);
 746:HALLIB/STM32F4xx_HAL_Driver/Src/stm32f4xx_ll_sdmmc.c ****   
 747:HALLIB/STM32F4xx_HAL_Driver/Src/stm32f4xx_ll_sdmmc.c ****   /* Check for error conditions */
 748:HALLIB/STM32F4xx_HAL_Driver/Src/stm32f4xx_ll_sdmmc.c ****   errorstate = SDMMC_GetCmdResp1(SDIOx, SDMMC_CMD_ERASE, SDIO_MAXERASETIMEOUT);
 749:HALLIB/STM32F4xx_HAL_Driver/Src/stm32f4xx_ll_sdmmc.c **** 
 750:HALLIB/STM32F4xx_HAL_Driver/Src/stm32f4xx_ll_sdmmc.c ****   return errorstate;
 751:HALLIB/STM32F4xx_HAL_Driver/Src/stm32f4xx_ll_sdmmc.c **** }
 752:HALLIB/STM32F4xx_HAL_Driver/Src/stm32f4xx_ll_sdmmc.c **** 
 753:HALLIB/STM32F4xx_HAL_Driver/Src/stm32f4xx_ll_sdmmc.c **** /**
 754:HALLIB/STM32F4xx_HAL_Driver/Src/stm32f4xx_ll_sdmmc.c ****   * @brief  Send the Stop Transfer command and check the response.
 755:HALLIB/STM32F4xx_HAL_Driver/Src/stm32f4xx_ll_sdmmc.c ****   * @param  SDIOx Pointer to SDIO register base 
 756:HALLIB/STM32F4xx_HAL_Driver/Src/stm32f4xx_ll_sdmmc.c ****   * @retval HAL status
 757:HALLIB/STM32F4xx_HAL_Driver/Src/stm32f4xx_ll_sdmmc.c ****   */
 758:HALLIB/STM32F4xx_HAL_Driver/Src/stm32f4xx_ll_sdmmc.c **** uint32_t SDMMC_CmdStopTransfer(SDIO_TypeDef *SDIOx)
 759:HALLIB/STM32F4xx_HAL_Driver/Src/stm32f4xx_ll_sdmmc.c **** {
 760:HALLIB/STM32F4xx_HAL_Driver/Src/stm32f4xx_ll_sdmmc.c ****   SDIO_CmdInitTypeDef  sdmmc_cmdinit;
 761:HALLIB/STM32F4xx_HAL_Driver/Src/stm32f4xx_ll_sdmmc.c ****   uint32_t errorstate = SDMMC_ERROR_NONE;
 762:HALLIB/STM32F4xx_HAL_Driver/Src/stm32f4xx_ll_sdmmc.c ****   
 763:HALLIB/STM32F4xx_HAL_Driver/Src/stm32f4xx_ll_sdmmc.c ****   /* Send CMD12 STOP_TRANSMISSION  */
 764:HALLIB/STM32F4xx_HAL_Driver/Src/stm32f4xx_ll_sdmmc.c ****   sdmmc_cmdinit.Argument         = 0U;
 765:HALLIB/STM32F4xx_HAL_Driver/Src/stm32f4xx_ll_sdmmc.c ****   sdmmc_cmdinit.CmdIndex         = SDMMC_CMD_STOP_TRANSMISSION;
 766:HALLIB/STM32F4xx_HAL_Driver/Src/stm32f4xx_ll_sdmmc.c ****   sdmmc_cmdinit.Response         = SDIO_RESPONSE_SHORT;
 767:HALLIB/STM32F4xx_HAL_Driver/Src/stm32f4xx_ll_sdmmc.c ****   sdmmc_cmdinit.WaitForInterrupt = SDIO_WAIT_NO;
 768:HALLIB/STM32F4xx_HAL_Driver/Src/stm32f4xx_ll_sdmmc.c ****   sdmmc_cmdinit.CPSM             = SDIO_CPSM_ENABLE;
 769:HALLIB/STM32F4xx_HAL_Driver/Src/stm32f4xx_ll_sdmmc.c ****   SDIO_SendCommand(SDIOx, &sdmmc_cmdinit);
 770:HALLIB/STM32F4xx_HAL_Driver/Src/stm32f4xx_ll_sdmmc.c ****   
 771:HALLIB/STM32F4xx_HAL_Driver/Src/stm32f4xx_ll_sdmmc.c ****   /* Check for error conditions */
ARM GAS  /tmp/cce5sGk9.s 			page 15


 772:HALLIB/STM32F4xx_HAL_Driver/Src/stm32f4xx_ll_sdmmc.c ****   errorstate = SDMMC_GetCmdResp1(SDIOx, SDMMC_CMD_STOP_TRANSMISSION, 100000000U);
 773:HALLIB/STM32F4xx_HAL_Driver/Src/stm32f4xx_ll_sdmmc.c **** 
 774:HALLIB/STM32F4xx_HAL_Driver/Src/stm32f4xx_ll_sdmmc.c ****   return errorstate;
 775:HALLIB/STM32F4xx_HAL_Driver/Src/stm32f4xx_ll_sdmmc.c **** }
 776:HALLIB/STM32F4xx_HAL_Driver/Src/stm32f4xx_ll_sdmmc.c **** 
 777:HALLIB/STM32F4xx_HAL_Driver/Src/stm32f4xx_ll_sdmmc.c **** /**
 778:HALLIB/STM32F4xx_HAL_Driver/Src/stm32f4xx_ll_sdmmc.c ****   * @brief  Send the Select Deselect command and check the response.
 779:HALLIB/STM32F4xx_HAL_Driver/Src/stm32f4xx_ll_sdmmc.c ****   * @param  SDIOx Pointer to SDIO register base 
 780:HALLIB/STM32F4xx_HAL_Driver/Src/stm32f4xx_ll_sdmmc.c ****   * @param  addr Address of the card to be selected  
 781:HALLIB/STM32F4xx_HAL_Driver/Src/stm32f4xx_ll_sdmmc.c ****   * @retval HAL status
 782:HALLIB/STM32F4xx_HAL_Driver/Src/stm32f4xx_ll_sdmmc.c ****   */
 783:HALLIB/STM32F4xx_HAL_Driver/Src/stm32f4xx_ll_sdmmc.c **** uint32_t SDMMC_CmdSelDesel(SDIO_TypeDef *SDIOx, uint64_t Addr)
 784:HALLIB/STM32F4xx_HAL_Driver/Src/stm32f4xx_ll_sdmmc.c **** {
 785:HALLIB/STM32F4xx_HAL_Driver/Src/stm32f4xx_ll_sdmmc.c ****   SDIO_CmdInitTypeDef  sdmmc_cmdinit;
 786:HALLIB/STM32F4xx_HAL_Driver/Src/stm32f4xx_ll_sdmmc.c ****   uint32_t errorstate = SDMMC_ERROR_NONE;
 787:HALLIB/STM32F4xx_HAL_Driver/Src/stm32f4xx_ll_sdmmc.c ****   
 788:HALLIB/STM32F4xx_HAL_Driver/Src/stm32f4xx_ll_sdmmc.c ****   /* Send CMD7 SDMMC_SEL_DESEL_CARD */
 789:HALLIB/STM32F4xx_HAL_Driver/Src/stm32f4xx_ll_sdmmc.c ****   sdmmc_cmdinit.Argument         = (uint32_t)Addr;
 790:HALLIB/STM32F4xx_HAL_Driver/Src/stm32f4xx_ll_sdmmc.c ****   sdmmc_cmdinit.CmdIndex         = SDMMC_CMD_SEL_DESEL_CARD;
 791:HALLIB/STM32F4xx_HAL_Driver/Src/stm32f4xx_ll_sdmmc.c ****   sdmmc_cmdinit.Response         = SDIO_RESPONSE_SHORT;
 792:HALLIB/STM32F4xx_HAL_Driver/Src/stm32f4xx_ll_sdmmc.c ****   sdmmc_cmdinit.WaitForInterrupt = SDIO_WAIT_NO;
 793:HALLIB/STM32F4xx_HAL_Driver/Src/stm32f4xx_ll_sdmmc.c ****   sdmmc_cmdinit.CPSM             = SDIO_CPSM_ENABLE;
 794:HALLIB/STM32F4xx_HAL_Driver/Src/stm32f4xx_ll_sdmmc.c ****   SDIO_SendCommand(SDIOx, &sdmmc_cmdinit);
 795:HALLIB/STM32F4xx_HAL_Driver/Src/stm32f4xx_ll_sdmmc.c ****   
 796:HALLIB/STM32F4xx_HAL_Driver/Src/stm32f4xx_ll_sdmmc.c ****   /* Check for error conditions */
 797:HALLIB/STM32F4xx_HAL_Driver/Src/stm32f4xx_ll_sdmmc.c ****   errorstate = SDMMC_GetCmdResp1(SDIOx, SDMMC_CMD_SEL_DESEL_CARD, SDIO_CMDTIMEOUT);
 798:HALLIB/STM32F4xx_HAL_Driver/Src/stm32f4xx_ll_sdmmc.c **** 
 799:HALLIB/STM32F4xx_HAL_Driver/Src/stm32f4xx_ll_sdmmc.c ****   return errorstate;
 800:HALLIB/STM32F4xx_HAL_Driver/Src/stm32f4xx_ll_sdmmc.c **** }
 801:HALLIB/STM32F4xx_HAL_Driver/Src/stm32f4xx_ll_sdmmc.c **** 
 802:HALLIB/STM32F4xx_HAL_Driver/Src/stm32f4xx_ll_sdmmc.c **** /**
 803:HALLIB/STM32F4xx_HAL_Driver/Src/stm32f4xx_ll_sdmmc.c ****   * @brief  Send the Go Idle State command and check the response.
 804:HALLIB/STM32F4xx_HAL_Driver/Src/stm32f4xx_ll_sdmmc.c ****   * @param  SDIOx Pointer to SDIO register base 
 805:HALLIB/STM32F4xx_HAL_Driver/Src/stm32f4xx_ll_sdmmc.c ****   * @retval HAL status
 806:HALLIB/STM32F4xx_HAL_Driver/Src/stm32f4xx_ll_sdmmc.c ****   */
 807:HALLIB/STM32F4xx_HAL_Driver/Src/stm32f4xx_ll_sdmmc.c **** uint32_t SDMMC_CmdGoIdleState(SDIO_TypeDef *SDIOx)
 808:HALLIB/STM32F4xx_HAL_Driver/Src/stm32f4xx_ll_sdmmc.c **** {
 809:HALLIB/STM32F4xx_HAL_Driver/Src/stm32f4xx_ll_sdmmc.c ****   SDIO_CmdInitTypeDef  sdmmc_cmdinit;
 810:HALLIB/STM32F4xx_HAL_Driver/Src/stm32f4xx_ll_sdmmc.c ****   uint32_t errorstate = SDMMC_ERROR_NONE;
 811:HALLIB/STM32F4xx_HAL_Driver/Src/stm32f4xx_ll_sdmmc.c ****   
 812:HALLIB/STM32F4xx_HAL_Driver/Src/stm32f4xx_ll_sdmmc.c ****   sdmmc_cmdinit.Argument         = 0U;
 813:HALLIB/STM32F4xx_HAL_Driver/Src/stm32f4xx_ll_sdmmc.c ****   sdmmc_cmdinit.CmdIndex         = SDMMC_CMD_GO_IDLE_STATE;
 814:HALLIB/STM32F4xx_HAL_Driver/Src/stm32f4xx_ll_sdmmc.c ****   sdmmc_cmdinit.Response         = SDIO_RESPONSE_NO;
 815:HALLIB/STM32F4xx_HAL_Driver/Src/stm32f4xx_ll_sdmmc.c ****   sdmmc_cmdinit.WaitForInterrupt = SDIO_WAIT_NO;
 816:HALLIB/STM32F4xx_HAL_Driver/Src/stm32f4xx_ll_sdmmc.c ****   sdmmc_cmdinit.CPSM             = SDIO_CPSM_ENABLE;
 817:HALLIB/STM32F4xx_HAL_Driver/Src/stm32f4xx_ll_sdmmc.c ****   SDIO_SendCommand(SDIOx, &sdmmc_cmdinit);
 818:HALLIB/STM32F4xx_HAL_Driver/Src/stm32f4xx_ll_sdmmc.c ****   
 819:HALLIB/STM32F4xx_HAL_Driver/Src/stm32f4xx_ll_sdmmc.c ****   /* Check for error conditions */
 820:HALLIB/STM32F4xx_HAL_Driver/Src/stm32f4xx_ll_sdmmc.c ****   errorstate = SDMMC_GetCmdError(SDIOx);
 821:HALLIB/STM32F4xx_HAL_Driver/Src/stm32f4xx_ll_sdmmc.c **** 
 822:HALLIB/STM32F4xx_HAL_Driver/Src/stm32f4xx_ll_sdmmc.c ****   return errorstate;
 823:HALLIB/STM32F4xx_HAL_Driver/Src/stm32f4xx_ll_sdmmc.c **** }
 824:HALLIB/STM32F4xx_HAL_Driver/Src/stm32f4xx_ll_sdmmc.c **** 
 825:HALLIB/STM32F4xx_HAL_Driver/Src/stm32f4xx_ll_sdmmc.c **** /**
 826:HALLIB/STM32F4xx_HAL_Driver/Src/stm32f4xx_ll_sdmmc.c ****   * @brief  Send the Operating Condition command and check the response.
 827:HALLIB/STM32F4xx_HAL_Driver/Src/stm32f4xx_ll_sdmmc.c ****   * @param  SDIOx Pointer to SDIO register base 
 828:HALLIB/STM32F4xx_HAL_Driver/Src/stm32f4xx_ll_sdmmc.c ****   * @retval HAL status
ARM GAS  /tmp/cce5sGk9.s 			page 16


 829:HALLIB/STM32F4xx_HAL_Driver/Src/stm32f4xx_ll_sdmmc.c ****   */
 830:HALLIB/STM32F4xx_HAL_Driver/Src/stm32f4xx_ll_sdmmc.c **** uint32_t SDMMC_CmdOperCond(SDIO_TypeDef *SDIOx)
 831:HALLIB/STM32F4xx_HAL_Driver/Src/stm32f4xx_ll_sdmmc.c **** {
 832:HALLIB/STM32F4xx_HAL_Driver/Src/stm32f4xx_ll_sdmmc.c ****   SDIO_CmdInitTypeDef  sdmmc_cmdinit;
 833:HALLIB/STM32F4xx_HAL_Driver/Src/stm32f4xx_ll_sdmmc.c ****   uint32_t errorstate = SDMMC_ERROR_NONE;
 834:HALLIB/STM32F4xx_HAL_Driver/Src/stm32f4xx_ll_sdmmc.c ****   
 835:HALLIB/STM32F4xx_HAL_Driver/Src/stm32f4xx_ll_sdmmc.c ****   /* Send CMD8 to verify SD card interface operating condition */
 836:HALLIB/STM32F4xx_HAL_Driver/Src/stm32f4xx_ll_sdmmc.c ****   /* Argument: - [31:12]: Reserved (shall be set to '0')
 837:HALLIB/STM32F4xx_HAL_Driver/Src/stm32f4xx_ll_sdmmc.c ****   - [11:8]: Supply Voltage (VHS) 0x1 (Range: 2.7-3.6 V)
 838:HALLIB/STM32F4xx_HAL_Driver/Src/stm32f4xx_ll_sdmmc.c ****   - [7:0]: Check Pattern (recommended 0xAA) */
 839:HALLIB/STM32F4xx_HAL_Driver/Src/stm32f4xx_ll_sdmmc.c ****   /* CMD Response: R7 */
 840:HALLIB/STM32F4xx_HAL_Driver/Src/stm32f4xx_ll_sdmmc.c ****   sdmmc_cmdinit.Argument         = SDMMC_CHECK_PATTERN;
 841:HALLIB/STM32F4xx_HAL_Driver/Src/stm32f4xx_ll_sdmmc.c ****   sdmmc_cmdinit.CmdIndex         = SDMMC_CMD_HS_SEND_EXT_CSD;
 842:HALLIB/STM32F4xx_HAL_Driver/Src/stm32f4xx_ll_sdmmc.c ****   sdmmc_cmdinit.Response         = SDIO_RESPONSE_SHORT;
 843:HALLIB/STM32F4xx_HAL_Driver/Src/stm32f4xx_ll_sdmmc.c ****   sdmmc_cmdinit.WaitForInterrupt = SDIO_WAIT_NO;
 844:HALLIB/STM32F4xx_HAL_Driver/Src/stm32f4xx_ll_sdmmc.c ****   sdmmc_cmdinit.CPSM             = SDIO_CPSM_ENABLE;
 845:HALLIB/STM32F4xx_HAL_Driver/Src/stm32f4xx_ll_sdmmc.c ****   SDIO_SendCommand(SDIOx, &sdmmc_cmdinit);
 846:HALLIB/STM32F4xx_HAL_Driver/Src/stm32f4xx_ll_sdmmc.c ****   
 847:HALLIB/STM32F4xx_HAL_Driver/Src/stm32f4xx_ll_sdmmc.c ****   /* Check for error conditions */
 848:HALLIB/STM32F4xx_HAL_Driver/Src/stm32f4xx_ll_sdmmc.c ****   errorstate = SDMMC_GetCmdResp7(SDIOx);
 849:HALLIB/STM32F4xx_HAL_Driver/Src/stm32f4xx_ll_sdmmc.c **** 
 850:HALLIB/STM32F4xx_HAL_Driver/Src/stm32f4xx_ll_sdmmc.c ****   return errorstate;
 851:HALLIB/STM32F4xx_HAL_Driver/Src/stm32f4xx_ll_sdmmc.c **** }
 852:HALLIB/STM32F4xx_HAL_Driver/Src/stm32f4xx_ll_sdmmc.c **** 
 853:HALLIB/STM32F4xx_HAL_Driver/Src/stm32f4xx_ll_sdmmc.c **** /**
 854:HALLIB/STM32F4xx_HAL_Driver/Src/stm32f4xx_ll_sdmmc.c ****   * @brief  Send the Application command to verify that that the next command 
 855:HALLIB/STM32F4xx_HAL_Driver/Src/stm32f4xx_ll_sdmmc.c ****   *         is an application specific com-mand rather than a standard command
 856:HALLIB/STM32F4xx_HAL_Driver/Src/stm32f4xx_ll_sdmmc.c ****   *         and check the response.
 857:HALLIB/STM32F4xx_HAL_Driver/Src/stm32f4xx_ll_sdmmc.c ****   * @param  SDIOx Pointer to SDIO register base 
 858:HALLIB/STM32F4xx_HAL_Driver/Src/stm32f4xx_ll_sdmmc.c ****   * @retval HAL status
 859:HALLIB/STM32F4xx_HAL_Driver/Src/stm32f4xx_ll_sdmmc.c ****   */
 860:HALLIB/STM32F4xx_HAL_Driver/Src/stm32f4xx_ll_sdmmc.c **** uint32_t SDMMC_CmdAppCommand(SDIO_TypeDef *SDIOx, uint32_t Argument)
 861:HALLIB/STM32F4xx_HAL_Driver/Src/stm32f4xx_ll_sdmmc.c **** {
 862:HALLIB/STM32F4xx_HAL_Driver/Src/stm32f4xx_ll_sdmmc.c ****   SDIO_CmdInitTypeDef  sdmmc_cmdinit;
 863:HALLIB/STM32F4xx_HAL_Driver/Src/stm32f4xx_ll_sdmmc.c ****   uint32_t errorstate = SDMMC_ERROR_NONE;
 864:HALLIB/STM32F4xx_HAL_Driver/Src/stm32f4xx_ll_sdmmc.c ****   
 865:HALLIB/STM32F4xx_HAL_Driver/Src/stm32f4xx_ll_sdmmc.c ****   sdmmc_cmdinit.Argument         = (uint32_t)Argument;
 866:HALLIB/STM32F4xx_HAL_Driver/Src/stm32f4xx_ll_sdmmc.c ****   sdmmc_cmdinit.CmdIndex         = SDMMC_CMD_APP_CMD;
 867:HALLIB/STM32F4xx_HAL_Driver/Src/stm32f4xx_ll_sdmmc.c ****   sdmmc_cmdinit.Response         = SDIO_RESPONSE_SHORT;
 868:HALLIB/STM32F4xx_HAL_Driver/Src/stm32f4xx_ll_sdmmc.c ****   sdmmc_cmdinit.WaitForInterrupt = SDIO_WAIT_NO;
 869:HALLIB/STM32F4xx_HAL_Driver/Src/stm32f4xx_ll_sdmmc.c ****   sdmmc_cmdinit.CPSM             = SDIO_CPSM_ENABLE;
 870:HALLIB/STM32F4xx_HAL_Driver/Src/stm32f4xx_ll_sdmmc.c ****   SDIO_SendCommand(SDIOx, &sdmmc_cmdinit);
 871:HALLIB/STM32F4xx_HAL_Driver/Src/stm32f4xx_ll_sdmmc.c ****   
 872:HALLIB/STM32F4xx_HAL_Driver/Src/stm32f4xx_ll_sdmmc.c ****   /* Check for error conditions */
 873:HALLIB/STM32F4xx_HAL_Driver/Src/stm32f4xx_ll_sdmmc.c ****   /* If there is a HAL_ERROR, it is a MMC card, else
 874:HALLIB/STM32F4xx_HAL_Driver/Src/stm32f4xx_ll_sdmmc.c ****   it is a SD card: SD card 2.0 (voltage range mismatch)
 875:HALLIB/STM32F4xx_HAL_Driver/Src/stm32f4xx_ll_sdmmc.c ****      or SD card 1.x */
 876:HALLIB/STM32F4xx_HAL_Driver/Src/stm32f4xx_ll_sdmmc.c ****   errorstate = SDMMC_GetCmdResp1(SDIOx, SDMMC_CMD_APP_CMD, SDIO_CMDTIMEOUT);
 877:HALLIB/STM32F4xx_HAL_Driver/Src/stm32f4xx_ll_sdmmc.c **** 
 878:HALLIB/STM32F4xx_HAL_Driver/Src/stm32f4xx_ll_sdmmc.c ****   return errorstate;
 879:HALLIB/STM32F4xx_HAL_Driver/Src/stm32f4xx_ll_sdmmc.c **** }
 880:HALLIB/STM32F4xx_HAL_Driver/Src/stm32f4xx_ll_sdmmc.c **** 
 881:HALLIB/STM32F4xx_HAL_Driver/Src/stm32f4xx_ll_sdmmc.c **** /**
 882:HALLIB/STM32F4xx_HAL_Driver/Src/stm32f4xx_ll_sdmmc.c ****   * @brief  Send the command asking the accessed card to send its operating 
 883:HALLIB/STM32F4xx_HAL_Driver/Src/stm32f4xx_ll_sdmmc.c ****   *         condition register (OCR)
 884:HALLIB/STM32F4xx_HAL_Driver/Src/stm32f4xx_ll_sdmmc.c ****   * @param  SDIOx Pointer to SDIO register base 
 885:HALLIB/STM32F4xx_HAL_Driver/Src/stm32f4xx_ll_sdmmc.c ****   * @retval HAL status
ARM GAS  /tmp/cce5sGk9.s 			page 17


 886:HALLIB/STM32F4xx_HAL_Driver/Src/stm32f4xx_ll_sdmmc.c ****   */
 887:HALLIB/STM32F4xx_HAL_Driver/Src/stm32f4xx_ll_sdmmc.c **** uint32_t SDMMC_CmdAppOperCommand(SDIO_TypeDef *SDIOx, uint32_t SdType)
 888:HALLIB/STM32F4xx_HAL_Driver/Src/stm32f4xx_ll_sdmmc.c **** {
 889:HALLIB/STM32F4xx_HAL_Driver/Src/stm32f4xx_ll_sdmmc.c ****   SDIO_CmdInitTypeDef  sdmmc_cmdinit;
 890:HALLIB/STM32F4xx_HAL_Driver/Src/stm32f4xx_ll_sdmmc.c ****   uint32_t errorstate = SDMMC_ERROR_NONE;
 891:HALLIB/STM32F4xx_HAL_Driver/Src/stm32f4xx_ll_sdmmc.c ****   
 892:HALLIB/STM32F4xx_HAL_Driver/Src/stm32f4xx_ll_sdmmc.c ****   sdmmc_cmdinit.Argument         = SDMMC_VOLTAGE_WINDOW_SD | SdType;
 893:HALLIB/STM32F4xx_HAL_Driver/Src/stm32f4xx_ll_sdmmc.c ****   sdmmc_cmdinit.CmdIndex         = SDMMC_CMD_SD_APP_OP_COND;
 894:HALLIB/STM32F4xx_HAL_Driver/Src/stm32f4xx_ll_sdmmc.c ****   sdmmc_cmdinit.Response         = SDIO_RESPONSE_SHORT;
 895:HALLIB/STM32F4xx_HAL_Driver/Src/stm32f4xx_ll_sdmmc.c ****   sdmmc_cmdinit.WaitForInterrupt = SDIO_WAIT_NO;
 896:HALLIB/STM32F4xx_HAL_Driver/Src/stm32f4xx_ll_sdmmc.c ****   sdmmc_cmdinit.CPSM             = SDIO_CPSM_ENABLE;
 897:HALLIB/STM32F4xx_HAL_Driver/Src/stm32f4xx_ll_sdmmc.c ****   SDIO_SendCommand(SDIOx, &sdmmc_cmdinit);
 898:HALLIB/STM32F4xx_HAL_Driver/Src/stm32f4xx_ll_sdmmc.c ****   
 899:HALLIB/STM32F4xx_HAL_Driver/Src/stm32f4xx_ll_sdmmc.c ****   /* Check for error conditions */
 900:HALLIB/STM32F4xx_HAL_Driver/Src/stm32f4xx_ll_sdmmc.c ****   errorstate = SDMMC_GetCmdResp3(SDIOx);
 901:HALLIB/STM32F4xx_HAL_Driver/Src/stm32f4xx_ll_sdmmc.c **** 
 902:HALLIB/STM32F4xx_HAL_Driver/Src/stm32f4xx_ll_sdmmc.c ****   return errorstate;
 903:HALLIB/STM32F4xx_HAL_Driver/Src/stm32f4xx_ll_sdmmc.c **** }
 904:HALLIB/STM32F4xx_HAL_Driver/Src/stm32f4xx_ll_sdmmc.c **** 
 905:HALLIB/STM32F4xx_HAL_Driver/Src/stm32f4xx_ll_sdmmc.c **** /**
 906:HALLIB/STM32F4xx_HAL_Driver/Src/stm32f4xx_ll_sdmmc.c ****   * @brief  Send the Bus Width command and check the response.
 907:HALLIB/STM32F4xx_HAL_Driver/Src/stm32f4xx_ll_sdmmc.c ****   * @param  SDIOx Pointer to SDIO register base 
 908:HALLIB/STM32F4xx_HAL_Driver/Src/stm32f4xx_ll_sdmmc.c ****   * @retval HAL status
 909:HALLIB/STM32F4xx_HAL_Driver/Src/stm32f4xx_ll_sdmmc.c ****   */
 910:HALLIB/STM32F4xx_HAL_Driver/Src/stm32f4xx_ll_sdmmc.c **** uint32_t SDMMC_CmdBusWidth(SDIO_TypeDef *SDIOx, uint32_t BusWidth)
 911:HALLIB/STM32F4xx_HAL_Driver/Src/stm32f4xx_ll_sdmmc.c **** {
 912:HALLIB/STM32F4xx_HAL_Driver/Src/stm32f4xx_ll_sdmmc.c ****   SDIO_CmdInitTypeDef  sdmmc_cmdinit;
 913:HALLIB/STM32F4xx_HAL_Driver/Src/stm32f4xx_ll_sdmmc.c ****   uint32_t errorstate = SDMMC_ERROR_NONE;
 914:HALLIB/STM32F4xx_HAL_Driver/Src/stm32f4xx_ll_sdmmc.c ****   
 915:HALLIB/STM32F4xx_HAL_Driver/Src/stm32f4xx_ll_sdmmc.c ****   sdmmc_cmdinit.Argument         = (uint32_t)BusWidth;
 916:HALLIB/STM32F4xx_HAL_Driver/Src/stm32f4xx_ll_sdmmc.c ****   sdmmc_cmdinit.CmdIndex         = SDMMC_CMD_APP_SD_SET_BUSWIDTH;
 917:HALLIB/STM32F4xx_HAL_Driver/Src/stm32f4xx_ll_sdmmc.c ****   sdmmc_cmdinit.Response         = SDIO_RESPONSE_SHORT;
 918:HALLIB/STM32F4xx_HAL_Driver/Src/stm32f4xx_ll_sdmmc.c ****   sdmmc_cmdinit.WaitForInterrupt = SDIO_WAIT_NO;
 919:HALLIB/STM32F4xx_HAL_Driver/Src/stm32f4xx_ll_sdmmc.c ****   sdmmc_cmdinit.CPSM             = SDIO_CPSM_ENABLE;
 920:HALLIB/STM32F4xx_HAL_Driver/Src/stm32f4xx_ll_sdmmc.c ****   SDIO_SendCommand(SDIOx, &sdmmc_cmdinit);
 921:HALLIB/STM32F4xx_HAL_Driver/Src/stm32f4xx_ll_sdmmc.c ****   
 922:HALLIB/STM32F4xx_HAL_Driver/Src/stm32f4xx_ll_sdmmc.c ****   /* Check for error conditions */
 923:HALLIB/STM32F4xx_HAL_Driver/Src/stm32f4xx_ll_sdmmc.c ****   errorstate = SDMMC_GetCmdResp1(SDIOx, SDMMC_CMD_APP_SD_SET_BUSWIDTH, SDIO_CMDTIMEOUT);
 924:HALLIB/STM32F4xx_HAL_Driver/Src/stm32f4xx_ll_sdmmc.c **** 
 925:HALLIB/STM32F4xx_HAL_Driver/Src/stm32f4xx_ll_sdmmc.c ****   return errorstate;
 926:HALLIB/STM32F4xx_HAL_Driver/Src/stm32f4xx_ll_sdmmc.c **** }
 927:HALLIB/STM32F4xx_HAL_Driver/Src/stm32f4xx_ll_sdmmc.c **** 
 928:HALLIB/STM32F4xx_HAL_Driver/Src/stm32f4xx_ll_sdmmc.c **** /**
 929:HALLIB/STM32F4xx_HAL_Driver/Src/stm32f4xx_ll_sdmmc.c ****   * @brief  Send the Send SCR command and check the response.
 930:HALLIB/STM32F4xx_HAL_Driver/Src/stm32f4xx_ll_sdmmc.c ****   * @param  SDIOx Pointer to SDMMC register base 
 931:HALLIB/STM32F4xx_HAL_Driver/Src/stm32f4xx_ll_sdmmc.c ****   * @retval HAL status
 932:HALLIB/STM32F4xx_HAL_Driver/Src/stm32f4xx_ll_sdmmc.c ****   */
 933:HALLIB/STM32F4xx_HAL_Driver/Src/stm32f4xx_ll_sdmmc.c **** uint32_t SDMMC_CmdSendSCR(SDIO_TypeDef *SDIOx)
 934:HALLIB/STM32F4xx_HAL_Driver/Src/stm32f4xx_ll_sdmmc.c **** {
 935:HALLIB/STM32F4xx_HAL_Driver/Src/stm32f4xx_ll_sdmmc.c ****   SDIO_CmdInitTypeDef  sdmmc_cmdinit;
 936:HALLIB/STM32F4xx_HAL_Driver/Src/stm32f4xx_ll_sdmmc.c ****   uint32_t errorstate = SDMMC_ERROR_NONE;
 937:HALLIB/STM32F4xx_HAL_Driver/Src/stm32f4xx_ll_sdmmc.c ****   
 938:HALLIB/STM32F4xx_HAL_Driver/Src/stm32f4xx_ll_sdmmc.c ****   /* Send CMD51 SD_APP_SEND_SCR */
 939:HALLIB/STM32F4xx_HAL_Driver/Src/stm32f4xx_ll_sdmmc.c ****   sdmmc_cmdinit.Argument         = 0U;
 940:HALLIB/STM32F4xx_HAL_Driver/Src/stm32f4xx_ll_sdmmc.c ****   sdmmc_cmdinit.CmdIndex         = SDMMC_CMD_SD_APP_SEND_SCR;
 941:HALLIB/STM32F4xx_HAL_Driver/Src/stm32f4xx_ll_sdmmc.c ****   sdmmc_cmdinit.Response         = SDIO_RESPONSE_SHORT;
 942:HALLIB/STM32F4xx_HAL_Driver/Src/stm32f4xx_ll_sdmmc.c ****   sdmmc_cmdinit.WaitForInterrupt = SDIO_WAIT_NO;
ARM GAS  /tmp/cce5sGk9.s 			page 18


 943:HALLIB/STM32F4xx_HAL_Driver/Src/stm32f4xx_ll_sdmmc.c ****   sdmmc_cmdinit.CPSM             = SDIO_CPSM_ENABLE;
 944:HALLIB/STM32F4xx_HAL_Driver/Src/stm32f4xx_ll_sdmmc.c ****   SDIO_SendCommand(SDIOx, &sdmmc_cmdinit);
 945:HALLIB/STM32F4xx_HAL_Driver/Src/stm32f4xx_ll_sdmmc.c ****   
 946:HALLIB/STM32F4xx_HAL_Driver/Src/stm32f4xx_ll_sdmmc.c ****   /* Check for error conditions */
 947:HALLIB/STM32F4xx_HAL_Driver/Src/stm32f4xx_ll_sdmmc.c ****   errorstate = SDMMC_GetCmdResp1(SDIOx, SDMMC_CMD_SD_APP_SEND_SCR, SDIO_CMDTIMEOUT);
 948:HALLIB/STM32F4xx_HAL_Driver/Src/stm32f4xx_ll_sdmmc.c **** 
 949:HALLIB/STM32F4xx_HAL_Driver/Src/stm32f4xx_ll_sdmmc.c ****   return errorstate;
 950:HALLIB/STM32F4xx_HAL_Driver/Src/stm32f4xx_ll_sdmmc.c **** }
 951:HALLIB/STM32F4xx_HAL_Driver/Src/stm32f4xx_ll_sdmmc.c **** 
 952:HALLIB/STM32F4xx_HAL_Driver/Src/stm32f4xx_ll_sdmmc.c **** /**
 953:HALLIB/STM32F4xx_HAL_Driver/Src/stm32f4xx_ll_sdmmc.c ****   * @brief  Send the Send CID command and check the response.
 954:HALLIB/STM32F4xx_HAL_Driver/Src/stm32f4xx_ll_sdmmc.c ****   * @param  SDIOx Pointer to SDIO register base 
 955:HALLIB/STM32F4xx_HAL_Driver/Src/stm32f4xx_ll_sdmmc.c ****   * @retval HAL status
 956:HALLIB/STM32F4xx_HAL_Driver/Src/stm32f4xx_ll_sdmmc.c ****   */
 957:HALLIB/STM32F4xx_HAL_Driver/Src/stm32f4xx_ll_sdmmc.c **** uint32_t SDMMC_CmdSendCID(SDIO_TypeDef *SDIOx)
 958:HALLIB/STM32F4xx_HAL_Driver/Src/stm32f4xx_ll_sdmmc.c **** {
 959:HALLIB/STM32F4xx_HAL_Driver/Src/stm32f4xx_ll_sdmmc.c ****   SDIO_CmdInitTypeDef  sdmmc_cmdinit;
 960:HALLIB/STM32F4xx_HAL_Driver/Src/stm32f4xx_ll_sdmmc.c ****   uint32_t errorstate = SDMMC_ERROR_NONE;
 961:HALLIB/STM32F4xx_HAL_Driver/Src/stm32f4xx_ll_sdmmc.c ****   
 962:HALLIB/STM32F4xx_HAL_Driver/Src/stm32f4xx_ll_sdmmc.c ****   /* Send CMD2 ALL_SEND_CID */
 963:HALLIB/STM32F4xx_HAL_Driver/Src/stm32f4xx_ll_sdmmc.c ****   sdmmc_cmdinit.Argument         = 0U;
 964:HALLIB/STM32F4xx_HAL_Driver/Src/stm32f4xx_ll_sdmmc.c ****   sdmmc_cmdinit.CmdIndex         = SDMMC_CMD_ALL_SEND_CID;
 965:HALLIB/STM32F4xx_HAL_Driver/Src/stm32f4xx_ll_sdmmc.c ****   sdmmc_cmdinit.Response         = SDIO_RESPONSE_LONG;
 966:HALLIB/STM32F4xx_HAL_Driver/Src/stm32f4xx_ll_sdmmc.c ****   sdmmc_cmdinit.WaitForInterrupt = SDIO_WAIT_NO;
 967:HALLIB/STM32F4xx_HAL_Driver/Src/stm32f4xx_ll_sdmmc.c ****   sdmmc_cmdinit.CPSM             = SDIO_CPSM_ENABLE;
 968:HALLIB/STM32F4xx_HAL_Driver/Src/stm32f4xx_ll_sdmmc.c ****   SDIO_SendCommand(SDIOx, &sdmmc_cmdinit);
 969:HALLIB/STM32F4xx_HAL_Driver/Src/stm32f4xx_ll_sdmmc.c ****   
 970:HALLIB/STM32F4xx_HAL_Driver/Src/stm32f4xx_ll_sdmmc.c ****   /* Check for error conditions */
 971:HALLIB/STM32F4xx_HAL_Driver/Src/stm32f4xx_ll_sdmmc.c ****   errorstate = SDMMC_GetCmdResp2(SDIOx);
 972:HALLIB/STM32F4xx_HAL_Driver/Src/stm32f4xx_ll_sdmmc.c **** 
 973:HALLIB/STM32F4xx_HAL_Driver/Src/stm32f4xx_ll_sdmmc.c ****   return errorstate;
 974:HALLIB/STM32F4xx_HAL_Driver/Src/stm32f4xx_ll_sdmmc.c **** }
 975:HALLIB/STM32F4xx_HAL_Driver/Src/stm32f4xx_ll_sdmmc.c **** 
 976:HALLIB/STM32F4xx_HAL_Driver/Src/stm32f4xx_ll_sdmmc.c **** /**
 977:HALLIB/STM32F4xx_HAL_Driver/Src/stm32f4xx_ll_sdmmc.c ****   * @brief  Send the Send CSD command and check the response.
 978:HALLIB/STM32F4xx_HAL_Driver/Src/stm32f4xx_ll_sdmmc.c ****   * @param  SDIOx Pointer to SDIO register base 
 979:HALLIB/STM32F4xx_HAL_Driver/Src/stm32f4xx_ll_sdmmc.c ****   * @retval HAL status
 980:HALLIB/STM32F4xx_HAL_Driver/Src/stm32f4xx_ll_sdmmc.c ****   */
 981:HALLIB/STM32F4xx_HAL_Driver/Src/stm32f4xx_ll_sdmmc.c **** uint32_t SDMMC_CmdSendCSD(SDIO_TypeDef *SDIOx, uint32_t Argument)
 982:HALLIB/STM32F4xx_HAL_Driver/Src/stm32f4xx_ll_sdmmc.c **** {
 983:HALLIB/STM32F4xx_HAL_Driver/Src/stm32f4xx_ll_sdmmc.c ****   SDIO_CmdInitTypeDef  sdmmc_cmdinit;
 984:HALLIB/STM32F4xx_HAL_Driver/Src/stm32f4xx_ll_sdmmc.c ****   uint32_t errorstate = SDMMC_ERROR_NONE;
 985:HALLIB/STM32F4xx_HAL_Driver/Src/stm32f4xx_ll_sdmmc.c ****   
 986:HALLIB/STM32F4xx_HAL_Driver/Src/stm32f4xx_ll_sdmmc.c ****   /* Send CMD9 SEND_CSD */
 987:HALLIB/STM32F4xx_HAL_Driver/Src/stm32f4xx_ll_sdmmc.c ****   sdmmc_cmdinit.Argument         = (uint32_t)Argument;
 988:HALLIB/STM32F4xx_HAL_Driver/Src/stm32f4xx_ll_sdmmc.c ****   sdmmc_cmdinit.CmdIndex         = SDMMC_CMD_SEND_CSD;
 989:HALLIB/STM32F4xx_HAL_Driver/Src/stm32f4xx_ll_sdmmc.c ****   sdmmc_cmdinit.Response         = SDIO_RESPONSE_LONG;
 990:HALLIB/STM32F4xx_HAL_Driver/Src/stm32f4xx_ll_sdmmc.c ****   sdmmc_cmdinit.WaitForInterrupt = SDIO_WAIT_NO;
 991:HALLIB/STM32F4xx_HAL_Driver/Src/stm32f4xx_ll_sdmmc.c ****   sdmmc_cmdinit.CPSM             = SDIO_CPSM_ENABLE;
 992:HALLIB/STM32F4xx_HAL_Driver/Src/stm32f4xx_ll_sdmmc.c ****   SDIO_SendCommand(SDIOx, &sdmmc_cmdinit);
 993:HALLIB/STM32F4xx_HAL_Driver/Src/stm32f4xx_ll_sdmmc.c ****   
 994:HALLIB/STM32F4xx_HAL_Driver/Src/stm32f4xx_ll_sdmmc.c ****   /* Check for error conditions */
 995:HALLIB/STM32F4xx_HAL_Driver/Src/stm32f4xx_ll_sdmmc.c ****   errorstate = SDMMC_GetCmdResp2(SDIOx);
 996:HALLIB/STM32F4xx_HAL_Driver/Src/stm32f4xx_ll_sdmmc.c **** 
 997:HALLIB/STM32F4xx_HAL_Driver/Src/stm32f4xx_ll_sdmmc.c ****   return errorstate;
 998:HALLIB/STM32F4xx_HAL_Driver/Src/stm32f4xx_ll_sdmmc.c **** }
 999:HALLIB/STM32F4xx_HAL_Driver/Src/stm32f4xx_ll_sdmmc.c **** 
ARM GAS  /tmp/cce5sGk9.s 			page 19


1000:HALLIB/STM32F4xx_HAL_Driver/Src/stm32f4xx_ll_sdmmc.c **** /**
1001:HALLIB/STM32F4xx_HAL_Driver/Src/stm32f4xx_ll_sdmmc.c ****   * @brief  Send the Send CSD command and check the response.
1002:HALLIB/STM32F4xx_HAL_Driver/Src/stm32f4xx_ll_sdmmc.c ****   * @param  SDIOx Pointer to SDIO register base 
1003:HALLIB/STM32F4xx_HAL_Driver/Src/stm32f4xx_ll_sdmmc.c ****   * @retval HAL status
1004:HALLIB/STM32F4xx_HAL_Driver/Src/stm32f4xx_ll_sdmmc.c ****   */
1005:HALLIB/STM32F4xx_HAL_Driver/Src/stm32f4xx_ll_sdmmc.c **** uint32_t SDMMC_CmdSetRelAdd(SDIO_TypeDef *SDIOx, uint16_t *pRCA)
1006:HALLIB/STM32F4xx_HAL_Driver/Src/stm32f4xx_ll_sdmmc.c **** {
1007:HALLIB/STM32F4xx_HAL_Driver/Src/stm32f4xx_ll_sdmmc.c ****   SDIO_CmdInitTypeDef  sdmmc_cmdinit;
1008:HALLIB/STM32F4xx_HAL_Driver/Src/stm32f4xx_ll_sdmmc.c ****   uint32_t errorstate = SDMMC_ERROR_NONE;
1009:HALLIB/STM32F4xx_HAL_Driver/Src/stm32f4xx_ll_sdmmc.c ****   
1010:HALLIB/STM32F4xx_HAL_Driver/Src/stm32f4xx_ll_sdmmc.c ****   /* Send CMD3 SD_CMD_SET_REL_ADDR */
1011:HALLIB/STM32F4xx_HAL_Driver/Src/stm32f4xx_ll_sdmmc.c ****   sdmmc_cmdinit.Argument         = 0U;
1012:HALLIB/STM32F4xx_HAL_Driver/Src/stm32f4xx_ll_sdmmc.c ****   sdmmc_cmdinit.CmdIndex         = SDMMC_CMD_SET_REL_ADDR;
1013:HALLIB/STM32F4xx_HAL_Driver/Src/stm32f4xx_ll_sdmmc.c ****   sdmmc_cmdinit.Response         = SDIO_RESPONSE_SHORT;
1014:HALLIB/STM32F4xx_HAL_Driver/Src/stm32f4xx_ll_sdmmc.c ****   sdmmc_cmdinit.WaitForInterrupt = SDIO_WAIT_NO;
1015:HALLIB/STM32F4xx_HAL_Driver/Src/stm32f4xx_ll_sdmmc.c ****   sdmmc_cmdinit.CPSM             = SDIO_CPSM_ENABLE;
1016:HALLIB/STM32F4xx_HAL_Driver/Src/stm32f4xx_ll_sdmmc.c ****   SDIO_SendCommand(SDIOx, &sdmmc_cmdinit);
1017:HALLIB/STM32F4xx_HAL_Driver/Src/stm32f4xx_ll_sdmmc.c ****   
1018:HALLIB/STM32F4xx_HAL_Driver/Src/stm32f4xx_ll_sdmmc.c ****   /* Check for error conditions */
1019:HALLIB/STM32F4xx_HAL_Driver/Src/stm32f4xx_ll_sdmmc.c ****   errorstate = SDMMC_GetCmdResp6(SDIOx, SDMMC_CMD_SET_REL_ADDR, pRCA);
1020:HALLIB/STM32F4xx_HAL_Driver/Src/stm32f4xx_ll_sdmmc.c **** 
1021:HALLIB/STM32F4xx_HAL_Driver/Src/stm32f4xx_ll_sdmmc.c ****   return errorstate;
1022:HALLIB/STM32F4xx_HAL_Driver/Src/stm32f4xx_ll_sdmmc.c **** }
1023:HALLIB/STM32F4xx_HAL_Driver/Src/stm32f4xx_ll_sdmmc.c **** 
1024:HALLIB/STM32F4xx_HAL_Driver/Src/stm32f4xx_ll_sdmmc.c **** /**
1025:HALLIB/STM32F4xx_HAL_Driver/Src/stm32f4xx_ll_sdmmc.c ****   * @brief  Send the Status command and check the response.
1026:HALLIB/STM32F4xx_HAL_Driver/Src/stm32f4xx_ll_sdmmc.c ****   * @param  SDIOx Pointer to SDIO register base 
1027:HALLIB/STM32F4xx_HAL_Driver/Src/stm32f4xx_ll_sdmmc.c ****   * @retval HAL status
1028:HALLIB/STM32F4xx_HAL_Driver/Src/stm32f4xx_ll_sdmmc.c ****   */
1029:HALLIB/STM32F4xx_HAL_Driver/Src/stm32f4xx_ll_sdmmc.c **** uint32_t SDMMC_CmdSendStatus(SDIO_TypeDef *SDIOx, uint32_t Argument)
1030:HALLIB/STM32F4xx_HAL_Driver/Src/stm32f4xx_ll_sdmmc.c **** {
1031:HALLIB/STM32F4xx_HAL_Driver/Src/stm32f4xx_ll_sdmmc.c ****   SDIO_CmdInitTypeDef  sdmmc_cmdinit;
1032:HALLIB/STM32F4xx_HAL_Driver/Src/stm32f4xx_ll_sdmmc.c ****   uint32_t errorstate = SDMMC_ERROR_NONE;
1033:HALLIB/STM32F4xx_HAL_Driver/Src/stm32f4xx_ll_sdmmc.c ****   
1034:HALLIB/STM32F4xx_HAL_Driver/Src/stm32f4xx_ll_sdmmc.c ****   sdmmc_cmdinit.Argument         = (uint32_t)Argument;
1035:HALLIB/STM32F4xx_HAL_Driver/Src/stm32f4xx_ll_sdmmc.c ****   sdmmc_cmdinit.CmdIndex         = SDMMC_CMD_SEND_STATUS;
1036:HALLIB/STM32F4xx_HAL_Driver/Src/stm32f4xx_ll_sdmmc.c ****   sdmmc_cmdinit.Response         = SDIO_RESPONSE_SHORT;
1037:HALLIB/STM32F4xx_HAL_Driver/Src/stm32f4xx_ll_sdmmc.c ****   sdmmc_cmdinit.WaitForInterrupt = SDIO_WAIT_NO;
1038:HALLIB/STM32F4xx_HAL_Driver/Src/stm32f4xx_ll_sdmmc.c ****   sdmmc_cmdinit.CPSM             = SDIO_CPSM_ENABLE;
1039:HALLIB/STM32F4xx_HAL_Driver/Src/stm32f4xx_ll_sdmmc.c ****   SDIO_SendCommand(SDIOx, &sdmmc_cmdinit);
1040:HALLIB/STM32F4xx_HAL_Driver/Src/stm32f4xx_ll_sdmmc.c ****   
1041:HALLIB/STM32F4xx_HAL_Driver/Src/stm32f4xx_ll_sdmmc.c ****   /* Check for error conditions */
1042:HALLIB/STM32F4xx_HAL_Driver/Src/stm32f4xx_ll_sdmmc.c ****   errorstate = SDMMC_GetCmdResp1(SDIOx, SDMMC_CMD_SEND_STATUS, SDIO_CMDTIMEOUT);
1043:HALLIB/STM32F4xx_HAL_Driver/Src/stm32f4xx_ll_sdmmc.c **** 
1044:HALLIB/STM32F4xx_HAL_Driver/Src/stm32f4xx_ll_sdmmc.c ****   return errorstate;
1045:HALLIB/STM32F4xx_HAL_Driver/Src/stm32f4xx_ll_sdmmc.c **** }
1046:HALLIB/STM32F4xx_HAL_Driver/Src/stm32f4xx_ll_sdmmc.c **** 
1047:HALLIB/STM32F4xx_HAL_Driver/Src/stm32f4xx_ll_sdmmc.c **** /**
1048:HALLIB/STM32F4xx_HAL_Driver/Src/stm32f4xx_ll_sdmmc.c ****   * @brief  Send the Status register command and check the response.
1049:HALLIB/STM32F4xx_HAL_Driver/Src/stm32f4xx_ll_sdmmc.c ****   * @param  SDIOx Pointer to SDIO register base 
1050:HALLIB/STM32F4xx_HAL_Driver/Src/stm32f4xx_ll_sdmmc.c ****   * @retval HAL status
1051:HALLIB/STM32F4xx_HAL_Driver/Src/stm32f4xx_ll_sdmmc.c ****   */
1052:HALLIB/STM32F4xx_HAL_Driver/Src/stm32f4xx_ll_sdmmc.c **** uint32_t SDMMC_CmdStatusRegister(SDIO_TypeDef *SDIOx)
1053:HALLIB/STM32F4xx_HAL_Driver/Src/stm32f4xx_ll_sdmmc.c **** {
1054:HALLIB/STM32F4xx_HAL_Driver/Src/stm32f4xx_ll_sdmmc.c ****   SDIO_CmdInitTypeDef  sdmmc_cmdinit;
1055:HALLIB/STM32F4xx_HAL_Driver/Src/stm32f4xx_ll_sdmmc.c ****   uint32_t errorstate = SDMMC_ERROR_NONE;
1056:HALLIB/STM32F4xx_HAL_Driver/Src/stm32f4xx_ll_sdmmc.c ****   
ARM GAS  /tmp/cce5sGk9.s 			page 20


1057:HALLIB/STM32F4xx_HAL_Driver/Src/stm32f4xx_ll_sdmmc.c ****   sdmmc_cmdinit.Argument         = 0U;
1058:HALLIB/STM32F4xx_HAL_Driver/Src/stm32f4xx_ll_sdmmc.c ****   sdmmc_cmdinit.CmdIndex         = SDMMC_CMD_SD_APP_STATUS;
1059:HALLIB/STM32F4xx_HAL_Driver/Src/stm32f4xx_ll_sdmmc.c ****   sdmmc_cmdinit.Response         = SDIO_RESPONSE_SHORT;
1060:HALLIB/STM32F4xx_HAL_Driver/Src/stm32f4xx_ll_sdmmc.c ****   sdmmc_cmdinit.WaitForInterrupt = SDIO_WAIT_NO;
1061:HALLIB/STM32F4xx_HAL_Driver/Src/stm32f4xx_ll_sdmmc.c ****   sdmmc_cmdinit.CPSM             = SDIO_CPSM_ENABLE;
1062:HALLIB/STM32F4xx_HAL_Driver/Src/stm32f4xx_ll_sdmmc.c ****   SDIO_SendCommand(SDIOx, &sdmmc_cmdinit);
1063:HALLIB/STM32F4xx_HAL_Driver/Src/stm32f4xx_ll_sdmmc.c ****   
1064:HALLIB/STM32F4xx_HAL_Driver/Src/stm32f4xx_ll_sdmmc.c ****   /* Check for error conditions */
1065:HALLIB/STM32F4xx_HAL_Driver/Src/stm32f4xx_ll_sdmmc.c ****   errorstate = SDMMC_GetCmdResp1(SDIOx, SDMMC_CMD_SD_APP_STATUS, SDIO_CMDTIMEOUT);
1066:HALLIB/STM32F4xx_HAL_Driver/Src/stm32f4xx_ll_sdmmc.c **** 
1067:HALLIB/STM32F4xx_HAL_Driver/Src/stm32f4xx_ll_sdmmc.c ****   return errorstate;
1068:HALLIB/STM32F4xx_HAL_Driver/Src/stm32f4xx_ll_sdmmc.c **** }
1069:HALLIB/STM32F4xx_HAL_Driver/Src/stm32f4xx_ll_sdmmc.c **** 
1070:HALLIB/STM32F4xx_HAL_Driver/Src/stm32f4xx_ll_sdmmc.c **** /**
1071:HALLIB/STM32F4xx_HAL_Driver/Src/stm32f4xx_ll_sdmmc.c ****   * @brief  Sends host capacity support information and activates the card's 
1072:HALLIB/STM32F4xx_HAL_Driver/Src/stm32f4xx_ll_sdmmc.c ****   *         initialization process. Send SDMMC_CMD_SEND_OP_COND command
1073:HALLIB/STM32F4xx_HAL_Driver/Src/stm32f4xx_ll_sdmmc.c ****   * @param  SDIOx Pointer to SDIO register base 
1074:HALLIB/STM32F4xx_HAL_Driver/Src/stm32f4xx_ll_sdmmc.c ****   * @parame Argument Argument used for the command
1075:HALLIB/STM32F4xx_HAL_Driver/Src/stm32f4xx_ll_sdmmc.c ****   * @retval HAL status
1076:HALLIB/STM32F4xx_HAL_Driver/Src/stm32f4xx_ll_sdmmc.c ****   */
1077:HALLIB/STM32F4xx_HAL_Driver/Src/stm32f4xx_ll_sdmmc.c **** uint32_t SDMMC_CmdOpCondition(SDIO_TypeDef *SDIOx, uint32_t Argument)
1078:HALLIB/STM32F4xx_HAL_Driver/Src/stm32f4xx_ll_sdmmc.c **** {
1079:HALLIB/STM32F4xx_HAL_Driver/Src/stm32f4xx_ll_sdmmc.c ****   SDIO_CmdInitTypeDef  sdmmc_cmdinit;
1080:HALLIB/STM32F4xx_HAL_Driver/Src/stm32f4xx_ll_sdmmc.c ****   uint32_t errorstate = SDMMC_ERROR_NONE;
1081:HALLIB/STM32F4xx_HAL_Driver/Src/stm32f4xx_ll_sdmmc.c ****   
1082:HALLIB/STM32F4xx_HAL_Driver/Src/stm32f4xx_ll_sdmmc.c ****   sdmmc_cmdinit.Argument         = Argument;
1083:HALLIB/STM32F4xx_HAL_Driver/Src/stm32f4xx_ll_sdmmc.c ****   sdmmc_cmdinit.CmdIndex         = SDMMC_CMD_SEND_OP_COND;
1084:HALLIB/STM32F4xx_HAL_Driver/Src/stm32f4xx_ll_sdmmc.c ****   sdmmc_cmdinit.Response         = SDIO_RESPONSE_SHORT;
1085:HALLIB/STM32F4xx_HAL_Driver/Src/stm32f4xx_ll_sdmmc.c ****   sdmmc_cmdinit.WaitForInterrupt = SDIO_WAIT_NO;
1086:HALLIB/STM32F4xx_HAL_Driver/Src/stm32f4xx_ll_sdmmc.c ****   sdmmc_cmdinit.CPSM             = SDIO_CPSM_ENABLE;
1087:HALLIB/STM32F4xx_HAL_Driver/Src/stm32f4xx_ll_sdmmc.c ****   SDIO_SendCommand(SDIOx, &sdmmc_cmdinit);
1088:HALLIB/STM32F4xx_HAL_Driver/Src/stm32f4xx_ll_sdmmc.c ****   
1089:HALLIB/STM32F4xx_HAL_Driver/Src/stm32f4xx_ll_sdmmc.c ****   /* Check for error conditions */
1090:HALLIB/STM32F4xx_HAL_Driver/Src/stm32f4xx_ll_sdmmc.c ****   errorstate = SDMMC_GetCmdResp3(SDIOx);
1091:HALLIB/STM32F4xx_HAL_Driver/Src/stm32f4xx_ll_sdmmc.c **** 
1092:HALLIB/STM32F4xx_HAL_Driver/Src/stm32f4xx_ll_sdmmc.c ****   return errorstate;
1093:HALLIB/STM32F4xx_HAL_Driver/Src/stm32f4xx_ll_sdmmc.c **** }
1094:HALLIB/STM32F4xx_HAL_Driver/Src/stm32f4xx_ll_sdmmc.c **** 
1095:HALLIB/STM32F4xx_HAL_Driver/Src/stm32f4xx_ll_sdmmc.c **** /**
1096:HALLIB/STM32F4xx_HAL_Driver/Src/stm32f4xx_ll_sdmmc.c ****   * @brief  Checks switchable function and switch card function. SDMMC_CMD_HS_SWITCH comand
1097:HALLIB/STM32F4xx_HAL_Driver/Src/stm32f4xx_ll_sdmmc.c ****   * @param  SDIOx Pointer to SDIO register base 
1098:HALLIB/STM32F4xx_HAL_Driver/Src/stm32f4xx_ll_sdmmc.c ****   * @parame Argument Argument used for the command
1099:HALLIB/STM32F4xx_HAL_Driver/Src/stm32f4xx_ll_sdmmc.c ****   * @retval HAL status
1100:HALLIB/STM32F4xx_HAL_Driver/Src/stm32f4xx_ll_sdmmc.c ****   */
1101:HALLIB/STM32F4xx_HAL_Driver/Src/stm32f4xx_ll_sdmmc.c **** uint32_t SDMMC_CmdSwitch(SDIO_TypeDef *SDIOx, uint32_t Argument)
1102:HALLIB/STM32F4xx_HAL_Driver/Src/stm32f4xx_ll_sdmmc.c **** {
1103:HALLIB/STM32F4xx_HAL_Driver/Src/stm32f4xx_ll_sdmmc.c ****   SDIO_CmdInitTypeDef  sdmmc_cmdinit;
1104:HALLIB/STM32F4xx_HAL_Driver/Src/stm32f4xx_ll_sdmmc.c ****   uint32_t errorstate = SDMMC_ERROR_NONE;
1105:HALLIB/STM32F4xx_HAL_Driver/Src/stm32f4xx_ll_sdmmc.c ****   
1106:HALLIB/STM32F4xx_HAL_Driver/Src/stm32f4xx_ll_sdmmc.c ****   sdmmc_cmdinit.Argument         = Argument;
1107:HALLIB/STM32F4xx_HAL_Driver/Src/stm32f4xx_ll_sdmmc.c ****   sdmmc_cmdinit.CmdIndex         = SDMMC_CMD_HS_SWITCH;
1108:HALLIB/STM32F4xx_HAL_Driver/Src/stm32f4xx_ll_sdmmc.c ****   sdmmc_cmdinit.Response         = SDIO_RESPONSE_SHORT;
1109:HALLIB/STM32F4xx_HAL_Driver/Src/stm32f4xx_ll_sdmmc.c ****   sdmmc_cmdinit.WaitForInterrupt = SDIO_WAIT_NO;
1110:HALLIB/STM32F4xx_HAL_Driver/Src/stm32f4xx_ll_sdmmc.c ****   sdmmc_cmdinit.CPSM             = SDIO_CPSM_ENABLE;
1111:HALLIB/STM32F4xx_HAL_Driver/Src/stm32f4xx_ll_sdmmc.c ****   SDIO_SendCommand(SDIOx, &sdmmc_cmdinit);
1112:HALLIB/STM32F4xx_HAL_Driver/Src/stm32f4xx_ll_sdmmc.c ****   
1113:HALLIB/STM32F4xx_HAL_Driver/Src/stm32f4xx_ll_sdmmc.c ****   /* Check for error conditions */
ARM GAS  /tmp/cce5sGk9.s 			page 21


1114:HALLIB/STM32F4xx_HAL_Driver/Src/stm32f4xx_ll_sdmmc.c ****   errorstate = SDMMC_GetCmdResp1(SDIOx, SDMMC_CMD_HS_SWITCH, SDIO_CMDTIMEOUT);
1115:HALLIB/STM32F4xx_HAL_Driver/Src/stm32f4xx_ll_sdmmc.c **** 
1116:HALLIB/STM32F4xx_HAL_Driver/Src/stm32f4xx_ll_sdmmc.c ****   return errorstate;
1117:HALLIB/STM32F4xx_HAL_Driver/Src/stm32f4xx_ll_sdmmc.c **** }
1118:HALLIB/STM32F4xx_HAL_Driver/Src/stm32f4xx_ll_sdmmc.c **** 
1119:HALLIB/STM32F4xx_HAL_Driver/Src/stm32f4xx_ll_sdmmc.c **** /**
1120:HALLIB/STM32F4xx_HAL_Driver/Src/stm32f4xx_ll_sdmmc.c ****   * @}
1121:HALLIB/STM32F4xx_HAL_Driver/Src/stm32f4xx_ll_sdmmc.c ****   */
1122:HALLIB/STM32F4xx_HAL_Driver/Src/stm32f4xx_ll_sdmmc.c **** 
1123:HALLIB/STM32F4xx_HAL_Driver/Src/stm32f4xx_ll_sdmmc.c **** /* Private function ----------------------------------------------------------*/  
1124:HALLIB/STM32F4xx_HAL_Driver/Src/stm32f4xx_ll_sdmmc.c **** /** @addtogroup SD_Private_Functions
1125:HALLIB/STM32F4xx_HAL_Driver/Src/stm32f4xx_ll_sdmmc.c ****   * @{
1126:HALLIB/STM32F4xx_HAL_Driver/Src/stm32f4xx_ll_sdmmc.c ****   */
1127:HALLIB/STM32F4xx_HAL_Driver/Src/stm32f4xx_ll_sdmmc.c ****     
1128:HALLIB/STM32F4xx_HAL_Driver/Src/stm32f4xx_ll_sdmmc.c **** /**
1129:HALLIB/STM32F4xx_HAL_Driver/Src/stm32f4xx_ll_sdmmc.c ****   * @brief  Checks for error conditions for CMD0.
1130:HALLIB/STM32F4xx_HAL_Driver/Src/stm32f4xx_ll_sdmmc.c ****   * @param  hsd SD handle
1131:HALLIB/STM32F4xx_HAL_Driver/Src/stm32f4xx_ll_sdmmc.c ****   * @retval SD Card error state
1132:HALLIB/STM32F4xx_HAL_Driver/Src/stm32f4xx_ll_sdmmc.c ****   */
1133:HALLIB/STM32F4xx_HAL_Driver/Src/stm32f4xx_ll_sdmmc.c **** static uint32_t SDMMC_GetCmdError(SDIO_TypeDef *SDIOx)
1134:HALLIB/STM32F4xx_HAL_Driver/Src/stm32f4xx_ll_sdmmc.c **** {
  29              		.loc 1 1134 1 view -0
  30              		.cfi_startproc
  31              		@ args = 0, pretend = 0, frame = 0
  32              		@ frame_needed = 0, uses_anonymous_args = 0
  33              		@ link register save eliminated.
1135:HALLIB/STM32F4xx_HAL_Driver/Src/stm32f4xx_ll_sdmmc.c ****   /* 8 is the number of required instructions cycles for the below loop statement.
1136:HALLIB/STM32F4xx_HAL_Driver/Src/stm32f4xx_ll_sdmmc.c ****   The SDMMC_CMDTIMEOUT is expressed in ms */
1137:HALLIB/STM32F4xx_HAL_Driver/Src/stm32f4xx_ll_sdmmc.c ****   register uint32_t count = SDIO_CMDTIMEOUT * (SystemCoreClock / 8U /1000U);
  34              		.loc 1 1137 3 view .LVU1
  35              		.loc 1 1137 69 is_stmt 0 view .LVU2
  36 0000 0C4B     		ldr	r3, .L5
  37 0002 1B68     		ldr	r3, [r3]
  38 0004 0C4A     		ldr	r2, .L5+4
  39 0006 A2FB0323 		umull	r2, r3, r2, r3
  40 000a 5A0A     		lsrs	r2, r3, #9
  41              		.loc 1 1137 21 view .LVU3
  42 000c 41F28833 		movw	r3, #5000
  43 0010 03FB02F3 		mul	r3, r3, r2
  44              	.LVL1:
  45              	.L3:
1138:HALLIB/STM32F4xx_HAL_Driver/Src/stm32f4xx_ll_sdmmc.c ****   
1139:HALLIB/STM32F4xx_HAL_Driver/Src/stm32f4xx_ll_sdmmc.c ****   do
  46              		.loc 1 1139 3 is_stmt 1 view .LVU4
1140:HALLIB/STM32F4xx_HAL_Driver/Src/stm32f4xx_ll_sdmmc.c ****   {
1141:HALLIB/STM32F4xx_HAL_Driver/Src/stm32f4xx_ll_sdmmc.c ****     if (count-- == 0U)
  47              		.loc 1 1141 5 view .LVU5
  48 0014 1A46     		mov	r2, r3
  49              		.loc 1 1141 14 is_stmt 0 view .LVU6
  50 0016 013B     		subs	r3, r3, #1
  51              	.LVL2:
  52              		.loc 1 1141 8 view .LVU7
  53 0018 42B1     		cbz	r2, .L4
1142:HALLIB/STM32F4xx_HAL_Driver/Src/stm32f4xx_ll_sdmmc.c ****     {
1143:HALLIB/STM32F4xx_HAL_Driver/Src/stm32f4xx_ll_sdmmc.c ****       return SDMMC_ERROR_TIMEOUT;
1144:HALLIB/STM32F4xx_HAL_Driver/Src/stm32f4xx_ll_sdmmc.c ****     }
1145:HALLIB/STM32F4xx_HAL_Driver/Src/stm32f4xx_ll_sdmmc.c ****     
ARM GAS  /tmp/cce5sGk9.s 			page 22


1146:HALLIB/STM32F4xx_HAL_Driver/Src/stm32f4xx_ll_sdmmc.c ****   }while(!__SDIO_GET_FLAG(SDIOx, SDIO_FLAG_CMDSENT));
  54              		.loc 1 1146 9 is_stmt 1 view .LVU8
  55              		.loc 1 1146 11 is_stmt 0 view .LVU9
  56 001a 426B     		ldr	r2, [r0, #52]
  57              		.loc 1 1146 3 view .LVU10
  58 001c 12F0800F 		tst	r2, #128
  59 0020 F8D0     		beq	.L3
1147:HALLIB/STM32F4xx_HAL_Driver/Src/stm32f4xx_ll_sdmmc.c ****   
1148:HALLIB/STM32F4xx_HAL_Driver/Src/stm32f4xx_ll_sdmmc.c ****   /* Clear all the static flags */
1149:HALLIB/STM32F4xx_HAL_Driver/Src/stm32f4xx_ll_sdmmc.c ****   __SDIO_CLEAR_FLAG(SDIOx, SDIO_STATIC_FLAGS);
  60              		.loc 1 1149 3 is_stmt 1 view .LVU11
  61 0022 40F2FF53 		movw	r3, #1535
  62              	.LVL3:
  63              		.loc 1 1149 3 is_stmt 0 view .LVU12
  64 0026 8363     		str	r3, [r0, #56]
1150:HALLIB/STM32F4xx_HAL_Driver/Src/stm32f4xx_ll_sdmmc.c ****   
1151:HALLIB/STM32F4xx_HAL_Driver/Src/stm32f4xx_ll_sdmmc.c ****   return SDMMC_ERROR_NONE;
  65              		.loc 1 1151 3 is_stmt 1 view .LVU13
  66              		.loc 1 1151 10 is_stmt 0 view .LVU14
  67 0028 0020     		movs	r0, #0
  68              	.LVL4:
  69              		.loc 1 1151 10 view .LVU15
  70 002a 7047     		bx	lr
  71              	.LVL5:
  72              	.L4:
1143:HALLIB/STM32F4xx_HAL_Driver/Src/stm32f4xx_ll_sdmmc.c ****     }
  73              		.loc 1 1143 14 view .LVU16
  74 002c 4FF00040 		mov	r0, #-2147483648
  75              	.LVL6:
1152:HALLIB/STM32F4xx_HAL_Driver/Src/stm32f4xx_ll_sdmmc.c **** }
  76              		.loc 1 1152 1 view .LVU17
  77 0030 7047     		bx	lr
  78              	.L6:
  79 0032 00BF     		.align	2
  80              	.L5:
  81 0034 00000000 		.word	SystemCoreClock
  82 0038 D34D6210 		.word	274877907
  83              		.cfi_endproc
  84              	.LFE170:
  86              		.section	.text.SDMMC_GetCmdResp2,"ax",%progbits
  87              		.align	1
  88              		.syntax unified
  89              		.thumb
  90              		.thumb_func
  91              		.fpu fpv4-sp-d16
  93              	SDMMC_GetCmdResp2:
  94              	.LVL7:
  95              	.LFB172:
1153:HALLIB/STM32F4xx_HAL_Driver/Src/stm32f4xx_ll_sdmmc.c **** 
1154:HALLIB/STM32F4xx_HAL_Driver/Src/stm32f4xx_ll_sdmmc.c **** /**
1155:HALLIB/STM32F4xx_HAL_Driver/Src/stm32f4xx_ll_sdmmc.c ****   * @brief  Checks for error conditions for R1 response.
1156:HALLIB/STM32F4xx_HAL_Driver/Src/stm32f4xx_ll_sdmmc.c ****   * @param  hsd SD handle
1157:HALLIB/STM32F4xx_HAL_Driver/Src/stm32f4xx_ll_sdmmc.c ****   * @param  SD_CMD The sent command index  
1158:HALLIB/STM32F4xx_HAL_Driver/Src/stm32f4xx_ll_sdmmc.c ****   * @retval SD Card error state
1159:HALLIB/STM32F4xx_HAL_Driver/Src/stm32f4xx_ll_sdmmc.c ****   */
1160:HALLIB/STM32F4xx_HAL_Driver/Src/stm32f4xx_ll_sdmmc.c **** static uint32_t SDMMC_GetCmdResp1(SDIO_TypeDef *SDIOx, uint8_t SD_CMD, uint32_t Timeout)
1161:HALLIB/STM32F4xx_HAL_Driver/Src/stm32f4xx_ll_sdmmc.c **** {
ARM GAS  /tmp/cce5sGk9.s 			page 23


1162:HALLIB/STM32F4xx_HAL_Driver/Src/stm32f4xx_ll_sdmmc.c ****   uint32_t response_r1;
1163:HALLIB/STM32F4xx_HAL_Driver/Src/stm32f4xx_ll_sdmmc.c ****   
1164:HALLIB/STM32F4xx_HAL_Driver/Src/stm32f4xx_ll_sdmmc.c ****   /* 8 is the number of required instructions cycles for the below loop statement.
1165:HALLIB/STM32F4xx_HAL_Driver/Src/stm32f4xx_ll_sdmmc.c ****   The Timeout is expressed in ms */
1166:HALLIB/STM32F4xx_HAL_Driver/Src/stm32f4xx_ll_sdmmc.c ****   register uint32_t count = Timeout * (SystemCoreClock / 8U /1000U);
1167:HALLIB/STM32F4xx_HAL_Driver/Src/stm32f4xx_ll_sdmmc.c ****   
1168:HALLIB/STM32F4xx_HAL_Driver/Src/stm32f4xx_ll_sdmmc.c ****   do
1169:HALLIB/STM32F4xx_HAL_Driver/Src/stm32f4xx_ll_sdmmc.c ****   {
1170:HALLIB/STM32F4xx_HAL_Driver/Src/stm32f4xx_ll_sdmmc.c ****     if (count-- == 0U)
1171:HALLIB/STM32F4xx_HAL_Driver/Src/stm32f4xx_ll_sdmmc.c ****     {
1172:HALLIB/STM32F4xx_HAL_Driver/Src/stm32f4xx_ll_sdmmc.c ****       return SDMMC_ERROR_TIMEOUT;
1173:HALLIB/STM32F4xx_HAL_Driver/Src/stm32f4xx_ll_sdmmc.c ****     }
1174:HALLIB/STM32F4xx_HAL_Driver/Src/stm32f4xx_ll_sdmmc.c ****     
1175:HALLIB/STM32F4xx_HAL_Driver/Src/stm32f4xx_ll_sdmmc.c ****   }while(!__SDIO_GET_FLAG(SDIOx, SDIO_FLAG_CCRCFAIL | SDIO_FLAG_CMDREND | SDIO_FLAG_CTIMEOUT));
1176:HALLIB/STM32F4xx_HAL_Driver/Src/stm32f4xx_ll_sdmmc.c ****   
1177:HALLIB/STM32F4xx_HAL_Driver/Src/stm32f4xx_ll_sdmmc.c ****   if(__SDIO_GET_FLAG(SDIOx, SDIO_FLAG_CTIMEOUT))
1178:HALLIB/STM32F4xx_HAL_Driver/Src/stm32f4xx_ll_sdmmc.c ****   {
1179:HALLIB/STM32F4xx_HAL_Driver/Src/stm32f4xx_ll_sdmmc.c ****     __SDIO_CLEAR_FLAG(SDIOx, SDIO_FLAG_CTIMEOUT);
1180:HALLIB/STM32F4xx_HAL_Driver/Src/stm32f4xx_ll_sdmmc.c ****     
1181:HALLIB/STM32F4xx_HAL_Driver/Src/stm32f4xx_ll_sdmmc.c ****     return SDMMC_ERROR_CMD_RSP_TIMEOUT;
1182:HALLIB/STM32F4xx_HAL_Driver/Src/stm32f4xx_ll_sdmmc.c ****   }
1183:HALLIB/STM32F4xx_HAL_Driver/Src/stm32f4xx_ll_sdmmc.c ****   else if(__SDIO_GET_FLAG(SDIOx, SDIO_FLAG_CCRCFAIL))
1184:HALLIB/STM32F4xx_HAL_Driver/Src/stm32f4xx_ll_sdmmc.c ****   {
1185:HALLIB/STM32F4xx_HAL_Driver/Src/stm32f4xx_ll_sdmmc.c ****     __SDIO_CLEAR_FLAG(SDIOx, SDIO_FLAG_CCRCFAIL);
1186:HALLIB/STM32F4xx_HAL_Driver/Src/stm32f4xx_ll_sdmmc.c ****     
1187:HALLIB/STM32F4xx_HAL_Driver/Src/stm32f4xx_ll_sdmmc.c ****     return SDMMC_ERROR_CMD_CRC_FAIL;
1188:HALLIB/STM32F4xx_HAL_Driver/Src/stm32f4xx_ll_sdmmc.c ****   }
1189:HALLIB/STM32F4xx_HAL_Driver/Src/stm32f4xx_ll_sdmmc.c ****   
1190:HALLIB/STM32F4xx_HAL_Driver/Src/stm32f4xx_ll_sdmmc.c ****   /* Check response received is of desired command */
1191:HALLIB/STM32F4xx_HAL_Driver/Src/stm32f4xx_ll_sdmmc.c ****   if(SDIO_GetCommandResponse(SDIOx) != SD_CMD)
1192:HALLIB/STM32F4xx_HAL_Driver/Src/stm32f4xx_ll_sdmmc.c ****   {
1193:HALLIB/STM32F4xx_HAL_Driver/Src/stm32f4xx_ll_sdmmc.c ****     return SDMMC_ERROR_CMD_CRC_FAIL;
1194:HALLIB/STM32F4xx_HAL_Driver/Src/stm32f4xx_ll_sdmmc.c ****   }
1195:HALLIB/STM32F4xx_HAL_Driver/Src/stm32f4xx_ll_sdmmc.c ****   
1196:HALLIB/STM32F4xx_HAL_Driver/Src/stm32f4xx_ll_sdmmc.c ****   /* Clear all the static flags */
1197:HALLIB/STM32F4xx_HAL_Driver/Src/stm32f4xx_ll_sdmmc.c ****   __SDIO_CLEAR_FLAG(SDIOx, SDIO_STATIC_FLAGS);
1198:HALLIB/STM32F4xx_HAL_Driver/Src/stm32f4xx_ll_sdmmc.c ****   
1199:HALLIB/STM32F4xx_HAL_Driver/Src/stm32f4xx_ll_sdmmc.c ****   /* We have received response, retrieve it for analysis  */
1200:HALLIB/STM32F4xx_HAL_Driver/Src/stm32f4xx_ll_sdmmc.c ****   response_r1 = SDIO_GetResponse(SDIOx, SDIO_RESP1);
1201:HALLIB/STM32F4xx_HAL_Driver/Src/stm32f4xx_ll_sdmmc.c ****   
1202:HALLIB/STM32F4xx_HAL_Driver/Src/stm32f4xx_ll_sdmmc.c ****   if((response_r1 & SDMMC_OCR_ERRORBITS) == SDMMC_ALLZERO)
1203:HALLIB/STM32F4xx_HAL_Driver/Src/stm32f4xx_ll_sdmmc.c ****   {
1204:HALLIB/STM32F4xx_HAL_Driver/Src/stm32f4xx_ll_sdmmc.c ****     return SDMMC_ERROR_NONE;
1205:HALLIB/STM32F4xx_HAL_Driver/Src/stm32f4xx_ll_sdmmc.c ****   }
1206:HALLIB/STM32F4xx_HAL_Driver/Src/stm32f4xx_ll_sdmmc.c ****   else if((response_r1 & SDMMC_OCR_ADDR_OUT_OF_RANGE) == SDMMC_OCR_ADDR_OUT_OF_RANGE)
1207:HALLIB/STM32F4xx_HAL_Driver/Src/stm32f4xx_ll_sdmmc.c ****   {
1208:HALLIB/STM32F4xx_HAL_Driver/Src/stm32f4xx_ll_sdmmc.c ****     return SDMMC_ERROR_ADDR_OUT_OF_RANGE;
1209:HALLIB/STM32F4xx_HAL_Driver/Src/stm32f4xx_ll_sdmmc.c ****   }
1210:HALLIB/STM32F4xx_HAL_Driver/Src/stm32f4xx_ll_sdmmc.c ****   else if((response_r1 & SDMMC_OCR_ADDR_MISALIGNED) == SDMMC_OCR_ADDR_MISALIGNED)
1211:HALLIB/STM32F4xx_HAL_Driver/Src/stm32f4xx_ll_sdmmc.c ****   {
1212:HALLIB/STM32F4xx_HAL_Driver/Src/stm32f4xx_ll_sdmmc.c ****     return SDMMC_ERROR_ADDR_MISALIGNED;
1213:HALLIB/STM32F4xx_HAL_Driver/Src/stm32f4xx_ll_sdmmc.c ****   }
1214:HALLIB/STM32F4xx_HAL_Driver/Src/stm32f4xx_ll_sdmmc.c ****   else if((response_r1 & SDMMC_OCR_BLOCK_LEN_ERR) == SDMMC_OCR_BLOCK_LEN_ERR)
1215:HALLIB/STM32F4xx_HAL_Driver/Src/stm32f4xx_ll_sdmmc.c ****   {
1216:HALLIB/STM32F4xx_HAL_Driver/Src/stm32f4xx_ll_sdmmc.c ****     return SDMMC_ERROR_BLOCK_LEN_ERR;
1217:HALLIB/STM32F4xx_HAL_Driver/Src/stm32f4xx_ll_sdmmc.c ****   }
1218:HALLIB/STM32F4xx_HAL_Driver/Src/stm32f4xx_ll_sdmmc.c ****   else if((response_r1 & SDMMC_OCR_ERASE_SEQ_ERR) == SDMMC_OCR_ERASE_SEQ_ERR)
ARM GAS  /tmp/cce5sGk9.s 			page 24


1219:HALLIB/STM32F4xx_HAL_Driver/Src/stm32f4xx_ll_sdmmc.c ****   {
1220:HALLIB/STM32F4xx_HAL_Driver/Src/stm32f4xx_ll_sdmmc.c ****     return SDMMC_ERROR_ERASE_SEQ_ERR;
1221:HALLIB/STM32F4xx_HAL_Driver/Src/stm32f4xx_ll_sdmmc.c ****   }
1222:HALLIB/STM32F4xx_HAL_Driver/Src/stm32f4xx_ll_sdmmc.c ****   else if((response_r1 & SDMMC_OCR_BAD_ERASE_PARAM) == SDMMC_OCR_BAD_ERASE_PARAM)
1223:HALLIB/STM32F4xx_HAL_Driver/Src/stm32f4xx_ll_sdmmc.c ****   {
1224:HALLIB/STM32F4xx_HAL_Driver/Src/stm32f4xx_ll_sdmmc.c ****     return SDMMC_ERROR_BAD_ERASE_PARAM;
1225:HALLIB/STM32F4xx_HAL_Driver/Src/stm32f4xx_ll_sdmmc.c ****   }
1226:HALLIB/STM32F4xx_HAL_Driver/Src/stm32f4xx_ll_sdmmc.c ****   else if((response_r1 & SDMMC_OCR_WRITE_PROT_VIOLATION) == SDMMC_OCR_WRITE_PROT_VIOLATION)
1227:HALLIB/STM32F4xx_HAL_Driver/Src/stm32f4xx_ll_sdmmc.c ****   {
1228:HALLIB/STM32F4xx_HAL_Driver/Src/stm32f4xx_ll_sdmmc.c ****     return SDMMC_ERROR_WRITE_PROT_VIOLATION;
1229:HALLIB/STM32F4xx_HAL_Driver/Src/stm32f4xx_ll_sdmmc.c ****   }
1230:HALLIB/STM32F4xx_HAL_Driver/Src/stm32f4xx_ll_sdmmc.c ****   else if((response_r1 & SDMMC_OCR_LOCK_UNLOCK_FAILED) == SDMMC_OCR_LOCK_UNLOCK_FAILED)
1231:HALLIB/STM32F4xx_HAL_Driver/Src/stm32f4xx_ll_sdmmc.c ****   {
1232:HALLIB/STM32F4xx_HAL_Driver/Src/stm32f4xx_ll_sdmmc.c ****     return SDMMC_ERROR_LOCK_UNLOCK_FAILED;
1233:HALLIB/STM32F4xx_HAL_Driver/Src/stm32f4xx_ll_sdmmc.c ****   }
1234:HALLIB/STM32F4xx_HAL_Driver/Src/stm32f4xx_ll_sdmmc.c ****   else if((response_r1 & SDMMC_OCR_COM_CRC_FAILED) == SDMMC_OCR_COM_CRC_FAILED)
1235:HALLIB/STM32F4xx_HAL_Driver/Src/stm32f4xx_ll_sdmmc.c ****   {
1236:HALLIB/STM32F4xx_HAL_Driver/Src/stm32f4xx_ll_sdmmc.c ****     return SDMMC_ERROR_COM_CRC_FAILED;
1237:HALLIB/STM32F4xx_HAL_Driver/Src/stm32f4xx_ll_sdmmc.c ****   }
1238:HALLIB/STM32F4xx_HAL_Driver/Src/stm32f4xx_ll_sdmmc.c ****   else if((response_r1 & SDMMC_OCR_ILLEGAL_CMD) == SDMMC_OCR_ILLEGAL_CMD)
1239:HALLIB/STM32F4xx_HAL_Driver/Src/stm32f4xx_ll_sdmmc.c ****   {
1240:HALLIB/STM32F4xx_HAL_Driver/Src/stm32f4xx_ll_sdmmc.c ****     return SDMMC_ERROR_ILLEGAL_CMD;
1241:HALLIB/STM32F4xx_HAL_Driver/Src/stm32f4xx_ll_sdmmc.c ****   }
1242:HALLIB/STM32F4xx_HAL_Driver/Src/stm32f4xx_ll_sdmmc.c ****   else if((response_r1 & SDMMC_OCR_CARD_ECC_FAILED) == SDMMC_OCR_CARD_ECC_FAILED)
1243:HALLIB/STM32F4xx_HAL_Driver/Src/stm32f4xx_ll_sdmmc.c ****   {
1244:HALLIB/STM32F4xx_HAL_Driver/Src/stm32f4xx_ll_sdmmc.c ****     return SDMMC_ERROR_CARD_ECC_FAILED;
1245:HALLIB/STM32F4xx_HAL_Driver/Src/stm32f4xx_ll_sdmmc.c ****   }
1246:HALLIB/STM32F4xx_HAL_Driver/Src/stm32f4xx_ll_sdmmc.c ****   else if((response_r1 & SDMMC_OCR_CC_ERROR) == SDMMC_OCR_CC_ERROR)
1247:HALLIB/STM32F4xx_HAL_Driver/Src/stm32f4xx_ll_sdmmc.c ****   {
1248:HALLIB/STM32F4xx_HAL_Driver/Src/stm32f4xx_ll_sdmmc.c ****     return SDMMC_ERROR_CC_ERR;
1249:HALLIB/STM32F4xx_HAL_Driver/Src/stm32f4xx_ll_sdmmc.c ****   }
1250:HALLIB/STM32F4xx_HAL_Driver/Src/stm32f4xx_ll_sdmmc.c ****   else if((response_r1 & SDMMC_OCR_STREAM_READ_UNDERRUN) == SDMMC_OCR_STREAM_READ_UNDERRUN)
1251:HALLIB/STM32F4xx_HAL_Driver/Src/stm32f4xx_ll_sdmmc.c ****   {
1252:HALLIB/STM32F4xx_HAL_Driver/Src/stm32f4xx_ll_sdmmc.c ****     return SDMMC_ERROR_STREAM_READ_UNDERRUN;
1253:HALLIB/STM32F4xx_HAL_Driver/Src/stm32f4xx_ll_sdmmc.c ****   }
1254:HALLIB/STM32F4xx_HAL_Driver/Src/stm32f4xx_ll_sdmmc.c ****   else if((response_r1 & SDMMC_OCR_STREAM_WRITE_OVERRUN) == SDMMC_OCR_STREAM_WRITE_OVERRUN)
1255:HALLIB/STM32F4xx_HAL_Driver/Src/stm32f4xx_ll_sdmmc.c ****   {
1256:HALLIB/STM32F4xx_HAL_Driver/Src/stm32f4xx_ll_sdmmc.c ****     return SDMMC_ERROR_STREAM_WRITE_OVERRUN;
1257:HALLIB/STM32F4xx_HAL_Driver/Src/stm32f4xx_ll_sdmmc.c ****   }
1258:HALLIB/STM32F4xx_HAL_Driver/Src/stm32f4xx_ll_sdmmc.c ****   else if((response_r1 & SDMMC_OCR_CID_CSD_OVERWRITE) == SDMMC_OCR_CID_CSD_OVERWRITE)
1259:HALLIB/STM32F4xx_HAL_Driver/Src/stm32f4xx_ll_sdmmc.c ****   {
1260:HALLIB/STM32F4xx_HAL_Driver/Src/stm32f4xx_ll_sdmmc.c ****     return SDMMC_ERROR_CID_CSD_OVERWRITE;
1261:HALLIB/STM32F4xx_HAL_Driver/Src/stm32f4xx_ll_sdmmc.c ****   }
1262:HALLIB/STM32F4xx_HAL_Driver/Src/stm32f4xx_ll_sdmmc.c ****   else if((response_r1 & SDMMC_OCR_WP_ERASE_SKIP) == SDMMC_OCR_WP_ERASE_SKIP)
1263:HALLIB/STM32F4xx_HAL_Driver/Src/stm32f4xx_ll_sdmmc.c ****   {
1264:HALLIB/STM32F4xx_HAL_Driver/Src/stm32f4xx_ll_sdmmc.c ****     return SDMMC_ERROR_WP_ERASE_SKIP;
1265:HALLIB/STM32F4xx_HAL_Driver/Src/stm32f4xx_ll_sdmmc.c ****   }
1266:HALLIB/STM32F4xx_HAL_Driver/Src/stm32f4xx_ll_sdmmc.c ****   else if((response_r1 & SDMMC_OCR_CARD_ECC_DISABLED) == SDMMC_OCR_CARD_ECC_DISABLED)
1267:HALLIB/STM32F4xx_HAL_Driver/Src/stm32f4xx_ll_sdmmc.c ****   {
1268:HALLIB/STM32F4xx_HAL_Driver/Src/stm32f4xx_ll_sdmmc.c ****     return SDMMC_ERROR_CARD_ECC_DISABLED;
1269:HALLIB/STM32F4xx_HAL_Driver/Src/stm32f4xx_ll_sdmmc.c ****   }
1270:HALLIB/STM32F4xx_HAL_Driver/Src/stm32f4xx_ll_sdmmc.c ****   else if((response_r1 & SDMMC_OCR_ERASE_RESET) == SDMMC_OCR_ERASE_RESET)
1271:HALLIB/STM32F4xx_HAL_Driver/Src/stm32f4xx_ll_sdmmc.c ****   {
1272:HALLIB/STM32F4xx_HAL_Driver/Src/stm32f4xx_ll_sdmmc.c ****     return SDMMC_ERROR_ERASE_RESET;
1273:HALLIB/STM32F4xx_HAL_Driver/Src/stm32f4xx_ll_sdmmc.c ****   }
1274:HALLIB/STM32F4xx_HAL_Driver/Src/stm32f4xx_ll_sdmmc.c ****   else if((response_r1 & SDMMC_OCR_AKE_SEQ_ERROR) == SDMMC_OCR_AKE_SEQ_ERROR)
1275:HALLIB/STM32F4xx_HAL_Driver/Src/stm32f4xx_ll_sdmmc.c ****   {
ARM GAS  /tmp/cce5sGk9.s 			page 25


1276:HALLIB/STM32F4xx_HAL_Driver/Src/stm32f4xx_ll_sdmmc.c ****     return SDMMC_ERROR_AKE_SEQ_ERR;
1277:HALLIB/STM32F4xx_HAL_Driver/Src/stm32f4xx_ll_sdmmc.c ****   }
1278:HALLIB/STM32F4xx_HAL_Driver/Src/stm32f4xx_ll_sdmmc.c ****   else
1279:HALLIB/STM32F4xx_HAL_Driver/Src/stm32f4xx_ll_sdmmc.c ****   {
1280:HALLIB/STM32F4xx_HAL_Driver/Src/stm32f4xx_ll_sdmmc.c ****     return SDMMC_ERROR_GENERAL_UNKNOWN_ERR;
1281:HALLIB/STM32F4xx_HAL_Driver/Src/stm32f4xx_ll_sdmmc.c ****   }
1282:HALLIB/STM32F4xx_HAL_Driver/Src/stm32f4xx_ll_sdmmc.c **** }
1283:HALLIB/STM32F4xx_HAL_Driver/Src/stm32f4xx_ll_sdmmc.c **** 
1284:HALLIB/STM32F4xx_HAL_Driver/Src/stm32f4xx_ll_sdmmc.c **** /**
1285:HALLIB/STM32F4xx_HAL_Driver/Src/stm32f4xx_ll_sdmmc.c ****   * @brief  Checks for error conditions for R2 (CID or CSD) response.
1286:HALLIB/STM32F4xx_HAL_Driver/Src/stm32f4xx_ll_sdmmc.c ****   * @param  hsd SD handle
1287:HALLIB/STM32F4xx_HAL_Driver/Src/stm32f4xx_ll_sdmmc.c ****   * @retval SD Card error state
1288:HALLIB/STM32F4xx_HAL_Driver/Src/stm32f4xx_ll_sdmmc.c ****   */
1289:HALLIB/STM32F4xx_HAL_Driver/Src/stm32f4xx_ll_sdmmc.c **** static uint32_t SDMMC_GetCmdResp2(SDIO_TypeDef *SDIOx)
1290:HALLIB/STM32F4xx_HAL_Driver/Src/stm32f4xx_ll_sdmmc.c **** {
  96              		.loc 1 1290 1 is_stmt 1 view -0
  97              		.cfi_startproc
  98              		@ args = 0, pretend = 0, frame = 0
  99              		@ frame_needed = 0, uses_anonymous_args = 0
 100              		@ link register save eliminated.
 101              		.loc 1 1290 1 is_stmt 0 view .LVU19
 102 0000 0146     		mov	r1, r0
1291:HALLIB/STM32F4xx_HAL_Driver/Src/stm32f4xx_ll_sdmmc.c ****   /* 8 is the number of required instructions cycles for the below loop statement.
1292:HALLIB/STM32F4xx_HAL_Driver/Src/stm32f4xx_ll_sdmmc.c ****   The SDMMC_CMDTIMEOUT is expressed in ms */
1293:HALLIB/STM32F4xx_HAL_Driver/Src/stm32f4xx_ll_sdmmc.c ****   register uint32_t count = SDIO_CMDTIMEOUT * (SystemCoreClock / 8U /1000U);
 103              		.loc 1 1293 3 is_stmt 1 view .LVU20
 104              		.loc 1 1293 69 is_stmt 0 view .LVU21
 105 0002 134B     		ldr	r3, .L15
 106 0004 1B68     		ldr	r3, [r3]
 107 0006 134A     		ldr	r2, .L15+4
 108 0008 A2FB0323 		umull	r2, r3, r2, r3
 109 000c 5A0A     		lsrs	r2, r3, #9
 110              		.loc 1 1293 21 view .LVU22
 111 000e 41F28833 		movw	r3, #5000
 112 0012 03FB02F3 		mul	r3, r3, r2
 113              	.LVL8:
 114              	.L9:
1294:HALLIB/STM32F4xx_HAL_Driver/Src/stm32f4xx_ll_sdmmc.c ****   
1295:HALLIB/STM32F4xx_HAL_Driver/Src/stm32f4xx_ll_sdmmc.c ****   do
 115              		.loc 1 1295 3 is_stmt 1 view .LVU23
1296:HALLIB/STM32F4xx_HAL_Driver/Src/stm32f4xx_ll_sdmmc.c ****   {
1297:HALLIB/STM32F4xx_HAL_Driver/Src/stm32f4xx_ll_sdmmc.c ****     if (count-- == 0U)
 116              		.loc 1 1297 5 view .LVU24
 117 0016 1A46     		mov	r2, r3
 118              		.loc 1 1297 14 is_stmt 0 view .LVU25
 119 0018 013B     		subs	r3, r3, #1
 120              	.LVL9:
 121              		.loc 1 1297 8 view .LVU26
 122 001a AAB1     		cbz	r2, .L12
1298:HALLIB/STM32F4xx_HAL_Driver/Src/stm32f4xx_ll_sdmmc.c ****     {
1299:HALLIB/STM32F4xx_HAL_Driver/Src/stm32f4xx_ll_sdmmc.c ****       return SDMMC_ERROR_TIMEOUT;
1300:HALLIB/STM32F4xx_HAL_Driver/Src/stm32f4xx_ll_sdmmc.c ****     }
1301:HALLIB/STM32F4xx_HAL_Driver/Src/stm32f4xx_ll_sdmmc.c ****     
1302:HALLIB/STM32F4xx_HAL_Driver/Src/stm32f4xx_ll_sdmmc.c ****   }while(!__SDIO_GET_FLAG(SDIOx, SDIO_FLAG_CCRCFAIL | SDIO_FLAG_CMDREND | SDIO_FLAG_CTIMEOUT));
 123              		.loc 1 1302 9 is_stmt 1 view .LVU27
 124              		.loc 1 1302 11 is_stmt 0 view .LVU28
 125 001c 4A6B     		ldr	r2, [r1, #52]
ARM GAS  /tmp/cce5sGk9.s 			page 26


 126              		.loc 1 1302 3 view .LVU29
 127 001e 12F0450F 		tst	r2, #69
 128 0022 F8D0     		beq	.L9
1303:HALLIB/STM32F4xx_HAL_Driver/Src/stm32f4xx_ll_sdmmc.c ****     
1304:HALLIB/STM32F4xx_HAL_Driver/Src/stm32f4xx_ll_sdmmc.c ****   if (__SDIO_GET_FLAG(SDIOx, SDIO_FLAG_CTIMEOUT))
 129              		.loc 1 1304 3 is_stmt 1 view .LVU30
 130              		.loc 1 1304 7 is_stmt 0 view .LVU31
 131 0024 4B6B     		ldr	r3, [r1, #52]
 132              	.LVL10:
 133              		.loc 1 1304 6 view .LVU32
 134 0026 13F0040F 		tst	r3, #4
 135 002a 07D1     		bne	.L13
1305:HALLIB/STM32F4xx_HAL_Driver/Src/stm32f4xx_ll_sdmmc.c ****   {
1306:HALLIB/STM32F4xx_HAL_Driver/Src/stm32f4xx_ll_sdmmc.c ****     __SDIO_CLEAR_FLAG(SDIOx, SDIO_FLAG_CTIMEOUT);
1307:HALLIB/STM32F4xx_HAL_Driver/Src/stm32f4xx_ll_sdmmc.c ****     
1308:HALLIB/STM32F4xx_HAL_Driver/Src/stm32f4xx_ll_sdmmc.c ****     return SDMMC_ERROR_CMD_RSP_TIMEOUT;
1309:HALLIB/STM32F4xx_HAL_Driver/Src/stm32f4xx_ll_sdmmc.c ****   }
1310:HALLIB/STM32F4xx_HAL_Driver/Src/stm32f4xx_ll_sdmmc.c ****   else if (__SDIO_GET_FLAG(SDIOx, SDIO_FLAG_CCRCFAIL))
 136              		.loc 1 1310 8 is_stmt 1 view .LVU33
 137              		.loc 1 1310 12 is_stmt 0 view .LVU34
 138 002c 486B     		ldr	r0, [r1, #52]
 139              	.LVL11:
 140              		.loc 1 1310 11 view .LVU35
 141 002e 10F00100 		ands	r0, r0, #1
 142 0032 06D1     		bne	.L14
1311:HALLIB/STM32F4xx_HAL_Driver/Src/stm32f4xx_ll_sdmmc.c ****   {
1312:HALLIB/STM32F4xx_HAL_Driver/Src/stm32f4xx_ll_sdmmc.c ****     __SDIO_CLEAR_FLAG(SDIOx, SDIO_FLAG_CCRCFAIL);
1313:HALLIB/STM32F4xx_HAL_Driver/Src/stm32f4xx_ll_sdmmc.c ****     
1314:HALLIB/STM32F4xx_HAL_Driver/Src/stm32f4xx_ll_sdmmc.c ****     return SDMMC_ERROR_CMD_CRC_FAIL;
1315:HALLIB/STM32F4xx_HAL_Driver/Src/stm32f4xx_ll_sdmmc.c ****   }
1316:HALLIB/STM32F4xx_HAL_Driver/Src/stm32f4xx_ll_sdmmc.c ****   else
1317:HALLIB/STM32F4xx_HAL_Driver/Src/stm32f4xx_ll_sdmmc.c ****   {
1318:HALLIB/STM32F4xx_HAL_Driver/Src/stm32f4xx_ll_sdmmc.c ****     /* No error flag set */
1319:HALLIB/STM32F4xx_HAL_Driver/Src/stm32f4xx_ll_sdmmc.c ****     /* Clear all the static flags */
1320:HALLIB/STM32F4xx_HAL_Driver/Src/stm32f4xx_ll_sdmmc.c ****     __SDIO_CLEAR_FLAG(SDIOx, SDIO_STATIC_FLAGS);
 143              		.loc 1 1320 5 is_stmt 1 view .LVU36
 144 0034 40F2FF53 		movw	r3, #1535
 145 0038 8B63     		str	r3, [r1, #56]
1321:HALLIB/STM32F4xx_HAL_Driver/Src/stm32f4xx_ll_sdmmc.c ****   }
1322:HALLIB/STM32F4xx_HAL_Driver/Src/stm32f4xx_ll_sdmmc.c **** 
1323:HALLIB/STM32F4xx_HAL_Driver/Src/stm32f4xx_ll_sdmmc.c ****   return SDMMC_ERROR_NONE;
 146              		.loc 1 1323 3 view .LVU37
 147              		.loc 1 1323 10 is_stmt 0 view .LVU38
 148 003a 7047     		bx	lr
 149              	.LVL12:
 150              	.L13:
1306:HALLIB/STM32F4xx_HAL_Driver/Src/stm32f4xx_ll_sdmmc.c ****     
 151              		.loc 1 1306 5 is_stmt 1 view .LVU39
 152 003c 0420     		movs	r0, #4
 153              	.LVL13:
1306:HALLIB/STM32F4xx_HAL_Driver/Src/stm32f4xx_ll_sdmmc.c ****     
 154              		.loc 1 1306 5 is_stmt 0 view .LVU40
 155 003e 8863     		str	r0, [r1, #56]
1308:HALLIB/STM32F4xx_HAL_Driver/Src/stm32f4xx_ll_sdmmc.c ****   }
 156              		.loc 1 1308 5 is_stmt 1 view .LVU41
1308:HALLIB/STM32F4xx_HAL_Driver/Src/stm32f4xx_ll_sdmmc.c ****   }
 157              		.loc 1 1308 12 is_stmt 0 view .LVU42
ARM GAS  /tmp/cce5sGk9.s 			page 27


 158 0040 7047     		bx	lr
 159              	.L14:
1312:HALLIB/STM32F4xx_HAL_Driver/Src/stm32f4xx_ll_sdmmc.c ****     
 160              		.loc 1 1312 5 is_stmt 1 view .LVU43
 161 0042 0120     		movs	r0, #1
 162 0044 8863     		str	r0, [r1, #56]
1314:HALLIB/STM32F4xx_HAL_Driver/Src/stm32f4xx_ll_sdmmc.c ****   }
 163              		.loc 1 1314 5 view .LVU44
1314:HALLIB/STM32F4xx_HAL_Driver/Src/stm32f4xx_ll_sdmmc.c ****   }
 164              		.loc 1 1314 12 is_stmt 0 view .LVU45
 165 0046 7047     		bx	lr
 166              	.LVL14:
 167              	.L12:
1299:HALLIB/STM32F4xx_HAL_Driver/Src/stm32f4xx_ll_sdmmc.c ****     }
 168              		.loc 1 1299 14 view .LVU46
 169 0048 4FF00040 		mov	r0, #-2147483648
 170              	.LVL15:
1324:HALLIB/STM32F4xx_HAL_Driver/Src/stm32f4xx_ll_sdmmc.c **** }
 171              		.loc 1 1324 1 view .LVU47
 172 004c 7047     		bx	lr
 173              	.L16:
 174 004e 00BF     		.align	2
 175              	.L15:
 176 0050 00000000 		.word	SystemCoreClock
 177 0054 D34D6210 		.word	274877907
 178              		.cfi_endproc
 179              	.LFE172:
 181              		.section	.text.SDMMC_GetCmdResp3,"ax",%progbits
 182              		.align	1
 183              		.syntax unified
 184              		.thumb
 185              		.thumb_func
 186              		.fpu fpv4-sp-d16
 188              	SDMMC_GetCmdResp3:
 189              	.LVL16:
 190              	.LFB173:
1325:HALLIB/STM32F4xx_HAL_Driver/Src/stm32f4xx_ll_sdmmc.c **** 
1326:HALLIB/STM32F4xx_HAL_Driver/Src/stm32f4xx_ll_sdmmc.c **** /**
1327:HALLIB/STM32F4xx_HAL_Driver/Src/stm32f4xx_ll_sdmmc.c ****   * @brief  Checks for error conditions for R3 (OCR) response.
1328:HALLIB/STM32F4xx_HAL_Driver/Src/stm32f4xx_ll_sdmmc.c ****   * @param  hsd SD handle
1329:HALLIB/STM32F4xx_HAL_Driver/Src/stm32f4xx_ll_sdmmc.c ****   * @retval SD Card error state
1330:HALLIB/STM32F4xx_HAL_Driver/Src/stm32f4xx_ll_sdmmc.c ****   */
1331:HALLIB/STM32F4xx_HAL_Driver/Src/stm32f4xx_ll_sdmmc.c **** static uint32_t SDMMC_GetCmdResp3(SDIO_TypeDef *SDIOx)
1332:HALLIB/STM32F4xx_HAL_Driver/Src/stm32f4xx_ll_sdmmc.c **** {
 191              		.loc 1 1332 1 is_stmt 1 view -0
 192              		.cfi_startproc
 193              		@ args = 0, pretend = 0, frame = 0
 194              		@ frame_needed = 0, uses_anonymous_args = 0
 195              		@ link register save eliminated.
 196              		.loc 1 1332 1 is_stmt 0 view .LVU49
 197 0000 0146     		mov	r1, r0
1333:HALLIB/STM32F4xx_HAL_Driver/Src/stm32f4xx_ll_sdmmc.c ****   /* 8 is the number of required instructions cycles for the below loop statement.
1334:HALLIB/STM32F4xx_HAL_Driver/Src/stm32f4xx_ll_sdmmc.c ****   The SDMMC_CMDTIMEOUT is expressed in ms */
1335:HALLIB/STM32F4xx_HAL_Driver/Src/stm32f4xx_ll_sdmmc.c ****   register uint32_t count = SDIO_CMDTIMEOUT * (SystemCoreClock / 8U /1000U);
 198              		.loc 1 1335 3 is_stmt 1 view .LVU50
 199              		.loc 1 1335 69 is_stmt 0 view .LVU51
 200 0002 0F4B     		ldr	r3, .L23
ARM GAS  /tmp/cce5sGk9.s 			page 28


 201 0004 1B68     		ldr	r3, [r3]
 202 0006 0F4A     		ldr	r2, .L23+4
 203 0008 A2FB0323 		umull	r2, r3, r2, r3
 204 000c 5A0A     		lsrs	r2, r3, #9
 205              		.loc 1 1335 21 view .LVU52
 206 000e 41F28833 		movw	r3, #5000
 207 0012 03FB02F3 		mul	r3, r3, r2
 208              	.LVL17:
 209              	.L19:
1336:HALLIB/STM32F4xx_HAL_Driver/Src/stm32f4xx_ll_sdmmc.c ****   
1337:HALLIB/STM32F4xx_HAL_Driver/Src/stm32f4xx_ll_sdmmc.c ****   do
 210              		.loc 1 1337 3 is_stmt 1 view .LVU53
1338:HALLIB/STM32F4xx_HAL_Driver/Src/stm32f4xx_ll_sdmmc.c ****   {
1339:HALLIB/STM32F4xx_HAL_Driver/Src/stm32f4xx_ll_sdmmc.c ****     if (count-- == 0U)
 211              		.loc 1 1339 5 view .LVU54
 212 0016 1A46     		mov	r2, r3
 213              		.loc 1 1339 14 is_stmt 0 view .LVU55
 214 0018 013B     		subs	r3, r3, #1
 215              	.LVL18:
 216              		.loc 1 1339 8 view .LVU56
 217 001a 72B1     		cbz	r2, .L21
1340:HALLIB/STM32F4xx_HAL_Driver/Src/stm32f4xx_ll_sdmmc.c ****     {
1341:HALLIB/STM32F4xx_HAL_Driver/Src/stm32f4xx_ll_sdmmc.c ****       return SDMMC_ERROR_TIMEOUT;
1342:HALLIB/STM32F4xx_HAL_Driver/Src/stm32f4xx_ll_sdmmc.c ****     }
1343:HALLIB/STM32F4xx_HAL_Driver/Src/stm32f4xx_ll_sdmmc.c ****     
1344:HALLIB/STM32F4xx_HAL_Driver/Src/stm32f4xx_ll_sdmmc.c ****   }while(!__SDIO_GET_FLAG(SDIOx, SDIO_FLAG_CCRCFAIL | SDIO_FLAG_CMDREND | SDIO_FLAG_CTIMEOUT));
 218              		.loc 1 1344 9 is_stmt 1 view .LVU57
 219              		.loc 1 1344 11 is_stmt 0 view .LVU58
 220 001c 4A6B     		ldr	r2, [r1, #52]
 221              		.loc 1 1344 3 view .LVU59
 222 001e 12F0450F 		tst	r2, #69
 223 0022 F8D0     		beq	.L19
1345:HALLIB/STM32F4xx_HAL_Driver/Src/stm32f4xx_ll_sdmmc.c ****   
1346:HALLIB/STM32F4xx_HAL_Driver/Src/stm32f4xx_ll_sdmmc.c ****   if(__SDIO_GET_FLAG(SDIOx, SDIO_FLAG_CTIMEOUT))
 224              		.loc 1 1346 3 is_stmt 1 view .LVU60
 225              		.loc 1 1346 6 is_stmt 0 view .LVU61
 226 0024 486B     		ldr	r0, [r1, #52]
 227              	.LVL19:
 228              		.loc 1 1346 5 view .LVU62
 229 0026 10F00400 		ands	r0, r0, #4
 230 002a 03D1     		bne	.L22
1347:HALLIB/STM32F4xx_HAL_Driver/Src/stm32f4xx_ll_sdmmc.c ****   {
1348:HALLIB/STM32F4xx_HAL_Driver/Src/stm32f4xx_ll_sdmmc.c ****     __SDIO_CLEAR_FLAG(SDIOx, SDIO_FLAG_CTIMEOUT);
1349:HALLIB/STM32F4xx_HAL_Driver/Src/stm32f4xx_ll_sdmmc.c ****     
1350:HALLIB/STM32F4xx_HAL_Driver/Src/stm32f4xx_ll_sdmmc.c ****     return SDMMC_ERROR_CMD_RSP_TIMEOUT;
1351:HALLIB/STM32F4xx_HAL_Driver/Src/stm32f4xx_ll_sdmmc.c ****   }
1352:HALLIB/STM32F4xx_HAL_Driver/Src/stm32f4xx_ll_sdmmc.c ****   else
1353:HALLIB/STM32F4xx_HAL_Driver/Src/stm32f4xx_ll_sdmmc.c ****  
1354:HALLIB/STM32F4xx_HAL_Driver/Src/stm32f4xx_ll_sdmmc.c ****   {  
1355:HALLIB/STM32F4xx_HAL_Driver/Src/stm32f4xx_ll_sdmmc.c ****     /* Clear all the static flags */
1356:HALLIB/STM32F4xx_HAL_Driver/Src/stm32f4xx_ll_sdmmc.c ****     __SDIO_CLEAR_FLAG(SDIOx, SDIO_STATIC_FLAGS);
 231              		.loc 1 1356 5 is_stmt 1 view .LVU63
 232 002c 40F2FF53 		movw	r3, #1535
 233              	.LVL20:
 234              		.loc 1 1356 5 is_stmt 0 view .LVU64
 235 0030 8B63     		str	r3, [r1, #56]
1357:HALLIB/STM32F4xx_HAL_Driver/Src/stm32f4xx_ll_sdmmc.c ****   }
ARM GAS  /tmp/cce5sGk9.s 			page 29


1358:HALLIB/STM32F4xx_HAL_Driver/Src/stm32f4xx_ll_sdmmc.c ****   
1359:HALLIB/STM32F4xx_HAL_Driver/Src/stm32f4xx_ll_sdmmc.c ****   return SDMMC_ERROR_NONE;
 236              		.loc 1 1359 3 is_stmt 1 view .LVU65
 237              		.loc 1 1359 10 is_stmt 0 view .LVU66
 238 0032 7047     		bx	lr
 239              	.LVL21:
 240              	.L22:
1348:HALLIB/STM32F4xx_HAL_Driver/Src/stm32f4xx_ll_sdmmc.c ****     
 241              		.loc 1 1348 5 is_stmt 1 view .LVU67
 242 0034 0420     		movs	r0, #4
 243 0036 8863     		str	r0, [r1, #56]
1350:HALLIB/STM32F4xx_HAL_Driver/Src/stm32f4xx_ll_sdmmc.c ****   }
 244              		.loc 1 1350 5 view .LVU68
1350:HALLIB/STM32F4xx_HAL_Driver/Src/stm32f4xx_ll_sdmmc.c ****   }
 245              		.loc 1 1350 12 is_stmt 0 view .LVU69
 246 0038 7047     		bx	lr
 247              	.LVL22:
 248              	.L21:
1341:HALLIB/STM32F4xx_HAL_Driver/Src/stm32f4xx_ll_sdmmc.c ****     }
 249              		.loc 1 1341 14 view .LVU70
 250 003a 4FF00040 		mov	r0, #-2147483648
 251              	.LVL23:
1360:HALLIB/STM32F4xx_HAL_Driver/Src/stm32f4xx_ll_sdmmc.c **** }
 252              		.loc 1 1360 1 view .LVU71
 253 003e 7047     		bx	lr
 254              	.L24:
 255              		.align	2
 256              	.L23:
 257 0040 00000000 		.word	SystemCoreClock
 258 0044 D34D6210 		.word	274877907
 259              		.cfi_endproc
 260              	.LFE173:
 262              		.section	.text.SDMMC_GetCmdResp7,"ax",%progbits
 263              		.align	1
 264              		.syntax unified
 265              		.thumb
 266              		.thumb_func
 267              		.fpu fpv4-sp-d16
 269              	SDMMC_GetCmdResp7:
 270              	.LVL24:
 271              	.LFB175:
1361:HALLIB/STM32F4xx_HAL_Driver/Src/stm32f4xx_ll_sdmmc.c **** 
1362:HALLIB/STM32F4xx_HAL_Driver/Src/stm32f4xx_ll_sdmmc.c **** /**
1363:HALLIB/STM32F4xx_HAL_Driver/Src/stm32f4xx_ll_sdmmc.c ****   * @brief  Checks for error conditions for R6 (RCA) response.
1364:HALLIB/STM32F4xx_HAL_Driver/Src/stm32f4xx_ll_sdmmc.c ****   * @param  hsd SD handle
1365:HALLIB/STM32F4xx_HAL_Driver/Src/stm32f4xx_ll_sdmmc.c ****   * @param  SD_CMD The sent command index
1366:HALLIB/STM32F4xx_HAL_Driver/Src/stm32f4xx_ll_sdmmc.c ****   * @param  pRCA Pointer to the variable that will contain the SD card relative 
1367:HALLIB/STM32F4xx_HAL_Driver/Src/stm32f4xx_ll_sdmmc.c ****   *         address RCA   
1368:HALLIB/STM32F4xx_HAL_Driver/Src/stm32f4xx_ll_sdmmc.c ****   * @retval SD Card error state
1369:HALLIB/STM32F4xx_HAL_Driver/Src/stm32f4xx_ll_sdmmc.c ****   */
1370:HALLIB/STM32F4xx_HAL_Driver/Src/stm32f4xx_ll_sdmmc.c **** static uint32_t SDMMC_GetCmdResp6(SDIO_TypeDef *SDIOx, uint8_t SD_CMD, uint16_t *pRCA)
1371:HALLIB/STM32F4xx_HAL_Driver/Src/stm32f4xx_ll_sdmmc.c **** {
1372:HALLIB/STM32F4xx_HAL_Driver/Src/stm32f4xx_ll_sdmmc.c ****   uint32_t response_r1;
1373:HALLIB/STM32F4xx_HAL_Driver/Src/stm32f4xx_ll_sdmmc.c **** 
1374:HALLIB/STM32F4xx_HAL_Driver/Src/stm32f4xx_ll_sdmmc.c ****   /* 8 is the number of required instructions cycles for the below loop statement.
1375:HALLIB/STM32F4xx_HAL_Driver/Src/stm32f4xx_ll_sdmmc.c ****   The SDMMC_CMDTIMEOUT is expressed in ms */
1376:HALLIB/STM32F4xx_HAL_Driver/Src/stm32f4xx_ll_sdmmc.c ****   register uint32_t count = SDIO_CMDTIMEOUT * (SystemCoreClock / 8U /1000U);
ARM GAS  /tmp/cce5sGk9.s 			page 30


1377:HALLIB/STM32F4xx_HAL_Driver/Src/stm32f4xx_ll_sdmmc.c ****   
1378:HALLIB/STM32F4xx_HAL_Driver/Src/stm32f4xx_ll_sdmmc.c ****   do
1379:HALLIB/STM32F4xx_HAL_Driver/Src/stm32f4xx_ll_sdmmc.c ****   {
1380:HALLIB/STM32F4xx_HAL_Driver/Src/stm32f4xx_ll_sdmmc.c ****     if (count-- == 0U)
1381:HALLIB/STM32F4xx_HAL_Driver/Src/stm32f4xx_ll_sdmmc.c ****     {
1382:HALLIB/STM32F4xx_HAL_Driver/Src/stm32f4xx_ll_sdmmc.c ****       return SDMMC_ERROR_TIMEOUT;
1383:HALLIB/STM32F4xx_HAL_Driver/Src/stm32f4xx_ll_sdmmc.c ****     }
1384:HALLIB/STM32F4xx_HAL_Driver/Src/stm32f4xx_ll_sdmmc.c ****     
1385:HALLIB/STM32F4xx_HAL_Driver/Src/stm32f4xx_ll_sdmmc.c ****   }while(!__SDIO_GET_FLAG(SDIOx, SDIO_FLAG_CCRCFAIL | SDIO_FLAG_CMDREND | SDIO_FLAG_CTIMEOUT));
1386:HALLIB/STM32F4xx_HAL_Driver/Src/stm32f4xx_ll_sdmmc.c ****   
1387:HALLIB/STM32F4xx_HAL_Driver/Src/stm32f4xx_ll_sdmmc.c ****   if(__SDIO_GET_FLAG(SDIOx, SDIO_FLAG_CTIMEOUT))
1388:HALLIB/STM32F4xx_HAL_Driver/Src/stm32f4xx_ll_sdmmc.c ****   {
1389:HALLIB/STM32F4xx_HAL_Driver/Src/stm32f4xx_ll_sdmmc.c ****     __SDIO_CLEAR_FLAG(SDIOx, SDIO_FLAG_CTIMEOUT);
1390:HALLIB/STM32F4xx_HAL_Driver/Src/stm32f4xx_ll_sdmmc.c ****     
1391:HALLIB/STM32F4xx_HAL_Driver/Src/stm32f4xx_ll_sdmmc.c ****     return SDMMC_ERROR_CMD_RSP_TIMEOUT;
1392:HALLIB/STM32F4xx_HAL_Driver/Src/stm32f4xx_ll_sdmmc.c ****   }
1393:HALLIB/STM32F4xx_HAL_Driver/Src/stm32f4xx_ll_sdmmc.c ****   else if(__SDIO_GET_FLAG(SDIOx, SDIO_FLAG_CCRCFAIL))
1394:HALLIB/STM32F4xx_HAL_Driver/Src/stm32f4xx_ll_sdmmc.c ****   {
1395:HALLIB/STM32F4xx_HAL_Driver/Src/stm32f4xx_ll_sdmmc.c ****     __SDIO_CLEAR_FLAG(SDIOx, SDIO_FLAG_CCRCFAIL);
1396:HALLIB/STM32F4xx_HAL_Driver/Src/stm32f4xx_ll_sdmmc.c ****     
1397:HALLIB/STM32F4xx_HAL_Driver/Src/stm32f4xx_ll_sdmmc.c ****     return SDMMC_ERROR_CMD_CRC_FAIL;
1398:HALLIB/STM32F4xx_HAL_Driver/Src/stm32f4xx_ll_sdmmc.c ****   }
1399:HALLIB/STM32F4xx_HAL_Driver/Src/stm32f4xx_ll_sdmmc.c ****   
1400:HALLIB/STM32F4xx_HAL_Driver/Src/stm32f4xx_ll_sdmmc.c ****   /* Check response received is of desired command */
1401:HALLIB/STM32F4xx_HAL_Driver/Src/stm32f4xx_ll_sdmmc.c ****   if(SDIO_GetCommandResponse(SDIOx) != SD_CMD)
1402:HALLIB/STM32F4xx_HAL_Driver/Src/stm32f4xx_ll_sdmmc.c ****   {
1403:HALLIB/STM32F4xx_HAL_Driver/Src/stm32f4xx_ll_sdmmc.c ****     return SDMMC_ERROR_CMD_CRC_FAIL;
1404:HALLIB/STM32F4xx_HAL_Driver/Src/stm32f4xx_ll_sdmmc.c ****   }
1405:HALLIB/STM32F4xx_HAL_Driver/Src/stm32f4xx_ll_sdmmc.c ****   
1406:HALLIB/STM32F4xx_HAL_Driver/Src/stm32f4xx_ll_sdmmc.c ****   /* Clear all the static flags */
1407:HALLIB/STM32F4xx_HAL_Driver/Src/stm32f4xx_ll_sdmmc.c ****   __SDIO_CLEAR_FLAG(SDIOx, SDIO_STATIC_FLAGS);
1408:HALLIB/STM32F4xx_HAL_Driver/Src/stm32f4xx_ll_sdmmc.c ****   
1409:HALLIB/STM32F4xx_HAL_Driver/Src/stm32f4xx_ll_sdmmc.c ****   /* We have received response, retrieve it.  */
1410:HALLIB/STM32F4xx_HAL_Driver/Src/stm32f4xx_ll_sdmmc.c ****   response_r1 = SDIO_GetResponse(SDIOx, SDIO_RESP1);
1411:HALLIB/STM32F4xx_HAL_Driver/Src/stm32f4xx_ll_sdmmc.c ****   
1412:HALLIB/STM32F4xx_HAL_Driver/Src/stm32f4xx_ll_sdmmc.c ****   if((response_r1 & (SDMMC_R6_GENERAL_UNKNOWN_ERROR | SDMMC_R6_ILLEGAL_CMD | SDMMC_R6_COM_CRC_FAILE
1413:HALLIB/STM32F4xx_HAL_Driver/Src/stm32f4xx_ll_sdmmc.c ****   {
1414:HALLIB/STM32F4xx_HAL_Driver/Src/stm32f4xx_ll_sdmmc.c ****     *pRCA = (uint16_t) (response_r1 >> 16);
1415:HALLIB/STM32F4xx_HAL_Driver/Src/stm32f4xx_ll_sdmmc.c ****     
1416:HALLIB/STM32F4xx_HAL_Driver/Src/stm32f4xx_ll_sdmmc.c ****     return SDMMC_ERROR_NONE;
1417:HALLIB/STM32F4xx_HAL_Driver/Src/stm32f4xx_ll_sdmmc.c ****   }
1418:HALLIB/STM32F4xx_HAL_Driver/Src/stm32f4xx_ll_sdmmc.c ****   else if((response_r1 & SDMMC_R6_ILLEGAL_CMD) == SDMMC_R6_ILLEGAL_CMD)
1419:HALLIB/STM32F4xx_HAL_Driver/Src/stm32f4xx_ll_sdmmc.c ****   {
1420:HALLIB/STM32F4xx_HAL_Driver/Src/stm32f4xx_ll_sdmmc.c ****     return SDMMC_ERROR_ILLEGAL_CMD;
1421:HALLIB/STM32F4xx_HAL_Driver/Src/stm32f4xx_ll_sdmmc.c ****   }
1422:HALLIB/STM32F4xx_HAL_Driver/Src/stm32f4xx_ll_sdmmc.c ****   else if((response_r1 & SDMMC_R6_COM_CRC_FAILED) == SDMMC_R6_COM_CRC_FAILED)
1423:HALLIB/STM32F4xx_HAL_Driver/Src/stm32f4xx_ll_sdmmc.c ****   {
1424:HALLIB/STM32F4xx_HAL_Driver/Src/stm32f4xx_ll_sdmmc.c ****     return SDMMC_ERROR_COM_CRC_FAILED;
1425:HALLIB/STM32F4xx_HAL_Driver/Src/stm32f4xx_ll_sdmmc.c ****   }
1426:HALLIB/STM32F4xx_HAL_Driver/Src/stm32f4xx_ll_sdmmc.c ****   else
1427:HALLIB/STM32F4xx_HAL_Driver/Src/stm32f4xx_ll_sdmmc.c ****   {
1428:HALLIB/STM32F4xx_HAL_Driver/Src/stm32f4xx_ll_sdmmc.c ****     return SDMMC_ERROR_GENERAL_UNKNOWN_ERR;
1429:HALLIB/STM32F4xx_HAL_Driver/Src/stm32f4xx_ll_sdmmc.c ****   }
1430:HALLIB/STM32F4xx_HAL_Driver/Src/stm32f4xx_ll_sdmmc.c **** }
1431:HALLIB/STM32F4xx_HAL_Driver/Src/stm32f4xx_ll_sdmmc.c **** 
1432:HALLIB/STM32F4xx_HAL_Driver/Src/stm32f4xx_ll_sdmmc.c **** /**
1433:HALLIB/STM32F4xx_HAL_Driver/Src/stm32f4xx_ll_sdmmc.c ****   * @brief  Checks for error conditions for R7 response.
ARM GAS  /tmp/cce5sGk9.s 			page 31


1434:HALLIB/STM32F4xx_HAL_Driver/Src/stm32f4xx_ll_sdmmc.c ****   * @param  hsd SD handle
1435:HALLIB/STM32F4xx_HAL_Driver/Src/stm32f4xx_ll_sdmmc.c ****   * @retval SD Card error state
1436:HALLIB/STM32F4xx_HAL_Driver/Src/stm32f4xx_ll_sdmmc.c ****   */
1437:HALLIB/STM32F4xx_HAL_Driver/Src/stm32f4xx_ll_sdmmc.c **** static uint32_t SDMMC_GetCmdResp7(SDIO_TypeDef *SDIOx)
1438:HALLIB/STM32F4xx_HAL_Driver/Src/stm32f4xx_ll_sdmmc.c **** {
 272              		.loc 1 1438 1 is_stmt 1 view -0
 273              		.cfi_startproc
 274              		@ args = 0, pretend = 0, frame = 0
 275              		@ frame_needed = 0, uses_anonymous_args = 0
 276              		@ link register save eliminated.
 277              		.loc 1 1438 1 is_stmt 0 view .LVU73
 278 0000 0146     		mov	r1, r0
1439:HALLIB/STM32F4xx_HAL_Driver/Src/stm32f4xx_ll_sdmmc.c ****   /* 8 is the number of required instructions cycles for the below loop statement.
1440:HALLIB/STM32F4xx_HAL_Driver/Src/stm32f4xx_ll_sdmmc.c ****   The SDIO_CMDTIMEOUT is expressed in ms */
1441:HALLIB/STM32F4xx_HAL_Driver/Src/stm32f4xx_ll_sdmmc.c ****   register uint32_t count = SDIO_CMDTIMEOUT * (SystemCoreClock / 8U /1000U);
 279              		.loc 1 1441 3 is_stmt 1 view .LVU74
 280              		.loc 1 1441 69 is_stmt 0 view .LVU75
 281 0002 124B     		ldr	r3, .L31
 282 0004 1B68     		ldr	r3, [r3]
 283 0006 124A     		ldr	r2, .L31+4
 284 0008 A2FB0323 		umull	r2, r3, r2, r3
 285 000c 5A0A     		lsrs	r2, r3, #9
 286              		.loc 1 1441 21 view .LVU76
 287 000e 41F28833 		movw	r3, #5000
 288 0012 03FB02F3 		mul	r3, r3, r2
 289              	.LVL25:
 290              	.L27:
1442:HALLIB/STM32F4xx_HAL_Driver/Src/stm32f4xx_ll_sdmmc.c ****   
1443:HALLIB/STM32F4xx_HAL_Driver/Src/stm32f4xx_ll_sdmmc.c ****   do
 291              		.loc 1 1443 3 is_stmt 1 view .LVU77
1444:HALLIB/STM32F4xx_HAL_Driver/Src/stm32f4xx_ll_sdmmc.c ****   {
1445:HALLIB/STM32F4xx_HAL_Driver/Src/stm32f4xx_ll_sdmmc.c ****     if (count-- == 0U)
 292              		.loc 1 1445 5 view .LVU78
 293 0016 1A46     		mov	r2, r3
 294              		.loc 1 1445 14 is_stmt 0 view .LVU79
 295 0018 013B     		subs	r3, r3, #1
 296              	.LVL26:
 297              		.loc 1 1445 8 view .LVU80
 298 001a 9AB1     		cbz	r2, .L29
1446:HALLIB/STM32F4xx_HAL_Driver/Src/stm32f4xx_ll_sdmmc.c ****     {
1447:HALLIB/STM32F4xx_HAL_Driver/Src/stm32f4xx_ll_sdmmc.c ****       return SDMMC_ERROR_TIMEOUT;
1448:HALLIB/STM32F4xx_HAL_Driver/Src/stm32f4xx_ll_sdmmc.c ****     }
1449:HALLIB/STM32F4xx_HAL_Driver/Src/stm32f4xx_ll_sdmmc.c ****     
1450:HALLIB/STM32F4xx_HAL_Driver/Src/stm32f4xx_ll_sdmmc.c ****   }while(!__SDIO_GET_FLAG(SDIOx, SDIO_FLAG_CCRCFAIL | SDIO_FLAG_CMDREND | SDIO_FLAG_CTIMEOUT));
 299              		.loc 1 1450 9 is_stmt 1 view .LVU81
 300              		.loc 1 1450 11 is_stmt 0 view .LVU82
 301 001c 4A6B     		ldr	r2, [r1, #52]
 302              		.loc 1 1450 3 view .LVU83
 303 001e 12F0450F 		tst	r2, #69
 304 0022 F8D0     		beq	.L27
1451:HALLIB/STM32F4xx_HAL_Driver/Src/stm32f4xx_ll_sdmmc.c **** 
1452:HALLIB/STM32F4xx_HAL_Driver/Src/stm32f4xx_ll_sdmmc.c ****   if(__SDIO_GET_FLAG(SDIOx, SDIO_FLAG_CTIMEOUT))
 305              		.loc 1 1452 3 is_stmt 1 view .LVU84
 306              		.loc 1 1452 6 is_stmt 0 view .LVU85
 307 0024 4B6B     		ldr	r3, [r1, #52]
 308              	.LVL27:
 309              		.loc 1 1452 5 view .LVU86
ARM GAS  /tmp/cce5sGk9.s 			page 32


 310 0026 13F00403 		ands	r3, r3, #4
 311 002a 07D1     		bne	.L30
1453:HALLIB/STM32F4xx_HAL_Driver/Src/stm32f4xx_ll_sdmmc.c ****   {
1454:HALLIB/STM32F4xx_HAL_Driver/Src/stm32f4xx_ll_sdmmc.c ****     /* Card is SD V2.0 compliant */
1455:HALLIB/STM32F4xx_HAL_Driver/Src/stm32f4xx_ll_sdmmc.c ****     __SDIO_CLEAR_FLAG(SDIOx, SDIO_FLAG_CMDREND);
1456:HALLIB/STM32F4xx_HAL_Driver/Src/stm32f4xx_ll_sdmmc.c ****     
1457:HALLIB/STM32F4xx_HAL_Driver/Src/stm32f4xx_ll_sdmmc.c ****     return SDMMC_ERROR_CMD_RSP_TIMEOUT;
1458:HALLIB/STM32F4xx_HAL_Driver/Src/stm32f4xx_ll_sdmmc.c ****   }
1459:HALLIB/STM32F4xx_HAL_Driver/Src/stm32f4xx_ll_sdmmc.c ****   
1460:HALLIB/STM32F4xx_HAL_Driver/Src/stm32f4xx_ll_sdmmc.c ****   if(__SDIO_GET_FLAG(SDIOx, SDIO_FLAG_CMDREND))
 312              		.loc 1 1460 3 is_stmt 1 view .LVU87
 313              		.loc 1 1460 6 is_stmt 0 view .LVU88
 314 002c 486B     		ldr	r0, [r1, #52]
 315              	.LVL28:
 316              		.loc 1 1460 5 view .LVU89
 317 002e 10F04000 		ands	r0, r0, #64
 318 0032 09D0     		beq	.L25
1461:HALLIB/STM32F4xx_HAL_Driver/Src/stm32f4xx_ll_sdmmc.c ****   {
1462:HALLIB/STM32F4xx_HAL_Driver/Src/stm32f4xx_ll_sdmmc.c ****     /* Card is SD V2.0 compliant */
1463:HALLIB/STM32F4xx_HAL_Driver/Src/stm32f4xx_ll_sdmmc.c ****     __SDIO_CLEAR_FLAG(SDIOx, SDIO_FLAG_CMDREND);
 319              		.loc 1 1463 5 is_stmt 1 view .LVU90
 320 0034 4022     		movs	r2, #64
 321 0036 8A63     		str	r2, [r1, #56]
1464:HALLIB/STM32F4xx_HAL_Driver/Src/stm32f4xx_ll_sdmmc.c ****   }
1465:HALLIB/STM32F4xx_HAL_Driver/Src/stm32f4xx_ll_sdmmc.c ****   
1466:HALLIB/STM32F4xx_HAL_Driver/Src/stm32f4xx_ll_sdmmc.c ****   return SDMMC_ERROR_NONE;
 322              		.loc 1 1466 10 is_stmt 0 view .LVU91
 323 0038 1846     		mov	r0, r3
 324 003a 7047     		bx	lr
 325              	.LVL29:
 326              	.L30:
1455:HALLIB/STM32F4xx_HAL_Driver/Src/stm32f4xx_ll_sdmmc.c ****     
 327              		.loc 1 1455 5 is_stmt 1 view .LVU92
 328 003c 4023     		movs	r3, #64
 329 003e 8B63     		str	r3, [r1, #56]
1457:HALLIB/STM32F4xx_HAL_Driver/Src/stm32f4xx_ll_sdmmc.c ****   }
 330              		.loc 1 1457 5 view .LVU93
1457:HALLIB/STM32F4xx_HAL_Driver/Src/stm32f4xx_ll_sdmmc.c ****   }
 331              		.loc 1 1457 12 is_stmt 0 view .LVU94
 332 0040 0420     		movs	r0, #4
 333              	.LVL30:
1457:HALLIB/STM32F4xx_HAL_Driver/Src/stm32f4xx_ll_sdmmc.c ****   }
 334              		.loc 1 1457 12 view .LVU95
 335 0042 7047     		bx	lr
 336              	.LVL31:
 337              	.L29:
1447:HALLIB/STM32F4xx_HAL_Driver/Src/stm32f4xx_ll_sdmmc.c ****     }
 338              		.loc 1 1447 14 view .LVU96
 339 0044 4FF00040 		mov	r0, #-2147483648
 340              	.LVL32:
 341              	.L25:
1467:HALLIB/STM32F4xx_HAL_Driver/Src/stm32f4xx_ll_sdmmc.c ****   
1468:HALLIB/STM32F4xx_HAL_Driver/Src/stm32f4xx_ll_sdmmc.c **** }
 342              		.loc 1 1468 1 view .LVU97
 343 0048 7047     		bx	lr
 344              	.L32:
 345 004a 00BF     		.align	2
ARM GAS  /tmp/cce5sGk9.s 			page 33


 346              	.L31:
 347 004c 00000000 		.word	SystemCoreClock
 348 0050 D34D6210 		.word	274877907
 349              		.cfi_endproc
 350              	.LFE175:
 352              		.section	.text.SDIO_Init,"ax",%progbits
 353              		.align	1
 354              		.global	SDIO_Init
 355              		.syntax unified
 356              		.thumb
 357              		.thumb_func
 358              		.fpu fpv4-sp-d16
 360              	SDIO_Init:
 361              	.LVL33:
 362              	.LFB132:
 217:HALLIB/STM32F4xx_HAL_Driver/Src/stm32f4xx_ll_sdmmc.c ****   uint32_t tmpreg = 0U;
 363              		.loc 1 217 1 is_stmt 1 view -0
 364              		.cfi_startproc
 365              		@ args = 28, pretend = 16, frame = 0
 366              		@ frame_needed = 0, uses_anonymous_args = 0
 367              		@ link register save eliminated.
 217:HALLIB/STM32F4xx_HAL_Driver/Src/stm32f4xx_ll_sdmmc.c ****   uint32_t tmpreg = 0U;
 368              		.loc 1 217 1 is_stmt 0 view .LVU99
 369 0000 84B0     		sub	sp, sp, #16
 370              	.LCFI0:
 371              		.cfi_def_cfa_offset 16
 372 0002 10B4     		push	{r4}
 373              	.LCFI1:
 374              		.cfi_def_cfa_offset 20
 375              		.cfi_offset 4, -20
 376 0004 02AC     		add	r4, sp, #8
 377 0006 84E80E00 		stm	r4, {r1, r2, r3}
 218:HALLIB/STM32F4xx_HAL_Driver/Src/stm32f4xx_ll_sdmmc.c **** 
 378              		.loc 1 218 3 is_stmt 1 view .LVU100
 379              	.LVL34:
 221:HALLIB/STM32F4xx_HAL_Driver/Src/stm32f4xx_ll_sdmmc.c ****   assert_param(IS_SDIO_CLOCK_EDGE(Init.ClockEdge)); 
 380              		.loc 1 221 3 view .LVU101
 222:HALLIB/STM32F4xx_HAL_Driver/Src/stm32f4xx_ll_sdmmc.c ****   assert_param(IS_SDIO_CLOCK_BYPASS(Init.ClockBypass));
 381              		.loc 1 222 3 view .LVU102
 223:HALLIB/STM32F4xx_HAL_Driver/Src/stm32f4xx_ll_sdmmc.c ****   assert_param(IS_SDIO_CLOCK_POWER_SAVE(Init.ClockPowerSave));
 382              		.loc 1 223 3 view .LVU103
 224:HALLIB/STM32F4xx_HAL_Driver/Src/stm32f4xx_ll_sdmmc.c ****   assert_param(IS_SDIO_BUS_WIDE(Init.BusWide));
 383              		.loc 1 224 3 view .LVU104
 225:HALLIB/STM32F4xx_HAL_Driver/Src/stm32f4xx_ll_sdmmc.c ****   assert_param(IS_SDIO_HARDWARE_FLOW_CONTROL(Init.HardwareFlowControl));
 384              		.loc 1 225 3 view .LVU105
 226:HALLIB/STM32F4xx_HAL_Driver/Src/stm32f4xx_ll_sdmmc.c ****   assert_param(IS_SDIO_CLKDIV(Init.ClockDiv));
 385              		.loc 1 226 3 view .LVU106
 227:HALLIB/STM32F4xx_HAL_Driver/Src/stm32f4xx_ll_sdmmc.c ****   
 386              		.loc 1 227 3 view .LVU107
 230:HALLIB/STM32F4xx_HAL_Driver/Src/stm32f4xx_ll_sdmmc.c ****              Init.ClockBypass         |\
 387              		.loc 1 230 3 view .LVU108
 230:HALLIB/STM32F4xx_HAL_Driver/Src/stm32f4xx_ll_sdmmc.c ****              Init.ClockBypass         |\
 388              		.loc 1 230 39 is_stmt 0 view .LVU109
 389 000a 0B46     		mov	r3, r1
 390 000c 039A     		ldr	r2, [sp, #12]
 391 000e 1343     		orrs	r3, r3, r2
 232:HALLIB/STM32F4xx_HAL_Driver/Src/stm32f4xx_ll_sdmmc.c ****              Init.BusWide             |\
ARM GAS  /tmp/cce5sGk9.s 			page 34


 392              		.loc 1 232 18 view .LVU110
 393 0010 049A     		ldr	r2, [sp, #16]
 231:HALLIB/STM32F4xx_HAL_Driver/Src/stm32f4xx_ll_sdmmc.c ****              Init.ClockPowerSave      |\
 394              		.loc 1 231 39 view .LVU111
 395 0012 1343     		orrs	r3, r3, r2
 233:HALLIB/STM32F4xx_HAL_Driver/Src/stm32f4xx_ll_sdmmc.c ****              Init.HardwareFlowControl |\
 396              		.loc 1 233 18 view .LVU112
 397 0014 059A     		ldr	r2, [sp, #20]
 232:HALLIB/STM32F4xx_HAL_Driver/Src/stm32f4xx_ll_sdmmc.c ****              Init.BusWide             |\
 398              		.loc 1 232 39 view .LVU113
 399 0016 1343     		orrs	r3, r3, r2
 234:HALLIB/STM32F4xx_HAL_Driver/Src/stm32f4xx_ll_sdmmc.c ****              Init.ClockDiv
 400              		.loc 1 234 18 view .LVU114
 401 0018 069A     		ldr	r2, [sp, #24]
 233:HALLIB/STM32F4xx_HAL_Driver/Src/stm32f4xx_ll_sdmmc.c ****              Init.HardwareFlowControl |\
 402              		.loc 1 233 39 view .LVU115
 403 001a 1343     		orrs	r3, r3, r2
 235:HALLIB/STM32F4xx_HAL_Driver/Src/stm32f4xx_ll_sdmmc.c ****              ); 
 404              		.loc 1 235 18 view .LVU116
 405 001c 079A     		ldr	r2, [sp, #28]
 234:HALLIB/STM32F4xx_HAL_Driver/Src/stm32f4xx_ll_sdmmc.c ****              Init.ClockDiv
 406              		.loc 1 234 39 view .LVU117
 407 001e 1343     		orrs	r3, r3, r2
 408              	.LVL35:
 239:HALLIB/STM32F4xx_HAL_Driver/Src/stm32f4xx_ll_sdmmc.c **** 
 409              		.loc 1 239 3 is_stmt 1 view .LVU118
 410 0020 4268     		ldr	r2, [r0, #4]
 411 0022 22F4FD42 		bic	r2, r2, #32384
 412 0026 22F07F02 		bic	r2, r2, #127
 413 002a 1343     		orrs	r3, r3, r2
 414              	.LVL36:
 239:HALLIB/STM32F4xx_HAL_Driver/Src/stm32f4xx_ll_sdmmc.c **** 
 415              		.loc 1 239 3 is_stmt 0 view .LVU119
 416 002c 4360     		str	r3, [r0, #4]
 241:HALLIB/STM32F4xx_HAL_Driver/Src/stm32f4xx_ll_sdmmc.c **** }
 417              		.loc 1 241 3 is_stmt 1 view .LVU120
 242:HALLIB/STM32F4xx_HAL_Driver/Src/stm32f4xx_ll_sdmmc.c **** 
 418              		.loc 1 242 1 is_stmt 0 view .LVU121
 419 002e 0020     		movs	r0, #0
 420              	.LVL37:
 242:HALLIB/STM32F4xx_HAL_Driver/Src/stm32f4xx_ll_sdmmc.c **** 
 421              		.loc 1 242 1 view .LVU122
 422 0030 5DF8044B 		ldr	r4, [sp], #4
 423              	.LCFI2:
 424              		.cfi_restore 4
 425              		.cfi_def_cfa_offset 16
 426 0034 04B0     		add	sp, sp, #16
 427              	.LCFI3:
 428              		.cfi_def_cfa_offset 0
 429              	.LVL38:
 242:HALLIB/STM32F4xx_HAL_Driver/Src/stm32f4xx_ll_sdmmc.c **** 
 430              		.loc 1 242 1 view .LVU123
 431 0036 7047     		bx	lr
 432              		.cfi_endproc
 433              	.LFE132:
 435              		.section	.text.SDIO_ReadFIFO,"ax",%progbits
 436              		.align	1
ARM GAS  /tmp/cce5sGk9.s 			page 35


 437              		.global	SDIO_ReadFIFO
 438              		.syntax unified
 439              		.thumb
 440              		.thumb_func
 441              		.fpu fpv4-sp-d16
 443              	SDIO_ReadFIFO:
 444              	.LVL39:
 445              	.LFB133:
 270:HALLIB/STM32F4xx_HAL_Driver/Src/stm32f4xx_ll_sdmmc.c ****   /* Read data from Rx FIFO */ 
 446              		.loc 1 270 1 is_stmt 1 view -0
 447              		.cfi_startproc
 448              		@ args = 0, pretend = 0, frame = 0
 449              		@ frame_needed = 0, uses_anonymous_args = 0
 450              		@ link register save eliminated.
 272:HALLIB/STM32F4xx_HAL_Driver/Src/stm32f4xx_ll_sdmmc.c **** }
 451              		.loc 1 272 3 view .LVU125
 272:HALLIB/STM32F4xx_HAL_Driver/Src/stm32f4xx_ll_sdmmc.c **** }
 452              		.loc 1 272 16 is_stmt 0 view .LVU126
 453 0000 D0F88000 		ldr	r0, [r0, #128]
 454              	.LVL40:
 273:HALLIB/STM32F4xx_HAL_Driver/Src/stm32f4xx_ll_sdmmc.c **** 
 455              		.loc 1 273 1 view .LVU127
 456 0004 7047     		bx	lr
 457              		.cfi_endproc
 458              	.LFE133:
 460              		.section	.text.SDIO_WriteFIFO,"ax",%progbits
 461              		.align	1
 462              		.global	SDIO_WriteFIFO
 463              		.syntax unified
 464              		.thumb
 465              		.thumb_func
 466              		.fpu fpv4-sp-d16
 468              	SDIO_WriteFIFO:
 469              	.LVL41:
 470              	.LFB134:
 282:HALLIB/STM32F4xx_HAL_Driver/Src/stm32f4xx_ll_sdmmc.c ****   /* Write data to FIFO */ 
 471              		.loc 1 282 1 is_stmt 1 view -0
 472              		.cfi_startproc
 473              		@ args = 0, pretend = 0, frame = 0
 474              		@ frame_needed = 0, uses_anonymous_args = 0
 475              		@ link register save eliminated.
 284:HALLIB/STM32F4xx_HAL_Driver/Src/stm32f4xx_ll_sdmmc.c **** 
 476              		.loc 1 284 3 view .LVU129
 284:HALLIB/STM32F4xx_HAL_Driver/Src/stm32f4xx_ll_sdmmc.c **** 
 477              		.loc 1 284 17 is_stmt 0 view .LVU130
 478 0000 0B68     		ldr	r3, [r1]
 284:HALLIB/STM32F4xx_HAL_Driver/Src/stm32f4xx_ll_sdmmc.c **** 
 479              		.loc 1 284 15 view .LVU131
 480 0002 C0F88030 		str	r3, [r0, #128]
 286:HALLIB/STM32F4xx_HAL_Driver/Src/stm32f4xx_ll_sdmmc.c **** }
 481              		.loc 1 286 3 is_stmt 1 view .LVU132
 287:HALLIB/STM32F4xx_HAL_Driver/Src/stm32f4xx_ll_sdmmc.c **** 
 482              		.loc 1 287 1 is_stmt 0 view .LVU133
 483 0006 0020     		movs	r0, #0
 484              	.LVL42:
 287:HALLIB/STM32F4xx_HAL_Driver/Src/stm32f4xx_ll_sdmmc.c **** 
 485              		.loc 1 287 1 view .LVU134
ARM GAS  /tmp/cce5sGk9.s 			page 36


 486 0008 7047     		bx	lr
 487              		.cfi_endproc
 488              	.LFE134:
 490              		.section	.text.SDIO_PowerState_ON,"ax",%progbits
 491              		.align	1
 492              		.global	SDIO_PowerState_ON
 493              		.syntax unified
 494              		.thumb
 495              		.thumb_func
 496              		.fpu fpv4-sp-d16
 498              	SDIO_PowerState_ON:
 499              	.LVL43:
 500              	.LFB135:
 314:HALLIB/STM32F4xx_HAL_Driver/Src/stm32f4xx_ll_sdmmc.c ****   /* Set power state to ON */ 
 501              		.loc 1 314 1 is_stmt 1 view -0
 502              		.cfi_startproc
 503              		@ args = 0, pretend = 0, frame = 0
 504              		@ frame_needed = 0, uses_anonymous_args = 0
 505              		@ link register save eliminated.
 316:HALLIB/STM32F4xx_HAL_Driver/Src/stm32f4xx_ll_sdmmc.c ****   
 506              		.loc 1 316 3 view .LVU136
 316:HALLIB/STM32F4xx_HAL_Driver/Src/stm32f4xx_ll_sdmmc.c ****   
 507              		.loc 1 316 16 is_stmt 0 view .LVU137
 508 0000 0323     		movs	r3, #3
 509 0002 0360     		str	r3, [r0]
 318:HALLIB/STM32F4xx_HAL_Driver/Src/stm32f4xx_ll_sdmmc.c **** }
 510              		.loc 1 318 3 is_stmt 1 view .LVU138
 319:HALLIB/STM32F4xx_HAL_Driver/Src/stm32f4xx_ll_sdmmc.c **** 
 511              		.loc 1 319 1 is_stmt 0 view .LVU139
 512 0004 0020     		movs	r0, #0
 513              	.LVL44:
 319:HALLIB/STM32F4xx_HAL_Driver/Src/stm32f4xx_ll_sdmmc.c **** 
 514              		.loc 1 319 1 view .LVU140
 515 0006 7047     		bx	lr
 516              		.cfi_endproc
 517              	.LFE135:
 519              		.section	.text.SDIO_PowerState_OFF,"ax",%progbits
 520              		.align	1
 521              		.global	SDIO_PowerState_OFF
 522              		.syntax unified
 523              		.thumb
 524              		.thumb_func
 525              		.fpu fpv4-sp-d16
 527              	SDIO_PowerState_OFF:
 528              	.LVL45:
 529              	.LFB136:
 327:HALLIB/STM32F4xx_HAL_Driver/Src/stm32f4xx_ll_sdmmc.c ****   /* Set power state to OFF */
 530              		.loc 1 327 1 is_stmt 1 view -0
 531              		.cfi_startproc
 532              		@ args = 0, pretend = 0, frame = 0
 533              		@ frame_needed = 0, uses_anonymous_args = 0
 534              		@ link register save eliminated.
 327:HALLIB/STM32F4xx_HAL_Driver/Src/stm32f4xx_ll_sdmmc.c ****   /* Set power state to OFF */
 535              		.loc 1 327 1 is_stmt 0 view .LVU142
 536 0000 0346     		mov	r3, r0
 329:HALLIB/STM32F4xx_HAL_Driver/Src/stm32f4xx_ll_sdmmc.c ****   
 537              		.loc 1 329 3 is_stmt 1 view .LVU143
ARM GAS  /tmp/cce5sGk9.s 			page 37


 329:HALLIB/STM32F4xx_HAL_Driver/Src/stm32f4xx_ll_sdmmc.c ****   
 538              		.loc 1 329 16 is_stmt 0 view .LVU144
 539 0002 0020     		movs	r0, #0
 540              	.LVL46:
 329:HALLIB/STM32F4xx_HAL_Driver/Src/stm32f4xx_ll_sdmmc.c ****   
 541              		.loc 1 329 16 view .LVU145
 542 0004 1860     		str	r0, [r3]
 331:HALLIB/STM32F4xx_HAL_Driver/Src/stm32f4xx_ll_sdmmc.c **** }
 543              		.loc 1 331 3 is_stmt 1 view .LVU146
 332:HALLIB/STM32F4xx_HAL_Driver/Src/stm32f4xx_ll_sdmmc.c **** 
 544              		.loc 1 332 1 is_stmt 0 view .LVU147
 545 0006 7047     		bx	lr
 546              		.cfi_endproc
 547              	.LFE136:
 549              		.section	.text.SDIO_GetPowerState,"ax",%progbits
 550              		.align	1
 551              		.global	SDIO_GetPowerState
 552              		.syntax unified
 553              		.thumb
 554              		.thumb_func
 555              		.fpu fpv4-sp-d16
 557              	SDIO_GetPowerState:
 558              	.LVL47:
 559              	.LFB137:
 344:HALLIB/STM32F4xx_HAL_Driver/Src/stm32f4xx_ll_sdmmc.c ****   return (SDIOx->POWER & SDIO_POWER_PWRCTRL);
 560              		.loc 1 344 1 is_stmt 1 view -0
 561              		.cfi_startproc
 562              		@ args = 0, pretend = 0, frame = 0
 563              		@ frame_needed = 0, uses_anonymous_args = 0
 564              		@ link register save eliminated.
 345:HALLIB/STM32F4xx_HAL_Driver/Src/stm32f4xx_ll_sdmmc.c **** }
 565              		.loc 1 345 3 view .LVU149
 345:HALLIB/STM32F4xx_HAL_Driver/Src/stm32f4xx_ll_sdmmc.c **** }
 566              		.loc 1 345 16 is_stmt 0 view .LVU150
 567 0000 0068     		ldr	r0, [r0]
 568              	.LVL48:
 346:HALLIB/STM32F4xx_HAL_Driver/Src/stm32f4xx_ll_sdmmc.c **** 
 569              		.loc 1 346 1 view .LVU151
 570 0002 00F00300 		and	r0, r0, #3
 571 0006 7047     		bx	lr
 572              		.cfi_endproc
 573              	.LFE137:
 575              		.section	.text.SDIO_SendCommand,"ax",%progbits
 576              		.align	1
 577              		.global	SDIO_SendCommand
 578              		.syntax unified
 579              		.thumb
 580              		.thumb_func
 581              		.fpu fpv4-sp-d16
 583              	SDIO_SendCommand:
 584              	.LVL49:
 585              	.LFB138:
 357:HALLIB/STM32F4xx_HAL_Driver/Src/stm32f4xx_ll_sdmmc.c ****   uint32_t tmpreg = 0U;
 586              		.loc 1 357 1 is_stmt 1 view -0
 587              		.cfi_startproc
 588              		@ args = 0, pretend = 0, frame = 0
 589              		@ frame_needed = 0, uses_anonymous_args = 0
ARM GAS  /tmp/cce5sGk9.s 			page 38


 590              		@ link register save eliminated.
 358:HALLIB/STM32F4xx_HAL_Driver/Src/stm32f4xx_ll_sdmmc.c ****   
 591              		.loc 1 358 3 view .LVU153
 361:HALLIB/STM32F4xx_HAL_Driver/Src/stm32f4xx_ll_sdmmc.c ****   assert_param(IS_SDIO_RESPONSE(Command->Response));
 592              		.loc 1 361 3 view .LVU154
 362:HALLIB/STM32F4xx_HAL_Driver/Src/stm32f4xx_ll_sdmmc.c ****   assert_param(IS_SDIO_WAIT(Command->WaitForInterrupt));
 593              		.loc 1 362 3 view .LVU155
 363:HALLIB/STM32F4xx_HAL_Driver/Src/stm32f4xx_ll_sdmmc.c ****   assert_param(IS_SDIO_CPSM(Command->CPSM));
 594              		.loc 1 363 3 view .LVU156
 364:HALLIB/STM32F4xx_HAL_Driver/Src/stm32f4xx_ll_sdmmc.c **** 
 595              		.loc 1 364 3 view .LVU157
 367:HALLIB/STM32F4xx_HAL_Driver/Src/stm32f4xx_ll_sdmmc.c **** 
 596              		.loc 1 367 3 view .LVU158
 367:HALLIB/STM32F4xx_HAL_Driver/Src/stm32f4xx_ll_sdmmc.c **** 
 597              		.loc 1 367 23 is_stmt 0 view .LVU159
 598 0000 0B68     		ldr	r3, [r1]
 367:HALLIB/STM32F4xx_HAL_Driver/Src/stm32f4xx_ll_sdmmc.c **** 
 599              		.loc 1 367 14 view .LVU160
 600 0002 8360     		str	r3, [r0, #8]
 370:HALLIB/STM32F4xx_HAL_Driver/Src/stm32f4xx_ll_sdmmc.c ****                        Command->Response         |\
 601              		.loc 1 370 3 is_stmt 1 view .LVU161
 370:HALLIB/STM32F4xx_HAL_Driver/Src/stm32f4xx_ll_sdmmc.c ****                        Command->Response         |\
 602              		.loc 1 370 31 is_stmt 0 view .LVU162
 603 0004 4B68     		ldr	r3, [r1, #4]
 371:HALLIB/STM32F4xx_HAL_Driver/Src/stm32f4xx_ll_sdmmc.c ****                        Command->WaitForInterrupt |\
 604              		.loc 1 371 31 view .LVU163
 605 0006 8A68     		ldr	r2, [r1, #8]
 370:HALLIB/STM32F4xx_HAL_Driver/Src/stm32f4xx_ll_sdmmc.c ****                        Command->Response         |\
 606              		.loc 1 370 50 view .LVU164
 607 0008 1343     		orrs	r3, r3, r2
 372:HALLIB/STM32F4xx_HAL_Driver/Src/stm32f4xx_ll_sdmmc.c ****                        Command->CPSM);
 608              		.loc 1 372 31 view .LVU165
 609 000a CA68     		ldr	r2, [r1, #12]
 371:HALLIB/STM32F4xx_HAL_Driver/Src/stm32f4xx_ll_sdmmc.c ****                        Command->WaitForInterrupt |\
 610              		.loc 1 371 50 view .LVU166
 611 000c 1343     		orrs	r3, r3, r2
 373:HALLIB/STM32F4xx_HAL_Driver/Src/stm32f4xx_ll_sdmmc.c ****   
 612              		.loc 1 373 31 view .LVU167
 613 000e 0A69     		ldr	r2, [r1, #16]
 372:HALLIB/STM32F4xx_HAL_Driver/Src/stm32f4xx_ll_sdmmc.c ****                        Command->CPSM);
 614              		.loc 1 372 50 view .LVU168
 615 0010 1343     		orrs	r3, r3, r2
 616              	.LVL50:
 376:HALLIB/STM32F4xx_HAL_Driver/Src/stm32f4xx_ll_sdmmc.c ****   
 617              		.loc 1 376 3 is_stmt 1 view .LVU169
 618 0012 C268     		ldr	r2, [r0, #12]
 619 0014 22F47F62 		bic	r2, r2, #4080
 620 0018 22F00F02 		bic	r2, r2, #15
 621 001c 1343     		orrs	r3, r3, r2
 622              	.LVL51:
 376:HALLIB/STM32F4xx_HAL_Driver/Src/stm32f4xx_ll_sdmmc.c ****   
 623              		.loc 1 376 3 is_stmt 0 view .LVU170
 624 001e C360     		str	r3, [r0, #12]
 625              	.LVL52:
 378:HALLIB/STM32F4xx_HAL_Driver/Src/stm32f4xx_ll_sdmmc.c **** }
 626              		.loc 1 378 3 is_stmt 1 view .LVU171
 379:HALLIB/STM32F4xx_HAL_Driver/Src/stm32f4xx_ll_sdmmc.c **** 
ARM GAS  /tmp/cce5sGk9.s 			page 39


 627              		.loc 1 379 1 is_stmt 0 view .LVU172
 628 0020 0020     		movs	r0, #0
 629              	.LVL53:
 379:HALLIB/STM32F4xx_HAL_Driver/Src/stm32f4xx_ll_sdmmc.c **** 
 630              		.loc 1 379 1 view .LVU173
 631 0022 7047     		bx	lr
 632              		.cfi_endproc
 633              	.LFE138:
 635              		.section	.text.SDIO_GetCommandResponse,"ax",%progbits
 636              		.align	1
 637              		.global	SDIO_GetCommandResponse
 638              		.syntax unified
 639              		.thumb
 640              		.thumb_func
 641              		.fpu fpv4-sp-d16
 643              	SDIO_GetCommandResponse:
 644              	.LVL54:
 645              	.LFB139:
 387:HALLIB/STM32F4xx_HAL_Driver/Src/stm32f4xx_ll_sdmmc.c ****   return (uint8_t)(SDIOx->RESPCMD);
 646              		.loc 1 387 1 is_stmt 1 view -0
 647              		.cfi_startproc
 648              		@ args = 0, pretend = 0, frame = 0
 649              		@ frame_needed = 0, uses_anonymous_args = 0
 650              		@ link register save eliminated.
 388:HALLIB/STM32F4xx_HAL_Driver/Src/stm32f4xx_ll_sdmmc.c **** }
 651              		.loc 1 388 3 view .LVU175
 388:HALLIB/STM32F4xx_HAL_Driver/Src/stm32f4xx_ll_sdmmc.c **** }
 652              		.loc 1 388 25 is_stmt 0 view .LVU176
 653 0000 0069     		ldr	r0, [r0, #16]
 654              	.LVL55:
 389:HALLIB/STM32F4xx_HAL_Driver/Src/stm32f4xx_ll_sdmmc.c **** 
 655              		.loc 1 389 1 view .LVU177
 656 0002 C0B2     		uxtb	r0, r0
 657 0004 7047     		bx	lr
 658              		.cfi_endproc
 659              	.LFE139:
 661              		.section	.text.SDIO_GetResponse,"ax",%progbits
 662              		.align	1
 663              		.global	SDIO_GetResponse
 664              		.syntax unified
 665              		.thumb
 666              		.thumb_func
 667              		.fpu fpv4-sp-d16
 669              	SDIO_GetResponse:
 670              	.LVL56:
 671              	.LFB140:
 404:HALLIB/STM32F4xx_HAL_Driver/Src/stm32f4xx_ll_sdmmc.c ****   __IO uint32_t tmp = 0U;
 672              		.loc 1 404 1 is_stmt 1 view -0
 673              		.cfi_startproc
 674              		@ args = 0, pretend = 0, frame = 8
 675              		@ frame_needed = 0, uses_anonymous_args = 0
 676              		@ link register save eliminated.
 404:HALLIB/STM32F4xx_HAL_Driver/Src/stm32f4xx_ll_sdmmc.c ****   __IO uint32_t tmp = 0U;
 677              		.loc 1 404 1 is_stmt 0 view .LVU179
 678 0000 82B0     		sub	sp, sp, #8
 679              	.LCFI4:
 680              		.cfi_def_cfa_offset 8
ARM GAS  /tmp/cce5sGk9.s 			page 40


 405:HALLIB/STM32F4xx_HAL_Driver/Src/stm32f4xx_ll_sdmmc.c **** 
 681              		.loc 1 405 3 is_stmt 1 view .LVU180
 405:HALLIB/STM32F4xx_HAL_Driver/Src/stm32f4xx_ll_sdmmc.c **** 
 682              		.loc 1 405 17 is_stmt 0 view .LVU181
 683 0002 0023     		movs	r3, #0
 684 0004 0193     		str	r3, [sp, #4]
 408:HALLIB/STM32F4xx_HAL_Driver/Src/stm32f4xx_ll_sdmmc.c ****   
 685              		.loc 1 408 3 is_stmt 1 view .LVU182
 411:HALLIB/STM32F4xx_HAL_Driver/Src/stm32f4xx_ll_sdmmc.c ****   
 686              		.loc 1 411 3 view .LVU183
 411:HALLIB/STM32F4xx_HAL_Driver/Src/stm32f4xx_ll_sdmmc.c ****   
 687              		.loc 1 411 19 is_stmt 0 view .LVU184
 688 0006 1430     		adds	r0, r0, #20
 689              	.LVL57:
 411:HALLIB/STM32F4xx_HAL_Driver/Src/stm32f4xx_ll_sdmmc.c ****   
 690              		.loc 1 411 35 view .LVU185
 691 0008 0844     		add	r0, r0, r1
 692              	.LVL58:
 411:HALLIB/STM32F4xx_HAL_Driver/Src/stm32f4xx_ll_sdmmc.c ****   
 693              		.loc 1 411 7 view .LVU186
 694 000a 0190     		str	r0, [sp, #4]
 413:HALLIB/STM32F4xx_HAL_Driver/Src/stm32f4xx_ll_sdmmc.c **** }  
 695              		.loc 1 413 3 is_stmt 1 view .LVU187
 413:HALLIB/STM32F4xx_HAL_Driver/Src/stm32f4xx_ll_sdmmc.c **** }  
 696              		.loc 1 413 12 is_stmt 0 view .LVU188
 697 000c 019B     		ldr	r3, [sp, #4]
 413:HALLIB/STM32F4xx_HAL_Driver/Src/stm32f4xx_ll_sdmmc.c **** }  
 698              		.loc 1 413 11 view .LVU189
 699 000e 1868     		ldr	r0, [r3]
 414:HALLIB/STM32F4xx_HAL_Driver/Src/stm32f4xx_ll_sdmmc.c **** 
 700              		.loc 1 414 1 view .LVU190
 701 0010 02B0     		add	sp, sp, #8
 702              	.LCFI5:
 703              		.cfi_def_cfa_offset 0
 704              		@ sp needed
 705 0012 7047     		bx	lr
 706              		.cfi_endproc
 707              	.LFE140:
 709              		.section	.text.SDMMC_GetCmdResp1,"ax",%progbits
 710              		.align	1
 711              		.syntax unified
 712              		.thumb
 713              		.thumb_func
 714              		.fpu fpv4-sp-d16
 716              	SDMMC_GetCmdResp1:
 717              	.LVL59:
 718              	.LFB171:
1161:HALLIB/STM32F4xx_HAL_Driver/Src/stm32f4xx_ll_sdmmc.c ****   uint32_t response_r1;
 719              		.loc 1 1161 1 is_stmt 1 view -0
 720              		.cfi_startproc
 721              		@ args = 0, pretend = 0, frame = 0
 722              		@ frame_needed = 0, uses_anonymous_args = 0
1161:HALLIB/STM32F4xx_HAL_Driver/Src/stm32f4xx_ll_sdmmc.c ****   uint32_t response_r1;
 723              		.loc 1 1161 1 is_stmt 0 view .LVU192
 724 0000 38B5     		push	{r3, r4, r5, lr}
 725              	.LCFI6:
 726              		.cfi_def_cfa_offset 16
ARM GAS  /tmp/cce5sGk9.s 			page 41


 727              		.cfi_offset 3, -16
 728              		.cfi_offset 4, -12
 729              		.cfi_offset 5, -8
 730              		.cfi_offset 14, -4
 731 0002 0446     		mov	r4, r0
 732 0004 0D46     		mov	r5, r1
1162:HALLIB/STM32F4xx_HAL_Driver/Src/stm32f4xx_ll_sdmmc.c ****   
 733              		.loc 1 1162 3 is_stmt 1 view .LVU193
1166:HALLIB/STM32F4xx_HAL_Driver/Src/stm32f4xx_ll_sdmmc.c ****   
 734              		.loc 1 1166 3 view .LVU194
1166:HALLIB/STM32F4xx_HAL_Driver/Src/stm32f4xx_ll_sdmmc.c ****   
 735              		.loc 1 1166 61 is_stmt 0 view .LVU195
 736 0006 4F4B     		ldr	r3, .L72
 737 0008 1B68     		ldr	r3, [r3]
 738 000a 4F49     		ldr	r1, .L72+4
 739              	.LVL60:
1166:HALLIB/STM32F4xx_HAL_Driver/Src/stm32f4xx_ll_sdmmc.c ****   
 740              		.loc 1 1166 61 view .LVU196
 741 000c A1FB0313 		umull	r1, r3, r1, r3
 742 0010 5B0A     		lsrs	r3, r3, #9
1166:HALLIB/STM32F4xx_HAL_Driver/Src/stm32f4xx_ll_sdmmc.c ****   
 743              		.loc 1 1166 21 view .LVU197
 744 0012 02FB03F2 		mul	r2, r2, r3
 745              	.LVL61:
 746              	.L46:
1168:HALLIB/STM32F4xx_HAL_Driver/Src/stm32f4xx_ll_sdmmc.c ****   {
 747              		.loc 1 1168 3 is_stmt 1 view .LVU198
1170:HALLIB/STM32F4xx_HAL_Driver/Src/stm32f4xx_ll_sdmmc.c ****     {
 748              		.loc 1 1170 5 view .LVU199
 749 0016 1346     		mov	r3, r2
1170:HALLIB/STM32F4xx_HAL_Driver/Src/stm32f4xx_ll_sdmmc.c ****     {
 750              		.loc 1 1170 14 is_stmt 0 view .LVU200
 751 0018 013A     		subs	r2, r2, #1
 752              	.LVL62:
1170:HALLIB/STM32F4xx_HAL_Driver/Src/stm32f4xx_ll_sdmmc.c ****     {
 753              		.loc 1 1170 8 view .LVU201
 754 001a 002B     		cmp	r3, #0
 755 001c 5BD0     		beq	.L49
1175:HALLIB/STM32F4xx_HAL_Driver/Src/stm32f4xx_ll_sdmmc.c ****   
 756              		.loc 1 1175 9 is_stmt 1 view .LVU202
1175:HALLIB/STM32F4xx_HAL_Driver/Src/stm32f4xx_ll_sdmmc.c ****   
 757              		.loc 1 1175 11 is_stmt 0 view .LVU203
 758 001e 636B     		ldr	r3, [r4, #52]
1175:HALLIB/STM32F4xx_HAL_Driver/Src/stm32f4xx_ll_sdmmc.c ****   
 759              		.loc 1 1175 3 view .LVU204
 760 0020 13F0450F 		tst	r3, #69
 761 0024 F7D0     		beq	.L46
1177:HALLIB/STM32F4xx_HAL_Driver/Src/stm32f4xx_ll_sdmmc.c ****   {
 762              		.loc 1 1177 3 is_stmt 1 view .LVU205
1177:HALLIB/STM32F4xx_HAL_Driver/Src/stm32f4xx_ll_sdmmc.c ****   {
 763              		.loc 1 1177 6 is_stmt 0 view .LVU206
 764 0026 636B     		ldr	r3, [r4, #52]
1177:HALLIB/STM32F4xx_HAL_Driver/Src/stm32f4xx_ll_sdmmc.c ****   {
 765              		.loc 1 1177 5 view .LVU207
 766 0028 13F0040F 		tst	r3, #4
 767 002c 06D1     		bne	.L70
1183:HALLIB/STM32F4xx_HAL_Driver/Src/stm32f4xx_ll_sdmmc.c ****   {
ARM GAS  /tmp/cce5sGk9.s 			page 42


 768              		.loc 1 1183 8 is_stmt 1 view .LVU208
1183:HALLIB/STM32F4xx_HAL_Driver/Src/stm32f4xx_ll_sdmmc.c ****   {
 769              		.loc 1 1183 11 is_stmt 0 view .LVU209
 770 002e 636B     		ldr	r3, [r4, #52]
1183:HALLIB/STM32F4xx_HAL_Driver/Src/stm32f4xx_ll_sdmmc.c ****   {
 771              		.loc 1 1183 10 view .LVU210
 772 0030 13F0010F 		tst	r3, #1
 773 0034 05D0     		beq	.L48
1185:HALLIB/STM32F4xx_HAL_Driver/Src/stm32f4xx_ll_sdmmc.c ****     
 774              		.loc 1 1185 5 is_stmt 1 view .LVU211
 775 0036 0120     		movs	r0, #1
 776              	.LVL63:
1185:HALLIB/STM32F4xx_HAL_Driver/Src/stm32f4xx_ll_sdmmc.c ****     
 777              		.loc 1 1185 5 is_stmt 0 view .LVU212
 778 0038 A063     		str	r0, [r4, #56]
1187:HALLIB/STM32F4xx_HAL_Driver/Src/stm32f4xx_ll_sdmmc.c ****   }
 779              		.loc 1 1187 5 is_stmt 1 view .LVU213
1187:HALLIB/STM32F4xx_HAL_Driver/Src/stm32f4xx_ll_sdmmc.c ****   }
 780              		.loc 1 1187 12 is_stmt 0 view .LVU214
 781 003a 4EE0     		b	.L44
 782              	.LVL64:
 783              	.L70:
1179:HALLIB/STM32F4xx_HAL_Driver/Src/stm32f4xx_ll_sdmmc.c ****     
 784              		.loc 1 1179 5 is_stmt 1 view .LVU215
 785 003c 0420     		movs	r0, #4
 786              	.LVL65:
1179:HALLIB/STM32F4xx_HAL_Driver/Src/stm32f4xx_ll_sdmmc.c ****     
 787              		.loc 1 1179 5 is_stmt 0 view .LVU216
 788 003e A063     		str	r0, [r4, #56]
1181:HALLIB/STM32F4xx_HAL_Driver/Src/stm32f4xx_ll_sdmmc.c ****   }
 789              		.loc 1 1181 5 is_stmt 1 view .LVU217
1181:HALLIB/STM32F4xx_HAL_Driver/Src/stm32f4xx_ll_sdmmc.c ****   }
 790              		.loc 1 1181 12 is_stmt 0 view .LVU218
 791 0040 4BE0     		b	.L44
 792              	.LVL66:
 793              	.L48:
1191:HALLIB/STM32F4xx_HAL_Driver/Src/stm32f4xx_ll_sdmmc.c ****   {
 794              		.loc 1 1191 3 is_stmt 1 view .LVU219
1191:HALLIB/STM32F4xx_HAL_Driver/Src/stm32f4xx_ll_sdmmc.c ****   {
 795              		.loc 1 1191 6 is_stmt 0 view .LVU220
 796 0042 2046     		mov	r0, r4
 797              	.LVL67:
1191:HALLIB/STM32F4xx_HAL_Driver/Src/stm32f4xx_ll_sdmmc.c ****   {
 798              		.loc 1 1191 6 view .LVU221
 799 0044 FFF7FEFF 		bl	SDIO_GetCommandResponse
 800              	.LVL68:
1191:HALLIB/STM32F4xx_HAL_Driver/Src/stm32f4xx_ll_sdmmc.c ****   {
 801              		.loc 1 1191 5 view .LVU222
 802 0048 A842     		cmp	r0, r5
 803 004a 01D0     		beq	.L71
1193:HALLIB/STM32F4xx_HAL_Driver/Src/stm32f4xx_ll_sdmmc.c ****   }
 804              		.loc 1 1193 12 view .LVU223
 805 004c 0120     		movs	r0, #1
 806 004e 44E0     		b	.L44
 807              	.L71:
1197:HALLIB/STM32F4xx_HAL_Driver/Src/stm32f4xx_ll_sdmmc.c ****   
 808              		.loc 1 1197 3 is_stmt 1 view .LVU224
ARM GAS  /tmp/cce5sGk9.s 			page 43


 809 0050 40F2FF53 		movw	r3, #1535
 810 0054 A363     		str	r3, [r4, #56]
1200:HALLIB/STM32F4xx_HAL_Driver/Src/stm32f4xx_ll_sdmmc.c ****   
 811              		.loc 1 1200 3 view .LVU225
1200:HALLIB/STM32F4xx_HAL_Driver/Src/stm32f4xx_ll_sdmmc.c ****   
 812              		.loc 1 1200 17 is_stmt 0 view .LVU226
 813 0056 0021     		movs	r1, #0
 814 0058 2046     		mov	r0, r4
 815 005a FFF7FEFF 		bl	SDIO_GetResponse
 816              	.LVL69:
 817 005e 0346     		mov	r3, r0
 818              	.LVL70:
1202:HALLIB/STM32F4xx_HAL_Driver/Src/stm32f4xx_ll_sdmmc.c ****   {
 819              		.loc 1 1202 3 is_stmt 1 view .LVU227
1202:HALLIB/STM32F4xx_HAL_Driver/Src/stm32f4xx_ll_sdmmc.c ****   {
 820              		.loc 1 1202 19 is_stmt 0 view .LVU228
 821 0060 3A48     		ldr	r0, .L72+8
 822              	.LVL71:
1202:HALLIB/STM32F4xx_HAL_Driver/Src/stm32f4xx_ll_sdmmc.c ****   {
 823              		.loc 1 1202 19 view .LVU229
 824 0062 1840     		ands	r0, r0, r3
1202:HALLIB/STM32F4xx_HAL_Driver/Src/stm32f4xx_ll_sdmmc.c ****   {
 825              		.loc 1 1202 5 view .LVU230
 826 0064 C8B3     		cbz	r0, .L44
1206:HALLIB/STM32F4xx_HAL_Driver/Src/stm32f4xx_ll_sdmmc.c ****   {
 827              		.loc 1 1206 8 is_stmt 1 view .LVU231
1206:HALLIB/STM32F4xx_HAL_Driver/Src/stm32f4xx_ll_sdmmc.c ****   {
 828              		.loc 1 1206 10 is_stmt 0 view .LVU232
 829 0066 002B     		cmp	r3, #0
 830 0068 38DB     		blt	.L51
1210:HALLIB/STM32F4xx_HAL_Driver/Src/stm32f4xx_ll_sdmmc.c ****   {
 831              		.loc 1 1210 8 is_stmt 1 view .LVU233
1210:HALLIB/STM32F4xx_HAL_Driver/Src/stm32f4xx_ll_sdmmc.c ****   {
 832              		.loc 1 1210 10 is_stmt 0 view .LVU234
 833 006a 13F0804F 		tst	r3, #1073741824
 834 006e 38D1     		bne	.L52
1214:HALLIB/STM32F4xx_HAL_Driver/Src/stm32f4xx_ll_sdmmc.c ****   {
 835              		.loc 1 1214 8 is_stmt 1 view .LVU235
1214:HALLIB/STM32F4xx_HAL_Driver/Src/stm32f4xx_ll_sdmmc.c ****   {
 836              		.loc 1 1214 10 is_stmt 0 view .LVU236
 837 0070 13F0005F 		tst	r3, #536870912
 838 0074 37D1     		bne	.L53
1218:HALLIB/STM32F4xx_HAL_Driver/Src/stm32f4xx_ll_sdmmc.c ****   {
 839              		.loc 1 1218 8 is_stmt 1 view .LVU237
1218:HALLIB/STM32F4xx_HAL_Driver/Src/stm32f4xx_ll_sdmmc.c ****   {
 840              		.loc 1 1218 10 is_stmt 0 view .LVU238
 841 0076 13F0805F 		tst	r3, #268435456
 842 007a 36D1     		bne	.L54
1222:HALLIB/STM32F4xx_HAL_Driver/Src/stm32f4xx_ll_sdmmc.c ****   {
 843              		.loc 1 1222 8 is_stmt 1 view .LVU239
1222:HALLIB/STM32F4xx_HAL_Driver/Src/stm32f4xx_ll_sdmmc.c ****   {
 844              		.loc 1 1222 10 is_stmt 0 view .LVU240
 845 007c 13F0006F 		tst	r3, #134217728
 846 0080 36D1     		bne	.L55
1226:HALLIB/STM32F4xx_HAL_Driver/Src/stm32f4xx_ll_sdmmc.c ****   {
 847              		.loc 1 1226 8 is_stmt 1 view .LVU241
1226:HALLIB/STM32F4xx_HAL_Driver/Src/stm32f4xx_ll_sdmmc.c ****   {
ARM GAS  /tmp/cce5sGk9.s 			page 44


 848              		.loc 1 1226 10 is_stmt 0 view .LVU242
 849 0082 13F0806F 		tst	r3, #67108864
 850 0086 36D1     		bne	.L56
1230:HALLIB/STM32F4xx_HAL_Driver/Src/stm32f4xx_ll_sdmmc.c ****   {
 851              		.loc 1 1230 8 is_stmt 1 view .LVU243
1230:HALLIB/STM32F4xx_HAL_Driver/Src/stm32f4xx_ll_sdmmc.c ****   {
 852              		.loc 1 1230 10 is_stmt 0 view .LVU244
 853 0088 13F0807F 		tst	r3, #16777216
 854 008c 36D1     		bne	.L57
1234:HALLIB/STM32F4xx_HAL_Driver/Src/stm32f4xx_ll_sdmmc.c ****   {
 855              		.loc 1 1234 8 is_stmt 1 view .LVU245
1234:HALLIB/STM32F4xx_HAL_Driver/Src/stm32f4xx_ll_sdmmc.c ****   {
 856              		.loc 1 1234 10 is_stmt 0 view .LVU246
 857 008e 13F4000F 		tst	r3, #8388608
 858 0092 36D1     		bne	.L58
1238:HALLIB/STM32F4xx_HAL_Driver/Src/stm32f4xx_ll_sdmmc.c ****   {
 859              		.loc 1 1238 8 is_stmt 1 view .LVU247
1238:HALLIB/STM32F4xx_HAL_Driver/Src/stm32f4xx_ll_sdmmc.c ****   {
 860              		.loc 1 1238 10 is_stmt 0 view .LVU248
 861 0094 13F4800F 		tst	r3, #4194304
 862 0098 36D1     		bne	.L59
1242:HALLIB/STM32F4xx_HAL_Driver/Src/stm32f4xx_ll_sdmmc.c ****   {
 863              		.loc 1 1242 8 is_stmt 1 view .LVU249
1242:HALLIB/STM32F4xx_HAL_Driver/Src/stm32f4xx_ll_sdmmc.c ****   {
 864              		.loc 1 1242 10 is_stmt 0 view .LVU250
 865 009a 13F4001F 		tst	r3, #2097152
 866 009e 36D1     		bne	.L60
1246:HALLIB/STM32F4xx_HAL_Driver/Src/stm32f4xx_ll_sdmmc.c ****   {
 867              		.loc 1 1246 8 is_stmt 1 view .LVU251
1246:HALLIB/STM32F4xx_HAL_Driver/Src/stm32f4xx_ll_sdmmc.c ****   {
 868              		.loc 1 1246 10 is_stmt 0 view .LVU252
 869 00a0 13F4801F 		tst	r3, #1048576
 870 00a4 36D1     		bne	.L61
1250:HALLIB/STM32F4xx_HAL_Driver/Src/stm32f4xx_ll_sdmmc.c ****   {
 871              		.loc 1 1250 8 is_stmt 1 view .LVU253
1250:HALLIB/STM32F4xx_HAL_Driver/Src/stm32f4xx_ll_sdmmc.c ****   {
 872              		.loc 1 1250 10 is_stmt 0 view .LVU254
 873 00a6 13F4802F 		tst	r3, #262144
 874 00aa 36D1     		bne	.L62
1254:HALLIB/STM32F4xx_HAL_Driver/Src/stm32f4xx_ll_sdmmc.c ****   {
 875              		.loc 1 1254 8 is_stmt 1 view .LVU255
1254:HALLIB/STM32F4xx_HAL_Driver/Src/stm32f4xx_ll_sdmmc.c ****   {
 876              		.loc 1 1254 10 is_stmt 0 view .LVU256
 877 00ac 13F4003F 		tst	r3, #131072
 878 00b0 36D1     		bne	.L63
1258:HALLIB/STM32F4xx_HAL_Driver/Src/stm32f4xx_ll_sdmmc.c ****   {
 879              		.loc 1 1258 8 is_stmt 1 view .LVU257
1258:HALLIB/STM32F4xx_HAL_Driver/Src/stm32f4xx_ll_sdmmc.c ****   {
 880              		.loc 1 1258 10 is_stmt 0 view .LVU258
 881 00b2 13F4803F 		tst	r3, #65536
 882 00b6 36D1     		bne	.L64
1262:HALLIB/STM32F4xx_HAL_Driver/Src/stm32f4xx_ll_sdmmc.c ****   {
 883              		.loc 1 1262 8 is_stmt 1 view .LVU259
1262:HALLIB/STM32F4xx_HAL_Driver/Src/stm32f4xx_ll_sdmmc.c ****   {
 884              		.loc 1 1262 10 is_stmt 0 view .LVU260
 885 00b8 13F4004F 		tst	r3, #32768
 886 00bc 36D1     		bne	.L65
ARM GAS  /tmp/cce5sGk9.s 			page 45


1266:HALLIB/STM32F4xx_HAL_Driver/Src/stm32f4xx_ll_sdmmc.c ****   {
 887              		.loc 1 1266 8 is_stmt 1 view .LVU261
1266:HALLIB/STM32F4xx_HAL_Driver/Src/stm32f4xx_ll_sdmmc.c ****   {
 888              		.loc 1 1266 10 is_stmt 0 view .LVU262
 889 00be 13F4804F 		tst	r3, #16384
 890 00c2 36D1     		bne	.L66
1270:HALLIB/STM32F4xx_HAL_Driver/Src/stm32f4xx_ll_sdmmc.c ****   {
 891              		.loc 1 1270 8 is_stmt 1 view .LVU263
1270:HALLIB/STM32F4xx_HAL_Driver/Src/stm32f4xx_ll_sdmmc.c ****   {
 892              		.loc 1 1270 10 is_stmt 0 view .LVU264
 893 00c4 13F4005F 		tst	r3, #8192
 894 00c8 36D1     		bne	.L67
1274:HALLIB/STM32F4xx_HAL_Driver/Src/stm32f4xx_ll_sdmmc.c ****   {
 895              		.loc 1 1274 8 is_stmt 1 view .LVU265
1274:HALLIB/STM32F4xx_HAL_Driver/Src/stm32f4xx_ll_sdmmc.c ****   {
 896              		.loc 1 1274 10 is_stmt 0 view .LVU266
 897 00ca 13F0080F 		tst	r3, #8
 898 00ce 36D0     		beq	.L68
1276:HALLIB/STM32F4xx_HAL_Driver/Src/stm32f4xx_ll_sdmmc.c ****   }
 899              		.loc 1 1276 12 view .LVU267
 900 00d0 4FF40000 		mov	r0, #8388608
 901 00d4 01E0     		b	.L44
 902              	.LVL72:
 903              	.L49:
1172:HALLIB/STM32F4xx_HAL_Driver/Src/stm32f4xx_ll_sdmmc.c ****     }
 904              		.loc 1 1172 14 view .LVU268
 905 00d6 4FF00040 		mov	r0, #-2147483648
 906              	.LVL73:
 907              	.L44:
1282:HALLIB/STM32F4xx_HAL_Driver/Src/stm32f4xx_ll_sdmmc.c **** 
 908              		.loc 1 1282 1 view .LVU269
 909 00da 38BD     		pop	{r3, r4, r5, pc}
 910              	.LVL74:
 911              	.L51:
1208:HALLIB/STM32F4xx_HAL_Driver/Src/stm32f4xx_ll_sdmmc.c ****   }
 912              		.loc 1 1208 12 view .LVU270
 913 00dc 4FF00070 		mov	r0, #33554432
 914 00e0 FBE7     		b	.L44
 915              	.L52:
1212:HALLIB/STM32F4xx_HAL_Driver/Src/stm32f4xx_ll_sdmmc.c ****   }
 916              		.loc 1 1212 12 view .LVU271
 917 00e2 4020     		movs	r0, #64
 918 00e4 F9E7     		b	.L44
 919              	.L53:
1216:HALLIB/STM32F4xx_HAL_Driver/Src/stm32f4xx_ll_sdmmc.c ****   }
 920              		.loc 1 1216 12 view .LVU272
 921 00e6 8020     		movs	r0, #128
 922 00e8 F7E7     		b	.L44
 923              	.L54:
1220:HALLIB/STM32F4xx_HAL_Driver/Src/stm32f4xx_ll_sdmmc.c ****   }
 924              		.loc 1 1220 12 view .LVU273
 925 00ea 4FF48070 		mov	r0, #256
 926 00ee F4E7     		b	.L44
 927              	.L55:
1224:HALLIB/STM32F4xx_HAL_Driver/Src/stm32f4xx_ll_sdmmc.c ****   }
 928              		.loc 1 1224 12 view .LVU274
 929 00f0 4FF40070 		mov	r0, #512
ARM GAS  /tmp/cce5sGk9.s 			page 46


 930 00f4 F1E7     		b	.L44
 931              	.L56:
1228:HALLIB/STM32F4xx_HAL_Driver/Src/stm32f4xx_ll_sdmmc.c ****   }
 932              		.loc 1 1228 12 view .LVU275
 933 00f6 4FF48060 		mov	r0, #1024
 934 00fa EEE7     		b	.L44
 935              	.L57:
1232:HALLIB/STM32F4xx_HAL_Driver/Src/stm32f4xx_ll_sdmmc.c ****   }
 936              		.loc 1 1232 12 view .LVU276
 937 00fc 4FF40060 		mov	r0, #2048
 938 0100 EBE7     		b	.L44
 939              	.L58:
1236:HALLIB/STM32F4xx_HAL_Driver/Src/stm32f4xx_ll_sdmmc.c ****   }
 940              		.loc 1 1236 12 view .LVU277
 941 0102 4FF48050 		mov	r0, #4096
 942 0106 E8E7     		b	.L44
 943              	.L59:
1240:HALLIB/STM32F4xx_HAL_Driver/Src/stm32f4xx_ll_sdmmc.c ****   }
 944              		.loc 1 1240 12 view .LVU278
 945 0108 4FF40050 		mov	r0, #8192
 946 010c E5E7     		b	.L44
 947              	.L60:
1244:HALLIB/STM32F4xx_HAL_Driver/Src/stm32f4xx_ll_sdmmc.c ****   }
 948              		.loc 1 1244 12 view .LVU279
 949 010e 4FF48040 		mov	r0, #16384
 950 0112 E2E7     		b	.L44
 951              	.L61:
1248:HALLIB/STM32F4xx_HAL_Driver/Src/stm32f4xx_ll_sdmmc.c ****   }
 952              		.loc 1 1248 12 view .LVU280
 953 0114 4FF40040 		mov	r0, #32768
 954 0118 DFE7     		b	.L44
 955              	.L62:
1252:HALLIB/STM32F4xx_HAL_Driver/Src/stm32f4xx_ll_sdmmc.c ****   }
 956              		.loc 1 1252 12 view .LVU281
 957 011a 4FF40030 		mov	r0, #131072
 958 011e DCE7     		b	.L44
 959              	.L63:
1256:HALLIB/STM32F4xx_HAL_Driver/Src/stm32f4xx_ll_sdmmc.c ****   }
 960              		.loc 1 1256 12 view .LVU282
 961 0120 4FF48020 		mov	r0, #262144
 962 0124 D9E7     		b	.L44
 963              	.L64:
1260:HALLIB/STM32F4xx_HAL_Driver/Src/stm32f4xx_ll_sdmmc.c ****   }
 964              		.loc 1 1260 12 view .LVU283
 965 0126 4FF40020 		mov	r0, #524288
 966 012a D6E7     		b	.L44
 967              	.L65:
1264:HALLIB/STM32F4xx_HAL_Driver/Src/stm32f4xx_ll_sdmmc.c ****   }
 968              		.loc 1 1264 12 view .LVU284
 969 012c 4FF48010 		mov	r0, #1048576
 970 0130 D3E7     		b	.L44
 971              	.L66:
1268:HALLIB/STM32F4xx_HAL_Driver/Src/stm32f4xx_ll_sdmmc.c ****   }
 972              		.loc 1 1268 12 view .LVU285
 973 0132 4FF40010 		mov	r0, #2097152
 974 0136 D0E7     		b	.L44
 975              	.L67:
ARM GAS  /tmp/cce5sGk9.s 			page 47


1272:HALLIB/STM32F4xx_HAL_Driver/Src/stm32f4xx_ll_sdmmc.c ****   }
 976              		.loc 1 1272 12 view .LVU286
 977 0138 4FF48000 		mov	r0, #4194304
 978 013c CDE7     		b	.L44
 979              	.L68:
1280:HALLIB/STM32F4xx_HAL_Driver/Src/stm32f4xx_ll_sdmmc.c ****   }
 980              		.loc 1 1280 12 view .LVU287
 981 013e 4FF48030 		mov	r0, #65536
 982 0142 CAE7     		b	.L44
 983              	.L73:
 984              		.align	2
 985              	.L72:
 986 0144 00000000 		.word	SystemCoreClock
 987 0148 D34D6210 		.word	274877907
 988 014c 08E0FFFD 		.word	-33562616
 989              		.cfi_endproc
 990              	.LFE171:
 992              		.section	.text.SDMMC_GetCmdResp6,"ax",%progbits
 993              		.align	1
 994              		.syntax unified
 995              		.thumb
 996              		.thumb_func
 997              		.fpu fpv4-sp-d16
 999              	SDMMC_GetCmdResp6:
 1000              	.LVL75:
 1001              	.LFB174:
1371:HALLIB/STM32F4xx_HAL_Driver/Src/stm32f4xx_ll_sdmmc.c ****   uint32_t response_r1;
 1002              		.loc 1 1371 1 is_stmt 1 view -0
 1003              		.cfi_startproc
 1004              		@ args = 0, pretend = 0, frame = 0
 1005              		@ frame_needed = 0, uses_anonymous_args = 0
1371:HALLIB/STM32F4xx_HAL_Driver/Src/stm32f4xx_ll_sdmmc.c ****   uint32_t response_r1;
 1006              		.loc 1 1371 1 is_stmt 0 view .LVU289
 1007 0000 F8B5     		push	{r3, r4, r5, r6, r7, lr}
 1008              	.LCFI7:
 1009              		.cfi_def_cfa_offset 24
 1010              		.cfi_offset 3, -24
 1011              		.cfi_offset 4, -20
 1012              		.cfi_offset 5, -16
 1013              		.cfi_offset 6, -12
 1014              		.cfi_offset 7, -8
 1015              		.cfi_offset 14, -4
 1016 0002 0546     		mov	r5, r0
 1017 0004 0E46     		mov	r6, r1
 1018 0006 1746     		mov	r7, r2
1372:HALLIB/STM32F4xx_HAL_Driver/Src/stm32f4xx_ll_sdmmc.c **** 
 1019              		.loc 1 1372 3 is_stmt 1 view .LVU290
1376:HALLIB/STM32F4xx_HAL_Driver/Src/stm32f4xx_ll_sdmmc.c ****   
 1020              		.loc 1 1376 3 view .LVU291
1376:HALLIB/STM32F4xx_HAL_Driver/Src/stm32f4xx_ll_sdmmc.c ****   
 1021              		.loc 1 1376 69 is_stmt 0 view .LVU292
 1022 0008 224B     		ldr	r3, .L88
 1023 000a 1B68     		ldr	r3, [r3]
 1024 000c 2248     		ldr	r0, .L88+4
 1025              	.LVL76:
1376:HALLIB/STM32F4xx_HAL_Driver/Src/stm32f4xx_ll_sdmmc.c ****   
 1026              		.loc 1 1376 69 view .LVU293
ARM GAS  /tmp/cce5sGk9.s 			page 48


 1027 000e A0FB0323 		umull	r2, r3, r0, r3
 1028              	.LVL77:
1376:HALLIB/STM32F4xx_HAL_Driver/Src/stm32f4xx_ll_sdmmc.c ****   
 1029              		.loc 1 1376 69 view .LVU294
 1030 0012 580A     		lsrs	r0, r3, #9
1376:HALLIB/STM32F4xx_HAL_Driver/Src/stm32f4xx_ll_sdmmc.c ****   
 1031              		.loc 1 1376 21 view .LVU295
 1032 0014 41F28833 		movw	r3, #5000
 1033 0018 03FB00F3 		mul	r3, r3, r0
 1034              	.LVL78:
 1035              	.L76:
1378:HALLIB/STM32F4xx_HAL_Driver/Src/stm32f4xx_ll_sdmmc.c ****   {
 1036              		.loc 1 1378 3 is_stmt 1 view .LVU296
1380:HALLIB/STM32F4xx_HAL_Driver/Src/stm32f4xx_ll_sdmmc.c ****     {
 1037              		.loc 1 1380 5 view .LVU297
 1038 001c 1C46     		mov	r4, r3
1380:HALLIB/STM32F4xx_HAL_Driver/Src/stm32f4xx_ll_sdmmc.c ****     {
 1039              		.loc 1 1380 14 is_stmt 0 view .LVU298
 1040 001e 013B     		subs	r3, r3, #1
 1041              	.LVL79:
1380:HALLIB/STM32F4xx_HAL_Driver/Src/stm32f4xx_ll_sdmmc.c ****     {
 1042              		.loc 1 1380 8 view .LVU299
 1043 0020 7CB3     		cbz	r4, .L80
1385:HALLIB/STM32F4xx_HAL_Driver/Src/stm32f4xx_ll_sdmmc.c ****   
 1044              		.loc 1 1385 9 is_stmt 1 view .LVU300
1385:HALLIB/STM32F4xx_HAL_Driver/Src/stm32f4xx_ll_sdmmc.c ****   
 1045              		.loc 1 1385 11 is_stmt 0 view .LVU301
 1046 0022 6C6B     		ldr	r4, [r5, #52]
1385:HALLIB/STM32F4xx_HAL_Driver/Src/stm32f4xx_ll_sdmmc.c ****   
 1047              		.loc 1 1385 3 view .LVU302
 1048 0024 14F0450F 		tst	r4, #69
 1049 0028 F8D0     		beq	.L76
1387:HALLIB/STM32F4xx_HAL_Driver/Src/stm32f4xx_ll_sdmmc.c ****   {
 1050              		.loc 1 1387 3 is_stmt 1 view .LVU303
1387:HALLIB/STM32F4xx_HAL_Driver/Src/stm32f4xx_ll_sdmmc.c ****   {
 1051              		.loc 1 1387 6 is_stmt 0 view .LVU304
 1052 002a 6B6B     		ldr	r3, [r5, #52]
 1053              	.LVL80:
1387:HALLIB/STM32F4xx_HAL_Driver/Src/stm32f4xx_ll_sdmmc.c ****   {
 1054              		.loc 1 1387 5 view .LVU305
 1055 002c 13F0040F 		tst	r3, #4
 1056 0030 06D1     		bne	.L85
1393:HALLIB/STM32F4xx_HAL_Driver/Src/stm32f4xx_ll_sdmmc.c ****   {
 1057              		.loc 1 1393 8 is_stmt 1 view .LVU306
1393:HALLIB/STM32F4xx_HAL_Driver/Src/stm32f4xx_ll_sdmmc.c ****   {
 1058              		.loc 1 1393 11 is_stmt 0 view .LVU307
 1059 0032 6B6B     		ldr	r3, [r5, #52]
1393:HALLIB/STM32F4xx_HAL_Driver/Src/stm32f4xx_ll_sdmmc.c ****   {
 1060              		.loc 1 1393 10 view .LVU308
 1061 0034 13F0010F 		tst	r3, #1
 1062 0038 05D0     		beq	.L78
1395:HALLIB/STM32F4xx_HAL_Driver/Src/stm32f4xx_ll_sdmmc.c ****     
 1063              		.loc 1 1395 5 is_stmt 1 view .LVU309
 1064 003a 0120     		movs	r0, #1
 1065 003c A863     		str	r0, [r5, #56]
1397:HALLIB/STM32F4xx_HAL_Driver/Src/stm32f4xx_ll_sdmmc.c ****   }
 1066              		.loc 1 1397 5 view .LVU310
ARM GAS  /tmp/cce5sGk9.s 			page 49


1397:HALLIB/STM32F4xx_HAL_Driver/Src/stm32f4xx_ll_sdmmc.c ****   }
 1067              		.loc 1 1397 12 is_stmt 0 view .LVU311
 1068 003e 22E0     		b	.L74
 1069              	.L85:
1389:HALLIB/STM32F4xx_HAL_Driver/Src/stm32f4xx_ll_sdmmc.c ****     
 1070              		.loc 1 1389 5 is_stmt 1 view .LVU312
 1071 0040 0420     		movs	r0, #4
 1072 0042 A863     		str	r0, [r5, #56]
1391:HALLIB/STM32F4xx_HAL_Driver/Src/stm32f4xx_ll_sdmmc.c ****   }
 1073              		.loc 1 1391 5 view .LVU313
1391:HALLIB/STM32F4xx_HAL_Driver/Src/stm32f4xx_ll_sdmmc.c ****   }
 1074              		.loc 1 1391 12 is_stmt 0 view .LVU314
 1075 0044 1FE0     		b	.L74
 1076              	.L78:
1401:HALLIB/STM32F4xx_HAL_Driver/Src/stm32f4xx_ll_sdmmc.c ****   {
 1077              		.loc 1 1401 3 is_stmt 1 view .LVU315
1401:HALLIB/STM32F4xx_HAL_Driver/Src/stm32f4xx_ll_sdmmc.c ****   {
 1078              		.loc 1 1401 6 is_stmt 0 view .LVU316
 1079 0046 2846     		mov	r0, r5
 1080 0048 FFF7FEFF 		bl	SDIO_GetCommandResponse
 1081              	.LVL81:
1401:HALLIB/STM32F4xx_HAL_Driver/Src/stm32f4xx_ll_sdmmc.c ****   {
 1082              		.loc 1 1401 5 view .LVU317
 1083 004c B042     		cmp	r0, r6
 1084 004e 01D0     		beq	.L86
1403:HALLIB/STM32F4xx_HAL_Driver/Src/stm32f4xx_ll_sdmmc.c ****   }
 1085              		.loc 1 1403 12 view .LVU318
 1086 0050 0120     		movs	r0, #1
 1087 0052 18E0     		b	.L74
 1088              	.L86:
1407:HALLIB/STM32F4xx_HAL_Driver/Src/stm32f4xx_ll_sdmmc.c ****   
 1089              		.loc 1 1407 3 is_stmt 1 view .LVU319
 1090 0054 40F2FF53 		movw	r3, #1535
 1091 0058 AB63     		str	r3, [r5, #56]
1410:HALLIB/STM32F4xx_HAL_Driver/Src/stm32f4xx_ll_sdmmc.c ****   
 1092              		.loc 1 1410 3 view .LVU320
1410:HALLIB/STM32F4xx_HAL_Driver/Src/stm32f4xx_ll_sdmmc.c ****   
 1093              		.loc 1 1410 17 is_stmt 0 view .LVU321
 1094 005a 0021     		movs	r1, #0
 1095 005c 2846     		mov	r0, r5
 1096 005e FFF7FEFF 		bl	SDIO_GetResponse
 1097              	.LVL82:
 1098 0062 0346     		mov	r3, r0
 1099              	.LVL83:
1412:HALLIB/STM32F4xx_HAL_Driver/Src/stm32f4xx_ll_sdmmc.c ****   {
 1100              		.loc 1 1412 3 is_stmt 1 view .LVU322
1412:HALLIB/STM32F4xx_HAL_Driver/Src/stm32f4xx_ll_sdmmc.c ****   {
 1101              		.loc 1 1412 5 is_stmt 0 view .LVU323
 1102 0064 10F46040 		ands	r0, r0, #57344
 1103              	.LVL84:
1412:HALLIB/STM32F4xx_HAL_Driver/Src/stm32f4xx_ll_sdmmc.c ****   {
 1104              		.loc 1 1412 5 view .LVU324
 1105 0068 08D0     		beq	.L87
1418:HALLIB/STM32F4xx_HAL_Driver/Src/stm32f4xx_ll_sdmmc.c ****   {
 1106              		.loc 1 1418 8 is_stmt 1 view .LVU325
1418:HALLIB/STM32F4xx_HAL_Driver/Src/stm32f4xx_ll_sdmmc.c ****   {
 1107              		.loc 1 1418 10 is_stmt 0 view .LVU326
ARM GAS  /tmp/cce5sGk9.s 			page 50


 1108 006a 13F4804F 		tst	r3, #16384
 1109 006e 0BD1     		bne	.L82
1422:HALLIB/STM32F4xx_HAL_Driver/Src/stm32f4xx_ll_sdmmc.c ****   {
 1110              		.loc 1 1422 8 is_stmt 1 view .LVU327
1422:HALLIB/STM32F4xx_HAL_Driver/Src/stm32f4xx_ll_sdmmc.c ****   {
 1111              		.loc 1 1422 10 is_stmt 0 view .LVU328
 1112 0070 13F4004F 		tst	r3, #32768
 1113 0074 0BD0     		beq	.L83
1424:HALLIB/STM32F4xx_HAL_Driver/Src/stm32f4xx_ll_sdmmc.c ****   }
 1114              		.loc 1 1424 12 view .LVU329
 1115 0076 4FF48050 		mov	r0, #4096
 1116 007a 04E0     		b	.L74
 1117              	.L87:
1414:HALLIB/STM32F4xx_HAL_Driver/Src/stm32f4xx_ll_sdmmc.c ****     
 1118              		.loc 1 1414 5 is_stmt 1 view .LVU330
1414:HALLIB/STM32F4xx_HAL_Driver/Src/stm32f4xx_ll_sdmmc.c ****     
 1119              		.loc 1 1414 13 is_stmt 0 view .LVU331
 1120 007c 1B0C     		lsrs	r3, r3, #16
 1121              	.LVL85:
1414:HALLIB/STM32F4xx_HAL_Driver/Src/stm32f4xx_ll_sdmmc.c ****     
 1122              		.loc 1 1414 11 view .LVU332
 1123 007e 3B80     		strh	r3, [r7]	@ movhi
1416:HALLIB/STM32F4xx_HAL_Driver/Src/stm32f4xx_ll_sdmmc.c ****   }
 1124              		.loc 1 1416 5 is_stmt 1 view .LVU333
1416:HALLIB/STM32F4xx_HAL_Driver/Src/stm32f4xx_ll_sdmmc.c ****   }
 1125              		.loc 1 1416 12 is_stmt 0 view .LVU334
 1126 0080 01E0     		b	.L74
 1127              	.LVL86:
 1128              	.L80:
1382:HALLIB/STM32F4xx_HAL_Driver/Src/stm32f4xx_ll_sdmmc.c ****     }
 1129              		.loc 1 1382 14 view .LVU335
 1130 0082 4FF00040 		mov	r0, #-2147483648
 1131              	.LVL87:
 1132              	.L74:
1430:HALLIB/STM32F4xx_HAL_Driver/Src/stm32f4xx_ll_sdmmc.c **** 
 1133              		.loc 1 1430 1 view .LVU336
 1134 0086 F8BD     		pop	{r3, r4, r5, r6, r7, pc}
 1135              	.LVL88:
 1136              	.L82:
1420:HALLIB/STM32F4xx_HAL_Driver/Src/stm32f4xx_ll_sdmmc.c ****   }
 1137              		.loc 1 1420 12 view .LVU337
 1138 0088 4FF40050 		mov	r0, #8192
 1139 008c FBE7     		b	.L74
 1140              	.L83:
1428:HALLIB/STM32F4xx_HAL_Driver/Src/stm32f4xx_ll_sdmmc.c ****   }
 1141              		.loc 1 1428 12 view .LVU338
 1142 008e 4FF48030 		mov	r0, #65536
 1143 0092 F8E7     		b	.L74
 1144              	.L89:
 1145              		.align	2
 1146              	.L88:
 1147 0094 00000000 		.word	SystemCoreClock
 1148 0098 D34D6210 		.word	274877907
 1149              		.cfi_endproc
 1150              	.LFE174:
 1152              		.section	.text.SDIO_ConfigData,"ax",%progbits
 1153              		.align	1
ARM GAS  /tmp/cce5sGk9.s 			page 51


 1154              		.global	SDIO_ConfigData
 1155              		.syntax unified
 1156              		.thumb
 1157              		.thumb_func
 1158              		.fpu fpv4-sp-d16
 1160              	SDIO_ConfigData:
 1161              	.LVL89:
 1162              	.LFB141:
 425:HALLIB/STM32F4xx_HAL_Driver/Src/stm32f4xx_ll_sdmmc.c ****   uint32_t tmpreg = 0U;
 1163              		.loc 1 425 1 is_stmt 1 view -0
 1164              		.cfi_startproc
 1165              		@ args = 0, pretend = 0, frame = 0
 1166              		@ frame_needed = 0, uses_anonymous_args = 0
 1167              		@ link register save eliminated.
 426:HALLIB/STM32F4xx_HAL_Driver/Src/stm32f4xx_ll_sdmmc.c ****   
 1168              		.loc 1 426 3 view .LVU340
 429:HALLIB/STM32F4xx_HAL_Driver/Src/stm32f4xx_ll_sdmmc.c ****   assert_param(IS_SDIO_BLOCK_SIZE(Data->DataBlockSize));
 1169              		.loc 1 429 3 view .LVU341
 430:HALLIB/STM32F4xx_HAL_Driver/Src/stm32f4xx_ll_sdmmc.c ****   assert_param(IS_SDIO_TRANSFER_DIR(Data->TransferDir));
 1170              		.loc 1 430 3 view .LVU342
 431:HALLIB/STM32F4xx_HAL_Driver/Src/stm32f4xx_ll_sdmmc.c ****   assert_param(IS_SDIO_TRANSFER_MODE(Data->TransferMode));
 1171              		.loc 1 431 3 view .LVU343
 432:HALLIB/STM32F4xx_HAL_Driver/Src/stm32f4xx_ll_sdmmc.c ****   assert_param(IS_SDIO_DPSM(Data->DPSM));
 1172              		.loc 1 432 3 view .LVU344
 433:HALLIB/STM32F4xx_HAL_Driver/Src/stm32f4xx_ll_sdmmc.c **** 
 1173              		.loc 1 433 3 view .LVU345
 436:HALLIB/STM32F4xx_HAL_Driver/Src/stm32f4xx_ll_sdmmc.c **** 
 1174              		.loc 1 436 3 view .LVU346
 436:HALLIB/STM32F4xx_HAL_Driver/Src/stm32f4xx_ll_sdmmc.c **** 
 1175              		.loc 1 436 23 is_stmt 0 view .LVU347
 1176 0000 0B68     		ldr	r3, [r1]
 436:HALLIB/STM32F4xx_HAL_Driver/Src/stm32f4xx_ll_sdmmc.c **** 
 1177              		.loc 1 436 17 view .LVU348
 1178 0002 4362     		str	r3, [r0, #36]
 439:HALLIB/STM32F4xx_HAL_Driver/Src/stm32f4xx_ll_sdmmc.c **** 
 1179              		.loc 1 439 3 is_stmt 1 view .LVU349
 439:HALLIB/STM32F4xx_HAL_Driver/Src/stm32f4xx_ll_sdmmc.c **** 
 1180              		.loc 1 439 21 is_stmt 0 view .LVU350
 1181 0004 4B68     		ldr	r3, [r1, #4]
 439:HALLIB/STM32F4xx_HAL_Driver/Src/stm32f4xx_ll_sdmmc.c **** 
 1182              		.loc 1 439 15 view .LVU351
 1183 0006 8362     		str	r3, [r0, #40]
 442:HALLIB/STM32F4xx_HAL_Driver/Src/stm32f4xx_ll_sdmmc.c ****                        Data->TransferDir   |\
 1184              		.loc 1 442 3 is_stmt 1 view .LVU352
 442:HALLIB/STM32F4xx_HAL_Driver/Src/stm32f4xx_ll_sdmmc.c ****                        Data->TransferDir   |\
 1185              		.loc 1 442 28 is_stmt 0 view .LVU353
 1186 0008 8B68     		ldr	r3, [r1, #8]
 443:HALLIB/STM32F4xx_HAL_Driver/Src/stm32f4xx_ll_sdmmc.c ****                        Data->TransferMode  |\
 1187              		.loc 1 443 28 view .LVU354
 1188 000a CA68     		ldr	r2, [r1, #12]
 442:HALLIB/STM32F4xx_HAL_Driver/Src/stm32f4xx_ll_sdmmc.c ****                        Data->TransferDir   |\
 1189              		.loc 1 442 44 view .LVU355
 1190 000c 1343     		orrs	r3, r3, r2
 444:HALLIB/STM32F4xx_HAL_Driver/Src/stm32f4xx_ll_sdmmc.c ****                        Data->DPSM);
 1191              		.loc 1 444 28 view .LVU356
 1192 000e 0A69     		ldr	r2, [r1, #16]
 443:HALLIB/STM32F4xx_HAL_Driver/Src/stm32f4xx_ll_sdmmc.c ****                        Data->TransferMode  |\
ARM GAS  /tmp/cce5sGk9.s 			page 52


 1193              		.loc 1 443 44 view .LVU357
 1194 0010 1343     		orrs	r3, r3, r2
 445:HALLIB/STM32F4xx_HAL_Driver/Src/stm32f4xx_ll_sdmmc.c ****   
 1195              		.loc 1 445 28 view .LVU358
 1196 0012 4A69     		ldr	r2, [r1, #20]
 444:HALLIB/STM32F4xx_HAL_Driver/Src/stm32f4xx_ll_sdmmc.c ****                        Data->DPSM);
 1197              		.loc 1 444 44 view .LVU359
 1198 0014 1343     		orrs	r3, r3, r2
 1199              	.LVL90:
 448:HALLIB/STM32F4xx_HAL_Driver/Src/stm32f4xx_ll_sdmmc.c **** 
 1200              		.loc 1 448 3 is_stmt 1 view .LVU360
 1201 0016 C26A     		ldr	r2, [r0, #44]
 1202 0018 22F0F702 		bic	r2, r2, #247
 1203 001c 1343     		orrs	r3, r3, r2
 1204              	.LVL91:
 448:HALLIB/STM32F4xx_HAL_Driver/Src/stm32f4xx_ll_sdmmc.c **** 
 1205              		.loc 1 448 3 is_stmt 0 view .LVU361
 1206 001e C362     		str	r3, [r0, #44]
 1207              	.LVL92:
 450:HALLIB/STM32F4xx_HAL_Driver/Src/stm32f4xx_ll_sdmmc.c **** 
 1208              		.loc 1 450 3 is_stmt 1 view .LVU362
 452:HALLIB/STM32F4xx_HAL_Driver/Src/stm32f4xx_ll_sdmmc.c **** 
 1209              		.loc 1 452 1 is_stmt 0 view .LVU363
 1210 0020 0020     		movs	r0, #0
 1211              	.LVL93:
 452:HALLIB/STM32F4xx_HAL_Driver/Src/stm32f4xx_ll_sdmmc.c **** 
 1212              		.loc 1 452 1 view .LVU364
 1213 0022 7047     		bx	lr
 1214              		.cfi_endproc
 1215              	.LFE141:
 1217              		.section	.text.SDIO_GetDataCounter,"ax",%progbits
 1218              		.align	1
 1219              		.global	SDIO_GetDataCounter
 1220              		.syntax unified
 1221              		.thumb
 1222              		.thumb_func
 1223              		.fpu fpv4-sp-d16
 1225              	SDIO_GetDataCounter:
 1226              	.LVL94:
 1227              	.LFB142:
 460:HALLIB/STM32F4xx_HAL_Driver/Src/stm32f4xx_ll_sdmmc.c ****   return (SDIOx->DCOUNT);
 1228              		.loc 1 460 1 is_stmt 1 view -0
 1229              		.cfi_startproc
 1230              		@ args = 0, pretend = 0, frame = 0
 1231              		@ frame_needed = 0, uses_anonymous_args = 0
 1232              		@ link register save eliminated.
 461:HALLIB/STM32F4xx_HAL_Driver/Src/stm32f4xx_ll_sdmmc.c **** }
 1233              		.loc 1 461 3 view .LVU366
 461:HALLIB/STM32F4xx_HAL_Driver/Src/stm32f4xx_ll_sdmmc.c **** }
 1234              		.loc 1 461 16 is_stmt 0 view .LVU367
 1235 0000 006B     		ldr	r0, [r0, #48]
 1236              	.LVL95:
 462:HALLIB/STM32F4xx_HAL_Driver/Src/stm32f4xx_ll_sdmmc.c **** 
 1237              		.loc 1 462 1 view .LVU368
 1238 0002 7047     		bx	lr
 1239              		.cfi_endproc
 1240              	.LFE142:
ARM GAS  /tmp/cce5sGk9.s 			page 53


 1242              		.section	.text.SDIO_GetFIFOCount,"ax",%progbits
 1243              		.align	1
 1244              		.global	SDIO_GetFIFOCount
 1245              		.syntax unified
 1246              		.thumb
 1247              		.thumb_func
 1248              		.fpu fpv4-sp-d16
 1250              	SDIO_GetFIFOCount:
 1251              	.LVL96:
 1252              	.LFB143:
 470:HALLIB/STM32F4xx_HAL_Driver/Src/stm32f4xx_ll_sdmmc.c ****   return (SDIOx->FIFO);
 1253              		.loc 1 470 1 is_stmt 1 view -0
 1254              		.cfi_startproc
 1255              		@ args = 0, pretend = 0, frame = 0
 1256              		@ frame_needed = 0, uses_anonymous_args = 0
 1257              		@ link register save eliminated.
 471:HALLIB/STM32F4xx_HAL_Driver/Src/stm32f4xx_ll_sdmmc.c **** }
 1258              		.loc 1 471 3 view .LVU370
 471:HALLIB/STM32F4xx_HAL_Driver/Src/stm32f4xx_ll_sdmmc.c **** }
 1259              		.loc 1 471 16 is_stmt 0 view .LVU371
 1260 0000 D0F88000 		ldr	r0, [r0, #128]
 1261              	.LVL97:
 472:HALLIB/STM32F4xx_HAL_Driver/Src/stm32f4xx_ll_sdmmc.c **** 
 1262              		.loc 1 472 1 view .LVU372
 1263 0004 7047     		bx	lr
 1264              		.cfi_endproc
 1265              	.LFE143:
 1267              		.section	.text.SDIO_SetSDMMCReadWaitMode,"ax",%progbits
 1268              		.align	1
 1269              		.global	SDIO_SetSDMMCReadWaitMode
 1270              		.syntax unified
 1271              		.thumb
 1272              		.thumb_func
 1273              		.fpu fpv4-sp-d16
 1275              	SDIO_SetSDMMCReadWaitMode:
 1276              	.LVL98:
 1277              	.LFB144:
 484:HALLIB/STM32F4xx_HAL_Driver/Src/stm32f4xx_ll_sdmmc.c ****   /* Check the parameters */
 1278              		.loc 1 484 1 is_stmt 1 view -0
 1279              		.cfi_startproc
 1280              		@ args = 0, pretend = 0, frame = 0
 1281              		@ frame_needed = 0, uses_anonymous_args = 0
 1282              		@ link register save eliminated.
 486:HALLIB/STM32F4xx_HAL_Driver/Src/stm32f4xx_ll_sdmmc.c **** 
 1283              		.loc 1 486 3 view .LVU374
 489:HALLIB/STM32F4xx_HAL_Driver/Src/stm32f4xx_ll_sdmmc.c ****   
 1284              		.loc 1 489 3 view .LVU375
 1285 0000 C36A     		ldr	r3, [r0, #44]
 1286 0002 23F48063 		bic	r3, r3, #1024
 1287 0006 0B43     		orrs	r3, r3, r1
 1288 0008 C362     		str	r3, [r0, #44]
 491:HALLIB/STM32F4xx_HAL_Driver/Src/stm32f4xx_ll_sdmmc.c **** }
 1289              		.loc 1 491 3 view .LVU376
 492:HALLIB/STM32F4xx_HAL_Driver/Src/stm32f4xx_ll_sdmmc.c **** 
 1290              		.loc 1 492 1 is_stmt 0 view .LVU377
 1291 000a 0020     		movs	r0, #0
 1292              	.LVL99:
ARM GAS  /tmp/cce5sGk9.s 			page 54


 492:HALLIB/STM32F4xx_HAL_Driver/Src/stm32f4xx_ll_sdmmc.c **** 
 1293              		.loc 1 492 1 view .LVU378
 1294 000c 7047     		bx	lr
 1295              		.cfi_endproc
 1296              	.LFE144:
 1298              		.section	.text.SDMMC_CmdBlockLength,"ax",%progbits
 1299              		.align	1
 1300              		.global	SDMMC_CmdBlockLength
 1301              		.syntax unified
 1302              		.thumb
 1303              		.thumb_func
 1304              		.fpu fpv4-sp-d16
 1306              	SDMMC_CmdBlockLength:
 1307              	.LVL100:
 1308              	.LFB145:
 519:HALLIB/STM32F4xx_HAL_Driver/Src/stm32f4xx_ll_sdmmc.c ****   SDIO_CmdInitTypeDef  sdmmc_cmdinit;
 1309              		.loc 1 519 1 is_stmt 1 view -0
 1310              		.cfi_startproc
 1311              		@ args = 0, pretend = 0, frame = 24
 1312              		@ frame_needed = 0, uses_anonymous_args = 0
 519:HALLIB/STM32F4xx_HAL_Driver/Src/stm32f4xx_ll_sdmmc.c ****   SDIO_CmdInitTypeDef  sdmmc_cmdinit;
 1313              		.loc 1 519 1 is_stmt 0 view .LVU380
 1314 0000 30B5     		push	{r4, r5, lr}
 1315              	.LCFI8:
 1316              		.cfi_def_cfa_offset 12
 1317              		.cfi_offset 4, -12
 1318              		.cfi_offset 5, -8
 1319              		.cfi_offset 14, -4
 1320 0002 87B0     		sub	sp, sp, #28
 1321              	.LCFI9:
 1322              		.cfi_def_cfa_offset 40
 1323 0004 0446     		mov	r4, r0
 520:HALLIB/STM32F4xx_HAL_Driver/Src/stm32f4xx_ll_sdmmc.c ****   uint32_t errorstate = SDMMC_ERROR_NONE;
 1324              		.loc 1 520 3 is_stmt 1 view .LVU381
 521:HALLIB/STM32F4xx_HAL_Driver/Src/stm32f4xx_ll_sdmmc.c ****   
 1325              		.loc 1 521 3 view .LVU382
 1326              	.LVL101:
 524:HALLIB/STM32F4xx_HAL_Driver/Src/stm32f4xx_ll_sdmmc.c ****   sdmmc_cmdinit.CmdIndex         = SDMMC_CMD_SET_BLOCKLEN;
 1327              		.loc 1 524 3 view .LVU383
 524:HALLIB/STM32F4xx_HAL_Driver/Src/stm32f4xx_ll_sdmmc.c ****   sdmmc_cmdinit.CmdIndex         = SDMMC_CMD_SET_BLOCKLEN;
 1328              		.loc 1 524 34 is_stmt 0 view .LVU384
 1329 0006 0191     		str	r1, [sp, #4]
 525:HALLIB/STM32F4xx_HAL_Driver/Src/stm32f4xx_ll_sdmmc.c ****   sdmmc_cmdinit.Response         = SDIO_RESPONSE_SHORT;
 1330              		.loc 1 525 3 is_stmt 1 view .LVU385
 525:HALLIB/STM32F4xx_HAL_Driver/Src/stm32f4xx_ll_sdmmc.c ****   sdmmc_cmdinit.Response         = SDIO_RESPONSE_SHORT;
 1331              		.loc 1 525 34 is_stmt 0 view .LVU386
 1332 0008 1025     		movs	r5, #16
 1333 000a 0295     		str	r5, [sp, #8]
 526:HALLIB/STM32F4xx_HAL_Driver/Src/stm32f4xx_ll_sdmmc.c ****   sdmmc_cmdinit.WaitForInterrupt = SDIO_WAIT_NO;
 1334              		.loc 1 526 3 is_stmt 1 view .LVU387
 526:HALLIB/STM32F4xx_HAL_Driver/Src/stm32f4xx_ll_sdmmc.c ****   sdmmc_cmdinit.WaitForInterrupt = SDIO_WAIT_NO;
 1335              		.loc 1 526 34 is_stmt 0 view .LVU388
 1336 000c 4023     		movs	r3, #64
 1337 000e 0393     		str	r3, [sp, #12]
 527:HALLIB/STM32F4xx_HAL_Driver/Src/stm32f4xx_ll_sdmmc.c ****   sdmmc_cmdinit.CPSM             = SDIO_CPSM_ENABLE;
 1338              		.loc 1 527 3 is_stmt 1 view .LVU389
 527:HALLIB/STM32F4xx_HAL_Driver/Src/stm32f4xx_ll_sdmmc.c ****   sdmmc_cmdinit.CPSM             = SDIO_CPSM_ENABLE;
ARM GAS  /tmp/cce5sGk9.s 			page 55


 1339              		.loc 1 527 34 is_stmt 0 view .LVU390
 1340 0010 0023     		movs	r3, #0
 1341 0012 0493     		str	r3, [sp, #16]
 528:HALLIB/STM32F4xx_HAL_Driver/Src/stm32f4xx_ll_sdmmc.c ****   SDIO_SendCommand(SDIOx, &sdmmc_cmdinit);
 1342              		.loc 1 528 3 is_stmt 1 view .LVU391
 528:HALLIB/STM32F4xx_HAL_Driver/Src/stm32f4xx_ll_sdmmc.c ****   SDIO_SendCommand(SDIOx, &sdmmc_cmdinit);
 1343              		.loc 1 528 34 is_stmt 0 view .LVU392
 1344 0014 4FF48063 		mov	r3, #1024
 1345 0018 0593     		str	r3, [sp, #20]
 529:HALLIB/STM32F4xx_HAL_Driver/Src/stm32f4xx_ll_sdmmc.c ****   
 1346              		.loc 1 529 3 is_stmt 1 view .LVU393
 1347 001a 01A9     		add	r1, sp, #4
 1348              	.LVL102:
 529:HALLIB/STM32F4xx_HAL_Driver/Src/stm32f4xx_ll_sdmmc.c ****   
 1349              		.loc 1 529 3 is_stmt 0 view .LVU394
 1350 001c FFF7FEFF 		bl	SDIO_SendCommand
 1351              	.LVL103:
 532:HALLIB/STM32F4xx_HAL_Driver/Src/stm32f4xx_ll_sdmmc.c **** 
 1352              		.loc 1 532 3 is_stmt 1 view .LVU395
 532:HALLIB/STM32F4xx_HAL_Driver/Src/stm32f4xx_ll_sdmmc.c **** 
 1353              		.loc 1 532 16 is_stmt 0 view .LVU396
 1354 0020 41F28832 		movw	r2, #5000
 1355 0024 2946     		mov	r1, r5
 1356 0026 2046     		mov	r0, r4
 1357 0028 FFF7FEFF 		bl	SDMMC_GetCmdResp1
 1358              	.LVL104:
 534:HALLIB/STM32F4xx_HAL_Driver/Src/stm32f4xx_ll_sdmmc.c **** }
 1359              		.loc 1 534 3 is_stmt 1 view .LVU397
 535:HALLIB/STM32F4xx_HAL_Driver/Src/stm32f4xx_ll_sdmmc.c **** 
 1360              		.loc 1 535 1 is_stmt 0 view .LVU398
 1361 002c 07B0     		add	sp, sp, #28
 1362              	.LCFI10:
 1363              		.cfi_def_cfa_offset 12
 1364              		@ sp needed
 1365 002e 30BD     		pop	{r4, r5, pc}
 535:HALLIB/STM32F4xx_HAL_Driver/Src/stm32f4xx_ll_sdmmc.c **** 
 1366              		.loc 1 535 1 view .LVU399
 1367              		.cfi_endproc
 1368              	.LFE145:
 1370              		.section	.text.SDMMC_CmdReadSingleBlock,"ax",%progbits
 1371              		.align	1
 1372              		.global	SDMMC_CmdReadSingleBlock
 1373              		.syntax unified
 1374              		.thumb
 1375              		.thumb_func
 1376              		.fpu fpv4-sp-d16
 1378              	SDMMC_CmdReadSingleBlock:
 1379              	.LVL105:
 1380              	.LFB146:
 543:HALLIB/STM32F4xx_HAL_Driver/Src/stm32f4xx_ll_sdmmc.c ****   SDIO_CmdInitTypeDef  sdmmc_cmdinit;
 1381              		.loc 1 543 1 is_stmt 1 view -0
 1382              		.cfi_startproc
 1383              		@ args = 0, pretend = 0, frame = 24
 1384              		@ frame_needed = 0, uses_anonymous_args = 0
 543:HALLIB/STM32F4xx_HAL_Driver/Src/stm32f4xx_ll_sdmmc.c ****   SDIO_CmdInitTypeDef  sdmmc_cmdinit;
 1385              		.loc 1 543 1 is_stmt 0 view .LVU401
 1386 0000 30B5     		push	{r4, r5, lr}
ARM GAS  /tmp/cce5sGk9.s 			page 56


 1387              	.LCFI11:
 1388              		.cfi_def_cfa_offset 12
 1389              		.cfi_offset 4, -12
 1390              		.cfi_offset 5, -8
 1391              		.cfi_offset 14, -4
 1392 0002 87B0     		sub	sp, sp, #28
 1393              	.LCFI12:
 1394              		.cfi_def_cfa_offset 40
 1395 0004 0446     		mov	r4, r0
 544:HALLIB/STM32F4xx_HAL_Driver/Src/stm32f4xx_ll_sdmmc.c ****   uint32_t errorstate = SDMMC_ERROR_NONE;
 1396              		.loc 1 544 3 is_stmt 1 view .LVU402
 545:HALLIB/STM32F4xx_HAL_Driver/Src/stm32f4xx_ll_sdmmc.c ****   
 1397              		.loc 1 545 3 view .LVU403
 1398              	.LVL106:
 548:HALLIB/STM32F4xx_HAL_Driver/Src/stm32f4xx_ll_sdmmc.c ****   sdmmc_cmdinit.CmdIndex         = SDMMC_CMD_READ_SINGLE_BLOCK;
 1399              		.loc 1 548 3 view .LVU404
 548:HALLIB/STM32F4xx_HAL_Driver/Src/stm32f4xx_ll_sdmmc.c ****   sdmmc_cmdinit.CmdIndex         = SDMMC_CMD_READ_SINGLE_BLOCK;
 1400              		.loc 1 548 34 is_stmt 0 view .LVU405
 1401 0006 0191     		str	r1, [sp, #4]
 549:HALLIB/STM32F4xx_HAL_Driver/Src/stm32f4xx_ll_sdmmc.c ****   sdmmc_cmdinit.Response         = SDIO_RESPONSE_SHORT;
 1402              		.loc 1 549 3 is_stmt 1 view .LVU406
 549:HALLIB/STM32F4xx_HAL_Driver/Src/stm32f4xx_ll_sdmmc.c ****   sdmmc_cmdinit.Response         = SDIO_RESPONSE_SHORT;
 1403              		.loc 1 549 34 is_stmt 0 view .LVU407
 1404 0008 1125     		movs	r5, #17
 1405 000a 0295     		str	r5, [sp, #8]
 550:HALLIB/STM32F4xx_HAL_Driver/Src/stm32f4xx_ll_sdmmc.c ****   sdmmc_cmdinit.WaitForInterrupt = SDIO_WAIT_NO;
 1406              		.loc 1 550 3 is_stmt 1 view .LVU408
 550:HALLIB/STM32F4xx_HAL_Driver/Src/stm32f4xx_ll_sdmmc.c ****   sdmmc_cmdinit.WaitForInterrupt = SDIO_WAIT_NO;
 1407              		.loc 1 550 34 is_stmt 0 view .LVU409
 1408 000c 4023     		movs	r3, #64
 1409 000e 0393     		str	r3, [sp, #12]
 551:HALLIB/STM32F4xx_HAL_Driver/Src/stm32f4xx_ll_sdmmc.c ****   sdmmc_cmdinit.CPSM             = SDIO_CPSM_ENABLE;
 1410              		.loc 1 551 3 is_stmt 1 view .LVU410
 551:HALLIB/STM32F4xx_HAL_Driver/Src/stm32f4xx_ll_sdmmc.c ****   sdmmc_cmdinit.CPSM             = SDIO_CPSM_ENABLE;
 1411              		.loc 1 551 34 is_stmt 0 view .LVU411
 1412 0010 0023     		movs	r3, #0
 1413 0012 0493     		str	r3, [sp, #16]
 552:HALLIB/STM32F4xx_HAL_Driver/Src/stm32f4xx_ll_sdmmc.c ****   SDIO_SendCommand(SDIOx, &sdmmc_cmdinit);
 1414              		.loc 1 552 3 is_stmt 1 view .LVU412
 552:HALLIB/STM32F4xx_HAL_Driver/Src/stm32f4xx_ll_sdmmc.c ****   SDIO_SendCommand(SDIOx, &sdmmc_cmdinit);
 1415              		.loc 1 552 34 is_stmt 0 view .LVU413
 1416 0014 4FF48063 		mov	r3, #1024
 1417 0018 0593     		str	r3, [sp, #20]
 553:HALLIB/STM32F4xx_HAL_Driver/Src/stm32f4xx_ll_sdmmc.c ****   
 1418              		.loc 1 553 3 is_stmt 1 view .LVU414
 1419 001a 01A9     		add	r1, sp, #4
 1420              	.LVL107:
 553:HALLIB/STM32F4xx_HAL_Driver/Src/stm32f4xx_ll_sdmmc.c ****   
 1421              		.loc 1 553 3 is_stmt 0 view .LVU415
 1422 001c FFF7FEFF 		bl	SDIO_SendCommand
 1423              	.LVL108:
 556:HALLIB/STM32F4xx_HAL_Driver/Src/stm32f4xx_ll_sdmmc.c **** 
 1424              		.loc 1 556 3 is_stmt 1 view .LVU416
 556:HALLIB/STM32F4xx_HAL_Driver/Src/stm32f4xx_ll_sdmmc.c **** 
 1425              		.loc 1 556 16 is_stmt 0 view .LVU417
 1426 0020 41F28832 		movw	r2, #5000
 1427 0024 2946     		mov	r1, r5
ARM GAS  /tmp/cce5sGk9.s 			page 57


 1428 0026 2046     		mov	r0, r4
 1429 0028 FFF7FEFF 		bl	SDMMC_GetCmdResp1
 1430              	.LVL109:
 558:HALLIB/STM32F4xx_HAL_Driver/Src/stm32f4xx_ll_sdmmc.c **** }
 1431              		.loc 1 558 3 is_stmt 1 view .LVU418
 559:HALLIB/STM32F4xx_HAL_Driver/Src/stm32f4xx_ll_sdmmc.c **** 
 1432              		.loc 1 559 1 is_stmt 0 view .LVU419
 1433 002c 07B0     		add	sp, sp, #28
 1434              	.LCFI13:
 1435              		.cfi_def_cfa_offset 12
 1436              		@ sp needed
 1437 002e 30BD     		pop	{r4, r5, pc}
 559:HALLIB/STM32F4xx_HAL_Driver/Src/stm32f4xx_ll_sdmmc.c **** 
 1438              		.loc 1 559 1 view .LVU420
 1439              		.cfi_endproc
 1440              	.LFE146:
 1442              		.section	.text.SDMMC_CmdReadMultiBlock,"ax",%progbits
 1443              		.align	1
 1444              		.global	SDMMC_CmdReadMultiBlock
 1445              		.syntax unified
 1446              		.thumb
 1447              		.thumb_func
 1448              		.fpu fpv4-sp-d16
 1450              	SDMMC_CmdReadMultiBlock:
 1451              	.LVL110:
 1452              	.LFB147:
 567:HALLIB/STM32F4xx_HAL_Driver/Src/stm32f4xx_ll_sdmmc.c ****   SDIO_CmdInitTypeDef  sdmmc_cmdinit;
 1453              		.loc 1 567 1 is_stmt 1 view -0
 1454              		.cfi_startproc
 1455              		@ args = 0, pretend = 0, frame = 24
 1456              		@ frame_needed = 0, uses_anonymous_args = 0
 567:HALLIB/STM32F4xx_HAL_Driver/Src/stm32f4xx_ll_sdmmc.c ****   SDIO_CmdInitTypeDef  sdmmc_cmdinit;
 1457              		.loc 1 567 1 is_stmt 0 view .LVU422
 1458 0000 30B5     		push	{r4, r5, lr}
 1459              	.LCFI14:
 1460              		.cfi_def_cfa_offset 12
 1461              		.cfi_offset 4, -12
 1462              		.cfi_offset 5, -8
 1463              		.cfi_offset 14, -4
 1464 0002 87B0     		sub	sp, sp, #28
 1465              	.LCFI15:
 1466              		.cfi_def_cfa_offset 40
 1467 0004 0446     		mov	r4, r0
 568:HALLIB/STM32F4xx_HAL_Driver/Src/stm32f4xx_ll_sdmmc.c ****   uint32_t errorstate = SDMMC_ERROR_NONE;
 1468              		.loc 1 568 3 is_stmt 1 view .LVU423
 569:HALLIB/STM32F4xx_HAL_Driver/Src/stm32f4xx_ll_sdmmc.c ****   
 1469              		.loc 1 569 3 view .LVU424
 1470              	.LVL111:
 572:HALLIB/STM32F4xx_HAL_Driver/Src/stm32f4xx_ll_sdmmc.c ****   sdmmc_cmdinit.CmdIndex         = SDMMC_CMD_READ_MULT_BLOCK;
 1471              		.loc 1 572 3 view .LVU425
 572:HALLIB/STM32F4xx_HAL_Driver/Src/stm32f4xx_ll_sdmmc.c ****   sdmmc_cmdinit.CmdIndex         = SDMMC_CMD_READ_MULT_BLOCK;
 1472              		.loc 1 572 34 is_stmt 0 view .LVU426
 1473 0006 0191     		str	r1, [sp, #4]
 573:HALLIB/STM32F4xx_HAL_Driver/Src/stm32f4xx_ll_sdmmc.c ****   sdmmc_cmdinit.Response         = SDIO_RESPONSE_SHORT;
 1474              		.loc 1 573 3 is_stmt 1 view .LVU427
 573:HALLIB/STM32F4xx_HAL_Driver/Src/stm32f4xx_ll_sdmmc.c ****   sdmmc_cmdinit.Response         = SDIO_RESPONSE_SHORT;
 1475              		.loc 1 573 34 is_stmt 0 view .LVU428
ARM GAS  /tmp/cce5sGk9.s 			page 58


 1476 0008 1225     		movs	r5, #18
 1477 000a 0295     		str	r5, [sp, #8]
 574:HALLIB/STM32F4xx_HAL_Driver/Src/stm32f4xx_ll_sdmmc.c ****   sdmmc_cmdinit.WaitForInterrupt = SDIO_WAIT_NO;
 1478              		.loc 1 574 3 is_stmt 1 view .LVU429
 574:HALLIB/STM32F4xx_HAL_Driver/Src/stm32f4xx_ll_sdmmc.c ****   sdmmc_cmdinit.WaitForInterrupt = SDIO_WAIT_NO;
 1479              		.loc 1 574 34 is_stmt 0 view .LVU430
 1480 000c 4023     		movs	r3, #64
 1481 000e 0393     		str	r3, [sp, #12]
 575:HALLIB/STM32F4xx_HAL_Driver/Src/stm32f4xx_ll_sdmmc.c ****   sdmmc_cmdinit.CPSM             = SDIO_CPSM_ENABLE;
 1482              		.loc 1 575 3 is_stmt 1 view .LVU431
 575:HALLIB/STM32F4xx_HAL_Driver/Src/stm32f4xx_ll_sdmmc.c ****   sdmmc_cmdinit.CPSM             = SDIO_CPSM_ENABLE;
 1483              		.loc 1 575 34 is_stmt 0 view .LVU432
 1484 0010 0023     		movs	r3, #0
 1485 0012 0493     		str	r3, [sp, #16]
 576:HALLIB/STM32F4xx_HAL_Driver/Src/stm32f4xx_ll_sdmmc.c ****   SDIO_SendCommand(SDIOx, &sdmmc_cmdinit);
 1486              		.loc 1 576 3 is_stmt 1 view .LVU433
 576:HALLIB/STM32F4xx_HAL_Driver/Src/stm32f4xx_ll_sdmmc.c ****   SDIO_SendCommand(SDIOx, &sdmmc_cmdinit);
 1487              		.loc 1 576 34 is_stmt 0 view .LVU434
 1488 0014 4FF48063 		mov	r3, #1024
 1489 0018 0593     		str	r3, [sp, #20]
 577:HALLIB/STM32F4xx_HAL_Driver/Src/stm32f4xx_ll_sdmmc.c ****   
 1490              		.loc 1 577 3 is_stmt 1 view .LVU435
 1491 001a 01A9     		add	r1, sp, #4
 1492              	.LVL112:
 577:HALLIB/STM32F4xx_HAL_Driver/Src/stm32f4xx_ll_sdmmc.c ****   
 1493              		.loc 1 577 3 is_stmt 0 view .LVU436
 1494 001c FFF7FEFF 		bl	SDIO_SendCommand
 1495              	.LVL113:
 580:HALLIB/STM32F4xx_HAL_Driver/Src/stm32f4xx_ll_sdmmc.c **** 
 1496              		.loc 1 580 3 is_stmt 1 view .LVU437
 580:HALLIB/STM32F4xx_HAL_Driver/Src/stm32f4xx_ll_sdmmc.c **** 
 1497              		.loc 1 580 16 is_stmt 0 view .LVU438
 1498 0020 41F28832 		movw	r2, #5000
 1499 0024 2946     		mov	r1, r5
 1500 0026 2046     		mov	r0, r4
 1501 0028 FFF7FEFF 		bl	SDMMC_GetCmdResp1
 1502              	.LVL114:
 582:HALLIB/STM32F4xx_HAL_Driver/Src/stm32f4xx_ll_sdmmc.c **** }
 1503              		.loc 1 582 3 is_stmt 1 view .LVU439
 583:HALLIB/STM32F4xx_HAL_Driver/Src/stm32f4xx_ll_sdmmc.c **** 
 1504              		.loc 1 583 1 is_stmt 0 view .LVU440
 1505 002c 07B0     		add	sp, sp, #28
 1506              	.LCFI16:
 1507              		.cfi_def_cfa_offset 12
 1508              		@ sp needed
 1509 002e 30BD     		pop	{r4, r5, pc}
 583:HALLIB/STM32F4xx_HAL_Driver/Src/stm32f4xx_ll_sdmmc.c **** 
 1510              		.loc 1 583 1 view .LVU441
 1511              		.cfi_endproc
 1512              	.LFE147:
 1514              		.section	.text.SDMMC_CmdWriteSingleBlock,"ax",%progbits
 1515              		.align	1
 1516              		.global	SDMMC_CmdWriteSingleBlock
 1517              		.syntax unified
 1518              		.thumb
 1519              		.thumb_func
 1520              		.fpu fpv4-sp-d16
ARM GAS  /tmp/cce5sGk9.s 			page 59


 1522              	SDMMC_CmdWriteSingleBlock:
 1523              	.LVL115:
 1524              	.LFB148:
 591:HALLIB/STM32F4xx_HAL_Driver/Src/stm32f4xx_ll_sdmmc.c ****   SDIO_CmdInitTypeDef  sdmmc_cmdinit;
 1525              		.loc 1 591 1 is_stmt 1 view -0
 1526              		.cfi_startproc
 1527              		@ args = 0, pretend = 0, frame = 24
 1528              		@ frame_needed = 0, uses_anonymous_args = 0
 591:HALLIB/STM32F4xx_HAL_Driver/Src/stm32f4xx_ll_sdmmc.c ****   SDIO_CmdInitTypeDef  sdmmc_cmdinit;
 1529              		.loc 1 591 1 is_stmt 0 view .LVU443
 1530 0000 30B5     		push	{r4, r5, lr}
 1531              	.LCFI17:
 1532              		.cfi_def_cfa_offset 12
 1533              		.cfi_offset 4, -12
 1534              		.cfi_offset 5, -8
 1535              		.cfi_offset 14, -4
 1536 0002 87B0     		sub	sp, sp, #28
 1537              	.LCFI18:
 1538              		.cfi_def_cfa_offset 40
 1539 0004 0446     		mov	r4, r0
 592:HALLIB/STM32F4xx_HAL_Driver/Src/stm32f4xx_ll_sdmmc.c ****   uint32_t errorstate = SDMMC_ERROR_NONE;
 1540              		.loc 1 592 3 is_stmt 1 view .LVU444
 593:HALLIB/STM32F4xx_HAL_Driver/Src/stm32f4xx_ll_sdmmc.c ****   
 1541              		.loc 1 593 3 view .LVU445
 1542              	.LVL116:
 596:HALLIB/STM32F4xx_HAL_Driver/Src/stm32f4xx_ll_sdmmc.c ****   sdmmc_cmdinit.CmdIndex         = SDMMC_CMD_WRITE_SINGLE_BLOCK;
 1543              		.loc 1 596 3 view .LVU446
 596:HALLIB/STM32F4xx_HAL_Driver/Src/stm32f4xx_ll_sdmmc.c ****   sdmmc_cmdinit.CmdIndex         = SDMMC_CMD_WRITE_SINGLE_BLOCK;
 1544              		.loc 1 596 34 is_stmt 0 view .LVU447
 1545 0006 0191     		str	r1, [sp, #4]
 597:HALLIB/STM32F4xx_HAL_Driver/Src/stm32f4xx_ll_sdmmc.c ****   sdmmc_cmdinit.Response         = SDIO_RESPONSE_SHORT;
 1546              		.loc 1 597 3 is_stmt 1 view .LVU448
 597:HALLIB/STM32F4xx_HAL_Driver/Src/stm32f4xx_ll_sdmmc.c ****   sdmmc_cmdinit.Response         = SDIO_RESPONSE_SHORT;
 1547              		.loc 1 597 34 is_stmt 0 view .LVU449
 1548 0008 1825     		movs	r5, #24
 1549 000a 0295     		str	r5, [sp, #8]
 598:HALLIB/STM32F4xx_HAL_Driver/Src/stm32f4xx_ll_sdmmc.c ****   sdmmc_cmdinit.WaitForInterrupt = SDIO_WAIT_NO;
 1550              		.loc 1 598 3 is_stmt 1 view .LVU450
 598:HALLIB/STM32F4xx_HAL_Driver/Src/stm32f4xx_ll_sdmmc.c ****   sdmmc_cmdinit.WaitForInterrupt = SDIO_WAIT_NO;
 1551              		.loc 1 598 34 is_stmt 0 view .LVU451
 1552 000c 4023     		movs	r3, #64
 1553 000e 0393     		str	r3, [sp, #12]
 599:HALLIB/STM32F4xx_HAL_Driver/Src/stm32f4xx_ll_sdmmc.c ****   sdmmc_cmdinit.CPSM             = SDIO_CPSM_ENABLE;
 1554              		.loc 1 599 3 is_stmt 1 view .LVU452
 599:HALLIB/STM32F4xx_HAL_Driver/Src/stm32f4xx_ll_sdmmc.c ****   sdmmc_cmdinit.CPSM             = SDIO_CPSM_ENABLE;
 1555              		.loc 1 599 34 is_stmt 0 view .LVU453
 1556 0010 0023     		movs	r3, #0
 1557 0012 0493     		str	r3, [sp, #16]
 600:HALLIB/STM32F4xx_HAL_Driver/Src/stm32f4xx_ll_sdmmc.c ****   SDIO_SendCommand(SDIOx, &sdmmc_cmdinit);
 1558              		.loc 1 600 3 is_stmt 1 view .LVU454
 600:HALLIB/STM32F4xx_HAL_Driver/Src/stm32f4xx_ll_sdmmc.c ****   SDIO_SendCommand(SDIOx, &sdmmc_cmdinit);
 1559              		.loc 1 600 34 is_stmt 0 view .LVU455
 1560 0014 4FF48063 		mov	r3, #1024
 1561 0018 0593     		str	r3, [sp, #20]
 601:HALLIB/STM32F4xx_HAL_Driver/Src/stm32f4xx_ll_sdmmc.c ****   
 1562              		.loc 1 601 3 is_stmt 1 view .LVU456
 1563 001a 01A9     		add	r1, sp, #4
ARM GAS  /tmp/cce5sGk9.s 			page 60


 1564              	.LVL117:
 601:HALLIB/STM32F4xx_HAL_Driver/Src/stm32f4xx_ll_sdmmc.c ****   
 1565              		.loc 1 601 3 is_stmt 0 view .LVU457
 1566 001c FFF7FEFF 		bl	SDIO_SendCommand
 1567              	.LVL118:
 604:HALLIB/STM32F4xx_HAL_Driver/Src/stm32f4xx_ll_sdmmc.c **** 
 1568              		.loc 1 604 3 is_stmt 1 view .LVU458
 604:HALLIB/STM32F4xx_HAL_Driver/Src/stm32f4xx_ll_sdmmc.c **** 
 1569              		.loc 1 604 16 is_stmt 0 view .LVU459
 1570 0020 41F28832 		movw	r2, #5000
 1571 0024 2946     		mov	r1, r5
 1572 0026 2046     		mov	r0, r4
 1573 0028 FFF7FEFF 		bl	SDMMC_GetCmdResp1
 1574              	.LVL119:
 606:HALLIB/STM32F4xx_HAL_Driver/Src/stm32f4xx_ll_sdmmc.c **** }
 1575              		.loc 1 606 3 is_stmt 1 view .LVU460
 607:HALLIB/STM32F4xx_HAL_Driver/Src/stm32f4xx_ll_sdmmc.c **** 
 1576              		.loc 1 607 1 is_stmt 0 view .LVU461
 1577 002c 07B0     		add	sp, sp, #28
 1578              	.LCFI19:
 1579              		.cfi_def_cfa_offset 12
 1580              		@ sp needed
 1581 002e 30BD     		pop	{r4, r5, pc}
 607:HALLIB/STM32F4xx_HAL_Driver/Src/stm32f4xx_ll_sdmmc.c **** 
 1582              		.loc 1 607 1 view .LVU462
 1583              		.cfi_endproc
 1584              	.LFE148:
 1586              		.section	.text.SDMMC_CmdWriteMultiBlock,"ax",%progbits
 1587              		.align	1
 1588              		.global	SDMMC_CmdWriteMultiBlock
 1589              		.syntax unified
 1590              		.thumb
 1591              		.thumb_func
 1592              		.fpu fpv4-sp-d16
 1594              	SDMMC_CmdWriteMultiBlock:
 1595              	.LVL120:
 1596              	.LFB149:
 615:HALLIB/STM32F4xx_HAL_Driver/Src/stm32f4xx_ll_sdmmc.c ****   SDIO_CmdInitTypeDef  sdmmc_cmdinit;
 1597              		.loc 1 615 1 is_stmt 1 view -0
 1598              		.cfi_startproc
 1599              		@ args = 0, pretend = 0, frame = 24
 1600              		@ frame_needed = 0, uses_anonymous_args = 0
 615:HALLIB/STM32F4xx_HAL_Driver/Src/stm32f4xx_ll_sdmmc.c ****   SDIO_CmdInitTypeDef  sdmmc_cmdinit;
 1601              		.loc 1 615 1 is_stmt 0 view .LVU464
 1602 0000 30B5     		push	{r4, r5, lr}
 1603              	.LCFI20:
 1604              		.cfi_def_cfa_offset 12
 1605              		.cfi_offset 4, -12
 1606              		.cfi_offset 5, -8
 1607              		.cfi_offset 14, -4
 1608 0002 87B0     		sub	sp, sp, #28
 1609              	.LCFI21:
 1610              		.cfi_def_cfa_offset 40
 1611 0004 0446     		mov	r4, r0
 616:HALLIB/STM32F4xx_HAL_Driver/Src/stm32f4xx_ll_sdmmc.c ****   uint32_t errorstate = SDMMC_ERROR_NONE;
 1612              		.loc 1 616 3 is_stmt 1 view .LVU465
 617:HALLIB/STM32F4xx_HAL_Driver/Src/stm32f4xx_ll_sdmmc.c ****   
ARM GAS  /tmp/cce5sGk9.s 			page 61


 1613              		.loc 1 617 3 view .LVU466
 1614              	.LVL121:
 620:HALLIB/STM32F4xx_HAL_Driver/Src/stm32f4xx_ll_sdmmc.c ****   sdmmc_cmdinit.CmdIndex         = SDMMC_CMD_WRITE_MULT_BLOCK;
 1615              		.loc 1 620 3 view .LVU467
 620:HALLIB/STM32F4xx_HAL_Driver/Src/stm32f4xx_ll_sdmmc.c ****   sdmmc_cmdinit.CmdIndex         = SDMMC_CMD_WRITE_MULT_BLOCK;
 1616              		.loc 1 620 34 is_stmt 0 view .LVU468
 1617 0006 0191     		str	r1, [sp, #4]
 621:HALLIB/STM32F4xx_HAL_Driver/Src/stm32f4xx_ll_sdmmc.c ****   sdmmc_cmdinit.Response         = SDIO_RESPONSE_SHORT;
 1618              		.loc 1 621 3 is_stmt 1 view .LVU469
 621:HALLIB/STM32F4xx_HAL_Driver/Src/stm32f4xx_ll_sdmmc.c ****   sdmmc_cmdinit.Response         = SDIO_RESPONSE_SHORT;
 1619              		.loc 1 621 34 is_stmt 0 view .LVU470
 1620 0008 1925     		movs	r5, #25
 1621 000a 0295     		str	r5, [sp, #8]
 622:HALLIB/STM32F4xx_HAL_Driver/Src/stm32f4xx_ll_sdmmc.c ****   sdmmc_cmdinit.WaitForInterrupt = SDIO_WAIT_NO;
 1622              		.loc 1 622 3 is_stmt 1 view .LVU471
 622:HALLIB/STM32F4xx_HAL_Driver/Src/stm32f4xx_ll_sdmmc.c ****   sdmmc_cmdinit.WaitForInterrupt = SDIO_WAIT_NO;
 1623              		.loc 1 622 34 is_stmt 0 view .LVU472
 1624 000c 4023     		movs	r3, #64
 1625 000e 0393     		str	r3, [sp, #12]
 623:HALLIB/STM32F4xx_HAL_Driver/Src/stm32f4xx_ll_sdmmc.c ****   sdmmc_cmdinit.CPSM             = SDIO_CPSM_ENABLE;
 1626              		.loc 1 623 3 is_stmt 1 view .LVU473
 623:HALLIB/STM32F4xx_HAL_Driver/Src/stm32f4xx_ll_sdmmc.c ****   sdmmc_cmdinit.CPSM             = SDIO_CPSM_ENABLE;
 1627              		.loc 1 623 34 is_stmt 0 view .LVU474
 1628 0010 0023     		movs	r3, #0
 1629 0012 0493     		str	r3, [sp, #16]
 624:HALLIB/STM32F4xx_HAL_Driver/Src/stm32f4xx_ll_sdmmc.c ****   SDIO_SendCommand(SDIOx, &sdmmc_cmdinit);
 1630              		.loc 1 624 3 is_stmt 1 view .LVU475
 624:HALLIB/STM32F4xx_HAL_Driver/Src/stm32f4xx_ll_sdmmc.c ****   SDIO_SendCommand(SDIOx, &sdmmc_cmdinit);
 1631              		.loc 1 624 34 is_stmt 0 view .LVU476
 1632 0014 4FF48063 		mov	r3, #1024
 1633 0018 0593     		str	r3, [sp, #20]
 625:HALLIB/STM32F4xx_HAL_Driver/Src/stm32f4xx_ll_sdmmc.c ****   
 1634              		.loc 1 625 3 is_stmt 1 view .LVU477
 1635 001a 01A9     		add	r1, sp, #4
 1636              	.LVL122:
 625:HALLIB/STM32F4xx_HAL_Driver/Src/stm32f4xx_ll_sdmmc.c ****   
 1637              		.loc 1 625 3 is_stmt 0 view .LVU478
 1638 001c FFF7FEFF 		bl	SDIO_SendCommand
 1639              	.LVL123:
 628:HALLIB/STM32F4xx_HAL_Driver/Src/stm32f4xx_ll_sdmmc.c **** 
 1640              		.loc 1 628 3 is_stmt 1 view .LVU479
 628:HALLIB/STM32F4xx_HAL_Driver/Src/stm32f4xx_ll_sdmmc.c **** 
 1641              		.loc 1 628 16 is_stmt 0 view .LVU480
 1642 0020 41F28832 		movw	r2, #5000
 1643 0024 2946     		mov	r1, r5
 1644 0026 2046     		mov	r0, r4
 1645 0028 FFF7FEFF 		bl	SDMMC_GetCmdResp1
 1646              	.LVL124:
 630:HALLIB/STM32F4xx_HAL_Driver/Src/stm32f4xx_ll_sdmmc.c **** }
 1647              		.loc 1 630 3 is_stmt 1 view .LVU481
 631:HALLIB/STM32F4xx_HAL_Driver/Src/stm32f4xx_ll_sdmmc.c **** 
 1648              		.loc 1 631 1 is_stmt 0 view .LVU482
 1649 002c 07B0     		add	sp, sp, #28
 1650              	.LCFI22:
 1651              		.cfi_def_cfa_offset 12
 1652              		@ sp needed
 1653 002e 30BD     		pop	{r4, r5, pc}
ARM GAS  /tmp/cce5sGk9.s 			page 62


 631:HALLIB/STM32F4xx_HAL_Driver/Src/stm32f4xx_ll_sdmmc.c **** 
 1654              		.loc 1 631 1 view .LVU483
 1655              		.cfi_endproc
 1656              	.LFE149:
 1658              		.section	.text.SDMMC_CmdSDEraseStartAdd,"ax",%progbits
 1659              		.align	1
 1660              		.global	SDMMC_CmdSDEraseStartAdd
 1661              		.syntax unified
 1662              		.thumb
 1663              		.thumb_func
 1664              		.fpu fpv4-sp-d16
 1666              	SDMMC_CmdSDEraseStartAdd:
 1667              	.LVL125:
 1668              	.LFB150:
 639:HALLIB/STM32F4xx_HAL_Driver/Src/stm32f4xx_ll_sdmmc.c ****   SDIO_CmdInitTypeDef  sdmmc_cmdinit;
 1669              		.loc 1 639 1 is_stmt 1 view -0
 1670              		.cfi_startproc
 1671              		@ args = 0, pretend = 0, frame = 24
 1672              		@ frame_needed = 0, uses_anonymous_args = 0
 639:HALLIB/STM32F4xx_HAL_Driver/Src/stm32f4xx_ll_sdmmc.c ****   SDIO_CmdInitTypeDef  sdmmc_cmdinit;
 1673              		.loc 1 639 1 is_stmt 0 view .LVU485
 1674 0000 30B5     		push	{r4, r5, lr}
 1675              	.LCFI23:
 1676              		.cfi_def_cfa_offset 12
 1677              		.cfi_offset 4, -12
 1678              		.cfi_offset 5, -8
 1679              		.cfi_offset 14, -4
 1680 0002 87B0     		sub	sp, sp, #28
 1681              	.LCFI24:
 1682              		.cfi_def_cfa_offset 40
 1683 0004 0446     		mov	r4, r0
 640:HALLIB/STM32F4xx_HAL_Driver/Src/stm32f4xx_ll_sdmmc.c ****   uint32_t errorstate = SDMMC_ERROR_NONE;
 1684              		.loc 1 640 3 is_stmt 1 view .LVU486
 641:HALLIB/STM32F4xx_HAL_Driver/Src/stm32f4xx_ll_sdmmc.c ****   
 1685              		.loc 1 641 3 view .LVU487
 1686              	.LVL126:
 644:HALLIB/STM32F4xx_HAL_Driver/Src/stm32f4xx_ll_sdmmc.c ****   sdmmc_cmdinit.CmdIndex         = SDMMC_CMD_SD_ERASE_GRP_START;
 1687              		.loc 1 644 3 view .LVU488
 644:HALLIB/STM32F4xx_HAL_Driver/Src/stm32f4xx_ll_sdmmc.c ****   sdmmc_cmdinit.CmdIndex         = SDMMC_CMD_SD_ERASE_GRP_START;
 1688              		.loc 1 644 34 is_stmt 0 view .LVU489
 1689 0006 0191     		str	r1, [sp, #4]
 645:HALLIB/STM32F4xx_HAL_Driver/Src/stm32f4xx_ll_sdmmc.c ****   sdmmc_cmdinit.Response         = SDIO_RESPONSE_SHORT;
 1690              		.loc 1 645 3 is_stmt 1 view .LVU490
 645:HALLIB/STM32F4xx_HAL_Driver/Src/stm32f4xx_ll_sdmmc.c ****   sdmmc_cmdinit.Response         = SDIO_RESPONSE_SHORT;
 1691              		.loc 1 645 34 is_stmt 0 view .LVU491
 1692 0008 2025     		movs	r5, #32
 1693 000a 0295     		str	r5, [sp, #8]
 646:HALLIB/STM32F4xx_HAL_Driver/Src/stm32f4xx_ll_sdmmc.c ****   sdmmc_cmdinit.WaitForInterrupt = SDIO_WAIT_NO;
 1694              		.loc 1 646 3 is_stmt 1 view .LVU492
 646:HALLIB/STM32F4xx_HAL_Driver/Src/stm32f4xx_ll_sdmmc.c ****   sdmmc_cmdinit.WaitForInterrupt = SDIO_WAIT_NO;
 1695              		.loc 1 646 34 is_stmt 0 view .LVU493
 1696 000c 4023     		movs	r3, #64
 1697 000e 0393     		str	r3, [sp, #12]
 647:HALLIB/STM32F4xx_HAL_Driver/Src/stm32f4xx_ll_sdmmc.c ****   sdmmc_cmdinit.CPSM             = SDIO_CPSM_ENABLE;
 1698              		.loc 1 647 3 is_stmt 1 view .LVU494
 647:HALLIB/STM32F4xx_HAL_Driver/Src/stm32f4xx_ll_sdmmc.c ****   sdmmc_cmdinit.CPSM             = SDIO_CPSM_ENABLE;
 1699              		.loc 1 647 34 is_stmt 0 view .LVU495
ARM GAS  /tmp/cce5sGk9.s 			page 63


 1700 0010 0023     		movs	r3, #0
 1701 0012 0493     		str	r3, [sp, #16]
 648:HALLIB/STM32F4xx_HAL_Driver/Src/stm32f4xx_ll_sdmmc.c ****   SDIO_SendCommand(SDIOx, &sdmmc_cmdinit);
 1702              		.loc 1 648 3 is_stmt 1 view .LVU496
 648:HALLIB/STM32F4xx_HAL_Driver/Src/stm32f4xx_ll_sdmmc.c ****   SDIO_SendCommand(SDIOx, &sdmmc_cmdinit);
 1703              		.loc 1 648 34 is_stmt 0 view .LVU497
 1704 0014 4FF48063 		mov	r3, #1024
 1705 0018 0593     		str	r3, [sp, #20]
 649:HALLIB/STM32F4xx_HAL_Driver/Src/stm32f4xx_ll_sdmmc.c ****   
 1706              		.loc 1 649 3 is_stmt 1 view .LVU498
 1707 001a 01A9     		add	r1, sp, #4
 1708              	.LVL127:
 649:HALLIB/STM32F4xx_HAL_Driver/Src/stm32f4xx_ll_sdmmc.c ****   
 1709              		.loc 1 649 3 is_stmt 0 view .LVU499
 1710 001c FFF7FEFF 		bl	SDIO_SendCommand
 1711              	.LVL128:
 652:HALLIB/STM32F4xx_HAL_Driver/Src/stm32f4xx_ll_sdmmc.c **** 
 1712              		.loc 1 652 3 is_stmt 1 view .LVU500
 652:HALLIB/STM32F4xx_HAL_Driver/Src/stm32f4xx_ll_sdmmc.c **** 
 1713              		.loc 1 652 16 is_stmt 0 view .LVU501
 1714 0020 41F28832 		movw	r2, #5000
 1715 0024 2946     		mov	r1, r5
 1716 0026 2046     		mov	r0, r4
 1717 0028 FFF7FEFF 		bl	SDMMC_GetCmdResp1
 1718              	.LVL129:
 654:HALLIB/STM32F4xx_HAL_Driver/Src/stm32f4xx_ll_sdmmc.c **** }
 1719              		.loc 1 654 3 is_stmt 1 view .LVU502
 655:HALLIB/STM32F4xx_HAL_Driver/Src/stm32f4xx_ll_sdmmc.c **** 
 1720              		.loc 1 655 1 is_stmt 0 view .LVU503
 1721 002c 07B0     		add	sp, sp, #28
 1722              	.LCFI25:
 1723              		.cfi_def_cfa_offset 12
 1724              		@ sp needed
 1725 002e 30BD     		pop	{r4, r5, pc}
 655:HALLIB/STM32F4xx_HAL_Driver/Src/stm32f4xx_ll_sdmmc.c **** 
 1726              		.loc 1 655 1 view .LVU504
 1727              		.cfi_endproc
 1728              	.LFE150:
 1730              		.section	.text.SDMMC_CmdSDEraseEndAdd,"ax",%progbits
 1731              		.align	1
 1732              		.global	SDMMC_CmdSDEraseEndAdd
 1733              		.syntax unified
 1734              		.thumb
 1735              		.thumb_func
 1736              		.fpu fpv4-sp-d16
 1738              	SDMMC_CmdSDEraseEndAdd:
 1739              	.LVL130:
 1740              	.LFB151:
 663:HALLIB/STM32F4xx_HAL_Driver/Src/stm32f4xx_ll_sdmmc.c ****   SDIO_CmdInitTypeDef  sdmmc_cmdinit;
 1741              		.loc 1 663 1 is_stmt 1 view -0
 1742              		.cfi_startproc
 1743              		@ args = 0, pretend = 0, frame = 24
 1744              		@ frame_needed = 0, uses_anonymous_args = 0
 663:HALLIB/STM32F4xx_HAL_Driver/Src/stm32f4xx_ll_sdmmc.c ****   SDIO_CmdInitTypeDef  sdmmc_cmdinit;
 1745              		.loc 1 663 1 is_stmt 0 view .LVU506
 1746 0000 30B5     		push	{r4, r5, lr}
 1747              	.LCFI26:
ARM GAS  /tmp/cce5sGk9.s 			page 64


 1748              		.cfi_def_cfa_offset 12
 1749              		.cfi_offset 4, -12
 1750              		.cfi_offset 5, -8
 1751              		.cfi_offset 14, -4
 1752 0002 87B0     		sub	sp, sp, #28
 1753              	.LCFI27:
 1754              		.cfi_def_cfa_offset 40
 1755 0004 0446     		mov	r4, r0
 664:HALLIB/STM32F4xx_HAL_Driver/Src/stm32f4xx_ll_sdmmc.c ****   uint32_t errorstate = SDMMC_ERROR_NONE;
 1756              		.loc 1 664 3 is_stmt 1 view .LVU507
 665:HALLIB/STM32F4xx_HAL_Driver/Src/stm32f4xx_ll_sdmmc.c ****   
 1757              		.loc 1 665 3 view .LVU508
 1758              	.LVL131:
 668:HALLIB/STM32F4xx_HAL_Driver/Src/stm32f4xx_ll_sdmmc.c ****   sdmmc_cmdinit.CmdIndex         = SDMMC_CMD_SD_ERASE_GRP_END;
 1759              		.loc 1 668 3 view .LVU509
 668:HALLIB/STM32F4xx_HAL_Driver/Src/stm32f4xx_ll_sdmmc.c ****   sdmmc_cmdinit.CmdIndex         = SDMMC_CMD_SD_ERASE_GRP_END;
 1760              		.loc 1 668 34 is_stmt 0 view .LVU510
 1761 0006 0191     		str	r1, [sp, #4]
 669:HALLIB/STM32F4xx_HAL_Driver/Src/stm32f4xx_ll_sdmmc.c ****   sdmmc_cmdinit.Response         = SDIO_RESPONSE_SHORT;
 1762              		.loc 1 669 3 is_stmt 1 view .LVU511
 669:HALLIB/STM32F4xx_HAL_Driver/Src/stm32f4xx_ll_sdmmc.c ****   sdmmc_cmdinit.Response         = SDIO_RESPONSE_SHORT;
 1763              		.loc 1 669 34 is_stmt 0 view .LVU512
 1764 0008 2125     		movs	r5, #33
 1765 000a 0295     		str	r5, [sp, #8]
 670:HALLIB/STM32F4xx_HAL_Driver/Src/stm32f4xx_ll_sdmmc.c ****   sdmmc_cmdinit.WaitForInterrupt = SDIO_WAIT_NO;
 1766              		.loc 1 670 3 is_stmt 1 view .LVU513
 670:HALLIB/STM32F4xx_HAL_Driver/Src/stm32f4xx_ll_sdmmc.c ****   sdmmc_cmdinit.WaitForInterrupt = SDIO_WAIT_NO;
 1767              		.loc 1 670 34 is_stmt 0 view .LVU514
 1768 000c 4023     		movs	r3, #64
 1769 000e 0393     		str	r3, [sp, #12]
 671:HALLIB/STM32F4xx_HAL_Driver/Src/stm32f4xx_ll_sdmmc.c ****   sdmmc_cmdinit.CPSM             = SDIO_CPSM_ENABLE;
 1770              		.loc 1 671 3 is_stmt 1 view .LVU515
 671:HALLIB/STM32F4xx_HAL_Driver/Src/stm32f4xx_ll_sdmmc.c ****   sdmmc_cmdinit.CPSM             = SDIO_CPSM_ENABLE;
 1771              		.loc 1 671 34 is_stmt 0 view .LVU516
 1772 0010 0023     		movs	r3, #0
 1773 0012 0493     		str	r3, [sp, #16]
 672:HALLIB/STM32F4xx_HAL_Driver/Src/stm32f4xx_ll_sdmmc.c ****   SDIO_SendCommand(SDIOx, &sdmmc_cmdinit);
 1774              		.loc 1 672 3 is_stmt 1 view .LVU517
 672:HALLIB/STM32F4xx_HAL_Driver/Src/stm32f4xx_ll_sdmmc.c ****   SDIO_SendCommand(SDIOx, &sdmmc_cmdinit);
 1775              		.loc 1 672 34 is_stmt 0 view .LVU518
 1776 0014 4FF48063 		mov	r3, #1024
 1777 0018 0593     		str	r3, [sp, #20]
 673:HALLIB/STM32F4xx_HAL_Driver/Src/stm32f4xx_ll_sdmmc.c ****   
 1778              		.loc 1 673 3 is_stmt 1 view .LVU519
 1779 001a 01A9     		add	r1, sp, #4
 1780              	.LVL132:
 673:HALLIB/STM32F4xx_HAL_Driver/Src/stm32f4xx_ll_sdmmc.c ****   
 1781              		.loc 1 673 3 is_stmt 0 view .LVU520
 1782 001c FFF7FEFF 		bl	SDIO_SendCommand
 1783              	.LVL133:
 676:HALLIB/STM32F4xx_HAL_Driver/Src/stm32f4xx_ll_sdmmc.c **** 
 1784              		.loc 1 676 3 is_stmt 1 view .LVU521
 676:HALLIB/STM32F4xx_HAL_Driver/Src/stm32f4xx_ll_sdmmc.c **** 
 1785              		.loc 1 676 16 is_stmt 0 view .LVU522
 1786 0020 41F28832 		movw	r2, #5000
 1787 0024 2946     		mov	r1, r5
 1788 0026 2046     		mov	r0, r4
ARM GAS  /tmp/cce5sGk9.s 			page 65


 1789 0028 FFF7FEFF 		bl	SDMMC_GetCmdResp1
 1790              	.LVL134:
 678:HALLIB/STM32F4xx_HAL_Driver/Src/stm32f4xx_ll_sdmmc.c **** }
 1791              		.loc 1 678 3 is_stmt 1 view .LVU523
 679:HALLIB/STM32F4xx_HAL_Driver/Src/stm32f4xx_ll_sdmmc.c **** 
 1792              		.loc 1 679 1 is_stmt 0 view .LVU524
 1793 002c 07B0     		add	sp, sp, #28
 1794              	.LCFI28:
 1795              		.cfi_def_cfa_offset 12
 1796              		@ sp needed
 1797 002e 30BD     		pop	{r4, r5, pc}
 679:HALLIB/STM32F4xx_HAL_Driver/Src/stm32f4xx_ll_sdmmc.c **** 
 1798              		.loc 1 679 1 view .LVU525
 1799              		.cfi_endproc
 1800              	.LFE151:
 1802              		.section	.text.SDMMC_CmdEraseStartAdd,"ax",%progbits
 1803              		.align	1
 1804              		.global	SDMMC_CmdEraseStartAdd
 1805              		.syntax unified
 1806              		.thumb
 1807              		.thumb_func
 1808              		.fpu fpv4-sp-d16
 1810              	SDMMC_CmdEraseStartAdd:
 1811              	.LVL135:
 1812              	.LFB152:
 687:HALLIB/STM32F4xx_HAL_Driver/Src/stm32f4xx_ll_sdmmc.c ****   SDIO_CmdInitTypeDef  sdmmc_cmdinit;
 1813              		.loc 1 687 1 is_stmt 1 view -0
 1814              		.cfi_startproc
 1815              		@ args = 0, pretend = 0, frame = 24
 1816              		@ frame_needed = 0, uses_anonymous_args = 0
 687:HALLIB/STM32F4xx_HAL_Driver/Src/stm32f4xx_ll_sdmmc.c ****   SDIO_CmdInitTypeDef  sdmmc_cmdinit;
 1817              		.loc 1 687 1 is_stmt 0 view .LVU527
 1818 0000 30B5     		push	{r4, r5, lr}
 1819              	.LCFI29:
 1820              		.cfi_def_cfa_offset 12
 1821              		.cfi_offset 4, -12
 1822              		.cfi_offset 5, -8
 1823              		.cfi_offset 14, -4
 1824 0002 87B0     		sub	sp, sp, #28
 1825              	.LCFI30:
 1826              		.cfi_def_cfa_offset 40
 1827 0004 0446     		mov	r4, r0
 688:HALLIB/STM32F4xx_HAL_Driver/Src/stm32f4xx_ll_sdmmc.c ****   uint32_t errorstate = SDMMC_ERROR_NONE;
 1828              		.loc 1 688 3 is_stmt 1 view .LVU528
 689:HALLIB/STM32F4xx_HAL_Driver/Src/stm32f4xx_ll_sdmmc.c ****   
 1829              		.loc 1 689 3 view .LVU529
 1830              	.LVL136:
 692:HALLIB/STM32F4xx_HAL_Driver/Src/stm32f4xx_ll_sdmmc.c ****   sdmmc_cmdinit.CmdIndex         = SDMMC_CMD_ERASE_GRP_START;
 1831              		.loc 1 692 3 view .LVU530
 692:HALLIB/STM32F4xx_HAL_Driver/Src/stm32f4xx_ll_sdmmc.c ****   sdmmc_cmdinit.CmdIndex         = SDMMC_CMD_ERASE_GRP_START;
 1832              		.loc 1 692 34 is_stmt 0 view .LVU531
 1833 0006 0191     		str	r1, [sp, #4]
 693:HALLIB/STM32F4xx_HAL_Driver/Src/stm32f4xx_ll_sdmmc.c ****   sdmmc_cmdinit.Response         = SDIO_RESPONSE_SHORT;
 1834              		.loc 1 693 3 is_stmt 1 view .LVU532
 693:HALLIB/STM32F4xx_HAL_Driver/Src/stm32f4xx_ll_sdmmc.c ****   sdmmc_cmdinit.Response         = SDIO_RESPONSE_SHORT;
 1835              		.loc 1 693 34 is_stmt 0 view .LVU533
 1836 0008 2325     		movs	r5, #35
ARM GAS  /tmp/cce5sGk9.s 			page 66


 1837 000a 0295     		str	r5, [sp, #8]
 694:HALLIB/STM32F4xx_HAL_Driver/Src/stm32f4xx_ll_sdmmc.c ****   sdmmc_cmdinit.WaitForInterrupt = SDIO_WAIT_NO;
 1838              		.loc 1 694 3 is_stmt 1 view .LVU534
 694:HALLIB/STM32F4xx_HAL_Driver/Src/stm32f4xx_ll_sdmmc.c ****   sdmmc_cmdinit.WaitForInterrupt = SDIO_WAIT_NO;
 1839              		.loc 1 694 34 is_stmt 0 view .LVU535
 1840 000c 4023     		movs	r3, #64
 1841 000e 0393     		str	r3, [sp, #12]
 695:HALLIB/STM32F4xx_HAL_Driver/Src/stm32f4xx_ll_sdmmc.c ****   sdmmc_cmdinit.CPSM             = SDIO_CPSM_ENABLE;
 1842              		.loc 1 695 3 is_stmt 1 view .LVU536
 695:HALLIB/STM32F4xx_HAL_Driver/Src/stm32f4xx_ll_sdmmc.c ****   sdmmc_cmdinit.CPSM             = SDIO_CPSM_ENABLE;
 1843              		.loc 1 695 34 is_stmt 0 view .LVU537
 1844 0010 0023     		movs	r3, #0
 1845 0012 0493     		str	r3, [sp, #16]
 696:HALLIB/STM32F4xx_HAL_Driver/Src/stm32f4xx_ll_sdmmc.c ****   SDIO_SendCommand(SDIOx, &sdmmc_cmdinit);
 1846              		.loc 1 696 3 is_stmt 1 view .LVU538
 696:HALLIB/STM32F4xx_HAL_Driver/Src/stm32f4xx_ll_sdmmc.c ****   SDIO_SendCommand(SDIOx, &sdmmc_cmdinit);
 1847              		.loc 1 696 34 is_stmt 0 view .LVU539
 1848 0014 4FF48063 		mov	r3, #1024
 1849 0018 0593     		str	r3, [sp, #20]
 697:HALLIB/STM32F4xx_HAL_Driver/Src/stm32f4xx_ll_sdmmc.c ****   
 1850              		.loc 1 697 3 is_stmt 1 view .LVU540
 1851 001a 01A9     		add	r1, sp, #4
 1852              	.LVL137:
 697:HALLIB/STM32F4xx_HAL_Driver/Src/stm32f4xx_ll_sdmmc.c ****   
 1853              		.loc 1 697 3 is_stmt 0 view .LVU541
 1854 001c FFF7FEFF 		bl	SDIO_SendCommand
 1855              	.LVL138:
 700:HALLIB/STM32F4xx_HAL_Driver/Src/stm32f4xx_ll_sdmmc.c **** 
 1856              		.loc 1 700 3 is_stmt 1 view .LVU542
 700:HALLIB/STM32F4xx_HAL_Driver/Src/stm32f4xx_ll_sdmmc.c **** 
 1857              		.loc 1 700 16 is_stmt 0 view .LVU543
 1858 0020 41F28832 		movw	r2, #5000
 1859 0024 2946     		mov	r1, r5
 1860 0026 2046     		mov	r0, r4
 1861 0028 FFF7FEFF 		bl	SDMMC_GetCmdResp1
 1862              	.LVL139:
 702:HALLIB/STM32F4xx_HAL_Driver/Src/stm32f4xx_ll_sdmmc.c **** }
 1863              		.loc 1 702 3 is_stmt 1 view .LVU544
 703:HALLIB/STM32F4xx_HAL_Driver/Src/stm32f4xx_ll_sdmmc.c **** 
 1864              		.loc 1 703 1 is_stmt 0 view .LVU545
 1865 002c 07B0     		add	sp, sp, #28
 1866              	.LCFI31:
 1867              		.cfi_def_cfa_offset 12
 1868              		@ sp needed
 1869 002e 30BD     		pop	{r4, r5, pc}
 703:HALLIB/STM32F4xx_HAL_Driver/Src/stm32f4xx_ll_sdmmc.c **** 
 1870              		.loc 1 703 1 view .LVU546
 1871              		.cfi_endproc
 1872              	.LFE152:
 1874              		.section	.text.SDMMC_CmdEraseEndAdd,"ax",%progbits
 1875              		.align	1
 1876              		.global	SDMMC_CmdEraseEndAdd
 1877              		.syntax unified
 1878              		.thumb
 1879              		.thumb_func
 1880              		.fpu fpv4-sp-d16
 1882              	SDMMC_CmdEraseEndAdd:
ARM GAS  /tmp/cce5sGk9.s 			page 67


 1883              	.LVL140:
 1884              	.LFB153:
 711:HALLIB/STM32F4xx_HAL_Driver/Src/stm32f4xx_ll_sdmmc.c ****   SDIO_CmdInitTypeDef  sdmmc_cmdinit;
 1885              		.loc 1 711 1 is_stmt 1 view -0
 1886              		.cfi_startproc
 1887              		@ args = 0, pretend = 0, frame = 24
 1888              		@ frame_needed = 0, uses_anonymous_args = 0
 711:HALLIB/STM32F4xx_HAL_Driver/Src/stm32f4xx_ll_sdmmc.c ****   SDIO_CmdInitTypeDef  sdmmc_cmdinit;
 1889              		.loc 1 711 1 is_stmt 0 view .LVU548
 1890 0000 30B5     		push	{r4, r5, lr}
 1891              	.LCFI32:
 1892              		.cfi_def_cfa_offset 12
 1893              		.cfi_offset 4, -12
 1894              		.cfi_offset 5, -8
 1895              		.cfi_offset 14, -4
 1896 0002 87B0     		sub	sp, sp, #28
 1897              	.LCFI33:
 1898              		.cfi_def_cfa_offset 40
 1899 0004 0446     		mov	r4, r0
 712:HALLIB/STM32F4xx_HAL_Driver/Src/stm32f4xx_ll_sdmmc.c ****   uint32_t errorstate = SDMMC_ERROR_NONE;
 1900              		.loc 1 712 3 is_stmt 1 view .LVU549
 713:HALLIB/STM32F4xx_HAL_Driver/Src/stm32f4xx_ll_sdmmc.c ****   
 1901              		.loc 1 713 3 view .LVU550
 1902              	.LVL141:
 716:HALLIB/STM32F4xx_HAL_Driver/Src/stm32f4xx_ll_sdmmc.c ****   sdmmc_cmdinit.CmdIndex         = SDMMC_CMD_ERASE_GRP_END;
 1903              		.loc 1 716 3 view .LVU551
 716:HALLIB/STM32F4xx_HAL_Driver/Src/stm32f4xx_ll_sdmmc.c ****   sdmmc_cmdinit.CmdIndex         = SDMMC_CMD_ERASE_GRP_END;
 1904              		.loc 1 716 34 is_stmt 0 view .LVU552
 1905 0006 0191     		str	r1, [sp, #4]
 717:HALLIB/STM32F4xx_HAL_Driver/Src/stm32f4xx_ll_sdmmc.c ****   sdmmc_cmdinit.Response         = SDIO_RESPONSE_SHORT;
 1906              		.loc 1 717 3 is_stmt 1 view .LVU553
 717:HALLIB/STM32F4xx_HAL_Driver/Src/stm32f4xx_ll_sdmmc.c ****   sdmmc_cmdinit.Response         = SDIO_RESPONSE_SHORT;
 1907              		.loc 1 717 34 is_stmt 0 view .LVU554
 1908 0008 2425     		movs	r5, #36
 1909 000a 0295     		str	r5, [sp, #8]
 718:HALLIB/STM32F4xx_HAL_Driver/Src/stm32f4xx_ll_sdmmc.c ****   sdmmc_cmdinit.WaitForInterrupt = SDIO_WAIT_NO;
 1910              		.loc 1 718 3 is_stmt 1 view .LVU555
 718:HALLIB/STM32F4xx_HAL_Driver/Src/stm32f4xx_ll_sdmmc.c ****   sdmmc_cmdinit.WaitForInterrupt = SDIO_WAIT_NO;
 1911              		.loc 1 718 34 is_stmt 0 view .LVU556
 1912 000c 4023     		movs	r3, #64
 1913 000e 0393     		str	r3, [sp, #12]
 719:HALLIB/STM32F4xx_HAL_Driver/Src/stm32f4xx_ll_sdmmc.c ****   sdmmc_cmdinit.CPSM             = SDIO_CPSM_ENABLE;
 1914              		.loc 1 719 3 is_stmt 1 view .LVU557
 719:HALLIB/STM32F4xx_HAL_Driver/Src/stm32f4xx_ll_sdmmc.c ****   sdmmc_cmdinit.CPSM             = SDIO_CPSM_ENABLE;
 1915              		.loc 1 719 34 is_stmt 0 view .LVU558
 1916 0010 0023     		movs	r3, #0
 1917 0012 0493     		str	r3, [sp, #16]
 720:HALLIB/STM32F4xx_HAL_Driver/Src/stm32f4xx_ll_sdmmc.c ****   SDIO_SendCommand(SDIOx, &sdmmc_cmdinit);
 1918              		.loc 1 720 3 is_stmt 1 view .LVU559
 720:HALLIB/STM32F4xx_HAL_Driver/Src/stm32f4xx_ll_sdmmc.c ****   SDIO_SendCommand(SDIOx, &sdmmc_cmdinit);
 1919              		.loc 1 720 34 is_stmt 0 view .LVU560
 1920 0014 4FF48063 		mov	r3, #1024
 1921 0018 0593     		str	r3, [sp, #20]
 721:HALLIB/STM32F4xx_HAL_Driver/Src/stm32f4xx_ll_sdmmc.c ****   
 1922              		.loc 1 721 3 is_stmt 1 view .LVU561
 1923 001a 01A9     		add	r1, sp, #4
 1924              	.LVL142:
ARM GAS  /tmp/cce5sGk9.s 			page 68


 721:HALLIB/STM32F4xx_HAL_Driver/Src/stm32f4xx_ll_sdmmc.c ****   
 1925              		.loc 1 721 3 is_stmt 0 view .LVU562
 1926 001c FFF7FEFF 		bl	SDIO_SendCommand
 1927              	.LVL143:
 724:HALLIB/STM32F4xx_HAL_Driver/Src/stm32f4xx_ll_sdmmc.c **** 
 1928              		.loc 1 724 3 is_stmt 1 view .LVU563
 724:HALLIB/STM32F4xx_HAL_Driver/Src/stm32f4xx_ll_sdmmc.c **** 
 1929              		.loc 1 724 16 is_stmt 0 view .LVU564
 1930 0020 41F28832 		movw	r2, #5000
 1931 0024 2946     		mov	r1, r5
 1932 0026 2046     		mov	r0, r4
 1933 0028 FFF7FEFF 		bl	SDMMC_GetCmdResp1
 1934              	.LVL144:
 726:HALLIB/STM32F4xx_HAL_Driver/Src/stm32f4xx_ll_sdmmc.c **** }
 1935              		.loc 1 726 3 is_stmt 1 view .LVU565
 727:HALLIB/STM32F4xx_HAL_Driver/Src/stm32f4xx_ll_sdmmc.c **** 
 1936              		.loc 1 727 1 is_stmt 0 view .LVU566
 1937 002c 07B0     		add	sp, sp, #28
 1938              	.LCFI34:
 1939              		.cfi_def_cfa_offset 12
 1940              		@ sp needed
 1941 002e 30BD     		pop	{r4, r5, pc}
 727:HALLIB/STM32F4xx_HAL_Driver/Src/stm32f4xx_ll_sdmmc.c **** 
 1942              		.loc 1 727 1 view .LVU567
 1943              		.cfi_endproc
 1944              	.LFE153:
 1946              		.section	.text.SDMMC_CmdErase,"ax",%progbits
 1947              		.align	1
 1948              		.global	SDMMC_CmdErase
 1949              		.syntax unified
 1950              		.thumb
 1951              		.thumb_func
 1952              		.fpu fpv4-sp-d16
 1954              	SDMMC_CmdErase:
 1955              	.LVL145:
 1956              	.LFB154:
 735:HALLIB/STM32F4xx_HAL_Driver/Src/stm32f4xx_ll_sdmmc.c ****   SDIO_CmdInitTypeDef  sdmmc_cmdinit;
 1957              		.loc 1 735 1 is_stmt 1 view -0
 1958              		.cfi_startproc
 1959              		@ args = 0, pretend = 0, frame = 24
 1960              		@ frame_needed = 0, uses_anonymous_args = 0
 735:HALLIB/STM32F4xx_HAL_Driver/Src/stm32f4xx_ll_sdmmc.c ****   SDIO_CmdInitTypeDef  sdmmc_cmdinit;
 1961              		.loc 1 735 1 is_stmt 0 view .LVU569
 1962 0000 30B5     		push	{r4, r5, lr}
 1963              	.LCFI35:
 1964              		.cfi_def_cfa_offset 12
 1965              		.cfi_offset 4, -12
 1966              		.cfi_offset 5, -8
 1967              		.cfi_offset 14, -4
 1968 0002 87B0     		sub	sp, sp, #28
 1969              	.LCFI36:
 1970              		.cfi_def_cfa_offset 40
 1971 0004 0446     		mov	r4, r0
 736:HALLIB/STM32F4xx_HAL_Driver/Src/stm32f4xx_ll_sdmmc.c ****   uint32_t errorstate = SDMMC_ERROR_NONE;
 1972              		.loc 1 736 3 is_stmt 1 view .LVU570
 737:HALLIB/STM32F4xx_HAL_Driver/Src/stm32f4xx_ll_sdmmc.c ****   
 1973              		.loc 1 737 3 view .LVU571
ARM GAS  /tmp/cce5sGk9.s 			page 69


 1974              	.LVL146:
 740:HALLIB/STM32F4xx_HAL_Driver/Src/stm32f4xx_ll_sdmmc.c ****   sdmmc_cmdinit.CmdIndex         = SDMMC_CMD_ERASE;
 1975              		.loc 1 740 3 view .LVU572
 740:HALLIB/STM32F4xx_HAL_Driver/Src/stm32f4xx_ll_sdmmc.c ****   sdmmc_cmdinit.CmdIndex         = SDMMC_CMD_ERASE;
 1976              		.loc 1 740 34 is_stmt 0 view .LVU573
 1977 0006 0023     		movs	r3, #0
 1978 0008 0193     		str	r3, [sp, #4]
 741:HALLIB/STM32F4xx_HAL_Driver/Src/stm32f4xx_ll_sdmmc.c ****   sdmmc_cmdinit.Response         = SDIO_RESPONSE_SHORT;
 1979              		.loc 1 741 3 is_stmt 1 view .LVU574
 741:HALLIB/STM32F4xx_HAL_Driver/Src/stm32f4xx_ll_sdmmc.c ****   sdmmc_cmdinit.Response         = SDIO_RESPONSE_SHORT;
 1980              		.loc 1 741 34 is_stmt 0 view .LVU575
 1981 000a 2625     		movs	r5, #38
 1982 000c 0295     		str	r5, [sp, #8]
 742:HALLIB/STM32F4xx_HAL_Driver/Src/stm32f4xx_ll_sdmmc.c ****   sdmmc_cmdinit.WaitForInterrupt = SDIO_WAIT_NO;
 1983              		.loc 1 742 3 is_stmt 1 view .LVU576
 742:HALLIB/STM32F4xx_HAL_Driver/Src/stm32f4xx_ll_sdmmc.c ****   sdmmc_cmdinit.WaitForInterrupt = SDIO_WAIT_NO;
 1984              		.loc 1 742 34 is_stmt 0 view .LVU577
 1985 000e 4022     		movs	r2, #64
 1986 0010 0392     		str	r2, [sp, #12]
 743:HALLIB/STM32F4xx_HAL_Driver/Src/stm32f4xx_ll_sdmmc.c ****   sdmmc_cmdinit.CPSM             = SDIO_CPSM_ENABLE;
 1987              		.loc 1 743 3 is_stmt 1 view .LVU578
 743:HALLIB/STM32F4xx_HAL_Driver/Src/stm32f4xx_ll_sdmmc.c ****   sdmmc_cmdinit.CPSM             = SDIO_CPSM_ENABLE;
 1988              		.loc 1 743 34 is_stmt 0 view .LVU579
 1989 0012 0493     		str	r3, [sp, #16]
 744:HALLIB/STM32F4xx_HAL_Driver/Src/stm32f4xx_ll_sdmmc.c ****   SDIO_SendCommand(SDIOx, &sdmmc_cmdinit);
 1990              		.loc 1 744 3 is_stmt 1 view .LVU580
 744:HALLIB/STM32F4xx_HAL_Driver/Src/stm32f4xx_ll_sdmmc.c ****   SDIO_SendCommand(SDIOx, &sdmmc_cmdinit);
 1991              		.loc 1 744 34 is_stmt 0 view .LVU581
 1992 0014 4FF48063 		mov	r3, #1024
 1993 0018 0593     		str	r3, [sp, #20]
 745:HALLIB/STM32F4xx_HAL_Driver/Src/stm32f4xx_ll_sdmmc.c ****   
 1994              		.loc 1 745 3 is_stmt 1 view .LVU582
 1995 001a 01A9     		add	r1, sp, #4
 1996 001c FFF7FEFF 		bl	SDIO_SendCommand
 1997              	.LVL147:
 748:HALLIB/STM32F4xx_HAL_Driver/Src/stm32f4xx_ll_sdmmc.c **** 
 1998              		.loc 1 748 3 view .LVU583
 748:HALLIB/STM32F4xx_HAL_Driver/Src/stm32f4xx_ll_sdmmc.c **** 
 1999              		.loc 1 748 16 is_stmt 0 view .LVU584
 2000 0020 4FF21862 		movw	r2, #63000
 2001 0024 2946     		mov	r1, r5
 2002 0026 2046     		mov	r0, r4
 2003 0028 FFF7FEFF 		bl	SDMMC_GetCmdResp1
 2004              	.LVL148:
 750:HALLIB/STM32F4xx_HAL_Driver/Src/stm32f4xx_ll_sdmmc.c **** }
 2005              		.loc 1 750 3 is_stmt 1 view .LVU585
 751:HALLIB/STM32F4xx_HAL_Driver/Src/stm32f4xx_ll_sdmmc.c **** 
 2006              		.loc 1 751 1 is_stmt 0 view .LVU586
 2007 002c 07B0     		add	sp, sp, #28
 2008              	.LCFI37:
 2009              		.cfi_def_cfa_offset 12
 2010              		@ sp needed
 2011 002e 30BD     		pop	{r4, r5, pc}
 751:HALLIB/STM32F4xx_HAL_Driver/Src/stm32f4xx_ll_sdmmc.c **** 
 2012              		.loc 1 751 1 view .LVU587
 2013              		.cfi_endproc
 2014              	.LFE154:
ARM GAS  /tmp/cce5sGk9.s 			page 70


 2016              		.section	.text.SDMMC_CmdStopTransfer,"ax",%progbits
 2017              		.align	1
 2018              		.global	SDMMC_CmdStopTransfer
 2019              		.syntax unified
 2020              		.thumb
 2021              		.thumb_func
 2022              		.fpu fpv4-sp-d16
 2024              	SDMMC_CmdStopTransfer:
 2025              	.LVL149:
 2026              	.LFB155:
 759:HALLIB/STM32F4xx_HAL_Driver/Src/stm32f4xx_ll_sdmmc.c ****   SDIO_CmdInitTypeDef  sdmmc_cmdinit;
 2027              		.loc 1 759 1 is_stmt 1 view -0
 2028              		.cfi_startproc
 2029              		@ args = 0, pretend = 0, frame = 24
 2030              		@ frame_needed = 0, uses_anonymous_args = 0
 759:HALLIB/STM32F4xx_HAL_Driver/Src/stm32f4xx_ll_sdmmc.c ****   SDIO_CmdInitTypeDef  sdmmc_cmdinit;
 2031              		.loc 1 759 1 is_stmt 0 view .LVU589
 2032 0000 30B5     		push	{r4, r5, lr}
 2033              	.LCFI38:
 2034              		.cfi_def_cfa_offset 12
 2035              		.cfi_offset 4, -12
 2036              		.cfi_offset 5, -8
 2037              		.cfi_offset 14, -4
 2038 0002 87B0     		sub	sp, sp, #28
 2039              	.LCFI39:
 2040              		.cfi_def_cfa_offset 40
 2041 0004 0446     		mov	r4, r0
 760:HALLIB/STM32F4xx_HAL_Driver/Src/stm32f4xx_ll_sdmmc.c ****   uint32_t errorstate = SDMMC_ERROR_NONE;
 2042              		.loc 1 760 3 is_stmt 1 view .LVU590
 761:HALLIB/STM32F4xx_HAL_Driver/Src/stm32f4xx_ll_sdmmc.c ****   
 2043              		.loc 1 761 3 view .LVU591
 2044              	.LVL150:
 764:HALLIB/STM32F4xx_HAL_Driver/Src/stm32f4xx_ll_sdmmc.c ****   sdmmc_cmdinit.CmdIndex         = SDMMC_CMD_STOP_TRANSMISSION;
 2045              		.loc 1 764 3 view .LVU592
 764:HALLIB/STM32F4xx_HAL_Driver/Src/stm32f4xx_ll_sdmmc.c ****   sdmmc_cmdinit.CmdIndex         = SDMMC_CMD_STOP_TRANSMISSION;
 2046              		.loc 1 764 34 is_stmt 0 view .LVU593
 2047 0006 0023     		movs	r3, #0
 2048 0008 0193     		str	r3, [sp, #4]
 765:HALLIB/STM32F4xx_HAL_Driver/Src/stm32f4xx_ll_sdmmc.c ****   sdmmc_cmdinit.Response         = SDIO_RESPONSE_SHORT;
 2049              		.loc 1 765 3 is_stmt 1 view .LVU594
 765:HALLIB/STM32F4xx_HAL_Driver/Src/stm32f4xx_ll_sdmmc.c ****   sdmmc_cmdinit.Response         = SDIO_RESPONSE_SHORT;
 2050              		.loc 1 765 34 is_stmt 0 view .LVU595
 2051 000a 0C25     		movs	r5, #12
 2052 000c 0295     		str	r5, [sp, #8]
 766:HALLIB/STM32F4xx_HAL_Driver/Src/stm32f4xx_ll_sdmmc.c ****   sdmmc_cmdinit.WaitForInterrupt = SDIO_WAIT_NO;
 2053              		.loc 1 766 3 is_stmt 1 view .LVU596
 766:HALLIB/STM32F4xx_HAL_Driver/Src/stm32f4xx_ll_sdmmc.c ****   sdmmc_cmdinit.WaitForInterrupt = SDIO_WAIT_NO;
 2054              		.loc 1 766 34 is_stmt 0 view .LVU597
 2055 000e 4022     		movs	r2, #64
 2056 0010 0392     		str	r2, [sp, #12]
 767:HALLIB/STM32F4xx_HAL_Driver/Src/stm32f4xx_ll_sdmmc.c ****   sdmmc_cmdinit.CPSM             = SDIO_CPSM_ENABLE;
 2057              		.loc 1 767 3 is_stmt 1 view .LVU598
 767:HALLIB/STM32F4xx_HAL_Driver/Src/stm32f4xx_ll_sdmmc.c ****   sdmmc_cmdinit.CPSM             = SDIO_CPSM_ENABLE;
 2058              		.loc 1 767 34 is_stmt 0 view .LVU599
 2059 0012 0493     		str	r3, [sp, #16]
 768:HALLIB/STM32F4xx_HAL_Driver/Src/stm32f4xx_ll_sdmmc.c ****   SDIO_SendCommand(SDIOx, &sdmmc_cmdinit);
 2060              		.loc 1 768 3 is_stmt 1 view .LVU600
ARM GAS  /tmp/cce5sGk9.s 			page 71


 768:HALLIB/STM32F4xx_HAL_Driver/Src/stm32f4xx_ll_sdmmc.c ****   SDIO_SendCommand(SDIOx, &sdmmc_cmdinit);
 2061              		.loc 1 768 34 is_stmt 0 view .LVU601
 2062 0014 4FF48063 		mov	r3, #1024
 2063 0018 0593     		str	r3, [sp, #20]
 769:HALLIB/STM32F4xx_HAL_Driver/Src/stm32f4xx_ll_sdmmc.c ****   
 2064              		.loc 1 769 3 is_stmt 1 view .LVU602
 2065 001a 01A9     		add	r1, sp, #4
 2066 001c FFF7FEFF 		bl	SDIO_SendCommand
 2067              	.LVL151:
 772:HALLIB/STM32F4xx_HAL_Driver/Src/stm32f4xx_ll_sdmmc.c **** 
 2068              		.loc 1 772 3 view .LVU603
 772:HALLIB/STM32F4xx_HAL_Driver/Src/stm32f4xx_ll_sdmmc.c **** 
 2069              		.loc 1 772 16 is_stmt 0 view .LVU604
 2070 0020 034A     		ldr	r2, .L116
 2071 0022 2946     		mov	r1, r5
 2072 0024 2046     		mov	r0, r4
 2073 0026 FFF7FEFF 		bl	SDMMC_GetCmdResp1
 2074              	.LVL152:
 774:HALLIB/STM32F4xx_HAL_Driver/Src/stm32f4xx_ll_sdmmc.c **** }
 2075              		.loc 1 774 3 is_stmt 1 view .LVU605
 775:HALLIB/STM32F4xx_HAL_Driver/Src/stm32f4xx_ll_sdmmc.c **** 
 2076              		.loc 1 775 1 is_stmt 0 view .LVU606
 2077 002a 07B0     		add	sp, sp, #28
 2078              	.LCFI40:
 2079              		.cfi_def_cfa_offset 12
 2080              		@ sp needed
 2081 002c 30BD     		pop	{r4, r5, pc}
 2082              	.LVL153:
 2083              	.L117:
 775:HALLIB/STM32F4xx_HAL_Driver/Src/stm32f4xx_ll_sdmmc.c **** 
 2084              		.loc 1 775 1 view .LVU607
 2085 002e 00BF     		.align	2
 2086              	.L116:
 2087 0030 00E1F505 		.word	100000000
 2088              		.cfi_endproc
 2089              	.LFE155:
 2091              		.section	.text.SDMMC_CmdSelDesel,"ax",%progbits
 2092              		.align	1
 2093              		.global	SDMMC_CmdSelDesel
 2094              		.syntax unified
 2095              		.thumb
 2096              		.thumb_func
 2097              		.fpu fpv4-sp-d16
 2099              	SDMMC_CmdSelDesel:
 2100              	.LVL154:
 2101              	.LFB156:
 784:HALLIB/STM32F4xx_HAL_Driver/Src/stm32f4xx_ll_sdmmc.c ****   SDIO_CmdInitTypeDef  sdmmc_cmdinit;
 2102              		.loc 1 784 1 is_stmt 1 view -0
 2103              		.cfi_startproc
 2104              		@ args = 0, pretend = 0, frame = 24
 2105              		@ frame_needed = 0, uses_anonymous_args = 0
 784:HALLIB/STM32F4xx_HAL_Driver/Src/stm32f4xx_ll_sdmmc.c ****   SDIO_CmdInitTypeDef  sdmmc_cmdinit;
 2106              		.loc 1 784 1 is_stmt 0 view .LVU609
 2107 0000 30B5     		push	{r4, r5, lr}
 2108              	.LCFI41:
 2109              		.cfi_def_cfa_offset 12
 2110              		.cfi_offset 4, -12
ARM GAS  /tmp/cce5sGk9.s 			page 72


 2111              		.cfi_offset 5, -8
 2112              		.cfi_offset 14, -4
 2113 0002 87B0     		sub	sp, sp, #28
 2114              	.LCFI42:
 2115              		.cfi_def_cfa_offset 40
 2116 0004 0446     		mov	r4, r0
 785:HALLIB/STM32F4xx_HAL_Driver/Src/stm32f4xx_ll_sdmmc.c ****   uint32_t errorstate = SDMMC_ERROR_NONE;
 2117              		.loc 1 785 3 is_stmt 1 view .LVU610
 786:HALLIB/STM32F4xx_HAL_Driver/Src/stm32f4xx_ll_sdmmc.c ****   
 2118              		.loc 1 786 3 view .LVU611
 2119              	.LVL155:
 789:HALLIB/STM32F4xx_HAL_Driver/Src/stm32f4xx_ll_sdmmc.c ****   sdmmc_cmdinit.CmdIndex         = SDMMC_CMD_SEL_DESEL_CARD;
 2120              		.loc 1 789 3 view .LVU612
 789:HALLIB/STM32F4xx_HAL_Driver/Src/stm32f4xx_ll_sdmmc.c ****   sdmmc_cmdinit.CmdIndex         = SDMMC_CMD_SEL_DESEL_CARD;
 2121              		.loc 1 789 34 is_stmt 0 view .LVU613
 2122 0006 0192     		str	r2, [sp, #4]
 790:HALLIB/STM32F4xx_HAL_Driver/Src/stm32f4xx_ll_sdmmc.c ****   sdmmc_cmdinit.Response         = SDIO_RESPONSE_SHORT;
 2123              		.loc 1 790 3 is_stmt 1 view .LVU614
 790:HALLIB/STM32F4xx_HAL_Driver/Src/stm32f4xx_ll_sdmmc.c ****   sdmmc_cmdinit.Response         = SDIO_RESPONSE_SHORT;
 2124              		.loc 1 790 34 is_stmt 0 view .LVU615
 2125 0008 0725     		movs	r5, #7
 2126 000a 0295     		str	r5, [sp, #8]
 791:HALLIB/STM32F4xx_HAL_Driver/Src/stm32f4xx_ll_sdmmc.c ****   sdmmc_cmdinit.WaitForInterrupt = SDIO_WAIT_NO;
 2127              		.loc 1 791 3 is_stmt 1 view .LVU616
 791:HALLIB/STM32F4xx_HAL_Driver/Src/stm32f4xx_ll_sdmmc.c ****   sdmmc_cmdinit.WaitForInterrupt = SDIO_WAIT_NO;
 2128              		.loc 1 791 34 is_stmt 0 view .LVU617
 2129 000c 4023     		movs	r3, #64
 2130 000e 0393     		str	r3, [sp, #12]
 792:HALLIB/STM32F4xx_HAL_Driver/Src/stm32f4xx_ll_sdmmc.c ****   sdmmc_cmdinit.CPSM             = SDIO_CPSM_ENABLE;
 2131              		.loc 1 792 3 is_stmt 1 view .LVU618
 792:HALLIB/STM32F4xx_HAL_Driver/Src/stm32f4xx_ll_sdmmc.c ****   sdmmc_cmdinit.CPSM             = SDIO_CPSM_ENABLE;
 2132              		.loc 1 792 34 is_stmt 0 view .LVU619
 2133 0010 0023     		movs	r3, #0
 2134 0012 0493     		str	r3, [sp, #16]
 793:HALLIB/STM32F4xx_HAL_Driver/Src/stm32f4xx_ll_sdmmc.c ****   SDIO_SendCommand(SDIOx, &sdmmc_cmdinit);
 2135              		.loc 1 793 3 is_stmt 1 view .LVU620
 793:HALLIB/STM32F4xx_HAL_Driver/Src/stm32f4xx_ll_sdmmc.c ****   SDIO_SendCommand(SDIOx, &sdmmc_cmdinit);
 2136              		.loc 1 793 34 is_stmt 0 view .LVU621
 2137 0014 4FF48063 		mov	r3, #1024
 2138 0018 0593     		str	r3, [sp, #20]
 794:HALLIB/STM32F4xx_HAL_Driver/Src/stm32f4xx_ll_sdmmc.c ****   
 2139              		.loc 1 794 3 is_stmt 1 view .LVU622
 2140 001a 01A9     		add	r1, sp, #4
 2141 001c FFF7FEFF 		bl	SDIO_SendCommand
 2142              	.LVL156:
 797:HALLIB/STM32F4xx_HAL_Driver/Src/stm32f4xx_ll_sdmmc.c **** 
 2143              		.loc 1 797 3 view .LVU623
 797:HALLIB/STM32F4xx_HAL_Driver/Src/stm32f4xx_ll_sdmmc.c **** 
 2144              		.loc 1 797 16 is_stmt 0 view .LVU624
 2145 0020 41F28832 		movw	r2, #5000
 2146 0024 2946     		mov	r1, r5
 2147 0026 2046     		mov	r0, r4
 2148 0028 FFF7FEFF 		bl	SDMMC_GetCmdResp1
 2149              	.LVL157:
 799:HALLIB/STM32F4xx_HAL_Driver/Src/stm32f4xx_ll_sdmmc.c **** }
 2150              		.loc 1 799 3 is_stmt 1 view .LVU625
 800:HALLIB/STM32F4xx_HAL_Driver/Src/stm32f4xx_ll_sdmmc.c **** 
ARM GAS  /tmp/cce5sGk9.s 			page 73


 2151              		.loc 1 800 1 is_stmt 0 view .LVU626
 2152 002c 07B0     		add	sp, sp, #28
 2153              	.LCFI43:
 2154              		.cfi_def_cfa_offset 12
 2155              		@ sp needed
 2156 002e 30BD     		pop	{r4, r5, pc}
 800:HALLIB/STM32F4xx_HAL_Driver/Src/stm32f4xx_ll_sdmmc.c **** 
 2157              		.loc 1 800 1 view .LVU627
 2158              		.cfi_endproc
 2159              	.LFE156:
 2161              		.section	.text.SDMMC_CmdGoIdleState,"ax",%progbits
 2162              		.align	1
 2163              		.global	SDMMC_CmdGoIdleState
 2164              		.syntax unified
 2165              		.thumb
 2166              		.thumb_func
 2167              		.fpu fpv4-sp-d16
 2169              	SDMMC_CmdGoIdleState:
 2170              	.LVL158:
 2171              	.LFB157:
 808:HALLIB/STM32F4xx_HAL_Driver/Src/stm32f4xx_ll_sdmmc.c ****   SDIO_CmdInitTypeDef  sdmmc_cmdinit;
 2172              		.loc 1 808 1 is_stmt 1 view -0
 2173              		.cfi_startproc
 2174              		@ args = 0, pretend = 0, frame = 24
 2175              		@ frame_needed = 0, uses_anonymous_args = 0
 808:HALLIB/STM32F4xx_HAL_Driver/Src/stm32f4xx_ll_sdmmc.c ****   SDIO_CmdInitTypeDef  sdmmc_cmdinit;
 2176              		.loc 1 808 1 is_stmt 0 view .LVU629
 2177 0000 10B5     		push	{r4, lr}
 2178              	.LCFI44:
 2179              		.cfi_def_cfa_offset 8
 2180              		.cfi_offset 4, -8
 2181              		.cfi_offset 14, -4
 2182 0002 86B0     		sub	sp, sp, #24
 2183              	.LCFI45:
 2184              		.cfi_def_cfa_offset 32
 2185 0004 0446     		mov	r4, r0
 809:HALLIB/STM32F4xx_HAL_Driver/Src/stm32f4xx_ll_sdmmc.c ****   uint32_t errorstate = SDMMC_ERROR_NONE;
 2186              		.loc 1 809 3 is_stmt 1 view .LVU630
 810:HALLIB/STM32F4xx_HAL_Driver/Src/stm32f4xx_ll_sdmmc.c ****   
 2187              		.loc 1 810 3 view .LVU631
 2188              	.LVL159:
 812:HALLIB/STM32F4xx_HAL_Driver/Src/stm32f4xx_ll_sdmmc.c ****   sdmmc_cmdinit.CmdIndex         = SDMMC_CMD_GO_IDLE_STATE;
 2189              		.loc 1 812 3 view .LVU632
 812:HALLIB/STM32F4xx_HAL_Driver/Src/stm32f4xx_ll_sdmmc.c ****   sdmmc_cmdinit.CmdIndex         = SDMMC_CMD_GO_IDLE_STATE;
 2190              		.loc 1 812 34 is_stmt 0 view .LVU633
 2191 0006 0023     		movs	r3, #0
 2192 0008 0193     		str	r3, [sp, #4]
 813:HALLIB/STM32F4xx_HAL_Driver/Src/stm32f4xx_ll_sdmmc.c ****   sdmmc_cmdinit.Response         = SDIO_RESPONSE_NO;
 2193              		.loc 1 813 3 is_stmt 1 view .LVU634
 813:HALLIB/STM32F4xx_HAL_Driver/Src/stm32f4xx_ll_sdmmc.c ****   sdmmc_cmdinit.Response         = SDIO_RESPONSE_NO;
 2194              		.loc 1 813 34 is_stmt 0 view .LVU635
 2195 000a 0293     		str	r3, [sp, #8]
 814:HALLIB/STM32F4xx_HAL_Driver/Src/stm32f4xx_ll_sdmmc.c ****   sdmmc_cmdinit.WaitForInterrupt = SDIO_WAIT_NO;
 2196              		.loc 1 814 3 is_stmt 1 view .LVU636
 814:HALLIB/STM32F4xx_HAL_Driver/Src/stm32f4xx_ll_sdmmc.c ****   sdmmc_cmdinit.WaitForInterrupt = SDIO_WAIT_NO;
 2197              		.loc 1 814 34 is_stmt 0 view .LVU637
 2198 000c 0393     		str	r3, [sp, #12]
ARM GAS  /tmp/cce5sGk9.s 			page 74


 815:HALLIB/STM32F4xx_HAL_Driver/Src/stm32f4xx_ll_sdmmc.c ****   sdmmc_cmdinit.CPSM             = SDIO_CPSM_ENABLE;
 2199              		.loc 1 815 3 is_stmt 1 view .LVU638
 815:HALLIB/STM32F4xx_HAL_Driver/Src/stm32f4xx_ll_sdmmc.c ****   sdmmc_cmdinit.CPSM             = SDIO_CPSM_ENABLE;
 2200              		.loc 1 815 34 is_stmt 0 view .LVU639
 2201 000e 0493     		str	r3, [sp, #16]
 816:HALLIB/STM32F4xx_HAL_Driver/Src/stm32f4xx_ll_sdmmc.c ****   SDIO_SendCommand(SDIOx, &sdmmc_cmdinit);
 2202              		.loc 1 816 3 is_stmt 1 view .LVU640
 816:HALLIB/STM32F4xx_HAL_Driver/Src/stm32f4xx_ll_sdmmc.c ****   SDIO_SendCommand(SDIOx, &sdmmc_cmdinit);
 2203              		.loc 1 816 34 is_stmt 0 view .LVU641
 2204 0010 4FF48063 		mov	r3, #1024
 2205 0014 0593     		str	r3, [sp, #20]
 817:HALLIB/STM32F4xx_HAL_Driver/Src/stm32f4xx_ll_sdmmc.c ****   
 2206              		.loc 1 817 3 is_stmt 1 view .LVU642
 2207 0016 01A9     		add	r1, sp, #4
 2208 0018 FFF7FEFF 		bl	SDIO_SendCommand
 2209              	.LVL160:
 820:HALLIB/STM32F4xx_HAL_Driver/Src/stm32f4xx_ll_sdmmc.c **** 
 2210              		.loc 1 820 3 view .LVU643
 820:HALLIB/STM32F4xx_HAL_Driver/Src/stm32f4xx_ll_sdmmc.c **** 
 2211              		.loc 1 820 16 is_stmt 0 view .LVU644
 2212 001c 2046     		mov	r0, r4
 2213 001e FFF7FEFF 		bl	SDMMC_GetCmdError
 2214              	.LVL161:
 822:HALLIB/STM32F4xx_HAL_Driver/Src/stm32f4xx_ll_sdmmc.c **** }
 2215              		.loc 1 822 3 is_stmt 1 view .LVU645
 823:HALLIB/STM32F4xx_HAL_Driver/Src/stm32f4xx_ll_sdmmc.c **** 
 2216              		.loc 1 823 1 is_stmt 0 view .LVU646
 2217 0022 06B0     		add	sp, sp, #24
 2218              	.LCFI46:
 2219              		.cfi_def_cfa_offset 8
 2220              		@ sp needed
 2221 0024 10BD     		pop	{r4, pc}
 823:HALLIB/STM32F4xx_HAL_Driver/Src/stm32f4xx_ll_sdmmc.c **** 
 2222              		.loc 1 823 1 view .LVU647
 2223              		.cfi_endproc
 2224              	.LFE157:
 2226              		.section	.text.SDMMC_CmdOperCond,"ax",%progbits
 2227              		.align	1
 2228              		.global	SDMMC_CmdOperCond
 2229              		.syntax unified
 2230              		.thumb
 2231              		.thumb_func
 2232              		.fpu fpv4-sp-d16
 2234              	SDMMC_CmdOperCond:
 2235              	.LVL162:
 2236              	.LFB158:
 831:HALLIB/STM32F4xx_HAL_Driver/Src/stm32f4xx_ll_sdmmc.c ****   SDIO_CmdInitTypeDef  sdmmc_cmdinit;
 2237              		.loc 1 831 1 is_stmt 1 view -0
 2238              		.cfi_startproc
 2239              		@ args = 0, pretend = 0, frame = 24
 2240              		@ frame_needed = 0, uses_anonymous_args = 0
 831:HALLIB/STM32F4xx_HAL_Driver/Src/stm32f4xx_ll_sdmmc.c ****   SDIO_CmdInitTypeDef  sdmmc_cmdinit;
 2241              		.loc 1 831 1 is_stmt 0 view .LVU649
 2242 0000 10B5     		push	{r4, lr}
 2243              	.LCFI47:
 2244              		.cfi_def_cfa_offset 8
 2245              		.cfi_offset 4, -8
ARM GAS  /tmp/cce5sGk9.s 			page 75


 2246              		.cfi_offset 14, -4
 2247 0002 86B0     		sub	sp, sp, #24
 2248              	.LCFI48:
 2249              		.cfi_def_cfa_offset 32
 2250 0004 0446     		mov	r4, r0
 832:HALLIB/STM32F4xx_HAL_Driver/Src/stm32f4xx_ll_sdmmc.c ****   uint32_t errorstate = SDMMC_ERROR_NONE;
 2251              		.loc 1 832 3 is_stmt 1 view .LVU650
 833:HALLIB/STM32F4xx_HAL_Driver/Src/stm32f4xx_ll_sdmmc.c ****   
 2252              		.loc 1 833 3 view .LVU651
 2253              	.LVL163:
 840:HALLIB/STM32F4xx_HAL_Driver/Src/stm32f4xx_ll_sdmmc.c ****   sdmmc_cmdinit.CmdIndex         = SDMMC_CMD_HS_SEND_EXT_CSD;
 2254              		.loc 1 840 3 view .LVU652
 840:HALLIB/STM32F4xx_HAL_Driver/Src/stm32f4xx_ll_sdmmc.c ****   sdmmc_cmdinit.CmdIndex         = SDMMC_CMD_HS_SEND_EXT_CSD;
 2255              		.loc 1 840 34 is_stmt 0 view .LVU653
 2256 0006 4FF4D573 		mov	r3, #426
 2257 000a 0193     		str	r3, [sp, #4]
 841:HALLIB/STM32F4xx_HAL_Driver/Src/stm32f4xx_ll_sdmmc.c ****   sdmmc_cmdinit.Response         = SDIO_RESPONSE_SHORT;
 2258              		.loc 1 841 3 is_stmt 1 view .LVU654
 841:HALLIB/STM32F4xx_HAL_Driver/Src/stm32f4xx_ll_sdmmc.c ****   sdmmc_cmdinit.Response         = SDIO_RESPONSE_SHORT;
 2259              		.loc 1 841 34 is_stmt 0 view .LVU655
 2260 000c 0823     		movs	r3, #8
 2261 000e 0293     		str	r3, [sp, #8]
 842:HALLIB/STM32F4xx_HAL_Driver/Src/stm32f4xx_ll_sdmmc.c ****   sdmmc_cmdinit.WaitForInterrupt = SDIO_WAIT_NO;
 2262              		.loc 1 842 3 is_stmt 1 view .LVU656
 842:HALLIB/STM32F4xx_HAL_Driver/Src/stm32f4xx_ll_sdmmc.c ****   sdmmc_cmdinit.WaitForInterrupt = SDIO_WAIT_NO;
 2263              		.loc 1 842 34 is_stmt 0 view .LVU657
 2264 0010 4023     		movs	r3, #64
 2265 0012 0393     		str	r3, [sp, #12]
 843:HALLIB/STM32F4xx_HAL_Driver/Src/stm32f4xx_ll_sdmmc.c ****   sdmmc_cmdinit.CPSM             = SDIO_CPSM_ENABLE;
 2266              		.loc 1 843 3 is_stmt 1 view .LVU658
 843:HALLIB/STM32F4xx_HAL_Driver/Src/stm32f4xx_ll_sdmmc.c ****   sdmmc_cmdinit.CPSM             = SDIO_CPSM_ENABLE;
 2267              		.loc 1 843 34 is_stmt 0 view .LVU659
 2268 0014 0023     		movs	r3, #0
 2269 0016 0493     		str	r3, [sp, #16]
 844:HALLIB/STM32F4xx_HAL_Driver/Src/stm32f4xx_ll_sdmmc.c ****   SDIO_SendCommand(SDIOx, &sdmmc_cmdinit);
 2270              		.loc 1 844 3 is_stmt 1 view .LVU660
 844:HALLIB/STM32F4xx_HAL_Driver/Src/stm32f4xx_ll_sdmmc.c ****   SDIO_SendCommand(SDIOx, &sdmmc_cmdinit);
 2271              		.loc 1 844 34 is_stmt 0 view .LVU661
 2272 0018 4FF48063 		mov	r3, #1024
 2273 001c 0593     		str	r3, [sp, #20]
 845:HALLIB/STM32F4xx_HAL_Driver/Src/stm32f4xx_ll_sdmmc.c ****   
 2274              		.loc 1 845 3 is_stmt 1 view .LVU662
 2275 001e 01A9     		add	r1, sp, #4
 2276 0020 FFF7FEFF 		bl	SDIO_SendCommand
 2277              	.LVL164:
 848:HALLIB/STM32F4xx_HAL_Driver/Src/stm32f4xx_ll_sdmmc.c **** 
 2278              		.loc 1 848 3 view .LVU663
 848:HALLIB/STM32F4xx_HAL_Driver/Src/stm32f4xx_ll_sdmmc.c **** 
 2279              		.loc 1 848 16 is_stmt 0 view .LVU664
 2280 0024 2046     		mov	r0, r4
 2281 0026 FFF7FEFF 		bl	SDMMC_GetCmdResp7
 2282              	.LVL165:
 850:HALLIB/STM32F4xx_HAL_Driver/Src/stm32f4xx_ll_sdmmc.c **** }
 2283              		.loc 1 850 3 is_stmt 1 view .LVU665
 851:HALLIB/STM32F4xx_HAL_Driver/Src/stm32f4xx_ll_sdmmc.c **** 
 2284              		.loc 1 851 1 is_stmt 0 view .LVU666
 2285 002a 06B0     		add	sp, sp, #24
ARM GAS  /tmp/cce5sGk9.s 			page 76


 2286              	.LCFI49:
 2287              		.cfi_def_cfa_offset 8
 2288              		@ sp needed
 2289 002c 10BD     		pop	{r4, pc}
 851:HALLIB/STM32F4xx_HAL_Driver/Src/stm32f4xx_ll_sdmmc.c **** 
 2290              		.loc 1 851 1 view .LVU667
 2291              		.cfi_endproc
 2292              	.LFE158:
 2294              		.section	.text.SDMMC_CmdAppCommand,"ax",%progbits
 2295              		.align	1
 2296              		.global	SDMMC_CmdAppCommand
 2297              		.syntax unified
 2298              		.thumb
 2299              		.thumb_func
 2300              		.fpu fpv4-sp-d16
 2302              	SDMMC_CmdAppCommand:
 2303              	.LVL166:
 2304              	.LFB159:
 861:HALLIB/STM32F4xx_HAL_Driver/Src/stm32f4xx_ll_sdmmc.c ****   SDIO_CmdInitTypeDef  sdmmc_cmdinit;
 2305              		.loc 1 861 1 is_stmt 1 view -0
 2306              		.cfi_startproc
 2307              		@ args = 0, pretend = 0, frame = 24
 2308              		@ frame_needed = 0, uses_anonymous_args = 0
 861:HALLIB/STM32F4xx_HAL_Driver/Src/stm32f4xx_ll_sdmmc.c ****   SDIO_CmdInitTypeDef  sdmmc_cmdinit;
 2309              		.loc 1 861 1 is_stmt 0 view .LVU669
 2310 0000 30B5     		push	{r4, r5, lr}
 2311              	.LCFI50:
 2312              		.cfi_def_cfa_offset 12
 2313              		.cfi_offset 4, -12
 2314              		.cfi_offset 5, -8
 2315              		.cfi_offset 14, -4
 2316 0002 87B0     		sub	sp, sp, #28
 2317              	.LCFI51:
 2318              		.cfi_def_cfa_offset 40
 2319 0004 0446     		mov	r4, r0
 862:HALLIB/STM32F4xx_HAL_Driver/Src/stm32f4xx_ll_sdmmc.c ****   uint32_t errorstate = SDMMC_ERROR_NONE;
 2320              		.loc 1 862 3 is_stmt 1 view .LVU670
 863:HALLIB/STM32F4xx_HAL_Driver/Src/stm32f4xx_ll_sdmmc.c ****   
 2321              		.loc 1 863 3 view .LVU671
 2322              	.LVL167:
 865:HALLIB/STM32F4xx_HAL_Driver/Src/stm32f4xx_ll_sdmmc.c ****   sdmmc_cmdinit.CmdIndex         = SDMMC_CMD_APP_CMD;
 2323              		.loc 1 865 3 view .LVU672
 865:HALLIB/STM32F4xx_HAL_Driver/Src/stm32f4xx_ll_sdmmc.c ****   sdmmc_cmdinit.CmdIndex         = SDMMC_CMD_APP_CMD;
 2324              		.loc 1 865 34 is_stmt 0 view .LVU673
 2325 0006 0191     		str	r1, [sp, #4]
 866:HALLIB/STM32F4xx_HAL_Driver/Src/stm32f4xx_ll_sdmmc.c ****   sdmmc_cmdinit.Response         = SDIO_RESPONSE_SHORT;
 2326              		.loc 1 866 3 is_stmt 1 view .LVU674
 866:HALLIB/STM32F4xx_HAL_Driver/Src/stm32f4xx_ll_sdmmc.c ****   sdmmc_cmdinit.Response         = SDIO_RESPONSE_SHORT;
 2327              		.loc 1 866 34 is_stmt 0 view .LVU675
 2328 0008 3725     		movs	r5, #55
 2329 000a 0295     		str	r5, [sp, #8]
 867:HALLIB/STM32F4xx_HAL_Driver/Src/stm32f4xx_ll_sdmmc.c ****   sdmmc_cmdinit.WaitForInterrupt = SDIO_WAIT_NO;
 2330              		.loc 1 867 3 is_stmt 1 view .LVU676
 867:HALLIB/STM32F4xx_HAL_Driver/Src/stm32f4xx_ll_sdmmc.c ****   sdmmc_cmdinit.WaitForInterrupt = SDIO_WAIT_NO;
 2331              		.loc 1 867 34 is_stmt 0 view .LVU677
 2332 000c 4023     		movs	r3, #64
 2333 000e 0393     		str	r3, [sp, #12]
ARM GAS  /tmp/cce5sGk9.s 			page 77


 868:HALLIB/STM32F4xx_HAL_Driver/Src/stm32f4xx_ll_sdmmc.c ****   sdmmc_cmdinit.CPSM             = SDIO_CPSM_ENABLE;
 2334              		.loc 1 868 3 is_stmt 1 view .LVU678
 868:HALLIB/STM32F4xx_HAL_Driver/Src/stm32f4xx_ll_sdmmc.c ****   sdmmc_cmdinit.CPSM             = SDIO_CPSM_ENABLE;
 2335              		.loc 1 868 34 is_stmt 0 view .LVU679
 2336 0010 0023     		movs	r3, #0
 2337 0012 0493     		str	r3, [sp, #16]
 869:HALLIB/STM32F4xx_HAL_Driver/Src/stm32f4xx_ll_sdmmc.c ****   SDIO_SendCommand(SDIOx, &sdmmc_cmdinit);
 2338              		.loc 1 869 3 is_stmt 1 view .LVU680
 869:HALLIB/STM32F4xx_HAL_Driver/Src/stm32f4xx_ll_sdmmc.c ****   SDIO_SendCommand(SDIOx, &sdmmc_cmdinit);
 2339              		.loc 1 869 34 is_stmt 0 view .LVU681
 2340 0014 4FF48063 		mov	r3, #1024
 2341 0018 0593     		str	r3, [sp, #20]
 870:HALLIB/STM32F4xx_HAL_Driver/Src/stm32f4xx_ll_sdmmc.c ****   
 2342              		.loc 1 870 3 is_stmt 1 view .LVU682
 2343 001a 01A9     		add	r1, sp, #4
 2344              	.LVL168:
 870:HALLIB/STM32F4xx_HAL_Driver/Src/stm32f4xx_ll_sdmmc.c ****   
 2345              		.loc 1 870 3 is_stmt 0 view .LVU683
 2346 001c FFF7FEFF 		bl	SDIO_SendCommand
 2347              	.LVL169:
 876:HALLIB/STM32F4xx_HAL_Driver/Src/stm32f4xx_ll_sdmmc.c **** 
 2348              		.loc 1 876 3 is_stmt 1 view .LVU684
 876:HALLIB/STM32F4xx_HAL_Driver/Src/stm32f4xx_ll_sdmmc.c **** 
 2349              		.loc 1 876 16 is_stmt 0 view .LVU685
 2350 0020 41F28832 		movw	r2, #5000
 2351 0024 2946     		mov	r1, r5
 2352 0026 2046     		mov	r0, r4
 2353 0028 FFF7FEFF 		bl	SDMMC_GetCmdResp1
 2354              	.LVL170:
 878:HALLIB/STM32F4xx_HAL_Driver/Src/stm32f4xx_ll_sdmmc.c **** }
 2355              		.loc 1 878 3 is_stmt 1 view .LVU686
 879:HALLIB/STM32F4xx_HAL_Driver/Src/stm32f4xx_ll_sdmmc.c **** 
 2356              		.loc 1 879 1 is_stmt 0 view .LVU687
 2357 002c 07B0     		add	sp, sp, #28
 2358              	.LCFI52:
 2359              		.cfi_def_cfa_offset 12
 2360              		@ sp needed
 2361 002e 30BD     		pop	{r4, r5, pc}
 879:HALLIB/STM32F4xx_HAL_Driver/Src/stm32f4xx_ll_sdmmc.c **** 
 2362              		.loc 1 879 1 view .LVU688
 2363              		.cfi_endproc
 2364              	.LFE159:
 2366              		.section	.text.SDMMC_CmdAppOperCommand,"ax",%progbits
 2367              		.align	1
 2368              		.global	SDMMC_CmdAppOperCommand
 2369              		.syntax unified
 2370              		.thumb
 2371              		.thumb_func
 2372              		.fpu fpv4-sp-d16
 2374              	SDMMC_CmdAppOperCommand:
 2375              	.LVL171:
 2376              	.LFB160:
 888:HALLIB/STM32F4xx_HAL_Driver/Src/stm32f4xx_ll_sdmmc.c ****   SDIO_CmdInitTypeDef  sdmmc_cmdinit;
 2377              		.loc 1 888 1 is_stmt 1 view -0
 2378              		.cfi_startproc
 2379              		@ args = 0, pretend = 0, frame = 24
 2380              		@ frame_needed = 0, uses_anonymous_args = 0
ARM GAS  /tmp/cce5sGk9.s 			page 78


 888:HALLIB/STM32F4xx_HAL_Driver/Src/stm32f4xx_ll_sdmmc.c ****   SDIO_CmdInitTypeDef  sdmmc_cmdinit;
 2381              		.loc 1 888 1 is_stmt 0 view .LVU690
 2382 0000 10B5     		push	{r4, lr}
 2383              	.LCFI53:
 2384              		.cfi_def_cfa_offset 8
 2385              		.cfi_offset 4, -8
 2386              		.cfi_offset 14, -4
 2387 0002 86B0     		sub	sp, sp, #24
 2388              	.LCFI54:
 2389              		.cfi_def_cfa_offset 32
 2390 0004 0446     		mov	r4, r0
 889:HALLIB/STM32F4xx_HAL_Driver/Src/stm32f4xx_ll_sdmmc.c ****   uint32_t errorstate = SDMMC_ERROR_NONE;
 2391              		.loc 1 889 3 is_stmt 1 view .LVU691
 890:HALLIB/STM32F4xx_HAL_Driver/Src/stm32f4xx_ll_sdmmc.c ****   
 2392              		.loc 1 890 3 view .LVU692
 2393              	.LVL172:
 892:HALLIB/STM32F4xx_HAL_Driver/Src/stm32f4xx_ll_sdmmc.c ****   sdmmc_cmdinit.CmdIndex         = SDMMC_CMD_SD_APP_OP_COND;
 2394              		.loc 1 892 3 view .LVU693
 892:HALLIB/STM32F4xx_HAL_Driver/Src/stm32f4xx_ll_sdmmc.c ****   sdmmc_cmdinit.CmdIndex         = SDMMC_CMD_SD_APP_OP_COND;
 2395              		.loc 1 892 60 is_stmt 0 view .LVU694
 2396 0006 41F00041 		orr	r1, r1, #-2147483648
 2397              	.LVL173:
 892:HALLIB/STM32F4xx_HAL_Driver/Src/stm32f4xx_ll_sdmmc.c ****   sdmmc_cmdinit.CmdIndex         = SDMMC_CMD_SD_APP_OP_COND;
 2398              		.loc 1 892 60 view .LVU695
 2399 000a 41F48011 		orr	r1, r1, #1048576
 892:HALLIB/STM32F4xx_HAL_Driver/Src/stm32f4xx_ll_sdmmc.c ****   sdmmc_cmdinit.CmdIndex         = SDMMC_CMD_SD_APP_OP_COND;
 2400              		.loc 1 892 34 view .LVU696
 2401 000e 0191     		str	r1, [sp, #4]
 893:HALLIB/STM32F4xx_HAL_Driver/Src/stm32f4xx_ll_sdmmc.c ****   sdmmc_cmdinit.Response         = SDIO_RESPONSE_SHORT;
 2402              		.loc 1 893 3 is_stmt 1 view .LVU697
 893:HALLIB/STM32F4xx_HAL_Driver/Src/stm32f4xx_ll_sdmmc.c ****   sdmmc_cmdinit.Response         = SDIO_RESPONSE_SHORT;
 2403              		.loc 1 893 34 is_stmt 0 view .LVU698
 2404 0010 2923     		movs	r3, #41
 2405 0012 0293     		str	r3, [sp, #8]
 894:HALLIB/STM32F4xx_HAL_Driver/Src/stm32f4xx_ll_sdmmc.c ****   sdmmc_cmdinit.WaitForInterrupt = SDIO_WAIT_NO;
 2406              		.loc 1 894 3 is_stmt 1 view .LVU699
 894:HALLIB/STM32F4xx_HAL_Driver/Src/stm32f4xx_ll_sdmmc.c ****   sdmmc_cmdinit.WaitForInterrupt = SDIO_WAIT_NO;
 2407              		.loc 1 894 34 is_stmt 0 view .LVU700
 2408 0014 4023     		movs	r3, #64
 2409 0016 0393     		str	r3, [sp, #12]
 895:HALLIB/STM32F4xx_HAL_Driver/Src/stm32f4xx_ll_sdmmc.c ****   sdmmc_cmdinit.CPSM             = SDIO_CPSM_ENABLE;
 2410              		.loc 1 895 3 is_stmt 1 view .LVU701
 895:HALLIB/STM32F4xx_HAL_Driver/Src/stm32f4xx_ll_sdmmc.c ****   sdmmc_cmdinit.CPSM             = SDIO_CPSM_ENABLE;
 2411              		.loc 1 895 34 is_stmt 0 view .LVU702
 2412 0018 0023     		movs	r3, #0
 2413 001a 0493     		str	r3, [sp, #16]
 896:HALLIB/STM32F4xx_HAL_Driver/Src/stm32f4xx_ll_sdmmc.c ****   SDIO_SendCommand(SDIOx, &sdmmc_cmdinit);
 2414              		.loc 1 896 3 is_stmt 1 view .LVU703
 896:HALLIB/STM32F4xx_HAL_Driver/Src/stm32f4xx_ll_sdmmc.c ****   SDIO_SendCommand(SDIOx, &sdmmc_cmdinit);
 2415              		.loc 1 896 34 is_stmt 0 view .LVU704
 2416 001c 4FF48063 		mov	r3, #1024
 2417 0020 0593     		str	r3, [sp, #20]
 897:HALLIB/STM32F4xx_HAL_Driver/Src/stm32f4xx_ll_sdmmc.c ****   
 2418              		.loc 1 897 3 is_stmt 1 view .LVU705
 2419 0022 01A9     		add	r1, sp, #4
 2420 0024 FFF7FEFF 		bl	SDIO_SendCommand
 2421              	.LVL174:
ARM GAS  /tmp/cce5sGk9.s 			page 79


 900:HALLIB/STM32F4xx_HAL_Driver/Src/stm32f4xx_ll_sdmmc.c **** 
 2422              		.loc 1 900 3 view .LVU706
 900:HALLIB/STM32F4xx_HAL_Driver/Src/stm32f4xx_ll_sdmmc.c **** 
 2423              		.loc 1 900 16 is_stmt 0 view .LVU707
 2424 0028 2046     		mov	r0, r4
 2425 002a FFF7FEFF 		bl	SDMMC_GetCmdResp3
 2426              	.LVL175:
 902:HALLIB/STM32F4xx_HAL_Driver/Src/stm32f4xx_ll_sdmmc.c **** }
 2427              		.loc 1 902 3 is_stmt 1 view .LVU708
 903:HALLIB/STM32F4xx_HAL_Driver/Src/stm32f4xx_ll_sdmmc.c **** 
 2428              		.loc 1 903 1 is_stmt 0 view .LVU709
 2429 002e 06B0     		add	sp, sp, #24
 2430              	.LCFI55:
 2431              		.cfi_def_cfa_offset 8
 2432              		@ sp needed
 2433 0030 10BD     		pop	{r4, pc}
 903:HALLIB/STM32F4xx_HAL_Driver/Src/stm32f4xx_ll_sdmmc.c **** 
 2434              		.loc 1 903 1 view .LVU710
 2435              		.cfi_endproc
 2436              	.LFE160:
 2438              		.section	.text.SDMMC_CmdBusWidth,"ax",%progbits
 2439              		.align	1
 2440              		.global	SDMMC_CmdBusWidth
 2441              		.syntax unified
 2442              		.thumb
 2443              		.thumb_func
 2444              		.fpu fpv4-sp-d16
 2446              	SDMMC_CmdBusWidth:
 2447              	.LVL176:
 2448              	.LFB161:
 911:HALLIB/STM32F4xx_HAL_Driver/Src/stm32f4xx_ll_sdmmc.c ****   SDIO_CmdInitTypeDef  sdmmc_cmdinit;
 2449              		.loc 1 911 1 is_stmt 1 view -0
 2450              		.cfi_startproc
 2451              		@ args = 0, pretend = 0, frame = 24
 2452              		@ frame_needed = 0, uses_anonymous_args = 0
 911:HALLIB/STM32F4xx_HAL_Driver/Src/stm32f4xx_ll_sdmmc.c ****   SDIO_CmdInitTypeDef  sdmmc_cmdinit;
 2453              		.loc 1 911 1 is_stmt 0 view .LVU712
 2454 0000 30B5     		push	{r4, r5, lr}
 2455              	.LCFI56:
 2456              		.cfi_def_cfa_offset 12
 2457              		.cfi_offset 4, -12
 2458              		.cfi_offset 5, -8
 2459              		.cfi_offset 14, -4
 2460 0002 87B0     		sub	sp, sp, #28
 2461              	.LCFI57:
 2462              		.cfi_def_cfa_offset 40
 2463 0004 0446     		mov	r4, r0
 912:HALLIB/STM32F4xx_HAL_Driver/Src/stm32f4xx_ll_sdmmc.c ****   uint32_t errorstate = SDMMC_ERROR_NONE;
 2464              		.loc 1 912 3 is_stmt 1 view .LVU713
 913:HALLIB/STM32F4xx_HAL_Driver/Src/stm32f4xx_ll_sdmmc.c ****   
 2465              		.loc 1 913 3 view .LVU714
 2466              	.LVL177:
 915:HALLIB/STM32F4xx_HAL_Driver/Src/stm32f4xx_ll_sdmmc.c ****   sdmmc_cmdinit.CmdIndex         = SDMMC_CMD_APP_SD_SET_BUSWIDTH;
 2467              		.loc 1 915 3 view .LVU715
 915:HALLIB/STM32F4xx_HAL_Driver/Src/stm32f4xx_ll_sdmmc.c ****   sdmmc_cmdinit.CmdIndex         = SDMMC_CMD_APP_SD_SET_BUSWIDTH;
 2468              		.loc 1 915 34 is_stmt 0 view .LVU716
 2469 0006 0191     		str	r1, [sp, #4]
ARM GAS  /tmp/cce5sGk9.s 			page 80


 916:HALLIB/STM32F4xx_HAL_Driver/Src/stm32f4xx_ll_sdmmc.c ****   sdmmc_cmdinit.Response         = SDIO_RESPONSE_SHORT;
 2470              		.loc 1 916 3 is_stmt 1 view .LVU717
 916:HALLIB/STM32F4xx_HAL_Driver/Src/stm32f4xx_ll_sdmmc.c ****   sdmmc_cmdinit.Response         = SDIO_RESPONSE_SHORT;
 2471              		.loc 1 916 34 is_stmt 0 view .LVU718
 2472 0008 0625     		movs	r5, #6
 2473 000a 0295     		str	r5, [sp, #8]
 917:HALLIB/STM32F4xx_HAL_Driver/Src/stm32f4xx_ll_sdmmc.c ****   sdmmc_cmdinit.WaitForInterrupt = SDIO_WAIT_NO;
 2474              		.loc 1 917 3 is_stmt 1 view .LVU719
 917:HALLIB/STM32F4xx_HAL_Driver/Src/stm32f4xx_ll_sdmmc.c ****   sdmmc_cmdinit.WaitForInterrupt = SDIO_WAIT_NO;
 2475              		.loc 1 917 34 is_stmt 0 view .LVU720
 2476 000c 4023     		movs	r3, #64
 2477 000e 0393     		str	r3, [sp, #12]
 918:HALLIB/STM32F4xx_HAL_Driver/Src/stm32f4xx_ll_sdmmc.c ****   sdmmc_cmdinit.CPSM             = SDIO_CPSM_ENABLE;
 2478              		.loc 1 918 3 is_stmt 1 view .LVU721
 918:HALLIB/STM32F4xx_HAL_Driver/Src/stm32f4xx_ll_sdmmc.c ****   sdmmc_cmdinit.CPSM             = SDIO_CPSM_ENABLE;
 2479              		.loc 1 918 34 is_stmt 0 view .LVU722
 2480 0010 0023     		movs	r3, #0
 2481 0012 0493     		str	r3, [sp, #16]
 919:HALLIB/STM32F4xx_HAL_Driver/Src/stm32f4xx_ll_sdmmc.c ****   SDIO_SendCommand(SDIOx, &sdmmc_cmdinit);
 2482              		.loc 1 919 3 is_stmt 1 view .LVU723
 919:HALLIB/STM32F4xx_HAL_Driver/Src/stm32f4xx_ll_sdmmc.c ****   SDIO_SendCommand(SDIOx, &sdmmc_cmdinit);
 2483              		.loc 1 919 34 is_stmt 0 view .LVU724
 2484 0014 4FF48063 		mov	r3, #1024
 2485 0018 0593     		str	r3, [sp, #20]
 920:HALLIB/STM32F4xx_HAL_Driver/Src/stm32f4xx_ll_sdmmc.c ****   
 2486              		.loc 1 920 3 is_stmt 1 view .LVU725
 2487 001a 01A9     		add	r1, sp, #4
 2488              	.LVL178:
 920:HALLIB/STM32F4xx_HAL_Driver/Src/stm32f4xx_ll_sdmmc.c ****   
 2489              		.loc 1 920 3 is_stmt 0 view .LVU726
 2490 001c FFF7FEFF 		bl	SDIO_SendCommand
 2491              	.LVL179:
 923:HALLIB/STM32F4xx_HAL_Driver/Src/stm32f4xx_ll_sdmmc.c **** 
 2492              		.loc 1 923 3 is_stmt 1 view .LVU727
 923:HALLIB/STM32F4xx_HAL_Driver/Src/stm32f4xx_ll_sdmmc.c **** 
 2493              		.loc 1 923 16 is_stmt 0 view .LVU728
 2494 0020 41F28832 		movw	r2, #5000
 2495 0024 2946     		mov	r1, r5
 2496 0026 2046     		mov	r0, r4
 2497 0028 FFF7FEFF 		bl	SDMMC_GetCmdResp1
 2498              	.LVL180:
 925:HALLIB/STM32F4xx_HAL_Driver/Src/stm32f4xx_ll_sdmmc.c **** }
 2499              		.loc 1 925 3 is_stmt 1 view .LVU729
 926:HALLIB/STM32F4xx_HAL_Driver/Src/stm32f4xx_ll_sdmmc.c **** 
 2500              		.loc 1 926 1 is_stmt 0 view .LVU730
 2501 002c 07B0     		add	sp, sp, #28
 2502              	.LCFI58:
 2503              		.cfi_def_cfa_offset 12
 2504              		@ sp needed
 2505 002e 30BD     		pop	{r4, r5, pc}
 926:HALLIB/STM32F4xx_HAL_Driver/Src/stm32f4xx_ll_sdmmc.c **** 
 2506              		.loc 1 926 1 view .LVU731
 2507              		.cfi_endproc
 2508              	.LFE161:
 2510              		.section	.text.SDMMC_CmdSendSCR,"ax",%progbits
 2511              		.align	1
 2512              		.global	SDMMC_CmdSendSCR
ARM GAS  /tmp/cce5sGk9.s 			page 81


 2513              		.syntax unified
 2514              		.thumb
 2515              		.thumb_func
 2516              		.fpu fpv4-sp-d16
 2518              	SDMMC_CmdSendSCR:
 2519              	.LVL181:
 2520              	.LFB162:
 934:HALLIB/STM32F4xx_HAL_Driver/Src/stm32f4xx_ll_sdmmc.c ****   SDIO_CmdInitTypeDef  sdmmc_cmdinit;
 2521              		.loc 1 934 1 is_stmt 1 view -0
 2522              		.cfi_startproc
 2523              		@ args = 0, pretend = 0, frame = 24
 2524              		@ frame_needed = 0, uses_anonymous_args = 0
 934:HALLIB/STM32F4xx_HAL_Driver/Src/stm32f4xx_ll_sdmmc.c ****   SDIO_CmdInitTypeDef  sdmmc_cmdinit;
 2525              		.loc 1 934 1 is_stmt 0 view .LVU733
 2526 0000 30B5     		push	{r4, r5, lr}
 2527              	.LCFI59:
 2528              		.cfi_def_cfa_offset 12
 2529              		.cfi_offset 4, -12
 2530              		.cfi_offset 5, -8
 2531              		.cfi_offset 14, -4
 2532 0002 87B0     		sub	sp, sp, #28
 2533              	.LCFI60:
 2534              		.cfi_def_cfa_offset 40
 2535 0004 0446     		mov	r4, r0
 935:HALLIB/STM32F4xx_HAL_Driver/Src/stm32f4xx_ll_sdmmc.c ****   uint32_t errorstate = SDMMC_ERROR_NONE;
 2536              		.loc 1 935 3 is_stmt 1 view .LVU734
 936:HALLIB/STM32F4xx_HAL_Driver/Src/stm32f4xx_ll_sdmmc.c ****   
 2537              		.loc 1 936 3 view .LVU735
 2538              	.LVL182:
 939:HALLIB/STM32F4xx_HAL_Driver/Src/stm32f4xx_ll_sdmmc.c ****   sdmmc_cmdinit.CmdIndex         = SDMMC_CMD_SD_APP_SEND_SCR;
 2539              		.loc 1 939 3 view .LVU736
 939:HALLIB/STM32F4xx_HAL_Driver/Src/stm32f4xx_ll_sdmmc.c ****   sdmmc_cmdinit.CmdIndex         = SDMMC_CMD_SD_APP_SEND_SCR;
 2540              		.loc 1 939 34 is_stmt 0 view .LVU737
 2541 0006 0023     		movs	r3, #0
 2542 0008 0193     		str	r3, [sp, #4]
 940:HALLIB/STM32F4xx_HAL_Driver/Src/stm32f4xx_ll_sdmmc.c ****   sdmmc_cmdinit.Response         = SDIO_RESPONSE_SHORT;
 2543              		.loc 1 940 3 is_stmt 1 view .LVU738
 940:HALLIB/STM32F4xx_HAL_Driver/Src/stm32f4xx_ll_sdmmc.c ****   sdmmc_cmdinit.Response         = SDIO_RESPONSE_SHORT;
 2544              		.loc 1 940 34 is_stmt 0 view .LVU739
 2545 000a 3325     		movs	r5, #51
 2546 000c 0295     		str	r5, [sp, #8]
 941:HALLIB/STM32F4xx_HAL_Driver/Src/stm32f4xx_ll_sdmmc.c ****   sdmmc_cmdinit.WaitForInterrupt = SDIO_WAIT_NO;
 2547              		.loc 1 941 3 is_stmt 1 view .LVU740
 941:HALLIB/STM32F4xx_HAL_Driver/Src/stm32f4xx_ll_sdmmc.c ****   sdmmc_cmdinit.WaitForInterrupt = SDIO_WAIT_NO;
 2548              		.loc 1 941 34 is_stmt 0 view .LVU741
 2549 000e 4022     		movs	r2, #64
 2550 0010 0392     		str	r2, [sp, #12]
 942:HALLIB/STM32F4xx_HAL_Driver/Src/stm32f4xx_ll_sdmmc.c ****   sdmmc_cmdinit.CPSM             = SDIO_CPSM_ENABLE;
 2551              		.loc 1 942 3 is_stmt 1 view .LVU742
 942:HALLIB/STM32F4xx_HAL_Driver/Src/stm32f4xx_ll_sdmmc.c ****   sdmmc_cmdinit.CPSM             = SDIO_CPSM_ENABLE;
 2552              		.loc 1 942 34 is_stmt 0 view .LVU743
 2553 0012 0493     		str	r3, [sp, #16]
 943:HALLIB/STM32F4xx_HAL_Driver/Src/stm32f4xx_ll_sdmmc.c ****   SDIO_SendCommand(SDIOx, &sdmmc_cmdinit);
 2554              		.loc 1 943 3 is_stmt 1 view .LVU744
 943:HALLIB/STM32F4xx_HAL_Driver/Src/stm32f4xx_ll_sdmmc.c ****   SDIO_SendCommand(SDIOx, &sdmmc_cmdinit);
 2555              		.loc 1 943 34 is_stmt 0 view .LVU745
 2556 0014 4FF48063 		mov	r3, #1024
ARM GAS  /tmp/cce5sGk9.s 			page 82


 2557 0018 0593     		str	r3, [sp, #20]
 944:HALLIB/STM32F4xx_HAL_Driver/Src/stm32f4xx_ll_sdmmc.c ****   
 2558              		.loc 1 944 3 is_stmt 1 view .LVU746
 2559 001a 01A9     		add	r1, sp, #4
 2560 001c FFF7FEFF 		bl	SDIO_SendCommand
 2561              	.LVL183:
 947:HALLIB/STM32F4xx_HAL_Driver/Src/stm32f4xx_ll_sdmmc.c **** 
 2562              		.loc 1 947 3 view .LVU747
 947:HALLIB/STM32F4xx_HAL_Driver/Src/stm32f4xx_ll_sdmmc.c **** 
 2563              		.loc 1 947 16 is_stmt 0 view .LVU748
 2564 0020 41F28832 		movw	r2, #5000
 2565 0024 2946     		mov	r1, r5
 2566 0026 2046     		mov	r0, r4
 2567 0028 FFF7FEFF 		bl	SDMMC_GetCmdResp1
 2568              	.LVL184:
 949:HALLIB/STM32F4xx_HAL_Driver/Src/stm32f4xx_ll_sdmmc.c **** }
 2569              		.loc 1 949 3 is_stmt 1 view .LVU749
 950:HALLIB/STM32F4xx_HAL_Driver/Src/stm32f4xx_ll_sdmmc.c **** 
 2570              		.loc 1 950 1 is_stmt 0 view .LVU750
 2571 002c 07B0     		add	sp, sp, #28
 2572              	.LCFI61:
 2573              		.cfi_def_cfa_offset 12
 2574              		@ sp needed
 2575 002e 30BD     		pop	{r4, r5, pc}
 950:HALLIB/STM32F4xx_HAL_Driver/Src/stm32f4xx_ll_sdmmc.c **** 
 2576              		.loc 1 950 1 view .LVU751
 2577              		.cfi_endproc
 2578              	.LFE162:
 2580              		.section	.text.SDMMC_CmdSendCID,"ax",%progbits
 2581              		.align	1
 2582              		.global	SDMMC_CmdSendCID
 2583              		.syntax unified
 2584              		.thumb
 2585              		.thumb_func
 2586              		.fpu fpv4-sp-d16
 2588              	SDMMC_CmdSendCID:
 2589              	.LVL185:
 2590              	.LFB163:
 958:HALLIB/STM32F4xx_HAL_Driver/Src/stm32f4xx_ll_sdmmc.c ****   SDIO_CmdInitTypeDef  sdmmc_cmdinit;
 2591              		.loc 1 958 1 is_stmt 1 view -0
 2592              		.cfi_startproc
 2593              		@ args = 0, pretend = 0, frame = 24
 2594              		@ frame_needed = 0, uses_anonymous_args = 0
 958:HALLIB/STM32F4xx_HAL_Driver/Src/stm32f4xx_ll_sdmmc.c ****   SDIO_CmdInitTypeDef  sdmmc_cmdinit;
 2595              		.loc 1 958 1 is_stmt 0 view .LVU753
 2596 0000 10B5     		push	{r4, lr}
 2597              	.LCFI62:
 2598              		.cfi_def_cfa_offset 8
 2599              		.cfi_offset 4, -8
 2600              		.cfi_offset 14, -4
 2601 0002 86B0     		sub	sp, sp, #24
 2602              	.LCFI63:
 2603              		.cfi_def_cfa_offset 32
 2604 0004 0446     		mov	r4, r0
 959:HALLIB/STM32F4xx_HAL_Driver/Src/stm32f4xx_ll_sdmmc.c ****   uint32_t errorstate = SDMMC_ERROR_NONE;
 2605              		.loc 1 959 3 is_stmt 1 view .LVU754
 960:HALLIB/STM32F4xx_HAL_Driver/Src/stm32f4xx_ll_sdmmc.c ****   
ARM GAS  /tmp/cce5sGk9.s 			page 83


 2606              		.loc 1 960 3 view .LVU755
 2607              	.LVL186:
 963:HALLIB/STM32F4xx_HAL_Driver/Src/stm32f4xx_ll_sdmmc.c ****   sdmmc_cmdinit.CmdIndex         = SDMMC_CMD_ALL_SEND_CID;
 2608              		.loc 1 963 3 view .LVU756
 963:HALLIB/STM32F4xx_HAL_Driver/Src/stm32f4xx_ll_sdmmc.c ****   sdmmc_cmdinit.CmdIndex         = SDMMC_CMD_ALL_SEND_CID;
 2609              		.loc 1 963 34 is_stmt 0 view .LVU757
 2610 0006 0023     		movs	r3, #0
 2611 0008 0193     		str	r3, [sp, #4]
 964:HALLIB/STM32F4xx_HAL_Driver/Src/stm32f4xx_ll_sdmmc.c ****   sdmmc_cmdinit.Response         = SDIO_RESPONSE_LONG;
 2612              		.loc 1 964 3 is_stmt 1 view .LVU758
 964:HALLIB/STM32F4xx_HAL_Driver/Src/stm32f4xx_ll_sdmmc.c ****   sdmmc_cmdinit.Response         = SDIO_RESPONSE_LONG;
 2613              		.loc 1 964 34 is_stmt 0 view .LVU759
 2614 000a 0222     		movs	r2, #2
 2615 000c 0292     		str	r2, [sp, #8]
 965:HALLIB/STM32F4xx_HAL_Driver/Src/stm32f4xx_ll_sdmmc.c ****   sdmmc_cmdinit.WaitForInterrupt = SDIO_WAIT_NO;
 2616              		.loc 1 965 3 is_stmt 1 view .LVU760
 965:HALLIB/STM32F4xx_HAL_Driver/Src/stm32f4xx_ll_sdmmc.c ****   sdmmc_cmdinit.WaitForInterrupt = SDIO_WAIT_NO;
 2617              		.loc 1 965 34 is_stmt 0 view .LVU761
 2618 000e C022     		movs	r2, #192
 2619 0010 0392     		str	r2, [sp, #12]
 966:HALLIB/STM32F4xx_HAL_Driver/Src/stm32f4xx_ll_sdmmc.c ****   sdmmc_cmdinit.CPSM             = SDIO_CPSM_ENABLE;
 2620              		.loc 1 966 3 is_stmt 1 view .LVU762
 966:HALLIB/STM32F4xx_HAL_Driver/Src/stm32f4xx_ll_sdmmc.c ****   sdmmc_cmdinit.CPSM             = SDIO_CPSM_ENABLE;
 2621              		.loc 1 966 34 is_stmt 0 view .LVU763
 2622 0012 0493     		str	r3, [sp, #16]
 967:HALLIB/STM32F4xx_HAL_Driver/Src/stm32f4xx_ll_sdmmc.c ****   SDIO_SendCommand(SDIOx, &sdmmc_cmdinit);
 2623              		.loc 1 967 3 is_stmt 1 view .LVU764
 967:HALLIB/STM32F4xx_HAL_Driver/Src/stm32f4xx_ll_sdmmc.c ****   SDIO_SendCommand(SDIOx, &sdmmc_cmdinit);
 2624              		.loc 1 967 34 is_stmt 0 view .LVU765
 2625 0014 4FF48063 		mov	r3, #1024
 2626 0018 0593     		str	r3, [sp, #20]
 968:HALLIB/STM32F4xx_HAL_Driver/Src/stm32f4xx_ll_sdmmc.c ****   
 2627              		.loc 1 968 3 is_stmt 1 view .LVU766
 2628 001a 01A9     		add	r1, sp, #4
 2629 001c FFF7FEFF 		bl	SDIO_SendCommand
 2630              	.LVL187:
 971:HALLIB/STM32F4xx_HAL_Driver/Src/stm32f4xx_ll_sdmmc.c **** 
 2631              		.loc 1 971 3 view .LVU767
 971:HALLIB/STM32F4xx_HAL_Driver/Src/stm32f4xx_ll_sdmmc.c **** 
 2632              		.loc 1 971 16 is_stmt 0 view .LVU768
 2633 0020 2046     		mov	r0, r4
 2634 0022 FFF7FEFF 		bl	SDMMC_GetCmdResp2
 2635              	.LVL188:
 973:HALLIB/STM32F4xx_HAL_Driver/Src/stm32f4xx_ll_sdmmc.c **** }
 2636              		.loc 1 973 3 is_stmt 1 view .LVU769
 974:HALLIB/STM32F4xx_HAL_Driver/Src/stm32f4xx_ll_sdmmc.c **** 
 2637              		.loc 1 974 1 is_stmt 0 view .LVU770
 2638 0026 06B0     		add	sp, sp, #24
 2639              	.LCFI64:
 2640              		.cfi_def_cfa_offset 8
 2641              		@ sp needed
 2642 0028 10BD     		pop	{r4, pc}
 974:HALLIB/STM32F4xx_HAL_Driver/Src/stm32f4xx_ll_sdmmc.c **** 
 2643              		.loc 1 974 1 view .LVU771
 2644              		.cfi_endproc
 2645              	.LFE163:
 2647              		.section	.text.SDMMC_CmdSendCSD,"ax",%progbits
ARM GAS  /tmp/cce5sGk9.s 			page 84


 2648              		.align	1
 2649              		.global	SDMMC_CmdSendCSD
 2650              		.syntax unified
 2651              		.thumb
 2652              		.thumb_func
 2653              		.fpu fpv4-sp-d16
 2655              	SDMMC_CmdSendCSD:
 2656              	.LVL189:
 2657              	.LFB164:
 982:HALLIB/STM32F4xx_HAL_Driver/Src/stm32f4xx_ll_sdmmc.c ****   SDIO_CmdInitTypeDef  sdmmc_cmdinit;
 2658              		.loc 1 982 1 is_stmt 1 view -0
 2659              		.cfi_startproc
 2660              		@ args = 0, pretend = 0, frame = 24
 2661              		@ frame_needed = 0, uses_anonymous_args = 0
 982:HALLIB/STM32F4xx_HAL_Driver/Src/stm32f4xx_ll_sdmmc.c ****   SDIO_CmdInitTypeDef  sdmmc_cmdinit;
 2662              		.loc 1 982 1 is_stmt 0 view .LVU773
 2663 0000 10B5     		push	{r4, lr}
 2664              	.LCFI65:
 2665              		.cfi_def_cfa_offset 8
 2666              		.cfi_offset 4, -8
 2667              		.cfi_offset 14, -4
 2668 0002 86B0     		sub	sp, sp, #24
 2669              	.LCFI66:
 2670              		.cfi_def_cfa_offset 32
 2671 0004 0446     		mov	r4, r0
 983:HALLIB/STM32F4xx_HAL_Driver/Src/stm32f4xx_ll_sdmmc.c ****   uint32_t errorstate = SDMMC_ERROR_NONE;
 2672              		.loc 1 983 3 is_stmt 1 view .LVU774
 984:HALLIB/STM32F4xx_HAL_Driver/Src/stm32f4xx_ll_sdmmc.c ****   
 2673              		.loc 1 984 3 view .LVU775
 2674              	.LVL190:
 987:HALLIB/STM32F4xx_HAL_Driver/Src/stm32f4xx_ll_sdmmc.c ****   sdmmc_cmdinit.CmdIndex         = SDMMC_CMD_SEND_CSD;
 2675              		.loc 1 987 3 view .LVU776
 987:HALLIB/STM32F4xx_HAL_Driver/Src/stm32f4xx_ll_sdmmc.c ****   sdmmc_cmdinit.CmdIndex         = SDMMC_CMD_SEND_CSD;
 2676              		.loc 1 987 34 is_stmt 0 view .LVU777
 2677 0006 0191     		str	r1, [sp, #4]
 988:HALLIB/STM32F4xx_HAL_Driver/Src/stm32f4xx_ll_sdmmc.c ****   sdmmc_cmdinit.Response         = SDIO_RESPONSE_LONG;
 2678              		.loc 1 988 3 is_stmt 1 view .LVU778
 988:HALLIB/STM32F4xx_HAL_Driver/Src/stm32f4xx_ll_sdmmc.c ****   sdmmc_cmdinit.Response         = SDIO_RESPONSE_LONG;
 2679              		.loc 1 988 34 is_stmt 0 view .LVU779
 2680 0008 0923     		movs	r3, #9
 2681 000a 0293     		str	r3, [sp, #8]
 989:HALLIB/STM32F4xx_HAL_Driver/Src/stm32f4xx_ll_sdmmc.c ****   sdmmc_cmdinit.WaitForInterrupt = SDIO_WAIT_NO;
 2682              		.loc 1 989 3 is_stmt 1 view .LVU780
 989:HALLIB/STM32F4xx_HAL_Driver/Src/stm32f4xx_ll_sdmmc.c ****   sdmmc_cmdinit.WaitForInterrupt = SDIO_WAIT_NO;
 2683              		.loc 1 989 34 is_stmt 0 view .LVU781
 2684 000c C023     		movs	r3, #192
 2685 000e 0393     		str	r3, [sp, #12]
 990:HALLIB/STM32F4xx_HAL_Driver/Src/stm32f4xx_ll_sdmmc.c ****   sdmmc_cmdinit.CPSM             = SDIO_CPSM_ENABLE;
 2686              		.loc 1 990 3 is_stmt 1 view .LVU782
 990:HALLIB/STM32F4xx_HAL_Driver/Src/stm32f4xx_ll_sdmmc.c ****   sdmmc_cmdinit.CPSM             = SDIO_CPSM_ENABLE;
 2687              		.loc 1 990 34 is_stmt 0 view .LVU783
 2688 0010 0023     		movs	r3, #0
 2689 0012 0493     		str	r3, [sp, #16]
 991:HALLIB/STM32F4xx_HAL_Driver/Src/stm32f4xx_ll_sdmmc.c ****   SDIO_SendCommand(SDIOx, &sdmmc_cmdinit);
 2690              		.loc 1 991 3 is_stmt 1 view .LVU784
 991:HALLIB/STM32F4xx_HAL_Driver/Src/stm32f4xx_ll_sdmmc.c ****   SDIO_SendCommand(SDIOx, &sdmmc_cmdinit);
 2691              		.loc 1 991 34 is_stmt 0 view .LVU785
ARM GAS  /tmp/cce5sGk9.s 			page 85


 2692 0014 4FF48063 		mov	r3, #1024
 2693 0018 0593     		str	r3, [sp, #20]
 992:HALLIB/STM32F4xx_HAL_Driver/Src/stm32f4xx_ll_sdmmc.c ****   
 2694              		.loc 1 992 3 is_stmt 1 view .LVU786
 2695 001a 01A9     		add	r1, sp, #4
 2696              	.LVL191:
 992:HALLIB/STM32F4xx_HAL_Driver/Src/stm32f4xx_ll_sdmmc.c ****   
 2697              		.loc 1 992 3 is_stmt 0 view .LVU787
 2698 001c FFF7FEFF 		bl	SDIO_SendCommand
 2699              	.LVL192:
 995:HALLIB/STM32F4xx_HAL_Driver/Src/stm32f4xx_ll_sdmmc.c **** 
 2700              		.loc 1 995 3 is_stmt 1 view .LVU788
 995:HALLIB/STM32F4xx_HAL_Driver/Src/stm32f4xx_ll_sdmmc.c **** 
 2701              		.loc 1 995 16 is_stmt 0 view .LVU789
 2702 0020 2046     		mov	r0, r4
 2703 0022 FFF7FEFF 		bl	SDMMC_GetCmdResp2
 2704              	.LVL193:
 997:HALLIB/STM32F4xx_HAL_Driver/Src/stm32f4xx_ll_sdmmc.c **** }
 2705              		.loc 1 997 3 is_stmt 1 view .LVU790
 998:HALLIB/STM32F4xx_HAL_Driver/Src/stm32f4xx_ll_sdmmc.c **** 
 2706              		.loc 1 998 1 is_stmt 0 view .LVU791
 2707 0026 06B0     		add	sp, sp, #24
 2708              	.LCFI67:
 2709              		.cfi_def_cfa_offset 8
 2710              		@ sp needed
 2711 0028 10BD     		pop	{r4, pc}
 998:HALLIB/STM32F4xx_HAL_Driver/Src/stm32f4xx_ll_sdmmc.c **** 
 2712              		.loc 1 998 1 view .LVU792
 2713              		.cfi_endproc
 2714              	.LFE164:
 2716              		.section	.text.SDMMC_CmdSetRelAdd,"ax",%progbits
 2717              		.align	1
 2718              		.global	SDMMC_CmdSetRelAdd
 2719              		.syntax unified
 2720              		.thumb
 2721              		.thumb_func
 2722              		.fpu fpv4-sp-d16
 2724              	SDMMC_CmdSetRelAdd:
 2725              	.LVL194:
 2726              	.LFB165:
1006:HALLIB/STM32F4xx_HAL_Driver/Src/stm32f4xx_ll_sdmmc.c ****   SDIO_CmdInitTypeDef  sdmmc_cmdinit;
 2727              		.loc 1 1006 1 is_stmt 1 view -0
 2728              		.cfi_startproc
 2729              		@ args = 0, pretend = 0, frame = 24
 2730              		@ frame_needed = 0, uses_anonymous_args = 0
1006:HALLIB/STM32F4xx_HAL_Driver/Src/stm32f4xx_ll_sdmmc.c ****   SDIO_CmdInitTypeDef  sdmmc_cmdinit;
 2731              		.loc 1 1006 1 is_stmt 0 view .LVU794
 2732 0000 70B5     		push	{r4, r5, r6, lr}
 2733              	.LCFI68:
 2734              		.cfi_def_cfa_offset 16
 2735              		.cfi_offset 4, -16
 2736              		.cfi_offset 5, -12
 2737              		.cfi_offset 6, -8
 2738              		.cfi_offset 14, -4
 2739 0002 86B0     		sub	sp, sp, #24
 2740              	.LCFI69:
 2741              		.cfi_def_cfa_offset 40
ARM GAS  /tmp/cce5sGk9.s 			page 86


 2742 0004 0446     		mov	r4, r0
 2743 0006 0D46     		mov	r5, r1
1007:HALLIB/STM32F4xx_HAL_Driver/Src/stm32f4xx_ll_sdmmc.c ****   uint32_t errorstate = SDMMC_ERROR_NONE;
 2744              		.loc 1 1007 3 is_stmt 1 view .LVU795
1008:HALLIB/STM32F4xx_HAL_Driver/Src/stm32f4xx_ll_sdmmc.c ****   
 2745              		.loc 1 1008 3 view .LVU796
 2746              	.LVL195:
1011:HALLIB/STM32F4xx_HAL_Driver/Src/stm32f4xx_ll_sdmmc.c ****   sdmmc_cmdinit.CmdIndex         = SDMMC_CMD_SET_REL_ADDR;
 2747              		.loc 1 1011 3 view .LVU797
1011:HALLIB/STM32F4xx_HAL_Driver/Src/stm32f4xx_ll_sdmmc.c ****   sdmmc_cmdinit.CmdIndex         = SDMMC_CMD_SET_REL_ADDR;
 2748              		.loc 1 1011 34 is_stmt 0 view .LVU798
 2749 0008 0023     		movs	r3, #0
 2750 000a 0193     		str	r3, [sp, #4]
1012:HALLIB/STM32F4xx_HAL_Driver/Src/stm32f4xx_ll_sdmmc.c ****   sdmmc_cmdinit.Response         = SDIO_RESPONSE_SHORT;
 2751              		.loc 1 1012 3 is_stmt 1 view .LVU799
1012:HALLIB/STM32F4xx_HAL_Driver/Src/stm32f4xx_ll_sdmmc.c ****   sdmmc_cmdinit.Response         = SDIO_RESPONSE_SHORT;
 2752              		.loc 1 1012 34 is_stmt 0 view .LVU800
 2753 000c 0326     		movs	r6, #3
 2754 000e 0296     		str	r6, [sp, #8]
1013:HALLIB/STM32F4xx_HAL_Driver/Src/stm32f4xx_ll_sdmmc.c ****   sdmmc_cmdinit.WaitForInterrupt = SDIO_WAIT_NO;
 2755              		.loc 1 1013 3 is_stmt 1 view .LVU801
1013:HALLIB/STM32F4xx_HAL_Driver/Src/stm32f4xx_ll_sdmmc.c ****   sdmmc_cmdinit.WaitForInterrupt = SDIO_WAIT_NO;
 2756              		.loc 1 1013 34 is_stmt 0 view .LVU802
 2757 0010 4022     		movs	r2, #64
 2758 0012 0392     		str	r2, [sp, #12]
1014:HALLIB/STM32F4xx_HAL_Driver/Src/stm32f4xx_ll_sdmmc.c ****   sdmmc_cmdinit.CPSM             = SDIO_CPSM_ENABLE;
 2759              		.loc 1 1014 3 is_stmt 1 view .LVU803
1014:HALLIB/STM32F4xx_HAL_Driver/Src/stm32f4xx_ll_sdmmc.c ****   sdmmc_cmdinit.CPSM             = SDIO_CPSM_ENABLE;
 2760              		.loc 1 1014 34 is_stmt 0 view .LVU804
 2761 0014 0493     		str	r3, [sp, #16]
1015:HALLIB/STM32F4xx_HAL_Driver/Src/stm32f4xx_ll_sdmmc.c ****   SDIO_SendCommand(SDIOx, &sdmmc_cmdinit);
 2762              		.loc 1 1015 3 is_stmt 1 view .LVU805
1015:HALLIB/STM32F4xx_HAL_Driver/Src/stm32f4xx_ll_sdmmc.c ****   SDIO_SendCommand(SDIOx, &sdmmc_cmdinit);
 2763              		.loc 1 1015 34 is_stmt 0 view .LVU806
 2764 0016 4FF48063 		mov	r3, #1024
 2765 001a 0593     		str	r3, [sp, #20]
1016:HALLIB/STM32F4xx_HAL_Driver/Src/stm32f4xx_ll_sdmmc.c ****   
 2766              		.loc 1 1016 3 is_stmt 1 view .LVU807
 2767 001c 01A9     		add	r1, sp, #4
 2768              	.LVL196:
1016:HALLIB/STM32F4xx_HAL_Driver/Src/stm32f4xx_ll_sdmmc.c ****   
 2769              		.loc 1 1016 3 is_stmt 0 view .LVU808
 2770 001e FFF7FEFF 		bl	SDIO_SendCommand
 2771              	.LVL197:
1019:HALLIB/STM32F4xx_HAL_Driver/Src/stm32f4xx_ll_sdmmc.c **** 
 2772              		.loc 1 1019 3 is_stmt 1 view .LVU809
1019:HALLIB/STM32F4xx_HAL_Driver/Src/stm32f4xx_ll_sdmmc.c **** 
 2773              		.loc 1 1019 16 is_stmt 0 view .LVU810
 2774 0022 2A46     		mov	r2, r5
 2775 0024 3146     		mov	r1, r6
 2776 0026 2046     		mov	r0, r4
 2777 0028 FFF7FEFF 		bl	SDMMC_GetCmdResp6
 2778              	.LVL198:
1021:HALLIB/STM32F4xx_HAL_Driver/Src/stm32f4xx_ll_sdmmc.c **** }
 2779              		.loc 1 1021 3 is_stmt 1 view .LVU811
1022:HALLIB/STM32F4xx_HAL_Driver/Src/stm32f4xx_ll_sdmmc.c **** 
 2780              		.loc 1 1022 1 is_stmt 0 view .LVU812
ARM GAS  /tmp/cce5sGk9.s 			page 87


 2781 002c 06B0     		add	sp, sp, #24
 2782              	.LCFI70:
 2783              		.cfi_def_cfa_offset 16
 2784              		@ sp needed
 2785 002e 70BD     		pop	{r4, r5, r6, pc}
1022:HALLIB/STM32F4xx_HAL_Driver/Src/stm32f4xx_ll_sdmmc.c **** 
 2786              		.loc 1 1022 1 view .LVU813
 2787              		.cfi_endproc
 2788              	.LFE165:
 2790              		.section	.text.SDMMC_CmdSendStatus,"ax",%progbits
 2791              		.align	1
 2792              		.global	SDMMC_CmdSendStatus
 2793              		.syntax unified
 2794              		.thumb
 2795              		.thumb_func
 2796              		.fpu fpv4-sp-d16
 2798              	SDMMC_CmdSendStatus:
 2799              	.LVL199:
 2800              	.LFB166:
1030:HALLIB/STM32F4xx_HAL_Driver/Src/stm32f4xx_ll_sdmmc.c ****   SDIO_CmdInitTypeDef  sdmmc_cmdinit;
 2801              		.loc 1 1030 1 is_stmt 1 view -0
 2802              		.cfi_startproc
 2803              		@ args = 0, pretend = 0, frame = 24
 2804              		@ frame_needed = 0, uses_anonymous_args = 0
1030:HALLIB/STM32F4xx_HAL_Driver/Src/stm32f4xx_ll_sdmmc.c ****   SDIO_CmdInitTypeDef  sdmmc_cmdinit;
 2805              		.loc 1 1030 1 is_stmt 0 view .LVU815
 2806 0000 30B5     		push	{r4, r5, lr}
 2807              	.LCFI71:
 2808              		.cfi_def_cfa_offset 12
 2809              		.cfi_offset 4, -12
 2810              		.cfi_offset 5, -8
 2811              		.cfi_offset 14, -4
 2812 0002 87B0     		sub	sp, sp, #28
 2813              	.LCFI72:
 2814              		.cfi_def_cfa_offset 40
 2815 0004 0446     		mov	r4, r0
1031:HALLIB/STM32F4xx_HAL_Driver/Src/stm32f4xx_ll_sdmmc.c ****   uint32_t errorstate = SDMMC_ERROR_NONE;
 2816              		.loc 1 1031 3 is_stmt 1 view .LVU816
1032:HALLIB/STM32F4xx_HAL_Driver/Src/stm32f4xx_ll_sdmmc.c ****   
 2817              		.loc 1 1032 3 view .LVU817
 2818              	.LVL200:
1034:HALLIB/STM32F4xx_HAL_Driver/Src/stm32f4xx_ll_sdmmc.c ****   sdmmc_cmdinit.CmdIndex         = SDMMC_CMD_SEND_STATUS;
 2819              		.loc 1 1034 3 view .LVU818
1034:HALLIB/STM32F4xx_HAL_Driver/Src/stm32f4xx_ll_sdmmc.c ****   sdmmc_cmdinit.CmdIndex         = SDMMC_CMD_SEND_STATUS;
 2820              		.loc 1 1034 34 is_stmt 0 view .LVU819
 2821 0006 0191     		str	r1, [sp, #4]
1035:HALLIB/STM32F4xx_HAL_Driver/Src/stm32f4xx_ll_sdmmc.c ****   sdmmc_cmdinit.Response         = SDIO_RESPONSE_SHORT;
 2822              		.loc 1 1035 3 is_stmt 1 view .LVU820
1035:HALLIB/STM32F4xx_HAL_Driver/Src/stm32f4xx_ll_sdmmc.c ****   sdmmc_cmdinit.Response         = SDIO_RESPONSE_SHORT;
 2823              		.loc 1 1035 34 is_stmt 0 view .LVU821
 2824 0008 0D25     		movs	r5, #13
 2825 000a 0295     		str	r5, [sp, #8]
1036:HALLIB/STM32F4xx_HAL_Driver/Src/stm32f4xx_ll_sdmmc.c ****   sdmmc_cmdinit.WaitForInterrupt = SDIO_WAIT_NO;
 2826              		.loc 1 1036 3 is_stmt 1 view .LVU822
1036:HALLIB/STM32F4xx_HAL_Driver/Src/stm32f4xx_ll_sdmmc.c ****   sdmmc_cmdinit.WaitForInterrupt = SDIO_WAIT_NO;
 2827              		.loc 1 1036 34 is_stmt 0 view .LVU823
 2828 000c 4023     		movs	r3, #64
ARM GAS  /tmp/cce5sGk9.s 			page 88


 2829 000e 0393     		str	r3, [sp, #12]
1037:HALLIB/STM32F4xx_HAL_Driver/Src/stm32f4xx_ll_sdmmc.c ****   sdmmc_cmdinit.CPSM             = SDIO_CPSM_ENABLE;
 2830              		.loc 1 1037 3 is_stmt 1 view .LVU824
1037:HALLIB/STM32F4xx_HAL_Driver/Src/stm32f4xx_ll_sdmmc.c ****   sdmmc_cmdinit.CPSM             = SDIO_CPSM_ENABLE;
 2831              		.loc 1 1037 34 is_stmt 0 view .LVU825
 2832 0010 0023     		movs	r3, #0
 2833 0012 0493     		str	r3, [sp, #16]
1038:HALLIB/STM32F4xx_HAL_Driver/Src/stm32f4xx_ll_sdmmc.c ****   SDIO_SendCommand(SDIOx, &sdmmc_cmdinit);
 2834              		.loc 1 1038 3 is_stmt 1 view .LVU826
1038:HALLIB/STM32F4xx_HAL_Driver/Src/stm32f4xx_ll_sdmmc.c ****   SDIO_SendCommand(SDIOx, &sdmmc_cmdinit);
 2835              		.loc 1 1038 34 is_stmt 0 view .LVU827
 2836 0014 4FF48063 		mov	r3, #1024
 2837 0018 0593     		str	r3, [sp, #20]
1039:HALLIB/STM32F4xx_HAL_Driver/Src/stm32f4xx_ll_sdmmc.c ****   
 2838              		.loc 1 1039 3 is_stmt 1 view .LVU828
 2839 001a 01A9     		add	r1, sp, #4
 2840              	.LVL201:
1039:HALLIB/STM32F4xx_HAL_Driver/Src/stm32f4xx_ll_sdmmc.c ****   
 2841              		.loc 1 1039 3 is_stmt 0 view .LVU829
 2842 001c FFF7FEFF 		bl	SDIO_SendCommand
 2843              	.LVL202:
1042:HALLIB/STM32F4xx_HAL_Driver/Src/stm32f4xx_ll_sdmmc.c **** 
 2844              		.loc 1 1042 3 is_stmt 1 view .LVU830
1042:HALLIB/STM32F4xx_HAL_Driver/Src/stm32f4xx_ll_sdmmc.c **** 
 2845              		.loc 1 1042 16 is_stmt 0 view .LVU831
 2846 0020 41F28832 		movw	r2, #5000
 2847 0024 2946     		mov	r1, r5
 2848 0026 2046     		mov	r0, r4
 2849 0028 FFF7FEFF 		bl	SDMMC_GetCmdResp1
 2850              	.LVL203:
1044:HALLIB/STM32F4xx_HAL_Driver/Src/stm32f4xx_ll_sdmmc.c **** }
 2851              		.loc 1 1044 3 is_stmt 1 view .LVU832
1045:HALLIB/STM32F4xx_HAL_Driver/Src/stm32f4xx_ll_sdmmc.c **** 
 2852              		.loc 1 1045 1 is_stmt 0 view .LVU833
 2853 002c 07B0     		add	sp, sp, #28
 2854              	.LCFI73:
 2855              		.cfi_def_cfa_offset 12
 2856              		@ sp needed
 2857 002e 30BD     		pop	{r4, r5, pc}
1045:HALLIB/STM32F4xx_HAL_Driver/Src/stm32f4xx_ll_sdmmc.c **** 
 2858              		.loc 1 1045 1 view .LVU834
 2859              		.cfi_endproc
 2860              	.LFE166:
 2862              		.section	.text.SDMMC_CmdStatusRegister,"ax",%progbits
 2863              		.align	1
 2864              		.global	SDMMC_CmdStatusRegister
 2865              		.syntax unified
 2866              		.thumb
 2867              		.thumb_func
 2868              		.fpu fpv4-sp-d16
 2870              	SDMMC_CmdStatusRegister:
 2871              	.LVL204:
 2872              	.LFB167:
1053:HALLIB/STM32F4xx_HAL_Driver/Src/stm32f4xx_ll_sdmmc.c ****   SDIO_CmdInitTypeDef  sdmmc_cmdinit;
 2873              		.loc 1 1053 1 is_stmt 1 view -0
 2874              		.cfi_startproc
 2875              		@ args = 0, pretend = 0, frame = 24
ARM GAS  /tmp/cce5sGk9.s 			page 89


 2876              		@ frame_needed = 0, uses_anonymous_args = 0
1053:HALLIB/STM32F4xx_HAL_Driver/Src/stm32f4xx_ll_sdmmc.c ****   SDIO_CmdInitTypeDef  sdmmc_cmdinit;
 2877              		.loc 1 1053 1 is_stmt 0 view .LVU836
 2878 0000 30B5     		push	{r4, r5, lr}
 2879              	.LCFI74:
 2880              		.cfi_def_cfa_offset 12
 2881              		.cfi_offset 4, -12
 2882              		.cfi_offset 5, -8
 2883              		.cfi_offset 14, -4
 2884 0002 87B0     		sub	sp, sp, #28
 2885              	.LCFI75:
 2886              		.cfi_def_cfa_offset 40
 2887 0004 0446     		mov	r4, r0
1054:HALLIB/STM32F4xx_HAL_Driver/Src/stm32f4xx_ll_sdmmc.c ****   uint32_t errorstate = SDMMC_ERROR_NONE;
 2888              		.loc 1 1054 3 is_stmt 1 view .LVU837
1055:HALLIB/STM32F4xx_HAL_Driver/Src/stm32f4xx_ll_sdmmc.c ****   
 2889              		.loc 1 1055 3 view .LVU838
 2890              	.LVL205:
1057:HALLIB/STM32F4xx_HAL_Driver/Src/stm32f4xx_ll_sdmmc.c ****   sdmmc_cmdinit.CmdIndex         = SDMMC_CMD_SD_APP_STATUS;
 2891              		.loc 1 1057 3 view .LVU839
1057:HALLIB/STM32F4xx_HAL_Driver/Src/stm32f4xx_ll_sdmmc.c ****   sdmmc_cmdinit.CmdIndex         = SDMMC_CMD_SD_APP_STATUS;
 2892              		.loc 1 1057 34 is_stmt 0 view .LVU840
 2893 0006 0023     		movs	r3, #0
 2894 0008 0193     		str	r3, [sp, #4]
1058:HALLIB/STM32F4xx_HAL_Driver/Src/stm32f4xx_ll_sdmmc.c ****   sdmmc_cmdinit.Response         = SDIO_RESPONSE_SHORT;
 2895              		.loc 1 1058 3 is_stmt 1 view .LVU841
1058:HALLIB/STM32F4xx_HAL_Driver/Src/stm32f4xx_ll_sdmmc.c ****   sdmmc_cmdinit.Response         = SDIO_RESPONSE_SHORT;
 2896              		.loc 1 1058 34 is_stmt 0 view .LVU842
 2897 000a 0D25     		movs	r5, #13
 2898 000c 0295     		str	r5, [sp, #8]
1059:HALLIB/STM32F4xx_HAL_Driver/Src/stm32f4xx_ll_sdmmc.c ****   sdmmc_cmdinit.WaitForInterrupt = SDIO_WAIT_NO;
 2899              		.loc 1 1059 3 is_stmt 1 view .LVU843
1059:HALLIB/STM32F4xx_HAL_Driver/Src/stm32f4xx_ll_sdmmc.c ****   sdmmc_cmdinit.WaitForInterrupt = SDIO_WAIT_NO;
 2900              		.loc 1 1059 34 is_stmt 0 view .LVU844
 2901 000e 4022     		movs	r2, #64
 2902 0010 0392     		str	r2, [sp, #12]
1060:HALLIB/STM32F4xx_HAL_Driver/Src/stm32f4xx_ll_sdmmc.c ****   sdmmc_cmdinit.CPSM             = SDIO_CPSM_ENABLE;
 2903              		.loc 1 1060 3 is_stmt 1 view .LVU845
1060:HALLIB/STM32F4xx_HAL_Driver/Src/stm32f4xx_ll_sdmmc.c ****   sdmmc_cmdinit.CPSM             = SDIO_CPSM_ENABLE;
 2904              		.loc 1 1060 34 is_stmt 0 view .LVU846
 2905 0012 0493     		str	r3, [sp, #16]
1061:HALLIB/STM32F4xx_HAL_Driver/Src/stm32f4xx_ll_sdmmc.c ****   SDIO_SendCommand(SDIOx, &sdmmc_cmdinit);
 2906              		.loc 1 1061 3 is_stmt 1 view .LVU847
1061:HALLIB/STM32F4xx_HAL_Driver/Src/stm32f4xx_ll_sdmmc.c ****   SDIO_SendCommand(SDIOx, &sdmmc_cmdinit);
 2907              		.loc 1 1061 34 is_stmt 0 view .LVU848
 2908 0014 4FF48063 		mov	r3, #1024
 2909 0018 0593     		str	r3, [sp, #20]
1062:HALLIB/STM32F4xx_HAL_Driver/Src/stm32f4xx_ll_sdmmc.c ****   
 2910              		.loc 1 1062 3 is_stmt 1 view .LVU849
 2911 001a 01A9     		add	r1, sp, #4
 2912 001c FFF7FEFF 		bl	SDIO_SendCommand
 2913              	.LVL206:
1065:HALLIB/STM32F4xx_HAL_Driver/Src/stm32f4xx_ll_sdmmc.c **** 
 2914              		.loc 1 1065 3 view .LVU850
1065:HALLIB/STM32F4xx_HAL_Driver/Src/stm32f4xx_ll_sdmmc.c **** 
 2915              		.loc 1 1065 16 is_stmt 0 view .LVU851
 2916 0020 41F28832 		movw	r2, #5000
ARM GAS  /tmp/cce5sGk9.s 			page 90


 2917 0024 2946     		mov	r1, r5
 2918 0026 2046     		mov	r0, r4
 2919 0028 FFF7FEFF 		bl	SDMMC_GetCmdResp1
 2920              	.LVL207:
1067:HALLIB/STM32F4xx_HAL_Driver/Src/stm32f4xx_ll_sdmmc.c **** }
 2921              		.loc 1 1067 3 is_stmt 1 view .LVU852
1068:HALLIB/STM32F4xx_HAL_Driver/Src/stm32f4xx_ll_sdmmc.c **** 
 2922              		.loc 1 1068 1 is_stmt 0 view .LVU853
 2923 002c 07B0     		add	sp, sp, #28
 2924              	.LCFI76:
 2925              		.cfi_def_cfa_offset 12
 2926              		@ sp needed
 2927 002e 30BD     		pop	{r4, r5, pc}
1068:HALLIB/STM32F4xx_HAL_Driver/Src/stm32f4xx_ll_sdmmc.c **** 
 2928              		.loc 1 1068 1 view .LVU854
 2929              		.cfi_endproc
 2930              	.LFE167:
 2932              		.section	.text.SDMMC_CmdOpCondition,"ax",%progbits
 2933              		.align	1
 2934              		.global	SDMMC_CmdOpCondition
 2935              		.syntax unified
 2936              		.thumb
 2937              		.thumb_func
 2938              		.fpu fpv4-sp-d16
 2940              	SDMMC_CmdOpCondition:
 2941              	.LVL208:
 2942              	.LFB168:
1078:HALLIB/STM32F4xx_HAL_Driver/Src/stm32f4xx_ll_sdmmc.c ****   SDIO_CmdInitTypeDef  sdmmc_cmdinit;
 2943              		.loc 1 1078 1 is_stmt 1 view -0
 2944              		.cfi_startproc
 2945              		@ args = 0, pretend = 0, frame = 24
 2946              		@ frame_needed = 0, uses_anonymous_args = 0
1078:HALLIB/STM32F4xx_HAL_Driver/Src/stm32f4xx_ll_sdmmc.c ****   SDIO_CmdInitTypeDef  sdmmc_cmdinit;
 2947              		.loc 1 1078 1 is_stmt 0 view .LVU856
 2948 0000 10B5     		push	{r4, lr}
 2949              	.LCFI77:
 2950              		.cfi_def_cfa_offset 8
 2951              		.cfi_offset 4, -8
 2952              		.cfi_offset 14, -4
 2953 0002 86B0     		sub	sp, sp, #24
 2954              	.LCFI78:
 2955              		.cfi_def_cfa_offset 32
 2956 0004 0446     		mov	r4, r0
1079:HALLIB/STM32F4xx_HAL_Driver/Src/stm32f4xx_ll_sdmmc.c ****   uint32_t errorstate = SDMMC_ERROR_NONE;
 2957              		.loc 1 1079 3 is_stmt 1 view .LVU857
1080:HALLIB/STM32F4xx_HAL_Driver/Src/stm32f4xx_ll_sdmmc.c ****   
 2958              		.loc 1 1080 3 view .LVU858
 2959              	.LVL209:
1082:HALLIB/STM32F4xx_HAL_Driver/Src/stm32f4xx_ll_sdmmc.c ****   sdmmc_cmdinit.CmdIndex         = SDMMC_CMD_SEND_OP_COND;
 2960              		.loc 1 1082 3 view .LVU859
1082:HALLIB/STM32F4xx_HAL_Driver/Src/stm32f4xx_ll_sdmmc.c ****   sdmmc_cmdinit.CmdIndex         = SDMMC_CMD_SEND_OP_COND;
 2961              		.loc 1 1082 34 is_stmt 0 view .LVU860
 2962 0006 0191     		str	r1, [sp, #4]
1083:HALLIB/STM32F4xx_HAL_Driver/Src/stm32f4xx_ll_sdmmc.c ****   sdmmc_cmdinit.Response         = SDIO_RESPONSE_SHORT;
 2963              		.loc 1 1083 3 is_stmt 1 view .LVU861
1083:HALLIB/STM32F4xx_HAL_Driver/Src/stm32f4xx_ll_sdmmc.c ****   sdmmc_cmdinit.Response         = SDIO_RESPONSE_SHORT;
 2964              		.loc 1 1083 34 is_stmt 0 view .LVU862
ARM GAS  /tmp/cce5sGk9.s 			page 91


 2965 0008 0123     		movs	r3, #1
 2966 000a 0293     		str	r3, [sp, #8]
1084:HALLIB/STM32F4xx_HAL_Driver/Src/stm32f4xx_ll_sdmmc.c ****   sdmmc_cmdinit.WaitForInterrupt = SDIO_WAIT_NO;
 2967              		.loc 1 1084 3 is_stmt 1 view .LVU863
1084:HALLIB/STM32F4xx_HAL_Driver/Src/stm32f4xx_ll_sdmmc.c ****   sdmmc_cmdinit.WaitForInterrupt = SDIO_WAIT_NO;
 2968              		.loc 1 1084 34 is_stmt 0 view .LVU864
 2969 000c 4023     		movs	r3, #64
 2970 000e 0393     		str	r3, [sp, #12]
1085:HALLIB/STM32F4xx_HAL_Driver/Src/stm32f4xx_ll_sdmmc.c ****   sdmmc_cmdinit.CPSM             = SDIO_CPSM_ENABLE;
 2971              		.loc 1 1085 3 is_stmt 1 view .LVU865
1085:HALLIB/STM32F4xx_HAL_Driver/Src/stm32f4xx_ll_sdmmc.c ****   sdmmc_cmdinit.CPSM             = SDIO_CPSM_ENABLE;
 2972              		.loc 1 1085 34 is_stmt 0 view .LVU866
 2973 0010 0023     		movs	r3, #0
 2974 0012 0493     		str	r3, [sp, #16]
1086:HALLIB/STM32F4xx_HAL_Driver/Src/stm32f4xx_ll_sdmmc.c ****   SDIO_SendCommand(SDIOx, &sdmmc_cmdinit);
 2975              		.loc 1 1086 3 is_stmt 1 view .LVU867
1086:HALLIB/STM32F4xx_HAL_Driver/Src/stm32f4xx_ll_sdmmc.c ****   SDIO_SendCommand(SDIOx, &sdmmc_cmdinit);
 2976              		.loc 1 1086 34 is_stmt 0 view .LVU868
 2977 0014 4FF48063 		mov	r3, #1024
 2978 0018 0593     		str	r3, [sp, #20]
1087:HALLIB/STM32F4xx_HAL_Driver/Src/stm32f4xx_ll_sdmmc.c ****   
 2979              		.loc 1 1087 3 is_stmt 1 view .LVU869
 2980 001a 01A9     		add	r1, sp, #4
 2981              	.LVL210:
1087:HALLIB/STM32F4xx_HAL_Driver/Src/stm32f4xx_ll_sdmmc.c ****   
 2982              		.loc 1 1087 3 is_stmt 0 view .LVU870
 2983 001c FFF7FEFF 		bl	SDIO_SendCommand
 2984              	.LVL211:
1090:HALLIB/STM32F4xx_HAL_Driver/Src/stm32f4xx_ll_sdmmc.c **** 
 2985              		.loc 1 1090 3 is_stmt 1 view .LVU871
1090:HALLIB/STM32F4xx_HAL_Driver/Src/stm32f4xx_ll_sdmmc.c **** 
 2986              		.loc 1 1090 16 is_stmt 0 view .LVU872
 2987 0020 2046     		mov	r0, r4
 2988 0022 FFF7FEFF 		bl	SDMMC_GetCmdResp3
 2989              	.LVL212:
1092:HALLIB/STM32F4xx_HAL_Driver/Src/stm32f4xx_ll_sdmmc.c **** }
 2990              		.loc 1 1092 3 is_stmt 1 view .LVU873
1093:HALLIB/STM32F4xx_HAL_Driver/Src/stm32f4xx_ll_sdmmc.c **** 
 2991              		.loc 1 1093 1 is_stmt 0 view .LVU874
 2992 0026 06B0     		add	sp, sp, #24
 2993              	.LCFI79:
 2994              		.cfi_def_cfa_offset 8
 2995              		@ sp needed
 2996 0028 10BD     		pop	{r4, pc}
1093:HALLIB/STM32F4xx_HAL_Driver/Src/stm32f4xx_ll_sdmmc.c **** 
 2997              		.loc 1 1093 1 view .LVU875
 2998              		.cfi_endproc
 2999              	.LFE168:
 3001              		.section	.text.SDMMC_CmdSwitch,"ax",%progbits
 3002              		.align	1
 3003              		.global	SDMMC_CmdSwitch
 3004              		.syntax unified
 3005              		.thumb
 3006              		.thumb_func
 3007              		.fpu fpv4-sp-d16
 3009              	SDMMC_CmdSwitch:
 3010              	.LVL213:
ARM GAS  /tmp/cce5sGk9.s 			page 92


 3011              	.LFB169:
1102:HALLIB/STM32F4xx_HAL_Driver/Src/stm32f4xx_ll_sdmmc.c ****   SDIO_CmdInitTypeDef  sdmmc_cmdinit;
 3012              		.loc 1 1102 1 is_stmt 1 view -0
 3013              		.cfi_startproc
 3014              		@ args = 0, pretend = 0, frame = 24
 3015              		@ frame_needed = 0, uses_anonymous_args = 0
1102:HALLIB/STM32F4xx_HAL_Driver/Src/stm32f4xx_ll_sdmmc.c ****   SDIO_CmdInitTypeDef  sdmmc_cmdinit;
 3016              		.loc 1 1102 1 is_stmt 0 view .LVU877
 3017 0000 30B5     		push	{r4, r5, lr}
 3018              	.LCFI80:
 3019              		.cfi_def_cfa_offset 12
 3020              		.cfi_offset 4, -12
 3021              		.cfi_offset 5, -8
 3022              		.cfi_offset 14, -4
 3023 0002 87B0     		sub	sp, sp, #28
 3024              	.LCFI81:
 3025              		.cfi_def_cfa_offset 40
 3026 0004 0446     		mov	r4, r0
1103:HALLIB/STM32F4xx_HAL_Driver/Src/stm32f4xx_ll_sdmmc.c ****   uint32_t errorstate = SDMMC_ERROR_NONE;
 3027              		.loc 1 1103 3 is_stmt 1 view .LVU878
1104:HALLIB/STM32F4xx_HAL_Driver/Src/stm32f4xx_ll_sdmmc.c ****   
 3028              		.loc 1 1104 3 view .LVU879
 3029              	.LVL214:
1106:HALLIB/STM32F4xx_HAL_Driver/Src/stm32f4xx_ll_sdmmc.c ****   sdmmc_cmdinit.CmdIndex         = SDMMC_CMD_HS_SWITCH;
 3030              		.loc 1 1106 3 view .LVU880
1106:HALLIB/STM32F4xx_HAL_Driver/Src/stm32f4xx_ll_sdmmc.c ****   sdmmc_cmdinit.CmdIndex         = SDMMC_CMD_HS_SWITCH;
 3031              		.loc 1 1106 34 is_stmt 0 view .LVU881
 3032 0006 0191     		str	r1, [sp, #4]
1107:HALLIB/STM32F4xx_HAL_Driver/Src/stm32f4xx_ll_sdmmc.c ****   sdmmc_cmdinit.Response         = SDIO_RESPONSE_SHORT;
 3033              		.loc 1 1107 3 is_stmt 1 view .LVU882
1107:HALLIB/STM32F4xx_HAL_Driver/Src/stm32f4xx_ll_sdmmc.c ****   sdmmc_cmdinit.Response         = SDIO_RESPONSE_SHORT;
 3034              		.loc 1 1107 34 is_stmt 0 view .LVU883
 3035 0008 0625     		movs	r5, #6
 3036 000a 0295     		str	r5, [sp, #8]
1108:HALLIB/STM32F4xx_HAL_Driver/Src/stm32f4xx_ll_sdmmc.c ****   sdmmc_cmdinit.WaitForInterrupt = SDIO_WAIT_NO;
 3037              		.loc 1 1108 3 is_stmt 1 view .LVU884
1108:HALLIB/STM32F4xx_HAL_Driver/Src/stm32f4xx_ll_sdmmc.c ****   sdmmc_cmdinit.WaitForInterrupt = SDIO_WAIT_NO;
 3038              		.loc 1 1108 34 is_stmt 0 view .LVU885
 3039 000c 4023     		movs	r3, #64
 3040 000e 0393     		str	r3, [sp, #12]
1109:HALLIB/STM32F4xx_HAL_Driver/Src/stm32f4xx_ll_sdmmc.c ****   sdmmc_cmdinit.CPSM             = SDIO_CPSM_ENABLE;
 3041              		.loc 1 1109 3 is_stmt 1 view .LVU886
1109:HALLIB/STM32F4xx_HAL_Driver/Src/stm32f4xx_ll_sdmmc.c ****   sdmmc_cmdinit.CPSM             = SDIO_CPSM_ENABLE;
 3042              		.loc 1 1109 34 is_stmt 0 view .LVU887
 3043 0010 0023     		movs	r3, #0
 3044 0012 0493     		str	r3, [sp, #16]
1110:HALLIB/STM32F4xx_HAL_Driver/Src/stm32f4xx_ll_sdmmc.c ****   SDIO_SendCommand(SDIOx, &sdmmc_cmdinit);
 3045              		.loc 1 1110 3 is_stmt 1 view .LVU888
1110:HALLIB/STM32F4xx_HAL_Driver/Src/stm32f4xx_ll_sdmmc.c ****   SDIO_SendCommand(SDIOx, &sdmmc_cmdinit);
 3046              		.loc 1 1110 34 is_stmt 0 view .LVU889
 3047 0014 4FF48063 		mov	r3, #1024
 3048 0018 0593     		str	r3, [sp, #20]
1111:HALLIB/STM32F4xx_HAL_Driver/Src/stm32f4xx_ll_sdmmc.c ****   
 3049              		.loc 1 1111 3 is_stmt 1 view .LVU890
 3050 001a 01A9     		add	r1, sp, #4
 3051              	.LVL215:
1111:HALLIB/STM32F4xx_HAL_Driver/Src/stm32f4xx_ll_sdmmc.c ****   
ARM GAS  /tmp/cce5sGk9.s 			page 93


 3052              		.loc 1 1111 3 is_stmt 0 view .LVU891
 3053 001c FFF7FEFF 		bl	SDIO_SendCommand
 3054              	.LVL216:
1114:HALLIB/STM32F4xx_HAL_Driver/Src/stm32f4xx_ll_sdmmc.c **** 
 3055              		.loc 1 1114 3 is_stmt 1 view .LVU892
1114:HALLIB/STM32F4xx_HAL_Driver/Src/stm32f4xx_ll_sdmmc.c **** 
 3056              		.loc 1 1114 16 is_stmt 0 view .LVU893
 3057 0020 41F28832 		movw	r2, #5000
 3058 0024 2946     		mov	r1, r5
 3059 0026 2046     		mov	r0, r4
 3060 0028 FFF7FEFF 		bl	SDMMC_GetCmdResp1
 3061              	.LVL217:
1116:HALLIB/STM32F4xx_HAL_Driver/Src/stm32f4xx_ll_sdmmc.c **** }
 3062              		.loc 1 1116 3 is_stmt 1 view .LVU894
1117:HALLIB/STM32F4xx_HAL_Driver/Src/stm32f4xx_ll_sdmmc.c **** 
 3063              		.loc 1 1117 1 is_stmt 0 view .LVU895
 3064 002c 07B0     		add	sp, sp, #28
 3065              	.LCFI82:
 3066              		.cfi_def_cfa_offset 12
 3067              		@ sp needed
 3068 002e 30BD     		pop	{r4, r5, pc}
1117:HALLIB/STM32F4xx_HAL_Driver/Src/stm32f4xx_ll_sdmmc.c **** 
 3069              		.loc 1 1117 1 view .LVU896
 3070              		.cfi_endproc
 3071              	.LFE169:
 3073              		.text
 3074              	.Letext0:
 3075              		.file 2 "/opt/gcc_arm/gcc-arm-none-eabi-9-2019-q4-major/arm-none-eabi/include/machine/_default_typ
 3076              		.file 3 "/opt/gcc_arm/gcc-arm-none-eabi-9-2019-q4-major/arm-none-eabi/include/sys/_stdint.h"
 3077              		.file 4 "CORE/core_cm4.h"
 3078              		.file 5 "USER/system_stm32f4xx.h"
 3079              		.file 6 "USER/stm32f407xx.h"
 3080              		.file 7 "USER/stm32f4xx.h"
 3081              		.file 8 "HALLIB/STM32F4xx_HAL_Driver/Inc/stm32f4xx_hal_def.h"
 3082              		.file 9 "HALLIB/STM32F4xx_HAL_Driver/Inc/stm32f4xx_ll_sdmmc.h"
ARM GAS  /tmp/cce5sGk9.s 			page 94


DEFINED SYMBOLS
                            *ABS*:0000000000000000 stm32f4xx_ll_sdmmc.c
     /tmp/cce5sGk9.s:18     .text.SDMMC_GetCmdError:0000000000000000 $t
     /tmp/cce5sGk9.s:25     .text.SDMMC_GetCmdError:0000000000000000 SDMMC_GetCmdError
     /tmp/cce5sGk9.s:81     .text.SDMMC_GetCmdError:0000000000000034 $d
     /tmp/cce5sGk9.s:87     .text.SDMMC_GetCmdResp2:0000000000000000 $t
     /tmp/cce5sGk9.s:93     .text.SDMMC_GetCmdResp2:0000000000000000 SDMMC_GetCmdResp2
     /tmp/cce5sGk9.s:176    .text.SDMMC_GetCmdResp2:0000000000000050 $d
     /tmp/cce5sGk9.s:182    .text.SDMMC_GetCmdResp3:0000000000000000 $t
     /tmp/cce5sGk9.s:188    .text.SDMMC_GetCmdResp3:0000000000000000 SDMMC_GetCmdResp3
     /tmp/cce5sGk9.s:257    .text.SDMMC_GetCmdResp3:0000000000000040 $d
     /tmp/cce5sGk9.s:263    .text.SDMMC_GetCmdResp7:0000000000000000 $t
     /tmp/cce5sGk9.s:269    .text.SDMMC_GetCmdResp7:0000000000000000 SDMMC_GetCmdResp7
     /tmp/cce5sGk9.s:347    .text.SDMMC_GetCmdResp7:000000000000004c $d
     /tmp/cce5sGk9.s:353    .text.SDIO_Init:0000000000000000 $t
     /tmp/cce5sGk9.s:360    .text.SDIO_Init:0000000000000000 SDIO_Init
     /tmp/cce5sGk9.s:436    .text.SDIO_ReadFIFO:0000000000000000 $t
     /tmp/cce5sGk9.s:443    .text.SDIO_ReadFIFO:0000000000000000 SDIO_ReadFIFO
     /tmp/cce5sGk9.s:461    .text.SDIO_WriteFIFO:0000000000000000 $t
     /tmp/cce5sGk9.s:468    .text.SDIO_WriteFIFO:0000000000000000 SDIO_WriteFIFO
     /tmp/cce5sGk9.s:491    .text.SDIO_PowerState_ON:0000000000000000 $t
     /tmp/cce5sGk9.s:498    .text.SDIO_PowerState_ON:0000000000000000 SDIO_PowerState_ON
     /tmp/cce5sGk9.s:520    .text.SDIO_PowerState_OFF:0000000000000000 $t
     /tmp/cce5sGk9.s:527    .text.SDIO_PowerState_OFF:0000000000000000 SDIO_PowerState_OFF
     /tmp/cce5sGk9.s:550    .text.SDIO_GetPowerState:0000000000000000 $t
     /tmp/cce5sGk9.s:557    .text.SDIO_GetPowerState:0000000000000000 SDIO_GetPowerState
     /tmp/cce5sGk9.s:576    .text.SDIO_SendCommand:0000000000000000 $t
     /tmp/cce5sGk9.s:583    .text.SDIO_SendCommand:0000000000000000 SDIO_SendCommand
     /tmp/cce5sGk9.s:636    .text.SDIO_GetCommandResponse:0000000000000000 $t
     /tmp/cce5sGk9.s:643    .text.SDIO_GetCommandResponse:0000000000000000 SDIO_GetCommandResponse
     /tmp/cce5sGk9.s:662    .text.SDIO_GetResponse:0000000000000000 $t
     /tmp/cce5sGk9.s:669    .text.SDIO_GetResponse:0000000000000000 SDIO_GetResponse
     /tmp/cce5sGk9.s:710    .text.SDMMC_GetCmdResp1:0000000000000000 $t
     /tmp/cce5sGk9.s:716    .text.SDMMC_GetCmdResp1:0000000000000000 SDMMC_GetCmdResp1
     /tmp/cce5sGk9.s:986    .text.SDMMC_GetCmdResp1:0000000000000144 $d
     /tmp/cce5sGk9.s:993    .text.SDMMC_GetCmdResp6:0000000000000000 $t
     /tmp/cce5sGk9.s:999    .text.SDMMC_GetCmdResp6:0000000000000000 SDMMC_GetCmdResp6
     /tmp/cce5sGk9.s:1147   .text.SDMMC_GetCmdResp6:0000000000000094 $d
     /tmp/cce5sGk9.s:1153   .text.SDIO_ConfigData:0000000000000000 $t
     /tmp/cce5sGk9.s:1160   .text.SDIO_ConfigData:0000000000000000 SDIO_ConfigData
     /tmp/cce5sGk9.s:1218   .text.SDIO_GetDataCounter:0000000000000000 $t
     /tmp/cce5sGk9.s:1225   .text.SDIO_GetDataCounter:0000000000000000 SDIO_GetDataCounter
     /tmp/cce5sGk9.s:1243   .text.SDIO_GetFIFOCount:0000000000000000 $t
     /tmp/cce5sGk9.s:1250   .text.SDIO_GetFIFOCount:0000000000000000 SDIO_GetFIFOCount
     /tmp/cce5sGk9.s:1268   .text.SDIO_SetSDMMCReadWaitMode:0000000000000000 $t
     /tmp/cce5sGk9.s:1275   .text.SDIO_SetSDMMCReadWaitMode:0000000000000000 SDIO_SetSDMMCReadWaitMode
     /tmp/cce5sGk9.s:1299   .text.SDMMC_CmdBlockLength:0000000000000000 $t
     /tmp/cce5sGk9.s:1306   .text.SDMMC_CmdBlockLength:0000000000000000 SDMMC_CmdBlockLength
     /tmp/cce5sGk9.s:1371   .text.SDMMC_CmdReadSingleBlock:0000000000000000 $t
     /tmp/cce5sGk9.s:1378   .text.SDMMC_CmdReadSingleBlock:0000000000000000 SDMMC_CmdReadSingleBlock
     /tmp/cce5sGk9.s:1443   .text.SDMMC_CmdReadMultiBlock:0000000000000000 $t
     /tmp/cce5sGk9.s:1450   .text.SDMMC_CmdReadMultiBlock:0000000000000000 SDMMC_CmdReadMultiBlock
     /tmp/cce5sGk9.s:1515   .text.SDMMC_CmdWriteSingleBlock:0000000000000000 $t
     /tmp/cce5sGk9.s:1522   .text.SDMMC_CmdWriteSingleBlock:0000000000000000 SDMMC_CmdWriteSingleBlock
     /tmp/cce5sGk9.s:1587   .text.SDMMC_CmdWriteMultiBlock:0000000000000000 $t
     /tmp/cce5sGk9.s:1594   .text.SDMMC_CmdWriteMultiBlock:0000000000000000 SDMMC_CmdWriteMultiBlock
     /tmp/cce5sGk9.s:1659   .text.SDMMC_CmdSDEraseStartAdd:0000000000000000 $t
ARM GAS  /tmp/cce5sGk9.s 			page 95


     /tmp/cce5sGk9.s:1666   .text.SDMMC_CmdSDEraseStartAdd:0000000000000000 SDMMC_CmdSDEraseStartAdd
     /tmp/cce5sGk9.s:1731   .text.SDMMC_CmdSDEraseEndAdd:0000000000000000 $t
     /tmp/cce5sGk9.s:1738   .text.SDMMC_CmdSDEraseEndAdd:0000000000000000 SDMMC_CmdSDEraseEndAdd
     /tmp/cce5sGk9.s:1803   .text.SDMMC_CmdEraseStartAdd:0000000000000000 $t
     /tmp/cce5sGk9.s:1810   .text.SDMMC_CmdEraseStartAdd:0000000000000000 SDMMC_CmdEraseStartAdd
     /tmp/cce5sGk9.s:1875   .text.SDMMC_CmdEraseEndAdd:0000000000000000 $t
     /tmp/cce5sGk9.s:1882   .text.SDMMC_CmdEraseEndAdd:0000000000000000 SDMMC_CmdEraseEndAdd
     /tmp/cce5sGk9.s:1947   .text.SDMMC_CmdErase:0000000000000000 $t
     /tmp/cce5sGk9.s:1954   .text.SDMMC_CmdErase:0000000000000000 SDMMC_CmdErase
     /tmp/cce5sGk9.s:2017   .text.SDMMC_CmdStopTransfer:0000000000000000 $t
     /tmp/cce5sGk9.s:2024   .text.SDMMC_CmdStopTransfer:0000000000000000 SDMMC_CmdStopTransfer
     /tmp/cce5sGk9.s:2087   .text.SDMMC_CmdStopTransfer:0000000000000030 $d
     /tmp/cce5sGk9.s:2092   .text.SDMMC_CmdSelDesel:0000000000000000 $t
     /tmp/cce5sGk9.s:2099   .text.SDMMC_CmdSelDesel:0000000000000000 SDMMC_CmdSelDesel
     /tmp/cce5sGk9.s:2162   .text.SDMMC_CmdGoIdleState:0000000000000000 $t
     /tmp/cce5sGk9.s:2169   .text.SDMMC_CmdGoIdleState:0000000000000000 SDMMC_CmdGoIdleState
     /tmp/cce5sGk9.s:2227   .text.SDMMC_CmdOperCond:0000000000000000 $t
     /tmp/cce5sGk9.s:2234   .text.SDMMC_CmdOperCond:0000000000000000 SDMMC_CmdOperCond
     /tmp/cce5sGk9.s:2295   .text.SDMMC_CmdAppCommand:0000000000000000 $t
     /tmp/cce5sGk9.s:2302   .text.SDMMC_CmdAppCommand:0000000000000000 SDMMC_CmdAppCommand
     /tmp/cce5sGk9.s:2367   .text.SDMMC_CmdAppOperCommand:0000000000000000 $t
     /tmp/cce5sGk9.s:2374   .text.SDMMC_CmdAppOperCommand:0000000000000000 SDMMC_CmdAppOperCommand
     /tmp/cce5sGk9.s:2439   .text.SDMMC_CmdBusWidth:0000000000000000 $t
     /tmp/cce5sGk9.s:2446   .text.SDMMC_CmdBusWidth:0000000000000000 SDMMC_CmdBusWidth
     /tmp/cce5sGk9.s:2511   .text.SDMMC_CmdSendSCR:0000000000000000 $t
     /tmp/cce5sGk9.s:2518   .text.SDMMC_CmdSendSCR:0000000000000000 SDMMC_CmdSendSCR
     /tmp/cce5sGk9.s:2581   .text.SDMMC_CmdSendCID:0000000000000000 $t
     /tmp/cce5sGk9.s:2588   .text.SDMMC_CmdSendCID:0000000000000000 SDMMC_CmdSendCID
     /tmp/cce5sGk9.s:2648   .text.SDMMC_CmdSendCSD:0000000000000000 $t
     /tmp/cce5sGk9.s:2655   .text.SDMMC_CmdSendCSD:0000000000000000 SDMMC_CmdSendCSD
     /tmp/cce5sGk9.s:2717   .text.SDMMC_CmdSetRelAdd:0000000000000000 $t
     /tmp/cce5sGk9.s:2724   .text.SDMMC_CmdSetRelAdd:0000000000000000 SDMMC_CmdSetRelAdd
     /tmp/cce5sGk9.s:2791   .text.SDMMC_CmdSendStatus:0000000000000000 $t
     /tmp/cce5sGk9.s:2798   .text.SDMMC_CmdSendStatus:0000000000000000 SDMMC_CmdSendStatus
     /tmp/cce5sGk9.s:2863   .text.SDMMC_CmdStatusRegister:0000000000000000 $t
     /tmp/cce5sGk9.s:2870   .text.SDMMC_CmdStatusRegister:0000000000000000 SDMMC_CmdStatusRegister
     /tmp/cce5sGk9.s:2933   .text.SDMMC_CmdOpCondition:0000000000000000 $t
     /tmp/cce5sGk9.s:2940   .text.SDMMC_CmdOpCondition:0000000000000000 SDMMC_CmdOpCondition
     /tmp/cce5sGk9.s:3002   .text.SDMMC_CmdSwitch:0000000000000000 $t
     /tmp/cce5sGk9.s:3009   .text.SDMMC_CmdSwitch:0000000000000000 SDMMC_CmdSwitch

UNDEFINED SYMBOLS
SystemCoreClock
