ARM GAS  /tmp/ccrUXzMj.s 			page 1


   1              		.cpu cortex-m4
   2              		.eabi_attribute 27, 1
   3              		.eabi_attribute 28, 1
   4              		.eabi_attribute 20, 1
   5              		.eabi_attribute 21, 1
   6              		.eabi_attribute 23, 3
   7              		.eabi_attribute 24, 1
   8              		.eabi_attribute 25, 1
   9              		.eabi_attribute 26, 1
  10              		.eabi_attribute 30, 1
  11              		.eabi_attribute 34, 1
  12              		.eabi_attribute 18, 4
  13              		.file	"stm32f4xx_hal_sram.c"
  14              		.text
  15              	.Ltext0:
  16              		.cfi_sections	.debug_frame
  17              		.section	.text.HAL_SRAM_DMA_XferCpltCallback,"ax",%progbits
  18              		.align	1
  19              		.weak	HAL_SRAM_DMA_XferCpltCallback
  20              		.arch armv7e-m
  21              		.syntax unified
  22              		.thumb
  23              		.thumb_func
  24              		.fpu fpv4-sp-d16
  26              	HAL_SRAM_DMA_XferCpltCallback:
  27              	.LVL0:
  28              	.LFB136:
  29              		.file 1 "HALLIB/STM32F4xx_HAL_Driver/Src/stm32f4xx_hal_sram.c"
   1:HALLIB/STM32F4xx_HAL_Driver/Src/stm32f4xx_hal_sram.c **** /**
   2:HALLIB/STM32F4xx_HAL_Driver/Src/stm32f4xx_hal_sram.c ****   ******************************************************************************
   3:HALLIB/STM32F4xx_HAL_Driver/Src/stm32f4xx_hal_sram.c ****   * @file    stm32f4xx_hal_sram.c
   4:HALLIB/STM32F4xx_HAL_Driver/Src/stm32f4xx_hal_sram.c ****   * @author  MCD Application Team
   5:HALLIB/STM32F4xx_HAL_Driver/Src/stm32f4xx_hal_sram.c ****   * @brief   SRAM HAL module driver.
   6:HALLIB/STM32F4xx_HAL_Driver/Src/stm32f4xx_hal_sram.c ****   *          This file provides a generic firmware to drive SRAM memories  
   7:HALLIB/STM32F4xx_HAL_Driver/Src/stm32f4xx_hal_sram.c ****   *          mounted as external device.
   8:HALLIB/STM32F4xx_HAL_Driver/Src/stm32f4xx_hal_sram.c ****   *         
   9:HALLIB/STM32F4xx_HAL_Driver/Src/stm32f4xx_hal_sram.c ****   @verbatim
  10:HALLIB/STM32F4xx_HAL_Driver/Src/stm32f4xx_hal_sram.c ****   ==============================================================================
  11:HALLIB/STM32F4xx_HAL_Driver/Src/stm32f4xx_hal_sram.c ****                           ##### How to use this driver #####
  12:HALLIB/STM32F4xx_HAL_Driver/Src/stm32f4xx_hal_sram.c ****   ==============================================================================  
  13:HALLIB/STM32F4xx_HAL_Driver/Src/stm32f4xx_hal_sram.c ****   [..]
  14:HALLIB/STM32F4xx_HAL_Driver/Src/stm32f4xx_hal_sram.c ****     This driver is a generic layered driver which contains a set of APIs used to 
  15:HALLIB/STM32F4xx_HAL_Driver/Src/stm32f4xx_hal_sram.c ****     control SRAM memories. It uses the FMC layer functions to interface 
  16:HALLIB/STM32F4xx_HAL_Driver/Src/stm32f4xx_hal_sram.c ****     with SRAM devices.  
  17:HALLIB/STM32F4xx_HAL_Driver/Src/stm32f4xx_hal_sram.c ****     The following sequence should be followed to configure the FMC/FSMC to interface
  18:HALLIB/STM32F4xx_HAL_Driver/Src/stm32f4xx_hal_sram.c ****     with SRAM/PSRAM memories: 
  19:HALLIB/STM32F4xx_HAL_Driver/Src/stm32f4xx_hal_sram.c ****       
  20:HALLIB/STM32F4xx_HAL_Driver/Src/stm32f4xx_hal_sram.c ****    (#) Declare a SRAM_HandleTypeDef handle structure, for example:
  21:HALLIB/STM32F4xx_HAL_Driver/Src/stm32f4xx_hal_sram.c ****           SRAM_HandleTypeDef  hsram; and: 
  22:HALLIB/STM32F4xx_HAL_Driver/Src/stm32f4xx_hal_sram.c ****           
  23:HALLIB/STM32F4xx_HAL_Driver/Src/stm32f4xx_hal_sram.c ****        (++) Fill the SRAM_HandleTypeDef handle "Init" field with the allowed 
  24:HALLIB/STM32F4xx_HAL_Driver/Src/stm32f4xx_hal_sram.c ****             values of the structure member.
  25:HALLIB/STM32F4xx_HAL_Driver/Src/stm32f4xx_hal_sram.c ****             
  26:HALLIB/STM32F4xx_HAL_Driver/Src/stm32f4xx_hal_sram.c ****        (++) Fill the SRAM_HandleTypeDef handle "Instance" field with a predefined 
  27:HALLIB/STM32F4xx_HAL_Driver/Src/stm32f4xx_hal_sram.c ****             base register instance for NOR or SRAM device 
  28:HALLIB/STM32F4xx_HAL_Driver/Src/stm32f4xx_hal_sram.c ****                          
  29:HALLIB/STM32F4xx_HAL_Driver/Src/stm32f4xx_hal_sram.c ****        (++) Fill the SRAM_HandleTypeDef handle "Extended" field with a predefined
ARM GAS  /tmp/ccrUXzMj.s 			page 2


  30:HALLIB/STM32F4xx_HAL_Driver/Src/stm32f4xx_hal_sram.c ****             base register instance for NOR or SRAM extended mode 
  31:HALLIB/STM32F4xx_HAL_Driver/Src/stm32f4xx_hal_sram.c ****              
  32:HALLIB/STM32F4xx_HAL_Driver/Src/stm32f4xx_hal_sram.c ****    (#) Declare two FMC_NORSRAM_TimingTypeDef structures, for both normal and extended 
  33:HALLIB/STM32F4xx_HAL_Driver/Src/stm32f4xx_hal_sram.c ****        mode timings; for example:
  34:HALLIB/STM32F4xx_HAL_Driver/Src/stm32f4xx_hal_sram.c ****           FMC_NORSRAM_TimingTypeDef  Timing and FMC_NORSRAM_TimingTypeDef  ExTiming;
  35:HALLIB/STM32F4xx_HAL_Driver/Src/stm32f4xx_hal_sram.c ****       and fill its fields with the allowed values of the structure member.
  36:HALLIB/STM32F4xx_HAL_Driver/Src/stm32f4xx_hal_sram.c ****       
  37:HALLIB/STM32F4xx_HAL_Driver/Src/stm32f4xx_hal_sram.c ****    (#) Initialize the SRAM Controller by calling the function HAL_SRAM_Init(). This function
  38:HALLIB/STM32F4xx_HAL_Driver/Src/stm32f4xx_hal_sram.c ****        performs the following sequence:
  39:HALLIB/STM32F4xx_HAL_Driver/Src/stm32f4xx_hal_sram.c ****           
  40:HALLIB/STM32F4xx_HAL_Driver/Src/stm32f4xx_hal_sram.c ****        (##) MSP hardware layer configuration using the function HAL_SRAM_MspInit()
  41:HALLIB/STM32F4xx_HAL_Driver/Src/stm32f4xx_hal_sram.c ****        (##) Control register configuration using the FMC NORSRAM interface function 
  42:HALLIB/STM32F4xx_HAL_Driver/Src/stm32f4xx_hal_sram.c ****             FMC_NORSRAM_Init()
  43:HALLIB/STM32F4xx_HAL_Driver/Src/stm32f4xx_hal_sram.c ****        (##) Timing register configuration using the FMC NORSRAM interface function 
  44:HALLIB/STM32F4xx_HAL_Driver/Src/stm32f4xx_hal_sram.c ****             FMC_NORSRAM_Timing_Init()
  45:HALLIB/STM32F4xx_HAL_Driver/Src/stm32f4xx_hal_sram.c ****        (##) Extended mode Timing register configuration using the FMC NORSRAM interface function 
  46:HALLIB/STM32F4xx_HAL_Driver/Src/stm32f4xx_hal_sram.c ****             FMC_NORSRAM_Extended_Timing_Init()
  47:HALLIB/STM32F4xx_HAL_Driver/Src/stm32f4xx_hal_sram.c ****        (##) Enable the SRAM device using the macro __FMC_NORSRAM_ENABLE()    
  48:HALLIB/STM32F4xx_HAL_Driver/Src/stm32f4xx_hal_sram.c **** 
  49:HALLIB/STM32F4xx_HAL_Driver/Src/stm32f4xx_hal_sram.c ****    (#) At this stage you can perform read/write accesses from/to the memory connected 
  50:HALLIB/STM32F4xx_HAL_Driver/Src/stm32f4xx_hal_sram.c ****        to the NOR/SRAM Bank. You can perform either polling or DMA transfer using the
  51:HALLIB/STM32F4xx_HAL_Driver/Src/stm32f4xx_hal_sram.c ****        following APIs:
  52:HALLIB/STM32F4xx_HAL_Driver/Src/stm32f4xx_hal_sram.c ****        (++) HAL_SRAM_Read()/HAL_SRAM_Write() for polling read/write access
  53:HALLIB/STM32F4xx_HAL_Driver/Src/stm32f4xx_hal_sram.c ****        (++) HAL_SRAM_Read_DMA()/HAL_SRAM_Write_DMA() for DMA read/write transfer
  54:HALLIB/STM32F4xx_HAL_Driver/Src/stm32f4xx_hal_sram.c ****        
  55:HALLIB/STM32F4xx_HAL_Driver/Src/stm32f4xx_hal_sram.c ****    (#) You can also control the SRAM device by calling the control APIs HAL_SRAM_WriteOperation_Ena
  56:HALLIB/STM32F4xx_HAL_Driver/Src/stm32f4xx_hal_sram.c ****        HAL_SRAM_WriteOperation_Disable() to respectively enable/disable the SRAM write operation  
  57:HALLIB/STM32F4xx_HAL_Driver/Src/stm32f4xx_hal_sram.c ****        
  58:HALLIB/STM32F4xx_HAL_Driver/Src/stm32f4xx_hal_sram.c ****    (#) You can continuously monitor the SRAM device HAL state by calling the function
  59:HALLIB/STM32F4xx_HAL_Driver/Src/stm32f4xx_hal_sram.c ****        HAL_SRAM_GetState()
  60:HALLIB/STM32F4xx_HAL_Driver/Src/stm32f4xx_hal_sram.c **** 
  61:HALLIB/STM32F4xx_HAL_Driver/Src/stm32f4xx_hal_sram.c ****        *** Callback registration ***
  62:HALLIB/STM32F4xx_HAL_Driver/Src/stm32f4xx_hal_sram.c ****     =============================================
  63:HALLIB/STM32F4xx_HAL_Driver/Src/stm32f4xx_hal_sram.c ****     [..]
  64:HALLIB/STM32F4xx_HAL_Driver/Src/stm32f4xx_hal_sram.c ****       The compilation define  USE_HAL_SRAM_REGISTER_CALLBACKS when set to 1
  65:HALLIB/STM32F4xx_HAL_Driver/Src/stm32f4xx_hal_sram.c ****       allows the user to configure dynamically the driver callbacks.
  66:HALLIB/STM32F4xx_HAL_Driver/Src/stm32f4xx_hal_sram.c **** 
  67:HALLIB/STM32F4xx_HAL_Driver/Src/stm32f4xx_hal_sram.c ****       Use Functions @ref HAL_SRAM_RegisterCallback() to register a user callback,
  68:HALLIB/STM32F4xx_HAL_Driver/Src/stm32f4xx_hal_sram.c ****       it allows to register following callbacks:
  69:HALLIB/STM32F4xx_HAL_Driver/Src/stm32f4xx_hal_sram.c ****         (+) MspInitCallback    : SRAM MspInit.
  70:HALLIB/STM32F4xx_HAL_Driver/Src/stm32f4xx_hal_sram.c ****         (+) MspDeInitCallback  : SRAM MspDeInit.
  71:HALLIB/STM32F4xx_HAL_Driver/Src/stm32f4xx_hal_sram.c ****       This function takes as parameters the HAL peripheral handle, the Callback ID
  72:HALLIB/STM32F4xx_HAL_Driver/Src/stm32f4xx_hal_sram.c ****       and a pointer to the user callback function.
  73:HALLIB/STM32F4xx_HAL_Driver/Src/stm32f4xx_hal_sram.c **** 
  74:HALLIB/STM32F4xx_HAL_Driver/Src/stm32f4xx_hal_sram.c ****       Use function @ref HAL_SRAM_UnRegisterCallback() to reset a callback to the default
  75:HALLIB/STM32F4xx_HAL_Driver/Src/stm32f4xx_hal_sram.c ****       weak (surcharged) function. It allows to reset following callbacks:
  76:HALLIB/STM32F4xx_HAL_Driver/Src/stm32f4xx_hal_sram.c ****         (+) MspInitCallback    : SRAM MspInit.
  77:HALLIB/STM32F4xx_HAL_Driver/Src/stm32f4xx_hal_sram.c ****         (+) MspDeInitCallback  : SRAM MspDeInit.
  78:HALLIB/STM32F4xx_HAL_Driver/Src/stm32f4xx_hal_sram.c ****       This function) takes as parameters the HAL peripheral handle and the Callback ID.
  79:HALLIB/STM32F4xx_HAL_Driver/Src/stm32f4xx_hal_sram.c **** 
  80:HALLIB/STM32F4xx_HAL_Driver/Src/stm32f4xx_hal_sram.c ****       By default, after the @ref HAL_SRAM_Init and if the state is HAL_SRAM_STATE_RESET
  81:HALLIB/STM32F4xx_HAL_Driver/Src/stm32f4xx_hal_sram.c ****       all callbacks are reset to the corresponding legacy weak (surcharged) functions.
  82:HALLIB/STM32F4xx_HAL_Driver/Src/stm32f4xx_hal_sram.c ****       Exception done for MspInit and MspDeInit callbacks that are respectively
  83:HALLIB/STM32F4xx_HAL_Driver/Src/stm32f4xx_hal_sram.c ****       reset to the legacy weak (surcharged) functions in the @ref HAL_SRAM_Init
  84:HALLIB/STM32F4xx_HAL_Driver/Src/stm32f4xx_hal_sram.c ****       and @ref  HAL_SRAM_DeInit only when these callbacks are null (not registered beforehand).
  85:HALLIB/STM32F4xx_HAL_Driver/Src/stm32f4xx_hal_sram.c ****       If not, MspInit or MspDeInit are not null, the @ref HAL_SRAM_Init and @ref HAL_SRAM_DeInit
  86:HALLIB/STM32F4xx_HAL_Driver/Src/stm32f4xx_hal_sram.c ****       keep and use the user MspInit/MspDeInit callbacks (registered beforehand)
ARM GAS  /tmp/ccrUXzMj.s 			page 3


  87:HALLIB/STM32F4xx_HAL_Driver/Src/stm32f4xx_hal_sram.c **** 
  88:HALLIB/STM32F4xx_HAL_Driver/Src/stm32f4xx_hal_sram.c ****       Callbacks can be registered/unregistered in READY state only.
  89:HALLIB/STM32F4xx_HAL_Driver/Src/stm32f4xx_hal_sram.c ****       Exception done for MspInit/MspDeInit callbacks that can be registered/unregistered
  90:HALLIB/STM32F4xx_HAL_Driver/Src/stm32f4xx_hal_sram.c ****       in READY or RESET state, thus registered (user) MspInit/DeInit callbacks can be used
  91:HALLIB/STM32F4xx_HAL_Driver/Src/stm32f4xx_hal_sram.c ****       during the Init/DeInit.
  92:HALLIB/STM32F4xx_HAL_Driver/Src/stm32f4xx_hal_sram.c ****       In that case first register the MspInit/MspDeInit user callbacks
  93:HALLIB/STM32F4xx_HAL_Driver/Src/stm32f4xx_hal_sram.c ****       using @ref HAL_SRAM_RegisterCallback before calling @ref HAL_SRAM_DeInit
  94:HALLIB/STM32F4xx_HAL_Driver/Src/stm32f4xx_hal_sram.c ****       or @ref HAL_SRAM_Init function.
  95:HALLIB/STM32F4xx_HAL_Driver/Src/stm32f4xx_hal_sram.c **** 
  96:HALLIB/STM32F4xx_HAL_Driver/Src/stm32f4xx_hal_sram.c ****       When The compilation define USE_HAL_SRAM_REGISTER_CALLBACKS is set to 0 or
  97:HALLIB/STM32F4xx_HAL_Driver/Src/stm32f4xx_hal_sram.c ****       not defined, the callback registering feature is not available
  98:HALLIB/STM32F4xx_HAL_Driver/Src/stm32f4xx_hal_sram.c ****       and weak (surcharged) callbacks are used.
  99:HALLIB/STM32F4xx_HAL_Driver/Src/stm32f4xx_hal_sram.c **** 
 100:HALLIB/STM32F4xx_HAL_Driver/Src/stm32f4xx_hal_sram.c ****   @endverbatim
 101:HALLIB/STM32F4xx_HAL_Driver/Src/stm32f4xx_hal_sram.c ****   ******************************************************************************
 102:HALLIB/STM32F4xx_HAL_Driver/Src/stm32f4xx_hal_sram.c ****   * @attention
 103:HALLIB/STM32F4xx_HAL_Driver/Src/stm32f4xx_hal_sram.c ****   *
 104:HALLIB/STM32F4xx_HAL_Driver/Src/stm32f4xx_hal_sram.c ****   * <h2><center>&copy; Copyright (c) 2017 STMicroelectronics.
 105:HALLIB/STM32F4xx_HAL_Driver/Src/stm32f4xx_hal_sram.c ****   * All rights reserved.</center></h2>
 106:HALLIB/STM32F4xx_HAL_Driver/Src/stm32f4xx_hal_sram.c ****   *
 107:HALLIB/STM32F4xx_HAL_Driver/Src/stm32f4xx_hal_sram.c ****   * This software component is licensed by ST under BSD 3-Clause license,
 108:HALLIB/STM32F4xx_HAL_Driver/Src/stm32f4xx_hal_sram.c ****   * the "License"; You may not use this file except in compliance with the
 109:HALLIB/STM32F4xx_HAL_Driver/Src/stm32f4xx_hal_sram.c ****   * License. You may obtain a copy of the License at:
 110:HALLIB/STM32F4xx_HAL_Driver/Src/stm32f4xx_hal_sram.c ****   *                        opensource.org/licenses/BSD-3-Clause
 111:HALLIB/STM32F4xx_HAL_Driver/Src/stm32f4xx_hal_sram.c ****   *
 112:HALLIB/STM32F4xx_HAL_Driver/Src/stm32f4xx_hal_sram.c ****   ******************************************************************************
 113:HALLIB/STM32F4xx_HAL_Driver/Src/stm32f4xx_hal_sram.c ****   */ 
 114:HALLIB/STM32F4xx_HAL_Driver/Src/stm32f4xx_hal_sram.c **** 
 115:HALLIB/STM32F4xx_HAL_Driver/Src/stm32f4xx_hal_sram.c **** /* Includes ------------------------------------------------------------------*/
 116:HALLIB/STM32F4xx_HAL_Driver/Src/stm32f4xx_hal_sram.c **** #include "stm32f4xx_hal.h"
 117:HALLIB/STM32F4xx_HAL_Driver/Src/stm32f4xx_hal_sram.c **** 
 118:HALLIB/STM32F4xx_HAL_Driver/Src/stm32f4xx_hal_sram.c **** /** @addtogroup STM32F4xx_HAL_Driver
 119:HALLIB/STM32F4xx_HAL_Driver/Src/stm32f4xx_hal_sram.c ****   * @{
 120:HALLIB/STM32F4xx_HAL_Driver/Src/stm32f4xx_hal_sram.c ****   */
 121:HALLIB/STM32F4xx_HAL_Driver/Src/stm32f4xx_hal_sram.c **** 
 122:HALLIB/STM32F4xx_HAL_Driver/Src/stm32f4xx_hal_sram.c **** /** @defgroup SRAM SRAM
 123:HALLIB/STM32F4xx_HAL_Driver/Src/stm32f4xx_hal_sram.c ****   * @brief SRAM driver modules
 124:HALLIB/STM32F4xx_HAL_Driver/Src/stm32f4xx_hal_sram.c ****   * @{
 125:HALLIB/STM32F4xx_HAL_Driver/Src/stm32f4xx_hal_sram.c ****   */
 126:HALLIB/STM32F4xx_HAL_Driver/Src/stm32f4xx_hal_sram.c **** #ifdef HAL_SRAM_MODULE_ENABLED
 127:HALLIB/STM32F4xx_HAL_Driver/Src/stm32f4xx_hal_sram.c **** 
 128:HALLIB/STM32F4xx_HAL_Driver/Src/stm32f4xx_hal_sram.c **** #if defined(STM32F405xx) || defined(STM32F415xx) || defined(STM32F407xx) || defined(STM32F417xx) ||
 129:HALLIB/STM32F4xx_HAL_Driver/Src/stm32f4xx_hal_sram.c ****     defined(STM32F427xx) || defined(STM32F437xx) || defined(STM32F429xx) || defined(STM32F439xx) ||
 130:HALLIB/STM32F4xx_HAL_Driver/Src/stm32f4xx_hal_sram.c ****     defined(STM32F446xx) || defined(STM32F469xx) || defined(STM32F479xx) || defined(STM32F412Zx) ||
 131:HALLIB/STM32F4xx_HAL_Driver/Src/stm32f4xx_hal_sram.c ****     defined(STM32F412Vx) || defined(STM32F412Rx) || defined(STM32F413xx) || defined(STM32F423xx)
 132:HALLIB/STM32F4xx_HAL_Driver/Src/stm32f4xx_hal_sram.c **** 
 133:HALLIB/STM32F4xx_HAL_Driver/Src/stm32f4xx_hal_sram.c **** /* Private typedef -----------------------------------------------------------*/
 134:HALLIB/STM32F4xx_HAL_Driver/Src/stm32f4xx_hal_sram.c **** /* Private define ------------------------------------------------------------*/
 135:HALLIB/STM32F4xx_HAL_Driver/Src/stm32f4xx_hal_sram.c **** /* Private macro -------------------------------------------------------------*/    
 136:HALLIB/STM32F4xx_HAL_Driver/Src/stm32f4xx_hal_sram.c **** /* Private variables ---------------------------------------------------------*/
 137:HALLIB/STM32F4xx_HAL_Driver/Src/stm32f4xx_hal_sram.c **** /* Private functions ---------------------------------------------------------*/
 138:HALLIB/STM32F4xx_HAL_Driver/Src/stm32f4xx_hal_sram.c **** 
 139:HALLIB/STM32F4xx_HAL_Driver/Src/stm32f4xx_hal_sram.c **** /* Exported functions --------------------------------------------------------*/
 140:HALLIB/STM32F4xx_HAL_Driver/Src/stm32f4xx_hal_sram.c **** /** @defgroup SRAM_Exported_Functions SRAM Exported Functions
 141:HALLIB/STM32F4xx_HAL_Driver/Src/stm32f4xx_hal_sram.c ****   * @{
 142:HALLIB/STM32F4xx_HAL_Driver/Src/stm32f4xx_hal_sram.c ****   */
 143:HALLIB/STM32F4xx_HAL_Driver/Src/stm32f4xx_hal_sram.c **** /** @defgroup SRAM_Exported_Functions_Group1 Initialization and de-initialization functions 
ARM GAS  /tmp/ccrUXzMj.s 			page 4


 144:HALLIB/STM32F4xx_HAL_Driver/Src/stm32f4xx_hal_sram.c ****   * @brief    Initialization and Configuration functions 
 145:HALLIB/STM32F4xx_HAL_Driver/Src/stm32f4xx_hal_sram.c ****   *
 146:HALLIB/STM32F4xx_HAL_Driver/Src/stm32f4xx_hal_sram.c ****   @verbatim    
 147:HALLIB/STM32F4xx_HAL_Driver/Src/stm32f4xx_hal_sram.c ****   ==============================================================================
 148:HALLIB/STM32F4xx_HAL_Driver/Src/stm32f4xx_hal_sram.c ****            ##### SRAM Initialization and de_initialization functions #####
 149:HALLIB/STM32F4xx_HAL_Driver/Src/stm32f4xx_hal_sram.c ****   ==============================================================================
 150:HALLIB/STM32F4xx_HAL_Driver/Src/stm32f4xx_hal_sram.c ****     [..]  This section provides functions allowing to initialize/de-initialize
 151:HALLIB/STM32F4xx_HAL_Driver/Src/stm32f4xx_hal_sram.c ****           the SRAM memory
 152:HALLIB/STM32F4xx_HAL_Driver/Src/stm32f4xx_hal_sram.c ****   
 153:HALLIB/STM32F4xx_HAL_Driver/Src/stm32f4xx_hal_sram.c **** @endverbatim
 154:HALLIB/STM32F4xx_HAL_Driver/Src/stm32f4xx_hal_sram.c ****   * @{
 155:HALLIB/STM32F4xx_HAL_Driver/Src/stm32f4xx_hal_sram.c ****   */
 156:HALLIB/STM32F4xx_HAL_Driver/Src/stm32f4xx_hal_sram.c **** 
 157:HALLIB/STM32F4xx_HAL_Driver/Src/stm32f4xx_hal_sram.c **** /**
 158:HALLIB/STM32F4xx_HAL_Driver/Src/stm32f4xx_hal_sram.c ****   * @brief  Performs the SRAM device initialization sequence
 159:HALLIB/STM32F4xx_HAL_Driver/Src/stm32f4xx_hal_sram.c ****   * @param  hsram pointer to a SRAM_HandleTypeDef structure that contains
 160:HALLIB/STM32F4xx_HAL_Driver/Src/stm32f4xx_hal_sram.c ****   *                the configuration information for SRAM module.
 161:HALLIB/STM32F4xx_HAL_Driver/Src/stm32f4xx_hal_sram.c ****   * @param  Timing Pointer to SRAM control timing structure 
 162:HALLIB/STM32F4xx_HAL_Driver/Src/stm32f4xx_hal_sram.c ****   * @param  ExtTiming Pointer to SRAM extended mode timing structure  
 163:HALLIB/STM32F4xx_HAL_Driver/Src/stm32f4xx_hal_sram.c ****   * @retval HAL status
 164:HALLIB/STM32F4xx_HAL_Driver/Src/stm32f4xx_hal_sram.c ****   */
 165:HALLIB/STM32F4xx_HAL_Driver/Src/stm32f4xx_hal_sram.c **** HAL_StatusTypeDef HAL_SRAM_Init(SRAM_HandleTypeDef *hsram, FMC_NORSRAM_TimingTypeDef *Timing, FMC_N
 166:HALLIB/STM32F4xx_HAL_Driver/Src/stm32f4xx_hal_sram.c **** { 
 167:HALLIB/STM32F4xx_HAL_Driver/Src/stm32f4xx_hal_sram.c ****   /* Check the SRAM handle parameter */
 168:HALLIB/STM32F4xx_HAL_Driver/Src/stm32f4xx_hal_sram.c ****   if(hsram == NULL)
 169:HALLIB/STM32F4xx_HAL_Driver/Src/stm32f4xx_hal_sram.c ****   {
 170:HALLIB/STM32F4xx_HAL_Driver/Src/stm32f4xx_hal_sram.c ****      return HAL_ERROR;
 171:HALLIB/STM32F4xx_HAL_Driver/Src/stm32f4xx_hal_sram.c ****   }
 172:HALLIB/STM32F4xx_HAL_Driver/Src/stm32f4xx_hal_sram.c ****   
 173:HALLIB/STM32F4xx_HAL_Driver/Src/stm32f4xx_hal_sram.c ****   if(hsram->State == HAL_SRAM_STATE_RESET)
 174:HALLIB/STM32F4xx_HAL_Driver/Src/stm32f4xx_hal_sram.c ****   {  
 175:HALLIB/STM32F4xx_HAL_Driver/Src/stm32f4xx_hal_sram.c ****     /* Allocate lock resource and initialize it */
 176:HALLIB/STM32F4xx_HAL_Driver/Src/stm32f4xx_hal_sram.c ****     hsram->Lock = HAL_UNLOCKED;
 177:HALLIB/STM32F4xx_HAL_Driver/Src/stm32f4xx_hal_sram.c **** 
 178:HALLIB/STM32F4xx_HAL_Driver/Src/stm32f4xx_hal_sram.c **** #if (USE_HAL_SRAM_REGISTER_CALLBACKS == 1)
 179:HALLIB/STM32F4xx_HAL_Driver/Src/stm32f4xx_hal_sram.c ****     if(hsram->MspInitCallback == NULL)
 180:HALLIB/STM32F4xx_HAL_Driver/Src/stm32f4xx_hal_sram.c ****     {
 181:HALLIB/STM32F4xx_HAL_Driver/Src/stm32f4xx_hal_sram.c ****       hsram->MspInitCallback = HAL_SRAM_MspInit;
 182:HALLIB/STM32F4xx_HAL_Driver/Src/stm32f4xx_hal_sram.c ****     }
 183:HALLIB/STM32F4xx_HAL_Driver/Src/stm32f4xx_hal_sram.c ****     hsram->DmaXferCpltCallback = HAL_SRAM_DMA_XferCpltCallback;
 184:HALLIB/STM32F4xx_HAL_Driver/Src/stm32f4xx_hal_sram.c ****     hsram->DmaXferErrorCallback = HAL_SRAM_DMA_XferErrorCallback;
 185:HALLIB/STM32F4xx_HAL_Driver/Src/stm32f4xx_hal_sram.c **** 
 186:HALLIB/STM32F4xx_HAL_Driver/Src/stm32f4xx_hal_sram.c ****     /* Init the low level hardware */
 187:HALLIB/STM32F4xx_HAL_Driver/Src/stm32f4xx_hal_sram.c ****     hsram->MspInitCallback(hsram);
 188:HALLIB/STM32F4xx_HAL_Driver/Src/stm32f4xx_hal_sram.c **** #else
 189:HALLIB/STM32F4xx_HAL_Driver/Src/stm32f4xx_hal_sram.c ****     /* Initialize the low level hardware (MSP) */
 190:HALLIB/STM32F4xx_HAL_Driver/Src/stm32f4xx_hal_sram.c ****     HAL_SRAM_MspInit(hsram);
 191:HALLIB/STM32F4xx_HAL_Driver/Src/stm32f4xx_hal_sram.c **** #endif
 192:HALLIB/STM32F4xx_HAL_Driver/Src/stm32f4xx_hal_sram.c ****   }
 193:HALLIB/STM32F4xx_HAL_Driver/Src/stm32f4xx_hal_sram.c ****   
 194:HALLIB/STM32F4xx_HAL_Driver/Src/stm32f4xx_hal_sram.c ****   /* Initialize SRAM control Interface */
 195:HALLIB/STM32F4xx_HAL_Driver/Src/stm32f4xx_hal_sram.c ****   FMC_NORSRAM_Init(hsram->Instance, &(hsram->Init));
 196:HALLIB/STM32F4xx_HAL_Driver/Src/stm32f4xx_hal_sram.c **** 
 197:HALLIB/STM32F4xx_HAL_Driver/Src/stm32f4xx_hal_sram.c ****   /* Initialize SRAM timing Interface */
 198:HALLIB/STM32F4xx_HAL_Driver/Src/stm32f4xx_hal_sram.c ****   FMC_NORSRAM_Timing_Init(hsram->Instance, Timing, hsram->Init.NSBank); 
 199:HALLIB/STM32F4xx_HAL_Driver/Src/stm32f4xx_hal_sram.c **** 
 200:HALLIB/STM32F4xx_HAL_Driver/Src/stm32f4xx_hal_sram.c ****   /* Initialize SRAM extended mode timing Interface */
ARM GAS  /tmp/ccrUXzMj.s 			page 5


 201:HALLIB/STM32F4xx_HAL_Driver/Src/stm32f4xx_hal_sram.c ****   FMC_NORSRAM_Extended_Timing_Init(hsram->Extended, ExtTiming, hsram->Init.NSBank,  hsram->Init.Ext
 202:HALLIB/STM32F4xx_HAL_Driver/Src/stm32f4xx_hal_sram.c ****   
 203:HALLIB/STM32F4xx_HAL_Driver/Src/stm32f4xx_hal_sram.c ****   /* Enable the NORSRAM device */
 204:HALLIB/STM32F4xx_HAL_Driver/Src/stm32f4xx_hal_sram.c ****   __FMC_NORSRAM_ENABLE(hsram->Instance, hsram->Init.NSBank); 
 205:HALLIB/STM32F4xx_HAL_Driver/Src/stm32f4xx_hal_sram.c ****   
 206:HALLIB/STM32F4xx_HAL_Driver/Src/stm32f4xx_hal_sram.c ****   return HAL_OK;
 207:HALLIB/STM32F4xx_HAL_Driver/Src/stm32f4xx_hal_sram.c **** }
 208:HALLIB/STM32F4xx_HAL_Driver/Src/stm32f4xx_hal_sram.c **** 
 209:HALLIB/STM32F4xx_HAL_Driver/Src/stm32f4xx_hal_sram.c **** /**
 210:HALLIB/STM32F4xx_HAL_Driver/Src/stm32f4xx_hal_sram.c ****   * @brief  Performs the SRAM device De-initialization sequence.
 211:HALLIB/STM32F4xx_HAL_Driver/Src/stm32f4xx_hal_sram.c ****   * @param  hsram pointer to a SRAM_HandleTypeDef structure that contains
 212:HALLIB/STM32F4xx_HAL_Driver/Src/stm32f4xx_hal_sram.c ****   *                the configuration information for SRAM module.
 213:HALLIB/STM32F4xx_HAL_Driver/Src/stm32f4xx_hal_sram.c ****   * @retval HAL status
 214:HALLIB/STM32F4xx_HAL_Driver/Src/stm32f4xx_hal_sram.c ****   */
 215:HALLIB/STM32F4xx_HAL_Driver/Src/stm32f4xx_hal_sram.c **** HAL_StatusTypeDef  HAL_SRAM_DeInit(SRAM_HandleTypeDef *hsram)
 216:HALLIB/STM32F4xx_HAL_Driver/Src/stm32f4xx_hal_sram.c **** { 
 217:HALLIB/STM32F4xx_HAL_Driver/Src/stm32f4xx_hal_sram.c **** #if (USE_HAL_SRAM_REGISTER_CALLBACKS == 1)
 218:HALLIB/STM32F4xx_HAL_Driver/Src/stm32f4xx_hal_sram.c ****   if(hsram->MspDeInitCallback == NULL)
 219:HALLIB/STM32F4xx_HAL_Driver/Src/stm32f4xx_hal_sram.c ****   {
 220:HALLIB/STM32F4xx_HAL_Driver/Src/stm32f4xx_hal_sram.c ****     hsram->MspDeInitCallback = HAL_SRAM_MspDeInit;
 221:HALLIB/STM32F4xx_HAL_Driver/Src/stm32f4xx_hal_sram.c ****   }
 222:HALLIB/STM32F4xx_HAL_Driver/Src/stm32f4xx_hal_sram.c **** 
 223:HALLIB/STM32F4xx_HAL_Driver/Src/stm32f4xx_hal_sram.c ****   /* DeInit the low level hardware */
 224:HALLIB/STM32F4xx_HAL_Driver/Src/stm32f4xx_hal_sram.c ****   hsram->MspDeInitCallback(hsram);
 225:HALLIB/STM32F4xx_HAL_Driver/Src/stm32f4xx_hal_sram.c **** #else
 226:HALLIB/STM32F4xx_HAL_Driver/Src/stm32f4xx_hal_sram.c ****   /* De-Initialize the low level hardware (MSP) */
 227:HALLIB/STM32F4xx_HAL_Driver/Src/stm32f4xx_hal_sram.c ****   HAL_SRAM_MspDeInit(hsram);
 228:HALLIB/STM32F4xx_HAL_Driver/Src/stm32f4xx_hal_sram.c **** #endif
 229:HALLIB/STM32F4xx_HAL_Driver/Src/stm32f4xx_hal_sram.c **** 
 230:HALLIB/STM32F4xx_HAL_Driver/Src/stm32f4xx_hal_sram.c ****   /* Configure the SRAM registers with their reset values */
 231:HALLIB/STM32F4xx_HAL_Driver/Src/stm32f4xx_hal_sram.c ****   FMC_NORSRAM_DeInit(hsram->Instance, hsram->Extended, hsram->Init.NSBank);
 232:HALLIB/STM32F4xx_HAL_Driver/Src/stm32f4xx_hal_sram.c **** 
 233:HALLIB/STM32F4xx_HAL_Driver/Src/stm32f4xx_hal_sram.c ****   hsram->State = HAL_SRAM_STATE_RESET;
 234:HALLIB/STM32F4xx_HAL_Driver/Src/stm32f4xx_hal_sram.c ****   
 235:HALLIB/STM32F4xx_HAL_Driver/Src/stm32f4xx_hal_sram.c ****   /* Release Lock */
 236:HALLIB/STM32F4xx_HAL_Driver/Src/stm32f4xx_hal_sram.c ****   __HAL_UNLOCK(hsram);
 237:HALLIB/STM32F4xx_HAL_Driver/Src/stm32f4xx_hal_sram.c **** 
 238:HALLIB/STM32F4xx_HAL_Driver/Src/stm32f4xx_hal_sram.c ****   return HAL_OK;
 239:HALLIB/STM32F4xx_HAL_Driver/Src/stm32f4xx_hal_sram.c **** }
 240:HALLIB/STM32F4xx_HAL_Driver/Src/stm32f4xx_hal_sram.c **** 
 241:HALLIB/STM32F4xx_HAL_Driver/Src/stm32f4xx_hal_sram.c **** /**
 242:HALLIB/STM32F4xx_HAL_Driver/Src/stm32f4xx_hal_sram.c ****   * @brief  SRAM MSP Init.
 243:HALLIB/STM32F4xx_HAL_Driver/Src/stm32f4xx_hal_sram.c ****   * @param  hsram pointer to a SRAM_HandleTypeDef structure that contains
 244:HALLIB/STM32F4xx_HAL_Driver/Src/stm32f4xx_hal_sram.c ****   *                the configuration information for SRAM module.
 245:HALLIB/STM32F4xx_HAL_Driver/Src/stm32f4xx_hal_sram.c ****   * @retval None
 246:HALLIB/STM32F4xx_HAL_Driver/Src/stm32f4xx_hal_sram.c ****   */
 247:HALLIB/STM32F4xx_HAL_Driver/Src/stm32f4xx_hal_sram.c **** __weak void HAL_SRAM_MspInit(SRAM_HandleTypeDef *hsram)
 248:HALLIB/STM32F4xx_HAL_Driver/Src/stm32f4xx_hal_sram.c **** {
 249:HALLIB/STM32F4xx_HAL_Driver/Src/stm32f4xx_hal_sram.c ****   /* Prevent unused argument(s) compilation warning */
 250:HALLIB/STM32F4xx_HAL_Driver/Src/stm32f4xx_hal_sram.c ****   UNUSED(hsram);
 251:HALLIB/STM32F4xx_HAL_Driver/Src/stm32f4xx_hal_sram.c ****     /* NOTE : This function Should not be modified, when the callback is needed,
 252:HALLIB/STM32F4xx_HAL_Driver/Src/stm32f4xx_hal_sram.c ****             the HAL_SRAM_MspInit could be implemented in the user file
 253:HALLIB/STM32F4xx_HAL_Driver/Src/stm32f4xx_hal_sram.c ****    */ 
 254:HALLIB/STM32F4xx_HAL_Driver/Src/stm32f4xx_hal_sram.c **** }
 255:HALLIB/STM32F4xx_HAL_Driver/Src/stm32f4xx_hal_sram.c **** 
 256:HALLIB/STM32F4xx_HAL_Driver/Src/stm32f4xx_hal_sram.c **** /**
 257:HALLIB/STM32F4xx_HAL_Driver/Src/stm32f4xx_hal_sram.c ****   * @brief  SRAM MSP DeInit.
ARM GAS  /tmp/ccrUXzMj.s 			page 6


 258:HALLIB/STM32F4xx_HAL_Driver/Src/stm32f4xx_hal_sram.c ****   * @param  hsram pointer to a SRAM_HandleTypeDef structure that contains
 259:HALLIB/STM32F4xx_HAL_Driver/Src/stm32f4xx_hal_sram.c ****   *                the configuration information for SRAM module.
 260:HALLIB/STM32F4xx_HAL_Driver/Src/stm32f4xx_hal_sram.c ****   * @retval None
 261:HALLIB/STM32F4xx_HAL_Driver/Src/stm32f4xx_hal_sram.c ****   */
 262:HALLIB/STM32F4xx_HAL_Driver/Src/stm32f4xx_hal_sram.c **** __weak void HAL_SRAM_MspDeInit(SRAM_HandleTypeDef *hsram)
 263:HALLIB/STM32F4xx_HAL_Driver/Src/stm32f4xx_hal_sram.c **** {
 264:HALLIB/STM32F4xx_HAL_Driver/Src/stm32f4xx_hal_sram.c ****   /* Prevent unused argument(s) compilation warning */
 265:HALLIB/STM32F4xx_HAL_Driver/Src/stm32f4xx_hal_sram.c ****   UNUSED(hsram);
 266:HALLIB/STM32F4xx_HAL_Driver/Src/stm32f4xx_hal_sram.c ****   /* NOTE : This function Should not be modified, when the callback is needed,
 267:HALLIB/STM32F4xx_HAL_Driver/Src/stm32f4xx_hal_sram.c ****             the HAL_SRAM_MspDeInit could be implemented in the user file
 268:HALLIB/STM32F4xx_HAL_Driver/Src/stm32f4xx_hal_sram.c ****    */ 
 269:HALLIB/STM32F4xx_HAL_Driver/Src/stm32f4xx_hal_sram.c **** }
 270:HALLIB/STM32F4xx_HAL_Driver/Src/stm32f4xx_hal_sram.c **** 
 271:HALLIB/STM32F4xx_HAL_Driver/Src/stm32f4xx_hal_sram.c **** /**
 272:HALLIB/STM32F4xx_HAL_Driver/Src/stm32f4xx_hal_sram.c ****   * @brief  DMA transfer complete callback.
 273:HALLIB/STM32F4xx_HAL_Driver/Src/stm32f4xx_hal_sram.c ****   * @param  hdma pointer to a SRAM_HandleTypeDef structure that contains
 274:HALLIB/STM32F4xx_HAL_Driver/Src/stm32f4xx_hal_sram.c ****   *                the configuration information for SRAM module.
 275:HALLIB/STM32F4xx_HAL_Driver/Src/stm32f4xx_hal_sram.c ****   * @retval None
 276:HALLIB/STM32F4xx_HAL_Driver/Src/stm32f4xx_hal_sram.c ****   */
 277:HALLIB/STM32F4xx_HAL_Driver/Src/stm32f4xx_hal_sram.c **** __weak void HAL_SRAM_DMA_XferCpltCallback(DMA_HandleTypeDef *hdma)
 278:HALLIB/STM32F4xx_HAL_Driver/Src/stm32f4xx_hal_sram.c **** {
  30              		.loc 1 278 1 view -0
  31              		.cfi_startproc
  32              		@ args = 0, pretend = 0, frame = 0
  33              		@ frame_needed = 0, uses_anonymous_args = 0
  34              		@ link register save eliminated.
 279:HALLIB/STM32F4xx_HAL_Driver/Src/stm32f4xx_hal_sram.c ****   /* Prevent unused argument(s) compilation warning */
 280:HALLIB/STM32F4xx_HAL_Driver/Src/stm32f4xx_hal_sram.c ****   UNUSED(hdma);
  35              		.loc 1 280 3 view .LVU1
 281:HALLIB/STM32F4xx_HAL_Driver/Src/stm32f4xx_hal_sram.c ****   /* NOTE : This function Should not be modified, when the callback is needed,
 282:HALLIB/STM32F4xx_HAL_Driver/Src/stm32f4xx_hal_sram.c ****             the HAL_SRAM_DMA_XferCpltCallback could be implemented in the user file
 283:HALLIB/STM32F4xx_HAL_Driver/Src/stm32f4xx_hal_sram.c ****    */ 
 284:HALLIB/STM32F4xx_HAL_Driver/Src/stm32f4xx_hal_sram.c **** }
  36              		.loc 1 284 1 is_stmt 0 view .LVU2
  37 0000 7047     		bx	lr
  38              		.cfi_endproc
  39              	.LFE136:
  41              		.section	.text.HAL_SRAM_DMA_XferErrorCallback,"ax",%progbits
  42              		.align	1
  43              		.weak	HAL_SRAM_DMA_XferErrorCallback
  44              		.syntax unified
  45              		.thumb
  46              		.thumb_func
  47              		.fpu fpv4-sp-d16
  49              	HAL_SRAM_DMA_XferErrorCallback:
  50              	.LVL1:
  51              	.LFB137:
 285:HALLIB/STM32F4xx_HAL_Driver/Src/stm32f4xx_hal_sram.c **** 
 286:HALLIB/STM32F4xx_HAL_Driver/Src/stm32f4xx_hal_sram.c **** /**
 287:HALLIB/STM32F4xx_HAL_Driver/Src/stm32f4xx_hal_sram.c ****   * @brief  DMA transfer complete error callback.
 288:HALLIB/STM32F4xx_HAL_Driver/Src/stm32f4xx_hal_sram.c ****   * @param  hdma pointer to a SRAM_HandleTypeDef structure that contains
 289:HALLIB/STM32F4xx_HAL_Driver/Src/stm32f4xx_hal_sram.c ****   *                the configuration information for SRAM module.
 290:HALLIB/STM32F4xx_HAL_Driver/Src/stm32f4xx_hal_sram.c ****   * @retval None
 291:HALLIB/STM32F4xx_HAL_Driver/Src/stm32f4xx_hal_sram.c ****   */
 292:HALLIB/STM32F4xx_HAL_Driver/Src/stm32f4xx_hal_sram.c **** __weak void HAL_SRAM_DMA_XferErrorCallback(DMA_HandleTypeDef *hdma)
 293:HALLIB/STM32F4xx_HAL_Driver/Src/stm32f4xx_hal_sram.c **** {
  52              		.loc 1 293 1 is_stmt 1 view -0
ARM GAS  /tmp/ccrUXzMj.s 			page 7


  53              		.cfi_startproc
  54              		@ args = 0, pretend = 0, frame = 0
  55              		@ frame_needed = 0, uses_anonymous_args = 0
  56              		@ link register save eliminated.
 294:HALLIB/STM32F4xx_HAL_Driver/Src/stm32f4xx_hal_sram.c ****   /* Prevent unused argument(s) compilation warning */
 295:HALLIB/STM32F4xx_HAL_Driver/Src/stm32f4xx_hal_sram.c ****   UNUSED(hdma);
  57              		.loc 1 295 3 view .LVU4
 296:HALLIB/STM32F4xx_HAL_Driver/Src/stm32f4xx_hal_sram.c ****     /* NOTE : This function Should not be modified, when the callback is needed,
 297:HALLIB/STM32F4xx_HAL_Driver/Src/stm32f4xx_hal_sram.c ****             the HAL_SRAM_DMA_XferErrorCallback could be implemented in the user file
 298:HALLIB/STM32F4xx_HAL_Driver/Src/stm32f4xx_hal_sram.c ****    */ 
 299:HALLIB/STM32F4xx_HAL_Driver/Src/stm32f4xx_hal_sram.c **** }
  58              		.loc 1 299 1 is_stmt 0 view .LVU5
  59 0000 7047     		bx	lr
  60              		.cfi_endproc
  61              	.LFE137:
  63              		.section	.text.HAL_SRAM_MspInit,"ax",%progbits
  64              		.align	1
  65              		.weak	HAL_SRAM_MspInit
  66              		.syntax unified
  67              		.thumb
  68              		.thumb_func
  69              		.fpu fpv4-sp-d16
  71              	HAL_SRAM_MspInit:
  72              	.LVL2:
  73              	.LFB134:
 248:HALLIB/STM32F4xx_HAL_Driver/Src/stm32f4xx_hal_sram.c ****   /* Prevent unused argument(s) compilation warning */
  74              		.loc 1 248 1 is_stmt 1 view -0
  75              		.cfi_startproc
  76              		@ args = 0, pretend = 0, frame = 0
  77              		@ frame_needed = 0, uses_anonymous_args = 0
  78              		@ link register save eliminated.
 250:HALLIB/STM32F4xx_HAL_Driver/Src/stm32f4xx_hal_sram.c ****     /* NOTE : This function Should not be modified, when the callback is needed,
  79              		.loc 1 250 3 view .LVU7
 254:HALLIB/STM32F4xx_HAL_Driver/Src/stm32f4xx_hal_sram.c **** 
  80              		.loc 1 254 1 is_stmt 0 view .LVU8
  81 0000 7047     		bx	lr
  82              		.cfi_endproc
  83              	.LFE134:
  85              		.section	.text.HAL_SRAM_Init,"ax",%progbits
  86              		.align	1
  87              		.global	HAL_SRAM_Init
  88              		.syntax unified
  89              		.thumb
  90              		.thumb_func
  91              		.fpu fpv4-sp-d16
  93              	HAL_SRAM_Init:
  94              	.LVL3:
  95              	.LFB132:
 166:HALLIB/STM32F4xx_HAL_Driver/Src/stm32f4xx_hal_sram.c ****   /* Check the SRAM handle parameter */
  96              		.loc 1 166 1 is_stmt 1 view -0
  97              		.cfi_startproc
  98              		@ args = 0, pretend = 0, frame = 0
  99              		@ frame_needed = 0, uses_anonymous_args = 0
 168:HALLIB/STM32F4xx_HAL_Driver/Src/stm32f4xx_hal_sram.c ****   {
 100              		.loc 1 168 3 view .LVU10
 168:HALLIB/STM32F4xx_HAL_Driver/Src/stm32f4xx_hal_sram.c ****   {
 101              		.loc 1 168 5 is_stmt 0 view .LVU11
ARM GAS  /tmp/ccrUXzMj.s 			page 8


 102 0000 28B3     		cbz	r0, .L7
 166:HALLIB/STM32F4xx_HAL_Driver/Src/stm32f4xx_hal_sram.c ****   /* Check the SRAM handle parameter */
 103              		.loc 1 166 1 view .LVU12
 104 0002 70B5     		push	{r4, r5, r6, lr}
 105              	.LCFI0:
 106              		.cfi_def_cfa_offset 16
 107              		.cfi_offset 4, -16
 108              		.cfi_offset 5, -12
 109              		.cfi_offset 6, -8
 110              		.cfi_offset 14, -4
 111 0004 0E46     		mov	r6, r1
 112 0006 1546     		mov	r5, r2
 113 0008 0446     		mov	r4, r0
 173:HALLIB/STM32F4xx_HAL_Driver/Src/stm32f4xx_hal_sram.c ****   {  
 114              		.loc 1 173 3 is_stmt 1 view .LVU13
 173:HALLIB/STM32F4xx_HAL_Driver/Src/stm32f4xx_hal_sram.c ****   {  
 115              		.loc 1 173 11 is_stmt 0 view .LVU14
 116 000a 90F84930 		ldrb	r3, [r0, #73]	@ zero_extendqisi2
 173:HALLIB/STM32F4xx_HAL_Driver/Src/stm32f4xx_hal_sram.c ****   {  
 117              		.loc 1 173 5 view .LVU15
 118 000e CBB1     		cbz	r3, .L12
 119              	.LVL4:
 120              	.L6:
 195:HALLIB/STM32F4xx_HAL_Driver/Src/stm32f4xx_hal_sram.c **** 
 121              		.loc 1 195 3 is_stmt 1 view .LVU16
 122 0010 2146     		mov	r1, r4
 123 0012 51F8080B 		ldr	r0, [r1], #8
 124 0016 FFF7FEFF 		bl	FSMC_NORSRAM_Init
 125              	.LVL5:
 198:HALLIB/STM32F4xx_HAL_Driver/Src/stm32f4xx_hal_sram.c **** 
 126              		.loc 1 198 3 view .LVU17
 127 001a A268     		ldr	r2, [r4, #8]
 128 001c 3146     		mov	r1, r6
 129 001e 2068     		ldr	r0, [r4]
 130 0020 FFF7FEFF 		bl	FSMC_NORSRAM_Timing_Init
 131              	.LVL6:
 201:HALLIB/STM32F4xx_HAL_Driver/Src/stm32f4xx_hal_sram.c ****   
 132              		.loc 1 201 3 view .LVU18
 133 0024 236B     		ldr	r3, [r4, #48]
 134 0026 A268     		ldr	r2, [r4, #8]
 135 0028 2946     		mov	r1, r5
 136 002a 6068     		ldr	r0, [r4, #4]
 137 002c FFF7FEFF 		bl	FSMC_NORSRAM_Extended_Timing_Init
 138              	.LVL7:
 204:HALLIB/STM32F4xx_HAL_Driver/Src/stm32f4xx_hal_sram.c ****   
 139              		.loc 1 204 3 view .LVU19
 140 0030 2268     		ldr	r2, [r4]
 141 0032 A168     		ldr	r1, [r4, #8]
 142 0034 52F82130 		ldr	r3, [r2, r1, lsl #2]
 143 0038 43F00103 		orr	r3, r3, #1
 144 003c 42F82130 		str	r3, [r2, r1, lsl #2]
 206:HALLIB/STM32F4xx_HAL_Driver/Src/stm32f4xx_hal_sram.c **** }
 145              		.loc 1 206 3 view .LVU20
 206:HALLIB/STM32F4xx_HAL_Driver/Src/stm32f4xx_hal_sram.c **** }
 146              		.loc 1 206 10 is_stmt 0 view .LVU21
 147 0040 0020     		movs	r0, #0
 207:HALLIB/STM32F4xx_HAL_Driver/Src/stm32f4xx_hal_sram.c **** 
ARM GAS  /tmp/ccrUXzMj.s 			page 9


 148              		.loc 1 207 1 view .LVU22
 149 0042 70BD     		pop	{r4, r5, r6, pc}
 150              	.LVL8:
 151              	.L12:
 176:HALLIB/STM32F4xx_HAL_Driver/Src/stm32f4xx_hal_sram.c **** 
 152              		.loc 1 176 5 is_stmt 1 view .LVU23
 176:HALLIB/STM32F4xx_HAL_Driver/Src/stm32f4xx_hal_sram.c **** 
 153              		.loc 1 176 17 is_stmt 0 view .LVU24
 154 0044 80F84830 		strb	r3, [r0, #72]
 190:HALLIB/STM32F4xx_HAL_Driver/Src/stm32f4xx_hal_sram.c **** #endif
 155              		.loc 1 190 5 is_stmt 1 view .LVU25
 156 0048 FFF7FEFF 		bl	HAL_SRAM_MspInit
 157              	.LVL9:
 190:HALLIB/STM32F4xx_HAL_Driver/Src/stm32f4xx_hal_sram.c **** #endif
 158              		.loc 1 190 5 is_stmt 0 view .LVU26
 159 004c E0E7     		b	.L6
 160              	.LVL10:
 161              	.L7:
 162              	.LCFI1:
 163              		.cfi_def_cfa_offset 0
 164              		.cfi_restore 4
 165              		.cfi_restore 5
 166              		.cfi_restore 6
 167              		.cfi_restore 14
 170:HALLIB/STM32F4xx_HAL_Driver/Src/stm32f4xx_hal_sram.c ****   }
 168              		.loc 1 170 13 view .LVU27
 169 004e 0120     		movs	r0, #1
 170              	.LVL11:
 207:HALLIB/STM32F4xx_HAL_Driver/Src/stm32f4xx_hal_sram.c **** 
 171              		.loc 1 207 1 view .LVU28
 172 0050 7047     		bx	lr
 173              		.cfi_endproc
 174              	.LFE132:
 176              		.section	.text.HAL_SRAM_MspDeInit,"ax",%progbits
 177              		.align	1
 178              		.weak	HAL_SRAM_MspDeInit
 179              		.syntax unified
 180              		.thumb
 181              		.thumb_func
 182              		.fpu fpv4-sp-d16
 184              	HAL_SRAM_MspDeInit:
 185              	.LVL12:
 186              	.LFB135:
 263:HALLIB/STM32F4xx_HAL_Driver/Src/stm32f4xx_hal_sram.c ****   /* Prevent unused argument(s) compilation warning */
 187              		.loc 1 263 1 is_stmt 1 view -0
 188              		.cfi_startproc
 189              		@ args = 0, pretend = 0, frame = 0
 190              		@ frame_needed = 0, uses_anonymous_args = 0
 191              		@ link register save eliminated.
 265:HALLIB/STM32F4xx_HAL_Driver/Src/stm32f4xx_hal_sram.c ****   /* NOTE : This function Should not be modified, when the callback is needed,
 192              		.loc 1 265 3 view .LVU30
 269:HALLIB/STM32F4xx_HAL_Driver/Src/stm32f4xx_hal_sram.c **** 
 193              		.loc 1 269 1 is_stmt 0 view .LVU31
 194 0000 7047     		bx	lr
 195              		.cfi_endproc
 196              	.LFE135:
 198              		.section	.text.HAL_SRAM_DeInit,"ax",%progbits
ARM GAS  /tmp/ccrUXzMj.s 			page 10


 199              		.align	1
 200              		.global	HAL_SRAM_DeInit
 201              		.syntax unified
 202              		.thumb
 203              		.thumb_func
 204              		.fpu fpv4-sp-d16
 206              	HAL_SRAM_DeInit:
 207              	.LVL13:
 208              	.LFB133:
 216:HALLIB/STM32F4xx_HAL_Driver/Src/stm32f4xx_hal_sram.c **** #if (USE_HAL_SRAM_REGISTER_CALLBACKS == 1)
 209              		.loc 1 216 1 is_stmt 1 view -0
 210              		.cfi_startproc
 211              		@ args = 0, pretend = 0, frame = 0
 212              		@ frame_needed = 0, uses_anonymous_args = 0
 216:HALLIB/STM32F4xx_HAL_Driver/Src/stm32f4xx_hal_sram.c **** #if (USE_HAL_SRAM_REGISTER_CALLBACKS == 1)
 213              		.loc 1 216 1 is_stmt 0 view .LVU33
 214 0000 10B5     		push	{r4, lr}
 215              	.LCFI2:
 216              		.cfi_def_cfa_offset 8
 217              		.cfi_offset 4, -8
 218              		.cfi_offset 14, -4
 219 0002 0446     		mov	r4, r0
 227:HALLIB/STM32F4xx_HAL_Driver/Src/stm32f4xx_hal_sram.c **** #endif
 220              		.loc 1 227 3 is_stmt 1 view .LVU34
 221 0004 FFF7FEFF 		bl	HAL_SRAM_MspDeInit
 222              	.LVL14:
 231:HALLIB/STM32F4xx_HAL_Driver/Src/stm32f4xx_hal_sram.c **** 
 223              		.loc 1 231 3 view .LVU35
 224 0008 A268     		ldr	r2, [r4, #8]
 225 000a 6168     		ldr	r1, [r4, #4]
 226 000c 2068     		ldr	r0, [r4]
 227 000e FFF7FEFF 		bl	FSMC_NORSRAM_DeInit
 228              	.LVL15:
 233:HALLIB/STM32F4xx_HAL_Driver/Src/stm32f4xx_hal_sram.c ****   
 229              		.loc 1 233 3 view .LVU36
 233:HALLIB/STM32F4xx_HAL_Driver/Src/stm32f4xx_hal_sram.c ****   
 230              		.loc 1 233 16 is_stmt 0 view .LVU37
 231 0012 0020     		movs	r0, #0
 232 0014 84F84900 		strb	r0, [r4, #73]
 236:HALLIB/STM32F4xx_HAL_Driver/Src/stm32f4xx_hal_sram.c **** 
 233              		.loc 1 236 3 is_stmt 1 view .LVU38
 236:HALLIB/STM32F4xx_HAL_Driver/Src/stm32f4xx_hal_sram.c **** 
 234              		.loc 1 236 3 view .LVU39
 235 0018 84F84800 		strb	r0, [r4, #72]
 236:HALLIB/STM32F4xx_HAL_Driver/Src/stm32f4xx_hal_sram.c **** 
 236              		.loc 1 236 3 view .LVU40
 238:HALLIB/STM32F4xx_HAL_Driver/Src/stm32f4xx_hal_sram.c **** }
 237              		.loc 1 238 3 view .LVU41
 239:HALLIB/STM32F4xx_HAL_Driver/Src/stm32f4xx_hal_sram.c **** 
 238              		.loc 1 239 1 is_stmt 0 view .LVU42
 239 001c 10BD     		pop	{r4, pc}
 239:HALLIB/STM32F4xx_HAL_Driver/Src/stm32f4xx_hal_sram.c **** 
 240              		.loc 1 239 1 view .LVU43
 241              		.cfi_endproc
 242              	.LFE133:
 244              		.section	.text.HAL_SRAM_Read_8b,"ax",%progbits
 245              		.align	1
ARM GAS  /tmp/ccrUXzMj.s 			page 11


 246              		.global	HAL_SRAM_Read_8b
 247              		.syntax unified
 248              		.thumb
 249              		.thumb_func
 250              		.fpu fpv4-sp-d16
 252              	HAL_SRAM_Read_8b:
 253              	.LVL16:
 254              	.LFB138:
 300:HALLIB/STM32F4xx_HAL_Driver/Src/stm32f4xx_hal_sram.c **** 
 301:HALLIB/STM32F4xx_HAL_Driver/Src/stm32f4xx_hal_sram.c **** /**
 302:HALLIB/STM32F4xx_HAL_Driver/Src/stm32f4xx_hal_sram.c ****   * @}
 303:HALLIB/STM32F4xx_HAL_Driver/Src/stm32f4xx_hal_sram.c ****   */
 304:HALLIB/STM32F4xx_HAL_Driver/Src/stm32f4xx_hal_sram.c **** 
 305:HALLIB/STM32F4xx_HAL_Driver/Src/stm32f4xx_hal_sram.c **** /** @defgroup SRAM_Exported_Functions_Group2 Input and Output functions 
 306:HALLIB/STM32F4xx_HAL_Driver/Src/stm32f4xx_hal_sram.c ****   * @brief    Input Output and memory control functions 
 307:HALLIB/STM32F4xx_HAL_Driver/Src/stm32f4xx_hal_sram.c ****   *
 308:HALLIB/STM32F4xx_HAL_Driver/Src/stm32f4xx_hal_sram.c ****   @verbatim    
 309:HALLIB/STM32F4xx_HAL_Driver/Src/stm32f4xx_hal_sram.c ****   ==============================================================================
 310:HALLIB/STM32F4xx_HAL_Driver/Src/stm32f4xx_hal_sram.c ****                   ##### SRAM Input and Output functions #####
 311:HALLIB/STM32F4xx_HAL_Driver/Src/stm32f4xx_hal_sram.c ****   ==============================================================================
 312:HALLIB/STM32F4xx_HAL_Driver/Src/stm32f4xx_hal_sram.c ****   [..]  
 313:HALLIB/STM32F4xx_HAL_Driver/Src/stm32f4xx_hal_sram.c ****     This section provides functions allowing to use and control the SRAM memory
 314:HALLIB/STM32F4xx_HAL_Driver/Src/stm32f4xx_hal_sram.c ****   
 315:HALLIB/STM32F4xx_HAL_Driver/Src/stm32f4xx_hal_sram.c **** @endverbatim
 316:HALLIB/STM32F4xx_HAL_Driver/Src/stm32f4xx_hal_sram.c ****   * @{
 317:HALLIB/STM32F4xx_HAL_Driver/Src/stm32f4xx_hal_sram.c ****   */
 318:HALLIB/STM32F4xx_HAL_Driver/Src/stm32f4xx_hal_sram.c **** 
 319:HALLIB/STM32F4xx_HAL_Driver/Src/stm32f4xx_hal_sram.c **** /**
 320:HALLIB/STM32F4xx_HAL_Driver/Src/stm32f4xx_hal_sram.c ****   * @brief  Reads 8-bit buffer from SRAM memory. 
 321:HALLIB/STM32F4xx_HAL_Driver/Src/stm32f4xx_hal_sram.c ****   * @param  hsram pointer to a SRAM_HandleTypeDef structure that contains
 322:HALLIB/STM32F4xx_HAL_Driver/Src/stm32f4xx_hal_sram.c ****   *                the configuration information for SRAM module.
 323:HALLIB/STM32F4xx_HAL_Driver/Src/stm32f4xx_hal_sram.c ****   * @param  pAddress Pointer to read start address
 324:HALLIB/STM32F4xx_HAL_Driver/Src/stm32f4xx_hal_sram.c ****   * @param  pDstBuffer Pointer to destination buffer  
 325:HALLIB/STM32F4xx_HAL_Driver/Src/stm32f4xx_hal_sram.c ****   * @param  BufferSize Size of the buffer to read from memory
 326:HALLIB/STM32F4xx_HAL_Driver/Src/stm32f4xx_hal_sram.c ****   * @retval HAL status
 327:HALLIB/STM32F4xx_HAL_Driver/Src/stm32f4xx_hal_sram.c ****   */
 328:HALLIB/STM32F4xx_HAL_Driver/Src/stm32f4xx_hal_sram.c **** HAL_StatusTypeDef HAL_SRAM_Read_8b(SRAM_HandleTypeDef *hsram, uint32_t *pAddress, uint8_t *pDstBuff
 329:HALLIB/STM32F4xx_HAL_Driver/Src/stm32f4xx_hal_sram.c **** {
 255              		.loc 1 329 1 is_stmt 1 view -0
 256              		.cfi_startproc
 257              		@ args = 0, pretend = 0, frame = 0
 258              		@ frame_needed = 0, uses_anonymous_args = 0
 259              		@ link register save eliminated.
 260              		.loc 1 329 1 is_stmt 0 view .LVU45
 261 0000 10B4     		push	{r4}
 262              	.LCFI3:
 263              		.cfi_def_cfa_offset 4
 264              		.cfi_offset 4, -4
 330:HALLIB/STM32F4xx_HAL_Driver/Src/stm32f4xx_hal_sram.c ****   __IO uint8_t * pSramAddress = (uint8_t *)pAddress;
 265              		.loc 1 330 3 is_stmt 1 view .LVU46
 266              	.LVL17:
 331:HALLIB/STM32F4xx_HAL_Driver/Src/stm32f4xx_hal_sram.c ****   
 332:HALLIB/STM32F4xx_HAL_Driver/Src/stm32f4xx_hal_sram.c ****   /* Process Locked */
 333:HALLIB/STM32F4xx_HAL_Driver/Src/stm32f4xx_hal_sram.c ****   __HAL_LOCK(hsram);
 267              		.loc 1 333 3 view .LVU47
 268              		.loc 1 333 3 view .LVU48
 269 0002 90F84840 		ldrb	r4, [r0, #72]	@ zero_extendqisi2
ARM GAS  /tmp/ccrUXzMj.s 			page 12


 270 0006 012C     		cmp	r4, #1
 271 0008 17D0     		beq	.L20
 272              		.loc 1 333 3 discriminator 2 view .LVU49
 273 000a 0124     		movs	r4, #1
 274 000c 80F84840 		strb	r4, [r0, #72]
 275              		.loc 1 333 3 discriminator 2 view .LVU50
 334:HALLIB/STM32F4xx_HAL_Driver/Src/stm32f4xx_hal_sram.c ****   
 335:HALLIB/STM32F4xx_HAL_Driver/Src/stm32f4xx_hal_sram.c ****   /* Update the SRAM controller state */
 336:HALLIB/STM32F4xx_HAL_Driver/Src/stm32f4xx_hal_sram.c ****   hsram->State = HAL_SRAM_STATE_BUSY;  
 276              		.loc 1 336 3 discriminator 2 view .LVU51
 277              		.loc 1 336 16 is_stmt 0 discriminator 2 view .LVU52
 278 0010 0224     		movs	r4, #2
 279 0012 80F84940 		strb	r4, [r0, #73]
 337:HALLIB/STM32F4xx_HAL_Driver/Src/stm32f4xx_hal_sram.c ****   
 338:HALLIB/STM32F4xx_HAL_Driver/Src/stm32f4xx_hal_sram.c ****   /* Read data from memory */
 339:HALLIB/STM32F4xx_HAL_Driver/Src/stm32f4xx_hal_sram.c ****   for(; BufferSize != 0U; BufferSize--)
 280              		.loc 1 339 3 is_stmt 1 discriminator 2 view .LVU53
 281 0016 04E0     		b	.L18
 282              	.LVL18:
 283              	.L19:
 340:HALLIB/STM32F4xx_HAL_Driver/Src/stm32f4xx_hal_sram.c ****   {
 341:HALLIB/STM32F4xx_HAL_Driver/Src/stm32f4xx_hal_sram.c ****     *pDstBuffer = *(__IO uint8_t *)pSramAddress;
 284              		.loc 1 341 5 discriminator 2 view .LVU54
 285              		.loc 1 341 19 is_stmt 0 discriminator 2 view .LVU55
 286 0018 11F8014B 		ldrb	r4, [r1], #1	@ zero_extendqisi2
 287              	.LVL19:
 288              		.loc 1 341 17 discriminator 2 view .LVU56
 289 001c 02F8014B 		strb	r4, [r2], #1
 290              	.LVL20:
 342:HALLIB/STM32F4xx_HAL_Driver/Src/stm32f4xx_hal_sram.c ****     pDstBuffer++;
 291              		.loc 1 342 5 is_stmt 1 discriminator 2 view .LVU57
 343:HALLIB/STM32F4xx_HAL_Driver/Src/stm32f4xx_hal_sram.c ****     pSramAddress++;
 292              		.loc 1 343 5 discriminator 2 view .LVU58
 339:HALLIB/STM32F4xx_HAL_Driver/Src/stm32f4xx_hal_sram.c ****   {
 293              		.loc 1 339 27 discriminator 2 view .LVU59
 339:HALLIB/STM32F4xx_HAL_Driver/Src/stm32f4xx_hal_sram.c ****   {
 294              		.loc 1 339 37 is_stmt 0 discriminator 2 view .LVU60
 295 0020 013B     		subs	r3, r3, #1
 296              	.LVL21:
 297              	.L18:
 339:HALLIB/STM32F4xx_HAL_Driver/Src/stm32f4xx_hal_sram.c ****   {
 298              		.loc 1 339 9 is_stmt 1 discriminator 1 view .LVU61
 339:HALLIB/STM32F4xx_HAL_Driver/Src/stm32f4xx_hal_sram.c ****   {
 299              		.loc 1 339 3 is_stmt 0 discriminator 1 view .LVU62
 300 0022 002B     		cmp	r3, #0
 301 0024 F8D1     		bne	.L19
 344:HALLIB/STM32F4xx_HAL_Driver/Src/stm32f4xx_hal_sram.c ****   }
 345:HALLIB/STM32F4xx_HAL_Driver/Src/stm32f4xx_hal_sram.c ****   
 346:HALLIB/STM32F4xx_HAL_Driver/Src/stm32f4xx_hal_sram.c ****   /* Update the SRAM controller state */
 347:HALLIB/STM32F4xx_HAL_Driver/Src/stm32f4xx_hal_sram.c ****   hsram->State = HAL_SRAM_STATE_READY;    
 302              		.loc 1 347 3 is_stmt 1 view .LVU63
 303              		.loc 1 347 16 is_stmt 0 view .LVU64
 304 0026 0123     		movs	r3, #1
 305              	.LVL22:
 306              		.loc 1 347 16 view .LVU65
 307 0028 80F84930 		strb	r3, [r0, #73]
 348:HALLIB/STM32F4xx_HAL_Driver/Src/stm32f4xx_hal_sram.c **** 
ARM GAS  /tmp/ccrUXzMj.s 			page 13


 349:HALLIB/STM32F4xx_HAL_Driver/Src/stm32f4xx_hal_sram.c ****   /* Process unlocked */
 350:HALLIB/STM32F4xx_HAL_Driver/Src/stm32f4xx_hal_sram.c ****   __HAL_UNLOCK(hsram); 
 308              		.loc 1 350 3 is_stmt 1 view .LVU66
 309              		.loc 1 350 3 view .LVU67
 310 002c 0023     		movs	r3, #0
 311 002e 80F84830 		strb	r3, [r0, #72]
 312              		.loc 1 350 3 view .LVU68
 351:HALLIB/STM32F4xx_HAL_Driver/Src/stm32f4xx_hal_sram.c ****     
 352:HALLIB/STM32F4xx_HAL_Driver/Src/stm32f4xx_hal_sram.c ****   return HAL_OK;   
 313              		.loc 1 352 3 view .LVU69
 314              		.loc 1 352 10 is_stmt 0 view .LVU70
 315 0032 1846     		mov	r0, r3
 316              	.LVL23:
 317              	.L17:
 353:HALLIB/STM32F4xx_HAL_Driver/Src/stm32f4xx_hal_sram.c **** }
 318              		.loc 1 353 1 view .LVU71
 319 0034 5DF8044B 		ldr	r4, [sp], #4
 320              	.LCFI4:
 321              		.cfi_remember_state
 322              		.cfi_restore 4
 323              		.cfi_def_cfa_offset 0
 324 0038 7047     		bx	lr
 325              	.LVL24:
 326              	.L20:
 327              	.LCFI5:
 328              		.cfi_restore_state
 333:HALLIB/STM32F4xx_HAL_Driver/Src/stm32f4xx_hal_sram.c ****   
 329              		.loc 1 333 3 view .LVU72
 330 003a 0220     		movs	r0, #2
 331              	.LVL25:
 333:HALLIB/STM32F4xx_HAL_Driver/Src/stm32f4xx_hal_sram.c ****   
 332              		.loc 1 333 3 view .LVU73
 333 003c FAE7     		b	.L17
 334              		.cfi_endproc
 335              	.LFE138:
 337              		.section	.text.HAL_SRAM_Write_8b,"ax",%progbits
 338              		.align	1
 339              		.global	HAL_SRAM_Write_8b
 340              		.syntax unified
 341              		.thumb
 342              		.thumb_func
 343              		.fpu fpv4-sp-d16
 345              	HAL_SRAM_Write_8b:
 346              	.LVL26:
 347              	.LFB139:
 354:HALLIB/STM32F4xx_HAL_Driver/Src/stm32f4xx_hal_sram.c **** 
 355:HALLIB/STM32F4xx_HAL_Driver/Src/stm32f4xx_hal_sram.c **** /**
 356:HALLIB/STM32F4xx_HAL_Driver/Src/stm32f4xx_hal_sram.c ****   * @brief  Writes 8-bit buffer to SRAM memory. 
 357:HALLIB/STM32F4xx_HAL_Driver/Src/stm32f4xx_hal_sram.c ****   * @param  hsram pointer to a SRAM_HandleTypeDef structure that contains
 358:HALLIB/STM32F4xx_HAL_Driver/Src/stm32f4xx_hal_sram.c ****   *                the configuration information for SRAM module.
 359:HALLIB/STM32F4xx_HAL_Driver/Src/stm32f4xx_hal_sram.c ****   * @param  pAddress Pointer to write start address
 360:HALLIB/STM32F4xx_HAL_Driver/Src/stm32f4xx_hal_sram.c ****   * @param  pSrcBuffer Pointer to source buffer to write  
 361:HALLIB/STM32F4xx_HAL_Driver/Src/stm32f4xx_hal_sram.c ****   * @param  BufferSize Size of the buffer to write to memory
 362:HALLIB/STM32F4xx_HAL_Driver/Src/stm32f4xx_hal_sram.c ****   * @retval HAL status
 363:HALLIB/STM32F4xx_HAL_Driver/Src/stm32f4xx_hal_sram.c ****   */
 364:HALLIB/STM32F4xx_HAL_Driver/Src/stm32f4xx_hal_sram.c **** HAL_StatusTypeDef HAL_SRAM_Write_8b(SRAM_HandleTypeDef *hsram, uint32_t *pAddress, uint8_t *pSrcBuf
 365:HALLIB/STM32F4xx_HAL_Driver/Src/stm32f4xx_hal_sram.c **** {
ARM GAS  /tmp/ccrUXzMj.s 			page 14


 348              		.loc 1 365 1 is_stmt 1 view -0
 349              		.cfi_startproc
 350              		@ args = 0, pretend = 0, frame = 0
 351              		@ frame_needed = 0, uses_anonymous_args = 0
 352              		@ link register save eliminated.
 353              		.loc 1 365 1 is_stmt 0 view .LVU75
 354 0000 10B4     		push	{r4}
 355              	.LCFI6:
 356              		.cfi_def_cfa_offset 4
 357              		.cfi_offset 4, -4
 366:HALLIB/STM32F4xx_HAL_Driver/Src/stm32f4xx_hal_sram.c ****   __IO uint8_t * pSramAddress = (uint8_t *)pAddress;
 358              		.loc 1 366 3 is_stmt 1 view .LVU76
 359              	.LVL27:
 367:HALLIB/STM32F4xx_HAL_Driver/Src/stm32f4xx_hal_sram.c ****   
 368:HALLIB/STM32F4xx_HAL_Driver/Src/stm32f4xx_hal_sram.c ****   /* Check the SRAM controller state */
 369:HALLIB/STM32F4xx_HAL_Driver/Src/stm32f4xx_hal_sram.c ****   if(hsram->State == HAL_SRAM_STATE_PROTECTED)
 360              		.loc 1 369 3 view .LVU77
 361              		.loc 1 369 11 is_stmt 0 view .LVU78
 362 0002 90F84940 		ldrb	r4, [r0, #73]	@ zero_extendqisi2
 363 0006 E4B2     		uxtb	r4, r4
 364              		.loc 1 369 5 view .LVU79
 365 0008 042C     		cmp	r4, #4
 366 000a 1BD0     		beq	.L26
 370:HALLIB/STM32F4xx_HAL_Driver/Src/stm32f4xx_hal_sram.c ****   {
 371:HALLIB/STM32F4xx_HAL_Driver/Src/stm32f4xx_hal_sram.c ****     return  HAL_ERROR; 
 372:HALLIB/STM32F4xx_HAL_Driver/Src/stm32f4xx_hal_sram.c ****   }
 373:HALLIB/STM32F4xx_HAL_Driver/Src/stm32f4xx_hal_sram.c ****   
 374:HALLIB/STM32F4xx_HAL_Driver/Src/stm32f4xx_hal_sram.c ****   /* Process Locked */
 375:HALLIB/STM32F4xx_HAL_Driver/Src/stm32f4xx_hal_sram.c ****   __HAL_LOCK(hsram);
 367              		.loc 1 375 3 is_stmt 1 view .LVU80
 368              		.loc 1 375 3 view .LVU81
 369 000c 90F84840 		ldrb	r4, [r0, #72]	@ zero_extendqisi2
 370 0010 012C     		cmp	r4, #1
 371 0012 19D0     		beq	.L27
 372              		.loc 1 375 3 discriminator 2 view .LVU82
 373 0014 0124     		movs	r4, #1
 374 0016 80F84840 		strb	r4, [r0, #72]
 375              		.loc 1 375 3 discriminator 2 view .LVU83
 376:HALLIB/STM32F4xx_HAL_Driver/Src/stm32f4xx_hal_sram.c ****   
 377:HALLIB/STM32F4xx_HAL_Driver/Src/stm32f4xx_hal_sram.c ****   /* Update the SRAM controller state */
 378:HALLIB/STM32F4xx_HAL_Driver/Src/stm32f4xx_hal_sram.c ****   hsram->State = HAL_SRAM_STATE_BUSY; 
 376              		.loc 1 378 3 discriminator 2 view .LVU84
 377              		.loc 1 378 16 is_stmt 0 discriminator 2 view .LVU85
 378 001a 0224     		movs	r4, #2
 379 001c 80F84940 		strb	r4, [r0, #73]
 379:HALLIB/STM32F4xx_HAL_Driver/Src/stm32f4xx_hal_sram.c **** 
 380:HALLIB/STM32F4xx_HAL_Driver/Src/stm32f4xx_hal_sram.c ****   /* Write data to memory */
 381:HALLIB/STM32F4xx_HAL_Driver/Src/stm32f4xx_hal_sram.c ****   for(; BufferSize != 0U; BufferSize--)
 380              		.loc 1 381 3 is_stmt 1 discriminator 2 view .LVU86
 381 0020 04E0     		b	.L24
 382              	.LVL28:
 383              	.L25:
 382:HALLIB/STM32F4xx_HAL_Driver/Src/stm32f4xx_hal_sram.c ****   {
 383:HALLIB/STM32F4xx_HAL_Driver/Src/stm32f4xx_hal_sram.c ****     *(__IO uint8_t *)pSramAddress = *pSrcBuffer; 
 384              		.loc 1 383 5 discriminator 2 view .LVU87
 385              		.loc 1 383 37 is_stmt 0 discriminator 2 view .LVU88
 386 0022 12F8014B 		ldrb	r4, [r2], #1	@ zero_extendqisi2
ARM GAS  /tmp/ccrUXzMj.s 			page 15


 387              	.LVL29:
 388              		.loc 1 383 35 discriminator 2 view .LVU89
 389 0026 01F8014B 		strb	r4, [r1], #1
 390              	.LVL30:
 384:HALLIB/STM32F4xx_HAL_Driver/Src/stm32f4xx_hal_sram.c ****     pSrcBuffer++;
 391              		.loc 1 384 5 is_stmt 1 discriminator 2 view .LVU90
 385:HALLIB/STM32F4xx_HAL_Driver/Src/stm32f4xx_hal_sram.c ****     pSramAddress++;    
 392              		.loc 1 385 5 discriminator 2 view .LVU91
 381:HALLIB/STM32F4xx_HAL_Driver/Src/stm32f4xx_hal_sram.c ****   {
 393              		.loc 1 381 27 discriminator 2 view .LVU92
 381:HALLIB/STM32F4xx_HAL_Driver/Src/stm32f4xx_hal_sram.c ****   {
 394              		.loc 1 381 37 is_stmt 0 discriminator 2 view .LVU93
 395 002a 013B     		subs	r3, r3, #1
 396              	.LVL31:
 397              	.L24:
 381:HALLIB/STM32F4xx_HAL_Driver/Src/stm32f4xx_hal_sram.c ****   {
 398              		.loc 1 381 9 is_stmt 1 discriminator 1 view .LVU94
 381:HALLIB/STM32F4xx_HAL_Driver/Src/stm32f4xx_hal_sram.c ****   {
 399              		.loc 1 381 3 is_stmt 0 discriminator 1 view .LVU95
 400 002c 002B     		cmp	r3, #0
 401 002e F8D1     		bne	.L25
 386:HALLIB/STM32F4xx_HAL_Driver/Src/stm32f4xx_hal_sram.c ****   }    
 387:HALLIB/STM32F4xx_HAL_Driver/Src/stm32f4xx_hal_sram.c **** 
 388:HALLIB/STM32F4xx_HAL_Driver/Src/stm32f4xx_hal_sram.c ****   /* Update the SRAM controller state */
 389:HALLIB/STM32F4xx_HAL_Driver/Src/stm32f4xx_hal_sram.c ****   hsram->State = HAL_SRAM_STATE_READY; 
 402              		.loc 1 389 3 is_stmt 1 view .LVU96
 403              		.loc 1 389 16 is_stmt 0 view .LVU97
 404 0030 0123     		movs	r3, #1
 405              	.LVL32:
 406              		.loc 1 389 16 view .LVU98
 407 0032 80F84930 		strb	r3, [r0, #73]
 390:HALLIB/STM32F4xx_HAL_Driver/Src/stm32f4xx_hal_sram.c ****   
 391:HALLIB/STM32F4xx_HAL_Driver/Src/stm32f4xx_hal_sram.c ****   /* Process unlocked */
 392:HALLIB/STM32F4xx_HAL_Driver/Src/stm32f4xx_hal_sram.c ****   __HAL_UNLOCK(hsram);
 408              		.loc 1 392 3 is_stmt 1 view .LVU99
 409              		.loc 1 392 3 view .LVU100
 410 0036 0023     		movs	r3, #0
 411 0038 80F84830 		strb	r3, [r0, #72]
 412              		.loc 1 392 3 view .LVU101
 393:HALLIB/STM32F4xx_HAL_Driver/Src/stm32f4xx_hal_sram.c ****     
 394:HALLIB/STM32F4xx_HAL_Driver/Src/stm32f4xx_hal_sram.c ****   return HAL_OK;   
 413              		.loc 1 394 3 view .LVU102
 414              		.loc 1 394 10 is_stmt 0 view .LVU103
 415 003c 1846     		mov	r0, r3
 416              	.LVL33:
 417              	.L23:
 395:HALLIB/STM32F4xx_HAL_Driver/Src/stm32f4xx_hal_sram.c **** }
 418              		.loc 1 395 1 view .LVU104
 419 003e 5DF8044B 		ldr	r4, [sp], #4
 420              	.LCFI7:
 421              		.cfi_remember_state
 422              		.cfi_restore 4
 423              		.cfi_def_cfa_offset 0
 424 0042 7047     		bx	lr
 425              	.LVL34:
 426              	.L26:
 427              	.LCFI8:
ARM GAS  /tmp/ccrUXzMj.s 			page 16


 428              		.cfi_restore_state
 371:HALLIB/STM32F4xx_HAL_Driver/Src/stm32f4xx_hal_sram.c ****   }
 429              		.loc 1 371 13 view .LVU105
 430 0044 0120     		movs	r0, #1
 431              	.LVL35:
 371:HALLIB/STM32F4xx_HAL_Driver/Src/stm32f4xx_hal_sram.c ****   }
 432              		.loc 1 371 13 view .LVU106
 433 0046 FAE7     		b	.L23
 434              	.LVL36:
 435              	.L27:
 375:HALLIB/STM32F4xx_HAL_Driver/Src/stm32f4xx_hal_sram.c ****   
 436              		.loc 1 375 3 view .LVU107
 437 0048 0220     		movs	r0, #2
 438              	.LVL37:
 375:HALLIB/STM32F4xx_HAL_Driver/Src/stm32f4xx_hal_sram.c ****   
 439              		.loc 1 375 3 view .LVU108
 440 004a F8E7     		b	.L23
 441              		.cfi_endproc
 442              	.LFE139:
 444              		.section	.text.HAL_SRAM_Read_16b,"ax",%progbits
 445              		.align	1
 446              		.global	HAL_SRAM_Read_16b
 447              		.syntax unified
 448              		.thumb
 449              		.thumb_func
 450              		.fpu fpv4-sp-d16
 452              	HAL_SRAM_Read_16b:
 453              	.LVL38:
 454              	.LFB140:
 396:HALLIB/STM32F4xx_HAL_Driver/Src/stm32f4xx_hal_sram.c **** 
 397:HALLIB/STM32F4xx_HAL_Driver/Src/stm32f4xx_hal_sram.c **** /**
 398:HALLIB/STM32F4xx_HAL_Driver/Src/stm32f4xx_hal_sram.c ****   * @brief  Reads 16-bit buffer from SRAM memory. 
 399:HALLIB/STM32F4xx_HAL_Driver/Src/stm32f4xx_hal_sram.c ****   * @param  hsram pointer to a SRAM_HandleTypeDef structure that contains
 400:HALLIB/STM32F4xx_HAL_Driver/Src/stm32f4xx_hal_sram.c ****   *                the configuration information for SRAM module.
 401:HALLIB/STM32F4xx_HAL_Driver/Src/stm32f4xx_hal_sram.c ****   * @param  pAddress Pointer to read start address
 402:HALLIB/STM32F4xx_HAL_Driver/Src/stm32f4xx_hal_sram.c ****   * @param  pDstBuffer Pointer to destination buffer  
 403:HALLIB/STM32F4xx_HAL_Driver/Src/stm32f4xx_hal_sram.c ****   * @param  BufferSize Size of the buffer to read from memory
 404:HALLIB/STM32F4xx_HAL_Driver/Src/stm32f4xx_hal_sram.c ****   * @retval HAL status
 405:HALLIB/STM32F4xx_HAL_Driver/Src/stm32f4xx_hal_sram.c ****   */
 406:HALLIB/STM32F4xx_HAL_Driver/Src/stm32f4xx_hal_sram.c **** HAL_StatusTypeDef HAL_SRAM_Read_16b(SRAM_HandleTypeDef *hsram, uint32_t *pAddress, uint16_t *pDstBu
 407:HALLIB/STM32F4xx_HAL_Driver/Src/stm32f4xx_hal_sram.c **** {
 455              		.loc 1 407 1 is_stmt 1 view -0
 456              		.cfi_startproc
 457              		@ args = 0, pretend = 0, frame = 0
 458              		@ frame_needed = 0, uses_anonymous_args = 0
 459              		@ link register save eliminated.
 460              		.loc 1 407 1 is_stmt 0 view .LVU110
 461 0000 10B4     		push	{r4}
 462              	.LCFI9:
 463              		.cfi_def_cfa_offset 4
 464              		.cfi_offset 4, -4
 408:HALLIB/STM32F4xx_HAL_Driver/Src/stm32f4xx_hal_sram.c ****   __IO uint16_t * pSramAddress = (uint16_t *)pAddress;
 465              		.loc 1 408 3 is_stmt 1 view .LVU111
 466              	.LVL39:
 409:HALLIB/STM32F4xx_HAL_Driver/Src/stm32f4xx_hal_sram.c ****   
 410:HALLIB/STM32F4xx_HAL_Driver/Src/stm32f4xx_hal_sram.c ****   /* Process Locked */
 411:HALLIB/STM32F4xx_HAL_Driver/Src/stm32f4xx_hal_sram.c ****   __HAL_LOCK(hsram);
ARM GAS  /tmp/ccrUXzMj.s 			page 17


 467              		.loc 1 411 3 view .LVU112
 468              		.loc 1 411 3 view .LVU113
 469 0002 90F84840 		ldrb	r4, [r0, #72]	@ zero_extendqisi2
 470 0006 012C     		cmp	r4, #1
 471 0008 17D0     		beq	.L33
 472              		.loc 1 411 3 discriminator 2 view .LVU114
 473 000a 0124     		movs	r4, #1
 474 000c 80F84840 		strb	r4, [r0, #72]
 475              		.loc 1 411 3 discriminator 2 view .LVU115
 412:HALLIB/STM32F4xx_HAL_Driver/Src/stm32f4xx_hal_sram.c ****   
 413:HALLIB/STM32F4xx_HAL_Driver/Src/stm32f4xx_hal_sram.c ****   /* Update the SRAM controller state */
 414:HALLIB/STM32F4xx_HAL_Driver/Src/stm32f4xx_hal_sram.c ****   hsram->State = HAL_SRAM_STATE_BUSY;  
 476              		.loc 1 414 3 discriminator 2 view .LVU116
 477              		.loc 1 414 16 is_stmt 0 discriminator 2 view .LVU117
 478 0010 0224     		movs	r4, #2
 479 0012 80F84940 		strb	r4, [r0, #73]
 415:HALLIB/STM32F4xx_HAL_Driver/Src/stm32f4xx_hal_sram.c ****   
 416:HALLIB/STM32F4xx_HAL_Driver/Src/stm32f4xx_hal_sram.c ****   /* Read data from memory */
 417:HALLIB/STM32F4xx_HAL_Driver/Src/stm32f4xx_hal_sram.c ****   for(; BufferSize != 0U; BufferSize--)
 480              		.loc 1 417 3 is_stmt 1 discriminator 2 view .LVU118
 481 0016 04E0     		b	.L31
 482              	.LVL40:
 483              	.L32:
 418:HALLIB/STM32F4xx_HAL_Driver/Src/stm32f4xx_hal_sram.c ****   {
 419:HALLIB/STM32F4xx_HAL_Driver/Src/stm32f4xx_hal_sram.c ****     *pDstBuffer = *(__IO uint16_t *)pSramAddress;
 484              		.loc 1 419 5 discriminator 2 view .LVU119
 485              		.loc 1 419 19 is_stmt 0 discriminator 2 view .LVU120
 486 0018 31F8024B 		ldrh	r4, [r1], #2
 487              	.LVL41:
 488              		.loc 1 419 17 discriminator 2 view .LVU121
 489 001c 22F8024B 		strh	r4, [r2], #2	@ movhi
 490              	.LVL42:
 420:HALLIB/STM32F4xx_HAL_Driver/Src/stm32f4xx_hal_sram.c ****     pDstBuffer++;
 491              		.loc 1 420 5 is_stmt 1 discriminator 2 view .LVU122
 421:HALLIB/STM32F4xx_HAL_Driver/Src/stm32f4xx_hal_sram.c ****     pSramAddress++;
 492              		.loc 1 421 5 discriminator 2 view .LVU123
 417:HALLIB/STM32F4xx_HAL_Driver/Src/stm32f4xx_hal_sram.c ****   {
 493              		.loc 1 417 27 discriminator 2 view .LVU124
 417:HALLIB/STM32F4xx_HAL_Driver/Src/stm32f4xx_hal_sram.c ****   {
 494              		.loc 1 417 37 is_stmt 0 discriminator 2 view .LVU125
 495 0020 013B     		subs	r3, r3, #1
 496              	.LVL43:
 497              	.L31:
 417:HALLIB/STM32F4xx_HAL_Driver/Src/stm32f4xx_hal_sram.c ****   {
 498              		.loc 1 417 9 is_stmt 1 discriminator 1 view .LVU126
 417:HALLIB/STM32F4xx_HAL_Driver/Src/stm32f4xx_hal_sram.c ****   {
 499              		.loc 1 417 3 is_stmt 0 discriminator 1 view .LVU127
 500 0022 002B     		cmp	r3, #0
 501 0024 F8D1     		bne	.L32
 422:HALLIB/STM32F4xx_HAL_Driver/Src/stm32f4xx_hal_sram.c ****   }
 423:HALLIB/STM32F4xx_HAL_Driver/Src/stm32f4xx_hal_sram.c ****   
 424:HALLIB/STM32F4xx_HAL_Driver/Src/stm32f4xx_hal_sram.c ****   /* Update the SRAM controller state */
 425:HALLIB/STM32F4xx_HAL_Driver/Src/stm32f4xx_hal_sram.c ****   hsram->State = HAL_SRAM_STATE_READY;    
 502              		.loc 1 425 3 is_stmt 1 view .LVU128
 503              		.loc 1 425 16 is_stmt 0 view .LVU129
 504 0026 0123     		movs	r3, #1
 505              	.LVL44:
ARM GAS  /tmp/ccrUXzMj.s 			page 18


 506              		.loc 1 425 16 view .LVU130
 507 0028 80F84930 		strb	r3, [r0, #73]
 426:HALLIB/STM32F4xx_HAL_Driver/Src/stm32f4xx_hal_sram.c **** 
 427:HALLIB/STM32F4xx_HAL_Driver/Src/stm32f4xx_hal_sram.c ****   /* Process unlocked */
 428:HALLIB/STM32F4xx_HAL_Driver/Src/stm32f4xx_hal_sram.c ****   __HAL_UNLOCK(hsram); 
 508              		.loc 1 428 3 is_stmt 1 view .LVU131
 509              		.loc 1 428 3 view .LVU132
 510 002c 0023     		movs	r3, #0
 511 002e 80F84830 		strb	r3, [r0, #72]
 512              		.loc 1 428 3 view .LVU133
 429:HALLIB/STM32F4xx_HAL_Driver/Src/stm32f4xx_hal_sram.c ****     
 430:HALLIB/STM32F4xx_HAL_Driver/Src/stm32f4xx_hal_sram.c ****   return HAL_OK;  
 513              		.loc 1 430 3 view .LVU134
 514              		.loc 1 430 10 is_stmt 0 view .LVU135
 515 0032 1846     		mov	r0, r3
 516              	.LVL45:
 517              	.L30:
 431:HALLIB/STM32F4xx_HAL_Driver/Src/stm32f4xx_hal_sram.c **** }
 518              		.loc 1 431 1 view .LVU136
 519 0034 5DF8044B 		ldr	r4, [sp], #4
 520              	.LCFI10:
 521              		.cfi_remember_state
 522              		.cfi_restore 4
 523              		.cfi_def_cfa_offset 0
 524 0038 7047     		bx	lr
 525              	.LVL46:
 526              	.L33:
 527              	.LCFI11:
 528              		.cfi_restore_state
 411:HALLIB/STM32F4xx_HAL_Driver/Src/stm32f4xx_hal_sram.c ****   
 529              		.loc 1 411 3 view .LVU137
 530 003a 0220     		movs	r0, #2
 531              	.LVL47:
 411:HALLIB/STM32F4xx_HAL_Driver/Src/stm32f4xx_hal_sram.c ****   
 532              		.loc 1 411 3 view .LVU138
 533 003c FAE7     		b	.L30
 534              		.cfi_endproc
 535              	.LFE140:
 537              		.section	.text.HAL_SRAM_Write_16b,"ax",%progbits
 538              		.align	1
 539              		.global	HAL_SRAM_Write_16b
 540              		.syntax unified
 541              		.thumb
 542              		.thumb_func
 543              		.fpu fpv4-sp-d16
 545              	HAL_SRAM_Write_16b:
 546              	.LVL48:
 547              	.LFB141:
 432:HALLIB/STM32F4xx_HAL_Driver/Src/stm32f4xx_hal_sram.c **** 
 433:HALLIB/STM32F4xx_HAL_Driver/Src/stm32f4xx_hal_sram.c **** /**
 434:HALLIB/STM32F4xx_HAL_Driver/Src/stm32f4xx_hal_sram.c ****   * @brief  Writes 16-bit buffer to SRAM memory. 
 435:HALLIB/STM32F4xx_HAL_Driver/Src/stm32f4xx_hal_sram.c ****   * @param  hsram pointer to a SRAM_HandleTypeDef structure that contains
 436:HALLIB/STM32F4xx_HAL_Driver/Src/stm32f4xx_hal_sram.c ****   *                the configuration information for SRAM module.
 437:HALLIB/STM32F4xx_HAL_Driver/Src/stm32f4xx_hal_sram.c ****   * @param  pAddress Pointer to write start address
 438:HALLIB/STM32F4xx_HAL_Driver/Src/stm32f4xx_hal_sram.c ****   * @param  pSrcBuffer Pointer to source buffer to write  
 439:HALLIB/STM32F4xx_HAL_Driver/Src/stm32f4xx_hal_sram.c ****   * @param  BufferSize Size of the buffer to write to memory
 440:HALLIB/STM32F4xx_HAL_Driver/Src/stm32f4xx_hal_sram.c ****   * @retval HAL status
ARM GAS  /tmp/ccrUXzMj.s 			page 19


 441:HALLIB/STM32F4xx_HAL_Driver/Src/stm32f4xx_hal_sram.c ****   */
 442:HALLIB/STM32F4xx_HAL_Driver/Src/stm32f4xx_hal_sram.c **** HAL_StatusTypeDef HAL_SRAM_Write_16b(SRAM_HandleTypeDef *hsram, uint32_t *pAddress, uint16_t *pSrcB
 443:HALLIB/STM32F4xx_HAL_Driver/Src/stm32f4xx_hal_sram.c **** {
 548              		.loc 1 443 1 is_stmt 1 view -0
 549              		.cfi_startproc
 550              		@ args = 0, pretend = 0, frame = 0
 551              		@ frame_needed = 0, uses_anonymous_args = 0
 552              		@ link register save eliminated.
 553              		.loc 1 443 1 is_stmt 0 view .LVU140
 554 0000 10B4     		push	{r4}
 555              	.LCFI12:
 556              		.cfi_def_cfa_offset 4
 557              		.cfi_offset 4, -4
 444:HALLIB/STM32F4xx_HAL_Driver/Src/stm32f4xx_hal_sram.c ****   __IO uint16_t * pSramAddress = (uint16_t *)pAddress; 
 558              		.loc 1 444 3 is_stmt 1 view .LVU141
 559              	.LVL49:
 445:HALLIB/STM32F4xx_HAL_Driver/Src/stm32f4xx_hal_sram.c ****   
 446:HALLIB/STM32F4xx_HAL_Driver/Src/stm32f4xx_hal_sram.c ****   /* Check the SRAM controller state */
 447:HALLIB/STM32F4xx_HAL_Driver/Src/stm32f4xx_hal_sram.c ****   if(hsram->State == HAL_SRAM_STATE_PROTECTED)
 560              		.loc 1 447 3 view .LVU142
 561              		.loc 1 447 11 is_stmt 0 view .LVU143
 562 0002 90F84940 		ldrb	r4, [r0, #73]	@ zero_extendqisi2
 563 0006 E4B2     		uxtb	r4, r4
 564              		.loc 1 447 5 view .LVU144
 565 0008 042C     		cmp	r4, #4
 566 000a 1BD0     		beq	.L39
 448:HALLIB/STM32F4xx_HAL_Driver/Src/stm32f4xx_hal_sram.c ****   {
 449:HALLIB/STM32F4xx_HAL_Driver/Src/stm32f4xx_hal_sram.c ****     return  HAL_ERROR; 
 450:HALLIB/STM32F4xx_HAL_Driver/Src/stm32f4xx_hal_sram.c ****   }
 451:HALLIB/STM32F4xx_HAL_Driver/Src/stm32f4xx_hal_sram.c ****   
 452:HALLIB/STM32F4xx_HAL_Driver/Src/stm32f4xx_hal_sram.c ****   /* Process Locked */
 453:HALLIB/STM32F4xx_HAL_Driver/Src/stm32f4xx_hal_sram.c ****   __HAL_LOCK(hsram);
 567              		.loc 1 453 3 is_stmt 1 view .LVU145
 568              		.loc 1 453 3 view .LVU146
 569 000c 90F84840 		ldrb	r4, [r0, #72]	@ zero_extendqisi2
 570 0010 012C     		cmp	r4, #1
 571 0012 19D0     		beq	.L40
 572              		.loc 1 453 3 discriminator 2 view .LVU147
 573 0014 0124     		movs	r4, #1
 574 0016 80F84840 		strb	r4, [r0, #72]
 575              		.loc 1 453 3 discriminator 2 view .LVU148
 454:HALLIB/STM32F4xx_HAL_Driver/Src/stm32f4xx_hal_sram.c ****   
 455:HALLIB/STM32F4xx_HAL_Driver/Src/stm32f4xx_hal_sram.c ****   /* Update the SRAM controller state */
 456:HALLIB/STM32F4xx_HAL_Driver/Src/stm32f4xx_hal_sram.c ****   hsram->State = HAL_SRAM_STATE_BUSY; 
 576              		.loc 1 456 3 discriminator 2 view .LVU149
 577              		.loc 1 456 16 is_stmt 0 discriminator 2 view .LVU150
 578 001a 0224     		movs	r4, #2
 579 001c 80F84940 		strb	r4, [r0, #73]
 457:HALLIB/STM32F4xx_HAL_Driver/Src/stm32f4xx_hal_sram.c **** 
 458:HALLIB/STM32F4xx_HAL_Driver/Src/stm32f4xx_hal_sram.c ****   /* Write data to memory */
 459:HALLIB/STM32F4xx_HAL_Driver/Src/stm32f4xx_hal_sram.c ****   for(; BufferSize != 0U; BufferSize--)
 580              		.loc 1 459 3 is_stmt 1 discriminator 2 view .LVU151
 581 0020 04E0     		b	.L37
 582              	.LVL50:
 583              	.L38:
 460:HALLIB/STM32F4xx_HAL_Driver/Src/stm32f4xx_hal_sram.c ****   {
 461:HALLIB/STM32F4xx_HAL_Driver/Src/stm32f4xx_hal_sram.c ****     *(__IO uint16_t *)pSramAddress = *pSrcBuffer; 
ARM GAS  /tmp/ccrUXzMj.s 			page 20


 584              		.loc 1 461 5 discriminator 2 view .LVU152
 585              		.loc 1 461 38 is_stmt 0 discriminator 2 view .LVU153
 586 0022 32F8024B 		ldrh	r4, [r2], #2
 587              	.LVL51:
 588              		.loc 1 461 36 discriminator 2 view .LVU154
 589 0026 21F8024B 		strh	r4, [r1], #2	@ movhi
 590              	.LVL52:
 462:HALLIB/STM32F4xx_HAL_Driver/Src/stm32f4xx_hal_sram.c ****     pSrcBuffer++;
 591              		.loc 1 462 5 is_stmt 1 discriminator 2 view .LVU155
 463:HALLIB/STM32F4xx_HAL_Driver/Src/stm32f4xx_hal_sram.c ****     pSramAddress++;    
 592              		.loc 1 463 5 discriminator 2 view .LVU156
 459:HALLIB/STM32F4xx_HAL_Driver/Src/stm32f4xx_hal_sram.c ****   {
 593              		.loc 1 459 27 discriminator 2 view .LVU157
 459:HALLIB/STM32F4xx_HAL_Driver/Src/stm32f4xx_hal_sram.c ****   {
 594              		.loc 1 459 37 is_stmt 0 discriminator 2 view .LVU158
 595 002a 013B     		subs	r3, r3, #1
 596              	.LVL53:
 597              	.L37:
 459:HALLIB/STM32F4xx_HAL_Driver/Src/stm32f4xx_hal_sram.c ****   {
 598              		.loc 1 459 9 is_stmt 1 discriminator 1 view .LVU159
 459:HALLIB/STM32F4xx_HAL_Driver/Src/stm32f4xx_hal_sram.c ****   {
 599              		.loc 1 459 3 is_stmt 0 discriminator 1 view .LVU160
 600 002c 002B     		cmp	r3, #0
 601 002e F8D1     		bne	.L38
 464:HALLIB/STM32F4xx_HAL_Driver/Src/stm32f4xx_hal_sram.c ****   }    
 465:HALLIB/STM32F4xx_HAL_Driver/Src/stm32f4xx_hal_sram.c **** 
 466:HALLIB/STM32F4xx_HAL_Driver/Src/stm32f4xx_hal_sram.c ****   /* Update the SRAM controller state */
 467:HALLIB/STM32F4xx_HAL_Driver/Src/stm32f4xx_hal_sram.c ****   hsram->State = HAL_SRAM_STATE_READY; 
 602              		.loc 1 467 3 is_stmt 1 view .LVU161
 603              		.loc 1 467 16 is_stmt 0 view .LVU162
 604 0030 0123     		movs	r3, #1
 605              	.LVL54:
 606              		.loc 1 467 16 view .LVU163
 607 0032 80F84930 		strb	r3, [r0, #73]
 468:HALLIB/STM32F4xx_HAL_Driver/Src/stm32f4xx_hal_sram.c ****   
 469:HALLIB/STM32F4xx_HAL_Driver/Src/stm32f4xx_hal_sram.c ****   /* Process unlocked */
 470:HALLIB/STM32F4xx_HAL_Driver/Src/stm32f4xx_hal_sram.c ****   __HAL_UNLOCK(hsram);
 608              		.loc 1 470 3 is_stmt 1 view .LVU164
 609              		.loc 1 470 3 view .LVU165
 610 0036 0023     		movs	r3, #0
 611 0038 80F84830 		strb	r3, [r0, #72]
 612              		.loc 1 470 3 view .LVU166
 471:HALLIB/STM32F4xx_HAL_Driver/Src/stm32f4xx_hal_sram.c ****     
 472:HALLIB/STM32F4xx_HAL_Driver/Src/stm32f4xx_hal_sram.c ****   return HAL_OK;  
 613              		.loc 1 472 3 view .LVU167
 614              		.loc 1 472 10 is_stmt 0 view .LVU168
 615 003c 1846     		mov	r0, r3
 616              	.LVL55:
 617              	.L36:
 473:HALLIB/STM32F4xx_HAL_Driver/Src/stm32f4xx_hal_sram.c **** }
 618              		.loc 1 473 1 view .LVU169
 619 003e 5DF8044B 		ldr	r4, [sp], #4
 620              	.LCFI13:
 621              		.cfi_remember_state
 622              		.cfi_restore 4
 623              		.cfi_def_cfa_offset 0
 624 0042 7047     		bx	lr
ARM GAS  /tmp/ccrUXzMj.s 			page 21


 625              	.LVL56:
 626              	.L39:
 627              	.LCFI14:
 628              		.cfi_restore_state
 449:HALLIB/STM32F4xx_HAL_Driver/Src/stm32f4xx_hal_sram.c ****   }
 629              		.loc 1 449 13 view .LVU170
 630 0044 0120     		movs	r0, #1
 631              	.LVL57:
 449:HALLIB/STM32F4xx_HAL_Driver/Src/stm32f4xx_hal_sram.c ****   }
 632              		.loc 1 449 13 view .LVU171
 633 0046 FAE7     		b	.L36
 634              	.LVL58:
 635              	.L40:
 453:HALLIB/STM32F4xx_HAL_Driver/Src/stm32f4xx_hal_sram.c ****   
 636              		.loc 1 453 3 view .LVU172
 637 0048 0220     		movs	r0, #2
 638              	.LVL59:
 453:HALLIB/STM32F4xx_HAL_Driver/Src/stm32f4xx_hal_sram.c ****   
 639              		.loc 1 453 3 view .LVU173
 640 004a F8E7     		b	.L36
 641              		.cfi_endproc
 642              	.LFE141:
 644              		.section	.text.HAL_SRAM_Read_32b,"ax",%progbits
 645              		.align	1
 646              		.global	HAL_SRAM_Read_32b
 647              		.syntax unified
 648              		.thumb
 649              		.thumb_func
 650              		.fpu fpv4-sp-d16
 652              	HAL_SRAM_Read_32b:
 653              	.LVL60:
 654              	.LFB142:
 474:HALLIB/STM32F4xx_HAL_Driver/Src/stm32f4xx_hal_sram.c **** 
 475:HALLIB/STM32F4xx_HAL_Driver/Src/stm32f4xx_hal_sram.c **** /**
 476:HALLIB/STM32F4xx_HAL_Driver/Src/stm32f4xx_hal_sram.c ****   * @brief  Reads 32-bit buffer from SRAM memory. 
 477:HALLIB/STM32F4xx_HAL_Driver/Src/stm32f4xx_hal_sram.c ****   * @param  hsram pointer to a SRAM_HandleTypeDef structure that contains
 478:HALLIB/STM32F4xx_HAL_Driver/Src/stm32f4xx_hal_sram.c ****   *                the configuration information for SRAM module.
 479:HALLIB/STM32F4xx_HAL_Driver/Src/stm32f4xx_hal_sram.c ****   * @param  pAddress Pointer to read start address
 480:HALLIB/STM32F4xx_HAL_Driver/Src/stm32f4xx_hal_sram.c ****   * @param  pDstBuffer Pointer to destination buffer  
 481:HALLIB/STM32F4xx_HAL_Driver/Src/stm32f4xx_hal_sram.c ****   * @param  BufferSize Size of the buffer to read from memory
 482:HALLIB/STM32F4xx_HAL_Driver/Src/stm32f4xx_hal_sram.c ****   * @retval HAL status
 483:HALLIB/STM32F4xx_HAL_Driver/Src/stm32f4xx_hal_sram.c ****   */
 484:HALLIB/STM32F4xx_HAL_Driver/Src/stm32f4xx_hal_sram.c **** HAL_StatusTypeDef HAL_SRAM_Read_32b(SRAM_HandleTypeDef *hsram, uint32_t *pAddress, uint32_t *pDstBu
 485:HALLIB/STM32F4xx_HAL_Driver/Src/stm32f4xx_hal_sram.c **** {
 655              		.loc 1 485 1 is_stmt 1 view -0
 656              		.cfi_startproc
 657              		@ args = 0, pretend = 0, frame = 0
 658              		@ frame_needed = 0, uses_anonymous_args = 0
 659              		@ link register save eliminated.
 660              		.loc 1 485 1 is_stmt 0 view .LVU175
 661 0000 10B4     		push	{r4}
 662              	.LCFI15:
 663              		.cfi_def_cfa_offset 4
 664              		.cfi_offset 4, -4
 486:HALLIB/STM32F4xx_HAL_Driver/Src/stm32f4xx_hal_sram.c ****   /* Process Locked */
 487:HALLIB/STM32F4xx_HAL_Driver/Src/stm32f4xx_hal_sram.c ****   __HAL_LOCK(hsram);
 665              		.loc 1 487 3 is_stmt 1 view .LVU176
ARM GAS  /tmp/ccrUXzMj.s 			page 22


 666              		.loc 1 487 3 view .LVU177
 667 0002 90F84840 		ldrb	r4, [r0, #72]	@ zero_extendqisi2
 668 0006 012C     		cmp	r4, #1
 669 0008 17D0     		beq	.L46
 670              		.loc 1 487 3 discriminator 2 view .LVU178
 671 000a 0124     		movs	r4, #1
 672 000c 80F84840 		strb	r4, [r0, #72]
 673              		.loc 1 487 3 discriminator 2 view .LVU179
 488:HALLIB/STM32F4xx_HAL_Driver/Src/stm32f4xx_hal_sram.c ****   
 489:HALLIB/STM32F4xx_HAL_Driver/Src/stm32f4xx_hal_sram.c ****   /* Update the SRAM controller state */
 490:HALLIB/STM32F4xx_HAL_Driver/Src/stm32f4xx_hal_sram.c ****   hsram->State = HAL_SRAM_STATE_BUSY;  
 674              		.loc 1 490 3 discriminator 2 view .LVU180
 675              		.loc 1 490 16 is_stmt 0 discriminator 2 view .LVU181
 676 0010 0224     		movs	r4, #2
 677 0012 80F84940 		strb	r4, [r0, #73]
 491:HALLIB/STM32F4xx_HAL_Driver/Src/stm32f4xx_hal_sram.c ****   
 492:HALLIB/STM32F4xx_HAL_Driver/Src/stm32f4xx_hal_sram.c ****   /* Read data from memory */
 493:HALLIB/STM32F4xx_HAL_Driver/Src/stm32f4xx_hal_sram.c ****   for(; BufferSize != 0U; BufferSize--)
 678              		.loc 1 493 3 is_stmt 1 discriminator 2 view .LVU182
 679 0016 04E0     		b	.L44
 680              	.L45:
 494:HALLIB/STM32F4xx_HAL_Driver/Src/stm32f4xx_hal_sram.c ****   {
 495:HALLIB/STM32F4xx_HAL_Driver/Src/stm32f4xx_hal_sram.c ****     *pDstBuffer = *(__IO uint32_t *)pAddress;
 681              		.loc 1 495 5 discriminator 2 view .LVU183
 682              		.loc 1 495 19 is_stmt 0 discriminator 2 view .LVU184
 683 0018 51F8044B 		ldr	r4, [r1], #4
 684              	.LVL61:
 685              		.loc 1 495 17 discriminator 2 view .LVU185
 686 001c 42F8044B 		str	r4, [r2], #4
 687              	.LVL62:
 496:HALLIB/STM32F4xx_HAL_Driver/Src/stm32f4xx_hal_sram.c ****     pDstBuffer++;
 688              		.loc 1 496 5 is_stmt 1 discriminator 2 view .LVU186
 497:HALLIB/STM32F4xx_HAL_Driver/Src/stm32f4xx_hal_sram.c ****     pAddress++;
 689              		.loc 1 497 5 discriminator 2 view .LVU187
 493:HALLIB/STM32F4xx_HAL_Driver/Src/stm32f4xx_hal_sram.c ****   {
 690              		.loc 1 493 27 discriminator 2 view .LVU188
 493:HALLIB/STM32F4xx_HAL_Driver/Src/stm32f4xx_hal_sram.c ****   {
 691              		.loc 1 493 37 is_stmt 0 discriminator 2 view .LVU189
 692 0020 013B     		subs	r3, r3, #1
 693              	.LVL63:
 694              	.L44:
 493:HALLIB/STM32F4xx_HAL_Driver/Src/stm32f4xx_hal_sram.c ****   {
 695              		.loc 1 493 9 is_stmt 1 discriminator 1 view .LVU190
 493:HALLIB/STM32F4xx_HAL_Driver/Src/stm32f4xx_hal_sram.c ****   {
 696              		.loc 1 493 3 is_stmt 0 discriminator 1 view .LVU191
 697 0022 002B     		cmp	r3, #0
 698 0024 F8D1     		bne	.L45
 498:HALLIB/STM32F4xx_HAL_Driver/Src/stm32f4xx_hal_sram.c ****   }
 499:HALLIB/STM32F4xx_HAL_Driver/Src/stm32f4xx_hal_sram.c ****   
 500:HALLIB/STM32F4xx_HAL_Driver/Src/stm32f4xx_hal_sram.c ****   /* Update the SRAM controller state */
 501:HALLIB/STM32F4xx_HAL_Driver/Src/stm32f4xx_hal_sram.c ****   hsram->State = HAL_SRAM_STATE_READY;    
 699              		.loc 1 501 3 is_stmt 1 view .LVU192
 700              		.loc 1 501 16 is_stmt 0 view .LVU193
 701 0026 0123     		movs	r3, #1
 702              	.LVL64:
 703              		.loc 1 501 16 view .LVU194
 704 0028 80F84930 		strb	r3, [r0, #73]
ARM GAS  /tmp/ccrUXzMj.s 			page 23


 502:HALLIB/STM32F4xx_HAL_Driver/Src/stm32f4xx_hal_sram.c **** 
 503:HALLIB/STM32F4xx_HAL_Driver/Src/stm32f4xx_hal_sram.c ****   /* Process unlocked */
 504:HALLIB/STM32F4xx_HAL_Driver/Src/stm32f4xx_hal_sram.c ****   __HAL_UNLOCK(hsram); 
 705              		.loc 1 504 3 is_stmt 1 view .LVU195
 706              		.loc 1 504 3 view .LVU196
 707 002c 0023     		movs	r3, #0
 708 002e 80F84830 		strb	r3, [r0, #72]
 709              		.loc 1 504 3 view .LVU197
 505:HALLIB/STM32F4xx_HAL_Driver/Src/stm32f4xx_hal_sram.c ****     
 506:HALLIB/STM32F4xx_HAL_Driver/Src/stm32f4xx_hal_sram.c ****   return HAL_OK;  
 710              		.loc 1 506 3 view .LVU198
 711              		.loc 1 506 10 is_stmt 0 view .LVU199
 712 0032 1846     		mov	r0, r3
 713              	.LVL65:
 714              	.L43:
 507:HALLIB/STM32F4xx_HAL_Driver/Src/stm32f4xx_hal_sram.c **** }
 715              		.loc 1 507 1 view .LVU200
 716 0034 5DF8044B 		ldr	r4, [sp], #4
 717              	.LCFI16:
 718              		.cfi_remember_state
 719              		.cfi_restore 4
 720              		.cfi_def_cfa_offset 0
 721 0038 7047     		bx	lr
 722              	.LVL66:
 723              	.L46:
 724              	.LCFI17:
 725              		.cfi_restore_state
 487:HALLIB/STM32F4xx_HAL_Driver/Src/stm32f4xx_hal_sram.c ****   
 726              		.loc 1 487 3 view .LVU201
 727 003a 0220     		movs	r0, #2
 728              	.LVL67:
 487:HALLIB/STM32F4xx_HAL_Driver/Src/stm32f4xx_hal_sram.c ****   
 729              		.loc 1 487 3 view .LVU202
 730 003c FAE7     		b	.L43
 731              		.cfi_endproc
 732              	.LFE142:
 734              		.section	.text.HAL_SRAM_Write_32b,"ax",%progbits
 735              		.align	1
 736              		.global	HAL_SRAM_Write_32b
 737              		.syntax unified
 738              		.thumb
 739              		.thumb_func
 740              		.fpu fpv4-sp-d16
 742              	HAL_SRAM_Write_32b:
 743              	.LVL68:
 744              	.LFB143:
 508:HALLIB/STM32F4xx_HAL_Driver/Src/stm32f4xx_hal_sram.c **** 
 509:HALLIB/STM32F4xx_HAL_Driver/Src/stm32f4xx_hal_sram.c **** /**
 510:HALLIB/STM32F4xx_HAL_Driver/Src/stm32f4xx_hal_sram.c ****   * @brief  Writes 32-bit buffer to SRAM memory. 
 511:HALLIB/STM32F4xx_HAL_Driver/Src/stm32f4xx_hal_sram.c ****   * @param  hsram pointer to a SRAM_HandleTypeDef structure that contains
 512:HALLIB/STM32F4xx_HAL_Driver/Src/stm32f4xx_hal_sram.c ****   *                the configuration information for SRAM module.
 513:HALLIB/STM32F4xx_HAL_Driver/Src/stm32f4xx_hal_sram.c ****   * @param  pAddress Pointer to write start address
 514:HALLIB/STM32F4xx_HAL_Driver/Src/stm32f4xx_hal_sram.c ****   * @param  pSrcBuffer Pointer to source buffer to write  
 515:HALLIB/STM32F4xx_HAL_Driver/Src/stm32f4xx_hal_sram.c ****   * @param  BufferSize Size of the buffer to write to memory
 516:HALLIB/STM32F4xx_HAL_Driver/Src/stm32f4xx_hal_sram.c ****   * @retval HAL status
 517:HALLIB/STM32F4xx_HAL_Driver/Src/stm32f4xx_hal_sram.c ****   */
 518:HALLIB/STM32F4xx_HAL_Driver/Src/stm32f4xx_hal_sram.c **** HAL_StatusTypeDef HAL_SRAM_Write_32b(SRAM_HandleTypeDef *hsram, uint32_t *pAddress, uint32_t *pSrcB
ARM GAS  /tmp/ccrUXzMj.s 			page 24


 519:HALLIB/STM32F4xx_HAL_Driver/Src/stm32f4xx_hal_sram.c **** {
 745              		.loc 1 519 1 is_stmt 1 view -0
 746              		.cfi_startproc
 747              		@ args = 0, pretend = 0, frame = 0
 748              		@ frame_needed = 0, uses_anonymous_args = 0
 749              		@ link register save eliminated.
 750              		.loc 1 519 1 is_stmt 0 view .LVU204
 751 0000 10B4     		push	{r4}
 752              	.LCFI18:
 753              		.cfi_def_cfa_offset 4
 754              		.cfi_offset 4, -4
 520:HALLIB/STM32F4xx_HAL_Driver/Src/stm32f4xx_hal_sram.c ****   /* Check the SRAM controller state */
 521:HALLIB/STM32F4xx_HAL_Driver/Src/stm32f4xx_hal_sram.c ****   if(hsram->State == HAL_SRAM_STATE_PROTECTED)
 755              		.loc 1 521 3 is_stmt 1 view .LVU205
 756              		.loc 1 521 11 is_stmt 0 view .LVU206
 757 0002 90F84940 		ldrb	r4, [r0, #73]	@ zero_extendqisi2
 758 0006 E4B2     		uxtb	r4, r4
 759              		.loc 1 521 5 view .LVU207
 760 0008 042C     		cmp	r4, #4
 761 000a 1BD0     		beq	.L52
 522:HALLIB/STM32F4xx_HAL_Driver/Src/stm32f4xx_hal_sram.c ****   {
 523:HALLIB/STM32F4xx_HAL_Driver/Src/stm32f4xx_hal_sram.c ****     return  HAL_ERROR; 
 524:HALLIB/STM32F4xx_HAL_Driver/Src/stm32f4xx_hal_sram.c ****   }
 525:HALLIB/STM32F4xx_HAL_Driver/Src/stm32f4xx_hal_sram.c ****   
 526:HALLIB/STM32F4xx_HAL_Driver/Src/stm32f4xx_hal_sram.c ****   /* Process Locked */
 527:HALLIB/STM32F4xx_HAL_Driver/Src/stm32f4xx_hal_sram.c ****   __HAL_LOCK(hsram);
 762              		.loc 1 527 3 is_stmt 1 view .LVU208
 763              		.loc 1 527 3 view .LVU209
 764 000c 90F84840 		ldrb	r4, [r0, #72]	@ zero_extendqisi2
 765 0010 012C     		cmp	r4, #1
 766 0012 19D0     		beq	.L53
 767              		.loc 1 527 3 discriminator 2 view .LVU210
 768 0014 0124     		movs	r4, #1
 769 0016 80F84840 		strb	r4, [r0, #72]
 770              		.loc 1 527 3 discriminator 2 view .LVU211
 528:HALLIB/STM32F4xx_HAL_Driver/Src/stm32f4xx_hal_sram.c ****   
 529:HALLIB/STM32F4xx_HAL_Driver/Src/stm32f4xx_hal_sram.c ****   /* Update the SRAM controller state */
 530:HALLIB/STM32F4xx_HAL_Driver/Src/stm32f4xx_hal_sram.c ****   hsram->State = HAL_SRAM_STATE_BUSY; 
 771              		.loc 1 530 3 discriminator 2 view .LVU212
 772              		.loc 1 530 16 is_stmt 0 discriminator 2 view .LVU213
 773 001a 0224     		movs	r4, #2
 774 001c 80F84940 		strb	r4, [r0, #73]
 531:HALLIB/STM32F4xx_HAL_Driver/Src/stm32f4xx_hal_sram.c **** 
 532:HALLIB/STM32F4xx_HAL_Driver/Src/stm32f4xx_hal_sram.c ****   /* Write data to memory */
 533:HALLIB/STM32F4xx_HAL_Driver/Src/stm32f4xx_hal_sram.c ****   for(; BufferSize != 0U; BufferSize--)
 775              		.loc 1 533 3 is_stmt 1 discriminator 2 view .LVU214
 776 0020 04E0     		b	.L50
 777              	.L51:
 534:HALLIB/STM32F4xx_HAL_Driver/Src/stm32f4xx_hal_sram.c ****   {
 535:HALLIB/STM32F4xx_HAL_Driver/Src/stm32f4xx_hal_sram.c ****     *(__IO uint32_t *)pAddress = *pSrcBuffer; 
 778              		.loc 1 535 5 discriminator 2 view .LVU215
 779              		.loc 1 535 34 is_stmt 0 discriminator 2 view .LVU216
 780 0022 52F8044B 		ldr	r4, [r2], #4
 781              	.LVL69:
 782              		.loc 1 535 32 discriminator 2 view .LVU217
 783 0026 41F8044B 		str	r4, [r1], #4
 784              	.LVL70:
ARM GAS  /tmp/ccrUXzMj.s 			page 25


 536:HALLIB/STM32F4xx_HAL_Driver/Src/stm32f4xx_hal_sram.c ****     pSrcBuffer++;
 785              		.loc 1 536 5 is_stmt 1 discriminator 2 view .LVU218
 537:HALLIB/STM32F4xx_HAL_Driver/Src/stm32f4xx_hal_sram.c ****     pAddress++;    
 786              		.loc 1 537 5 discriminator 2 view .LVU219
 533:HALLIB/STM32F4xx_HAL_Driver/Src/stm32f4xx_hal_sram.c ****   {
 787              		.loc 1 533 27 discriminator 2 view .LVU220
 533:HALLIB/STM32F4xx_HAL_Driver/Src/stm32f4xx_hal_sram.c ****   {
 788              		.loc 1 533 37 is_stmt 0 discriminator 2 view .LVU221
 789 002a 013B     		subs	r3, r3, #1
 790              	.LVL71:
 791              	.L50:
 533:HALLIB/STM32F4xx_HAL_Driver/Src/stm32f4xx_hal_sram.c ****   {
 792              		.loc 1 533 9 is_stmt 1 discriminator 1 view .LVU222
 533:HALLIB/STM32F4xx_HAL_Driver/Src/stm32f4xx_hal_sram.c ****   {
 793              		.loc 1 533 3 is_stmt 0 discriminator 1 view .LVU223
 794 002c 002B     		cmp	r3, #0
 795 002e F8D1     		bne	.L51
 538:HALLIB/STM32F4xx_HAL_Driver/Src/stm32f4xx_hal_sram.c ****   }    
 539:HALLIB/STM32F4xx_HAL_Driver/Src/stm32f4xx_hal_sram.c **** 
 540:HALLIB/STM32F4xx_HAL_Driver/Src/stm32f4xx_hal_sram.c ****   /* Update the SRAM controller state */
 541:HALLIB/STM32F4xx_HAL_Driver/Src/stm32f4xx_hal_sram.c ****   hsram->State = HAL_SRAM_STATE_READY; 
 796              		.loc 1 541 3 is_stmt 1 view .LVU224
 797              		.loc 1 541 16 is_stmt 0 view .LVU225
 798 0030 0123     		movs	r3, #1
 799              	.LVL72:
 800              		.loc 1 541 16 view .LVU226
 801 0032 80F84930 		strb	r3, [r0, #73]
 542:HALLIB/STM32F4xx_HAL_Driver/Src/stm32f4xx_hal_sram.c ****   
 543:HALLIB/STM32F4xx_HAL_Driver/Src/stm32f4xx_hal_sram.c ****   /* Process unlocked */
 544:HALLIB/STM32F4xx_HAL_Driver/Src/stm32f4xx_hal_sram.c ****   __HAL_UNLOCK(hsram);
 802              		.loc 1 544 3 is_stmt 1 view .LVU227
 803              		.loc 1 544 3 view .LVU228
 804 0036 0023     		movs	r3, #0
 805 0038 80F84830 		strb	r3, [r0, #72]
 806              		.loc 1 544 3 view .LVU229
 545:HALLIB/STM32F4xx_HAL_Driver/Src/stm32f4xx_hal_sram.c ****     
 546:HALLIB/STM32F4xx_HAL_Driver/Src/stm32f4xx_hal_sram.c ****   return HAL_OK;   
 807              		.loc 1 546 3 view .LVU230
 808              		.loc 1 546 10 is_stmt 0 view .LVU231
 809 003c 1846     		mov	r0, r3
 810              	.LVL73:
 811              	.L49:
 547:HALLIB/STM32F4xx_HAL_Driver/Src/stm32f4xx_hal_sram.c **** }
 812              		.loc 1 547 1 view .LVU232
 813 003e 5DF8044B 		ldr	r4, [sp], #4
 814              	.LCFI19:
 815              		.cfi_remember_state
 816              		.cfi_restore 4
 817              		.cfi_def_cfa_offset 0
 818 0042 7047     		bx	lr
 819              	.LVL74:
 820              	.L52:
 821              	.LCFI20:
 822              		.cfi_restore_state
 523:HALLIB/STM32F4xx_HAL_Driver/Src/stm32f4xx_hal_sram.c ****   }
 823              		.loc 1 523 13 view .LVU233
 824 0044 0120     		movs	r0, #1
ARM GAS  /tmp/ccrUXzMj.s 			page 26


 825              	.LVL75:
 523:HALLIB/STM32F4xx_HAL_Driver/Src/stm32f4xx_hal_sram.c ****   }
 826              		.loc 1 523 13 view .LVU234
 827 0046 FAE7     		b	.L49
 828              	.LVL76:
 829              	.L53:
 527:HALLIB/STM32F4xx_HAL_Driver/Src/stm32f4xx_hal_sram.c ****   
 830              		.loc 1 527 3 view .LVU235
 831 0048 0220     		movs	r0, #2
 832              	.LVL77:
 527:HALLIB/STM32F4xx_HAL_Driver/Src/stm32f4xx_hal_sram.c ****   
 833              		.loc 1 527 3 view .LVU236
 834 004a F8E7     		b	.L49
 835              		.cfi_endproc
 836              	.LFE143:
 838              		.section	.text.HAL_SRAM_Read_DMA,"ax",%progbits
 839              		.align	1
 840              		.global	HAL_SRAM_Read_DMA
 841              		.syntax unified
 842              		.thumb
 843              		.thumb_func
 844              		.fpu fpv4-sp-d16
 846              	HAL_SRAM_Read_DMA:
 847              	.LVL78:
 848              	.LFB144:
 548:HALLIB/STM32F4xx_HAL_Driver/Src/stm32f4xx_hal_sram.c **** 
 549:HALLIB/STM32F4xx_HAL_Driver/Src/stm32f4xx_hal_sram.c **** /**
 550:HALLIB/STM32F4xx_HAL_Driver/Src/stm32f4xx_hal_sram.c ****   * @brief  Reads a Words data from the SRAM memory using DMA transfer.
 551:HALLIB/STM32F4xx_HAL_Driver/Src/stm32f4xx_hal_sram.c ****   * @param  hsram pointer to a SRAM_HandleTypeDef structure that contains
 552:HALLIB/STM32F4xx_HAL_Driver/Src/stm32f4xx_hal_sram.c ****   *                the configuration information for SRAM module.
 553:HALLIB/STM32F4xx_HAL_Driver/Src/stm32f4xx_hal_sram.c ****   * @param  pAddress Pointer to read start address
 554:HALLIB/STM32F4xx_HAL_Driver/Src/stm32f4xx_hal_sram.c ****   * @param  pDstBuffer Pointer to destination buffer  
 555:HALLIB/STM32F4xx_HAL_Driver/Src/stm32f4xx_hal_sram.c ****   * @param  BufferSize Size of the buffer to read from memory
 556:HALLIB/STM32F4xx_HAL_Driver/Src/stm32f4xx_hal_sram.c ****   * @retval HAL status
 557:HALLIB/STM32F4xx_HAL_Driver/Src/stm32f4xx_hal_sram.c ****   */
 558:HALLIB/STM32F4xx_HAL_Driver/Src/stm32f4xx_hal_sram.c **** HAL_StatusTypeDef HAL_SRAM_Read_DMA(SRAM_HandleTypeDef *hsram, uint32_t *pAddress, uint32_t *pDstBu
 559:HALLIB/STM32F4xx_HAL_Driver/Src/stm32f4xx_hal_sram.c **** {
 849              		.loc 1 559 1 is_stmt 1 view -0
 850              		.cfi_startproc
 851              		@ args = 0, pretend = 0, frame = 0
 852              		@ frame_needed = 0, uses_anonymous_args = 0
 853              		.loc 1 559 1 is_stmt 0 view .LVU238
 854 0000 70B5     		push	{r4, r5, r6, lr}
 855              	.LCFI21:
 856              		.cfi_def_cfa_offset 16
 857              		.cfi_offset 4, -16
 858              		.cfi_offset 5, -12
 859              		.cfi_offset 6, -8
 860              		.cfi_offset 14, -4
 861 0002 0446     		mov	r4, r0
 560:HALLIB/STM32F4xx_HAL_Driver/Src/stm32f4xx_hal_sram.c ****   /* Process Locked */
 561:HALLIB/STM32F4xx_HAL_Driver/Src/stm32f4xx_hal_sram.c ****   __HAL_LOCK(hsram);  
 862              		.loc 1 561 3 is_stmt 1 view .LVU239
 863              		.loc 1 561 3 view .LVU240
 864 0004 90F84800 		ldrb	r0, [r0, #72]	@ zero_extendqisi2
 865              	.LVL79:
 866              		.loc 1 561 3 is_stmt 0 view .LVU241
ARM GAS  /tmp/ccrUXzMj.s 			page 27


 867 0008 0128     		cmp	r0, #1
 868 000a 14D0     		beq	.L57
 869              		.loc 1 561 3 is_stmt 1 discriminator 2 view .LVU242
 870 000c 0125     		movs	r5, #1
 871 000e 84F84850 		strb	r5, [r4, #72]
 872              		.loc 1 561 3 discriminator 2 view .LVU243
 562:HALLIB/STM32F4xx_HAL_Driver/Src/stm32f4xx_hal_sram.c ****   
 563:HALLIB/STM32F4xx_HAL_Driver/Src/stm32f4xx_hal_sram.c ****   /* Update the SRAM controller state */
 564:HALLIB/STM32F4xx_HAL_Driver/Src/stm32f4xx_hal_sram.c ****   hsram->State = HAL_SRAM_STATE_BUSY;   
 873              		.loc 1 564 3 discriminator 2 view .LVU244
 874              		.loc 1 564 16 is_stmt 0 discriminator 2 view .LVU245
 875 0012 0220     		movs	r0, #2
 876 0014 84F84900 		strb	r0, [r4, #73]
 565:HALLIB/STM32F4xx_HAL_Driver/Src/stm32f4xx_hal_sram.c ****   
 566:HALLIB/STM32F4xx_HAL_Driver/Src/stm32f4xx_hal_sram.c ****   /* Configure DMA user callbacks */
 567:HALLIB/STM32F4xx_HAL_Driver/Src/stm32f4xx_hal_sram.c ****   hsram->hdma->XferCpltCallback  = HAL_SRAM_DMA_XferCpltCallback;
 877              		.loc 1 567 3 is_stmt 1 discriminator 2 view .LVU246
 878              		.loc 1 567 8 is_stmt 0 discriminator 2 view .LVU247
 879 0018 E06C     		ldr	r0, [r4, #76]
 880              		.loc 1 567 34 discriminator 2 view .LVU248
 881 001a 084E     		ldr	r6, .L59
 882 001c C663     		str	r6, [r0, #60]
 568:HALLIB/STM32F4xx_HAL_Driver/Src/stm32f4xx_hal_sram.c ****   hsram->hdma->XferErrorCallback = HAL_SRAM_DMA_XferErrorCallback;
 883              		.loc 1 568 3 is_stmt 1 discriminator 2 view .LVU249
 884              		.loc 1 568 8 is_stmt 0 discriminator 2 view .LVU250
 885 001e E06C     		ldr	r0, [r4, #76]
 886              		.loc 1 568 34 discriminator 2 view .LVU251
 887 0020 074E     		ldr	r6, .L59+4
 888 0022 C664     		str	r6, [r0, #76]
 569:HALLIB/STM32F4xx_HAL_Driver/Src/stm32f4xx_hal_sram.c **** 
 570:HALLIB/STM32F4xx_HAL_Driver/Src/stm32f4xx_hal_sram.c ****   /* Enable the DMA Stream */
 571:HALLIB/STM32F4xx_HAL_Driver/Src/stm32f4xx_hal_sram.c ****   HAL_DMA_Start_IT(hsram->hdma, (uint32_t)pAddress, (uint32_t)pDstBuffer, (uint32_t)BufferSize);
 889              		.loc 1 571 3 is_stmt 1 discriminator 2 view .LVU252
 890 0024 E06C     		ldr	r0, [r4, #76]
 891 0026 FFF7FEFF 		bl	HAL_DMA_Start_IT
 892              	.LVL80:
 572:HALLIB/STM32F4xx_HAL_Driver/Src/stm32f4xx_hal_sram.c ****   
 573:HALLIB/STM32F4xx_HAL_Driver/Src/stm32f4xx_hal_sram.c ****   /* Update the SRAM controller state */
 574:HALLIB/STM32F4xx_HAL_Driver/Src/stm32f4xx_hal_sram.c ****   hsram->State = HAL_SRAM_STATE_READY; 
 893              		.loc 1 574 3 discriminator 2 view .LVU253
 894              		.loc 1 574 16 is_stmt 0 discriminator 2 view .LVU254
 895 002a 84F84950 		strb	r5, [r4, #73]
 575:HALLIB/STM32F4xx_HAL_Driver/Src/stm32f4xx_hal_sram.c ****   
 576:HALLIB/STM32F4xx_HAL_Driver/Src/stm32f4xx_hal_sram.c ****   /* Process unlocked */
 577:HALLIB/STM32F4xx_HAL_Driver/Src/stm32f4xx_hal_sram.c ****   __HAL_UNLOCK(hsram);  
 896              		.loc 1 577 3 is_stmt 1 discriminator 2 view .LVU255
 897              		.loc 1 577 3 discriminator 2 view .LVU256
 898 002e 0020     		movs	r0, #0
 899 0030 84F84800 		strb	r0, [r4, #72]
 900              		.loc 1 577 3 discriminator 2 view .LVU257
 578:HALLIB/STM32F4xx_HAL_Driver/Src/stm32f4xx_hal_sram.c ****   
 579:HALLIB/STM32F4xx_HAL_Driver/Src/stm32f4xx_hal_sram.c ****   return HAL_OK; 
 901              		.loc 1 579 3 discriminator 2 view .LVU258
 902              	.L56:
 580:HALLIB/STM32F4xx_HAL_Driver/Src/stm32f4xx_hal_sram.c **** }
 903              		.loc 1 580 1 is_stmt 0 view .LVU259
 904 0034 70BD     		pop	{r4, r5, r6, pc}
ARM GAS  /tmp/ccrUXzMj.s 			page 28


 905              	.LVL81:
 906              	.L57:
 561:HALLIB/STM32F4xx_HAL_Driver/Src/stm32f4xx_hal_sram.c ****   
 907              		.loc 1 561 3 view .LVU260
 908 0036 0220     		movs	r0, #2
 909 0038 FCE7     		b	.L56
 910              	.L60:
 911 003a 00BF     		.align	2
 912              	.L59:
 913 003c 00000000 		.word	HAL_SRAM_DMA_XferCpltCallback
 914 0040 00000000 		.word	HAL_SRAM_DMA_XferErrorCallback
 915              		.cfi_endproc
 916              	.LFE144:
 918              		.section	.text.HAL_SRAM_Write_DMA,"ax",%progbits
 919              		.align	1
 920              		.global	HAL_SRAM_Write_DMA
 921              		.syntax unified
 922              		.thumb
 923              		.thumb_func
 924              		.fpu fpv4-sp-d16
 926              	HAL_SRAM_Write_DMA:
 927              	.LVL82:
 928              	.LFB145:
 581:HALLIB/STM32F4xx_HAL_Driver/Src/stm32f4xx_hal_sram.c **** 
 582:HALLIB/STM32F4xx_HAL_Driver/Src/stm32f4xx_hal_sram.c **** /**
 583:HALLIB/STM32F4xx_HAL_Driver/Src/stm32f4xx_hal_sram.c ****   * @brief  Writes a Words data buffer to SRAM memory using DMA transfer.
 584:HALLIB/STM32F4xx_HAL_Driver/Src/stm32f4xx_hal_sram.c ****   * @param  hsram pointer to a SRAM_HandleTypeDef structure that contains
 585:HALLIB/STM32F4xx_HAL_Driver/Src/stm32f4xx_hal_sram.c ****   *                the configuration information for SRAM module.
 586:HALLIB/STM32F4xx_HAL_Driver/Src/stm32f4xx_hal_sram.c ****   * @param  pAddress Pointer to write start address
 587:HALLIB/STM32F4xx_HAL_Driver/Src/stm32f4xx_hal_sram.c ****   * @param  pSrcBuffer Pointer to source buffer to write  
 588:HALLIB/STM32F4xx_HAL_Driver/Src/stm32f4xx_hal_sram.c ****   * @param  BufferSize Size of the buffer to write to memory
 589:HALLIB/STM32F4xx_HAL_Driver/Src/stm32f4xx_hal_sram.c ****   * @retval HAL status
 590:HALLIB/STM32F4xx_HAL_Driver/Src/stm32f4xx_hal_sram.c ****   */
 591:HALLIB/STM32F4xx_HAL_Driver/Src/stm32f4xx_hal_sram.c **** HAL_StatusTypeDef HAL_SRAM_Write_DMA(SRAM_HandleTypeDef *hsram, uint32_t *pAddress, uint32_t *pSrcB
 592:HALLIB/STM32F4xx_HAL_Driver/Src/stm32f4xx_hal_sram.c **** {
 929              		.loc 1 592 1 is_stmt 1 view -0
 930              		.cfi_startproc
 931              		@ args = 0, pretend = 0, frame = 0
 932              		@ frame_needed = 0, uses_anonymous_args = 0
 933              		.loc 1 592 1 is_stmt 0 view .LVU262
 934 0000 70B5     		push	{r4, r5, r6, lr}
 935              	.LCFI22:
 936              		.cfi_def_cfa_offset 16
 937              		.cfi_offset 4, -16
 938              		.cfi_offset 5, -12
 939              		.cfi_offset 6, -8
 940              		.cfi_offset 14, -4
 941 0002 0446     		mov	r4, r0
 593:HALLIB/STM32F4xx_HAL_Driver/Src/stm32f4xx_hal_sram.c ****   /* Check the SRAM controller state */
 594:HALLIB/STM32F4xx_HAL_Driver/Src/stm32f4xx_hal_sram.c ****   if(hsram->State == HAL_SRAM_STATE_PROTECTED)
 942              		.loc 1 594 3 is_stmt 1 view .LVU263
 943              		.loc 1 594 11 is_stmt 0 view .LVU264
 944 0004 90F84900 		ldrb	r0, [r0, #73]	@ zero_extendqisi2
 945              	.LVL83:
 946              		.loc 1 594 11 view .LVU265
 947 0008 C0B2     		uxtb	r0, r0
 948              		.loc 1 594 5 view .LVU266
ARM GAS  /tmp/ccrUXzMj.s 			page 29


 949 000a 0428     		cmp	r0, #4
 950 000c 1BD0     		beq	.L63
 951 000e 0D46     		mov	r5, r1
 952 0010 1146     		mov	r1, r2
 953              	.LVL84:
 595:HALLIB/STM32F4xx_HAL_Driver/Src/stm32f4xx_hal_sram.c ****   {
 596:HALLIB/STM32F4xx_HAL_Driver/Src/stm32f4xx_hal_sram.c ****     return  HAL_ERROR; 
 597:HALLIB/STM32F4xx_HAL_Driver/Src/stm32f4xx_hal_sram.c ****   }
 598:HALLIB/STM32F4xx_HAL_Driver/Src/stm32f4xx_hal_sram.c ****   
 599:HALLIB/STM32F4xx_HAL_Driver/Src/stm32f4xx_hal_sram.c ****   /* Process Locked */
 600:HALLIB/STM32F4xx_HAL_Driver/Src/stm32f4xx_hal_sram.c ****   __HAL_LOCK(hsram);
 954              		.loc 1 600 3 is_stmt 1 view .LVU267
 955              		.loc 1 600 3 view .LVU268
 956 0012 94F84820 		ldrb	r2, [r4, #72]	@ zero_extendqisi2
 957              	.LVL85:
 958              		.loc 1 600 3 is_stmt 0 view .LVU269
 959 0016 012A     		cmp	r2, #1
 960 0018 17D0     		beq	.L64
 961              		.loc 1 600 3 is_stmt 1 discriminator 2 view .LVU270
 962 001a 0126     		movs	r6, #1
 963 001c 84F84860 		strb	r6, [r4, #72]
 964              		.loc 1 600 3 discriminator 2 view .LVU271
 601:HALLIB/STM32F4xx_HAL_Driver/Src/stm32f4xx_hal_sram.c ****   
 602:HALLIB/STM32F4xx_HAL_Driver/Src/stm32f4xx_hal_sram.c ****   /* Update the SRAM controller state */
 603:HALLIB/STM32F4xx_HAL_Driver/Src/stm32f4xx_hal_sram.c ****   hsram->State = HAL_SRAM_STATE_BUSY; 
 965              		.loc 1 603 3 discriminator 2 view .LVU272
 966              		.loc 1 603 16 is_stmt 0 discriminator 2 view .LVU273
 967 0020 0222     		movs	r2, #2
 968 0022 84F84920 		strb	r2, [r4, #73]
 604:HALLIB/STM32F4xx_HAL_Driver/Src/stm32f4xx_hal_sram.c ****   
 605:HALLIB/STM32F4xx_HAL_Driver/Src/stm32f4xx_hal_sram.c ****   /* Configure DMA user callbacks */
 606:HALLIB/STM32F4xx_HAL_Driver/Src/stm32f4xx_hal_sram.c ****   hsram->hdma->XferCpltCallback  = HAL_SRAM_DMA_XferCpltCallback;
 969              		.loc 1 606 3 is_stmt 1 discriminator 2 view .LVU274
 970              		.loc 1 606 8 is_stmt 0 discriminator 2 view .LVU275
 971 0026 E26C     		ldr	r2, [r4, #76]
 972              		.loc 1 606 34 discriminator 2 view .LVU276
 973 0028 0948     		ldr	r0, .L66
 974 002a D063     		str	r0, [r2, #60]
 607:HALLIB/STM32F4xx_HAL_Driver/Src/stm32f4xx_hal_sram.c ****   hsram->hdma->XferErrorCallback = HAL_SRAM_DMA_XferErrorCallback;
 975              		.loc 1 607 3 is_stmt 1 discriminator 2 view .LVU277
 976              		.loc 1 607 8 is_stmt 0 discriminator 2 view .LVU278
 977 002c E26C     		ldr	r2, [r4, #76]
 978              		.loc 1 607 34 discriminator 2 view .LVU279
 979 002e 0948     		ldr	r0, .L66+4
 980 0030 D064     		str	r0, [r2, #76]
 608:HALLIB/STM32F4xx_HAL_Driver/Src/stm32f4xx_hal_sram.c **** 
 609:HALLIB/STM32F4xx_HAL_Driver/Src/stm32f4xx_hal_sram.c ****   /* Enable the DMA Stream */
 610:HALLIB/STM32F4xx_HAL_Driver/Src/stm32f4xx_hal_sram.c ****   HAL_DMA_Start_IT(hsram->hdma, (uint32_t)pSrcBuffer, (uint32_t)pAddress, (uint32_t)BufferSize);
 981              		.loc 1 610 3 is_stmt 1 discriminator 2 view .LVU280
 982 0032 2A46     		mov	r2, r5
 983 0034 E06C     		ldr	r0, [r4, #76]
 984 0036 FFF7FEFF 		bl	HAL_DMA_Start_IT
 985              	.LVL86:
 611:HALLIB/STM32F4xx_HAL_Driver/Src/stm32f4xx_hal_sram.c ****   
 612:HALLIB/STM32F4xx_HAL_Driver/Src/stm32f4xx_hal_sram.c ****   /* Update the SRAM controller state */
 613:HALLIB/STM32F4xx_HAL_Driver/Src/stm32f4xx_hal_sram.c ****   hsram->State = HAL_SRAM_STATE_READY;  
 986              		.loc 1 613 3 discriminator 2 view .LVU281
ARM GAS  /tmp/ccrUXzMj.s 			page 30


 987              		.loc 1 613 16 is_stmt 0 discriminator 2 view .LVU282
 988 003a 84F84960 		strb	r6, [r4, #73]
 614:HALLIB/STM32F4xx_HAL_Driver/Src/stm32f4xx_hal_sram.c ****   
 615:HALLIB/STM32F4xx_HAL_Driver/Src/stm32f4xx_hal_sram.c ****   /* Process unlocked */
 616:HALLIB/STM32F4xx_HAL_Driver/Src/stm32f4xx_hal_sram.c ****   __HAL_UNLOCK(hsram);  
 989              		.loc 1 616 3 is_stmt 1 discriminator 2 view .LVU283
 990              		.loc 1 616 3 discriminator 2 view .LVU284
 991 003e 0020     		movs	r0, #0
 992 0040 84F84800 		strb	r0, [r4, #72]
 993              		.loc 1 616 3 discriminator 2 view .LVU285
 617:HALLIB/STM32F4xx_HAL_Driver/Src/stm32f4xx_hal_sram.c ****   
 618:HALLIB/STM32F4xx_HAL_Driver/Src/stm32f4xx_hal_sram.c ****   return HAL_OK;
 994              		.loc 1 618 3 discriminator 2 view .LVU286
 995              	.LVL87:
 996              	.L62:
 619:HALLIB/STM32F4xx_HAL_Driver/Src/stm32f4xx_hal_sram.c **** }
 997              		.loc 1 619 1 is_stmt 0 view .LVU287
 998 0044 70BD     		pop	{r4, r5, r6, pc}
 999              	.LVL88:
 1000              	.L63:
 596:HALLIB/STM32F4xx_HAL_Driver/Src/stm32f4xx_hal_sram.c ****   }
 1001              		.loc 1 596 13 view .LVU288
 1002 0046 0120     		movs	r0, #1
 1003 0048 FCE7     		b	.L62
 1004              	.LVL89:
 1005              	.L64:
 600:HALLIB/STM32F4xx_HAL_Driver/Src/stm32f4xx_hal_sram.c ****   
 1006              		.loc 1 600 3 view .LVU289
 1007 004a 0220     		movs	r0, #2
 1008 004c FAE7     		b	.L62
 1009              	.L67:
 1010 004e 00BF     		.align	2
 1011              	.L66:
 1012 0050 00000000 		.word	HAL_SRAM_DMA_XferCpltCallback
 1013 0054 00000000 		.word	HAL_SRAM_DMA_XferErrorCallback
 1014              		.cfi_endproc
 1015              	.LFE145:
 1017              		.section	.text.HAL_SRAM_WriteOperation_Enable,"ax",%progbits
 1018              		.align	1
 1019              		.global	HAL_SRAM_WriteOperation_Enable
 1020              		.syntax unified
 1021              		.thumb
 1022              		.thumb_func
 1023              		.fpu fpv4-sp-d16
 1025              	HAL_SRAM_WriteOperation_Enable:
 1026              	.LVL90:
 1027              	.LFB146:
 620:HALLIB/STM32F4xx_HAL_Driver/Src/stm32f4xx_hal_sram.c **** 
 621:HALLIB/STM32F4xx_HAL_Driver/Src/stm32f4xx_hal_sram.c **** #if (USE_HAL_SRAM_REGISTER_CALLBACKS == 1)
 622:HALLIB/STM32F4xx_HAL_Driver/Src/stm32f4xx_hal_sram.c **** /**
 623:HALLIB/STM32F4xx_HAL_Driver/Src/stm32f4xx_hal_sram.c ****   * @brief  Register a User SRAM Callback
 624:HALLIB/STM32F4xx_HAL_Driver/Src/stm32f4xx_hal_sram.c ****   *         To be used instead of the weak (surcharged) predefined callback
 625:HALLIB/STM32F4xx_HAL_Driver/Src/stm32f4xx_hal_sram.c ****   * @param hsram : SRAM handle
 626:HALLIB/STM32F4xx_HAL_Driver/Src/stm32f4xx_hal_sram.c ****   * @param CallbackId : ID of the callback to be registered
 627:HALLIB/STM32F4xx_HAL_Driver/Src/stm32f4xx_hal_sram.c ****   *        This parameter can be one of the following values:
 628:HALLIB/STM32F4xx_HAL_Driver/Src/stm32f4xx_hal_sram.c ****   *          @arg @ref HAL_SRAM_MSP_INIT_CB_ID       SRAM MspInit callback ID
 629:HALLIB/STM32F4xx_HAL_Driver/Src/stm32f4xx_hal_sram.c ****   *          @arg @ref HAL_SRAM_MSP_DEINIT_CB_ID     SRAM MspDeInit callback ID
ARM GAS  /tmp/ccrUXzMj.s 			page 31


 630:HALLIB/STM32F4xx_HAL_Driver/Src/stm32f4xx_hal_sram.c ****   * @param pCallback : pointer to the Callback function
 631:HALLIB/STM32F4xx_HAL_Driver/Src/stm32f4xx_hal_sram.c ****   * @retval status
 632:HALLIB/STM32F4xx_HAL_Driver/Src/stm32f4xx_hal_sram.c ****   */
 633:HALLIB/STM32F4xx_HAL_Driver/Src/stm32f4xx_hal_sram.c **** HAL_StatusTypeDef HAL_SRAM_RegisterCallback (SRAM_HandleTypeDef *hsram, HAL_SRAM_CallbackIDTypeDef 
 634:HALLIB/STM32F4xx_HAL_Driver/Src/stm32f4xx_hal_sram.c **** {
 635:HALLIB/STM32F4xx_HAL_Driver/Src/stm32f4xx_hal_sram.c ****   HAL_StatusTypeDef status = HAL_OK;
 636:HALLIB/STM32F4xx_HAL_Driver/Src/stm32f4xx_hal_sram.c ****   HAL_SRAM_StateTypeDef state;
 637:HALLIB/STM32F4xx_HAL_Driver/Src/stm32f4xx_hal_sram.c **** 
 638:HALLIB/STM32F4xx_HAL_Driver/Src/stm32f4xx_hal_sram.c ****   if(pCallback == NULL)
 639:HALLIB/STM32F4xx_HAL_Driver/Src/stm32f4xx_hal_sram.c ****   {
 640:HALLIB/STM32F4xx_HAL_Driver/Src/stm32f4xx_hal_sram.c ****     return HAL_ERROR;
 641:HALLIB/STM32F4xx_HAL_Driver/Src/stm32f4xx_hal_sram.c ****   }
 642:HALLIB/STM32F4xx_HAL_Driver/Src/stm32f4xx_hal_sram.c **** 
 643:HALLIB/STM32F4xx_HAL_Driver/Src/stm32f4xx_hal_sram.c ****   /* Process locked */
 644:HALLIB/STM32F4xx_HAL_Driver/Src/stm32f4xx_hal_sram.c ****   __HAL_LOCK(hsram);
 645:HALLIB/STM32F4xx_HAL_Driver/Src/stm32f4xx_hal_sram.c **** 
 646:HALLIB/STM32F4xx_HAL_Driver/Src/stm32f4xx_hal_sram.c ****   state = hsram->State;
 647:HALLIB/STM32F4xx_HAL_Driver/Src/stm32f4xx_hal_sram.c ****   if((state == HAL_SRAM_STATE_READY) || (state == HAL_SRAM_STATE_RESET) || (state == HAL_SRAM_STATE
 648:HALLIB/STM32F4xx_HAL_Driver/Src/stm32f4xx_hal_sram.c ****   {
 649:HALLIB/STM32F4xx_HAL_Driver/Src/stm32f4xx_hal_sram.c ****     switch (CallbackId)
 650:HALLIB/STM32F4xx_HAL_Driver/Src/stm32f4xx_hal_sram.c ****     {
 651:HALLIB/STM32F4xx_HAL_Driver/Src/stm32f4xx_hal_sram.c ****     case HAL_SRAM_MSP_INIT_CB_ID :
 652:HALLIB/STM32F4xx_HAL_Driver/Src/stm32f4xx_hal_sram.c ****       hsram->MspInitCallback = pCallback;
 653:HALLIB/STM32F4xx_HAL_Driver/Src/stm32f4xx_hal_sram.c ****       break;
 654:HALLIB/STM32F4xx_HAL_Driver/Src/stm32f4xx_hal_sram.c ****     case HAL_SRAM_MSP_DEINIT_CB_ID :
 655:HALLIB/STM32F4xx_HAL_Driver/Src/stm32f4xx_hal_sram.c ****       hsram->MspDeInitCallback = pCallback;
 656:HALLIB/STM32F4xx_HAL_Driver/Src/stm32f4xx_hal_sram.c ****       break;
 657:HALLIB/STM32F4xx_HAL_Driver/Src/stm32f4xx_hal_sram.c ****     default :
 658:HALLIB/STM32F4xx_HAL_Driver/Src/stm32f4xx_hal_sram.c ****       /* update return status */
 659:HALLIB/STM32F4xx_HAL_Driver/Src/stm32f4xx_hal_sram.c ****       status =  HAL_ERROR;
 660:HALLIB/STM32F4xx_HAL_Driver/Src/stm32f4xx_hal_sram.c ****       break;
 661:HALLIB/STM32F4xx_HAL_Driver/Src/stm32f4xx_hal_sram.c ****     }
 662:HALLIB/STM32F4xx_HAL_Driver/Src/stm32f4xx_hal_sram.c ****   }
 663:HALLIB/STM32F4xx_HAL_Driver/Src/stm32f4xx_hal_sram.c ****   else
 664:HALLIB/STM32F4xx_HAL_Driver/Src/stm32f4xx_hal_sram.c ****   {
 665:HALLIB/STM32F4xx_HAL_Driver/Src/stm32f4xx_hal_sram.c ****     /* update return status */
 666:HALLIB/STM32F4xx_HAL_Driver/Src/stm32f4xx_hal_sram.c ****     status =  HAL_ERROR;
 667:HALLIB/STM32F4xx_HAL_Driver/Src/stm32f4xx_hal_sram.c ****   }
 668:HALLIB/STM32F4xx_HAL_Driver/Src/stm32f4xx_hal_sram.c **** 
 669:HALLIB/STM32F4xx_HAL_Driver/Src/stm32f4xx_hal_sram.c ****   /* Release Lock */
 670:HALLIB/STM32F4xx_HAL_Driver/Src/stm32f4xx_hal_sram.c ****   __HAL_UNLOCK(hsram);
 671:HALLIB/STM32F4xx_HAL_Driver/Src/stm32f4xx_hal_sram.c ****   return status;
 672:HALLIB/STM32F4xx_HAL_Driver/Src/stm32f4xx_hal_sram.c **** }
 673:HALLIB/STM32F4xx_HAL_Driver/Src/stm32f4xx_hal_sram.c **** 
 674:HALLIB/STM32F4xx_HAL_Driver/Src/stm32f4xx_hal_sram.c **** /**
 675:HALLIB/STM32F4xx_HAL_Driver/Src/stm32f4xx_hal_sram.c ****   * @brief  Unregister a User SRAM Callback
 676:HALLIB/STM32F4xx_HAL_Driver/Src/stm32f4xx_hal_sram.c ****   *         SRAM Callback is redirected to the weak (surcharged) predefined callback
 677:HALLIB/STM32F4xx_HAL_Driver/Src/stm32f4xx_hal_sram.c ****   * @param hsram : SRAM handle
 678:HALLIB/STM32F4xx_HAL_Driver/Src/stm32f4xx_hal_sram.c ****   * @param CallbackId : ID of the callback to be unregistered
 679:HALLIB/STM32F4xx_HAL_Driver/Src/stm32f4xx_hal_sram.c ****   *        This parameter can be one of the following values:
 680:HALLIB/STM32F4xx_HAL_Driver/Src/stm32f4xx_hal_sram.c ****   *          @arg @ref HAL_SRAM_MSP_INIT_CB_ID       SRAM MspInit callback ID
 681:HALLIB/STM32F4xx_HAL_Driver/Src/stm32f4xx_hal_sram.c ****   *          @arg @ref HAL_SRAM_MSP_DEINIT_CB_ID     SRAM MspDeInit callback ID
 682:HALLIB/STM32F4xx_HAL_Driver/Src/stm32f4xx_hal_sram.c ****   *          @arg @ref HAL_SRAM_DMA_XFER_CPLT_CB_ID  SRAM DMA Xfer Complete callback ID
 683:HALLIB/STM32F4xx_HAL_Driver/Src/stm32f4xx_hal_sram.c ****   *          @arg @ref HAL_SRAM_DMA_XFER_ERR_CB_ID   SRAM DMA Xfer Error callback ID
 684:HALLIB/STM32F4xx_HAL_Driver/Src/stm32f4xx_hal_sram.c ****   * @retval status
 685:HALLIB/STM32F4xx_HAL_Driver/Src/stm32f4xx_hal_sram.c ****   */
 686:HALLIB/STM32F4xx_HAL_Driver/Src/stm32f4xx_hal_sram.c **** HAL_StatusTypeDef HAL_SRAM_UnRegisterCallback (SRAM_HandleTypeDef *hsram, HAL_SRAM_CallbackIDTypeDe
ARM GAS  /tmp/ccrUXzMj.s 			page 32


 687:HALLIB/STM32F4xx_HAL_Driver/Src/stm32f4xx_hal_sram.c **** {
 688:HALLIB/STM32F4xx_HAL_Driver/Src/stm32f4xx_hal_sram.c ****   HAL_StatusTypeDef status = HAL_OK;
 689:HALLIB/STM32F4xx_HAL_Driver/Src/stm32f4xx_hal_sram.c ****   HAL_SRAM_StateTypeDef state;
 690:HALLIB/STM32F4xx_HAL_Driver/Src/stm32f4xx_hal_sram.c **** 
 691:HALLIB/STM32F4xx_HAL_Driver/Src/stm32f4xx_hal_sram.c ****   /* Process locked */
 692:HALLIB/STM32F4xx_HAL_Driver/Src/stm32f4xx_hal_sram.c ****   __HAL_LOCK(hsram);
 693:HALLIB/STM32F4xx_HAL_Driver/Src/stm32f4xx_hal_sram.c **** 
 694:HALLIB/STM32F4xx_HAL_Driver/Src/stm32f4xx_hal_sram.c ****   state = hsram->State;
 695:HALLIB/STM32F4xx_HAL_Driver/Src/stm32f4xx_hal_sram.c ****   if((state == HAL_SRAM_STATE_READY) || (state == HAL_SRAM_STATE_PROTECTED))
 696:HALLIB/STM32F4xx_HAL_Driver/Src/stm32f4xx_hal_sram.c ****   {
 697:HALLIB/STM32F4xx_HAL_Driver/Src/stm32f4xx_hal_sram.c ****     switch (CallbackId)
 698:HALLIB/STM32F4xx_HAL_Driver/Src/stm32f4xx_hal_sram.c ****     {
 699:HALLIB/STM32F4xx_HAL_Driver/Src/stm32f4xx_hal_sram.c ****     case HAL_SRAM_MSP_INIT_CB_ID :
 700:HALLIB/STM32F4xx_HAL_Driver/Src/stm32f4xx_hal_sram.c ****       hsram->MspInitCallback = HAL_SRAM_MspInit;
 701:HALLIB/STM32F4xx_HAL_Driver/Src/stm32f4xx_hal_sram.c ****       break;
 702:HALLIB/STM32F4xx_HAL_Driver/Src/stm32f4xx_hal_sram.c ****     case HAL_SRAM_MSP_DEINIT_CB_ID :
 703:HALLIB/STM32F4xx_HAL_Driver/Src/stm32f4xx_hal_sram.c ****       hsram->MspDeInitCallback = HAL_SRAM_MspDeInit;
 704:HALLIB/STM32F4xx_HAL_Driver/Src/stm32f4xx_hal_sram.c ****       break;
 705:HALLIB/STM32F4xx_HAL_Driver/Src/stm32f4xx_hal_sram.c ****     case HAL_SRAM_DMA_XFER_CPLT_CB_ID :
 706:HALLIB/STM32F4xx_HAL_Driver/Src/stm32f4xx_hal_sram.c ****       hsram->DmaXferCpltCallback = HAL_SRAM_DMA_XferCpltCallback;
 707:HALLIB/STM32F4xx_HAL_Driver/Src/stm32f4xx_hal_sram.c ****       break;
 708:HALLIB/STM32F4xx_HAL_Driver/Src/stm32f4xx_hal_sram.c ****     case HAL_SRAM_DMA_XFER_ERR_CB_ID :
 709:HALLIB/STM32F4xx_HAL_Driver/Src/stm32f4xx_hal_sram.c ****       hsram->DmaXferErrorCallback = HAL_SRAM_DMA_XferErrorCallback;
 710:HALLIB/STM32F4xx_HAL_Driver/Src/stm32f4xx_hal_sram.c ****       break;
 711:HALLIB/STM32F4xx_HAL_Driver/Src/stm32f4xx_hal_sram.c ****     default :
 712:HALLIB/STM32F4xx_HAL_Driver/Src/stm32f4xx_hal_sram.c ****       /* update return status */
 713:HALLIB/STM32F4xx_HAL_Driver/Src/stm32f4xx_hal_sram.c ****       status =  HAL_ERROR;
 714:HALLIB/STM32F4xx_HAL_Driver/Src/stm32f4xx_hal_sram.c ****       break;
 715:HALLIB/STM32F4xx_HAL_Driver/Src/stm32f4xx_hal_sram.c ****     }
 716:HALLIB/STM32F4xx_HAL_Driver/Src/stm32f4xx_hal_sram.c ****   }
 717:HALLIB/STM32F4xx_HAL_Driver/Src/stm32f4xx_hal_sram.c ****   else if(state == HAL_SRAM_STATE_RESET)
 718:HALLIB/STM32F4xx_HAL_Driver/Src/stm32f4xx_hal_sram.c ****   {
 719:HALLIB/STM32F4xx_HAL_Driver/Src/stm32f4xx_hal_sram.c ****     switch (CallbackId)
 720:HALLIB/STM32F4xx_HAL_Driver/Src/stm32f4xx_hal_sram.c ****     {
 721:HALLIB/STM32F4xx_HAL_Driver/Src/stm32f4xx_hal_sram.c ****     case HAL_SRAM_MSP_INIT_CB_ID :
 722:HALLIB/STM32F4xx_HAL_Driver/Src/stm32f4xx_hal_sram.c ****       hsram->MspInitCallback = HAL_SRAM_MspInit;
 723:HALLIB/STM32F4xx_HAL_Driver/Src/stm32f4xx_hal_sram.c ****       break;
 724:HALLIB/STM32F4xx_HAL_Driver/Src/stm32f4xx_hal_sram.c ****     case HAL_SRAM_MSP_DEINIT_CB_ID :
 725:HALLIB/STM32F4xx_HAL_Driver/Src/stm32f4xx_hal_sram.c ****       hsram->MspDeInitCallback = HAL_SRAM_MspDeInit;
 726:HALLIB/STM32F4xx_HAL_Driver/Src/stm32f4xx_hal_sram.c ****       break;
 727:HALLIB/STM32F4xx_HAL_Driver/Src/stm32f4xx_hal_sram.c ****     default :
 728:HALLIB/STM32F4xx_HAL_Driver/Src/stm32f4xx_hal_sram.c ****       /* update return status */
 729:HALLIB/STM32F4xx_HAL_Driver/Src/stm32f4xx_hal_sram.c ****       status =  HAL_ERROR;
 730:HALLIB/STM32F4xx_HAL_Driver/Src/stm32f4xx_hal_sram.c ****       break;
 731:HALLIB/STM32F4xx_HAL_Driver/Src/stm32f4xx_hal_sram.c ****     }
 732:HALLIB/STM32F4xx_HAL_Driver/Src/stm32f4xx_hal_sram.c ****   }
 733:HALLIB/STM32F4xx_HAL_Driver/Src/stm32f4xx_hal_sram.c ****   else
 734:HALLIB/STM32F4xx_HAL_Driver/Src/stm32f4xx_hal_sram.c ****   {
 735:HALLIB/STM32F4xx_HAL_Driver/Src/stm32f4xx_hal_sram.c ****     /* update return status */
 736:HALLIB/STM32F4xx_HAL_Driver/Src/stm32f4xx_hal_sram.c ****     status =  HAL_ERROR;
 737:HALLIB/STM32F4xx_HAL_Driver/Src/stm32f4xx_hal_sram.c ****   }
 738:HALLIB/STM32F4xx_HAL_Driver/Src/stm32f4xx_hal_sram.c **** 
 739:HALLIB/STM32F4xx_HAL_Driver/Src/stm32f4xx_hal_sram.c ****   /* Release Lock */
 740:HALLIB/STM32F4xx_HAL_Driver/Src/stm32f4xx_hal_sram.c ****   __HAL_UNLOCK(hsram);
 741:HALLIB/STM32F4xx_HAL_Driver/Src/stm32f4xx_hal_sram.c ****   return status;
 742:HALLIB/STM32F4xx_HAL_Driver/Src/stm32f4xx_hal_sram.c **** }
 743:HALLIB/STM32F4xx_HAL_Driver/Src/stm32f4xx_hal_sram.c **** 
ARM GAS  /tmp/ccrUXzMj.s 			page 33


 744:HALLIB/STM32F4xx_HAL_Driver/Src/stm32f4xx_hal_sram.c **** /**
 745:HALLIB/STM32F4xx_HAL_Driver/Src/stm32f4xx_hal_sram.c ****   * @brief  Register a User SRAM Callback for DMA transfers
 746:HALLIB/STM32F4xx_HAL_Driver/Src/stm32f4xx_hal_sram.c ****   *         To be used instead of the weak (surcharged) predefined callback
 747:HALLIB/STM32F4xx_HAL_Driver/Src/stm32f4xx_hal_sram.c ****   * @param hsram : SRAM handle
 748:HALLIB/STM32F4xx_HAL_Driver/Src/stm32f4xx_hal_sram.c ****   * @param CallbackId : ID of the callback to be registered
 749:HALLIB/STM32F4xx_HAL_Driver/Src/stm32f4xx_hal_sram.c ****   *        This parameter can be one of the following values:
 750:HALLIB/STM32F4xx_HAL_Driver/Src/stm32f4xx_hal_sram.c ****   *          @arg @ref HAL_SRAM_DMA_XFER_CPLT_CB_ID  SRAM DMA Xfer Complete callback ID
 751:HALLIB/STM32F4xx_HAL_Driver/Src/stm32f4xx_hal_sram.c ****   *          @arg @ref HAL_SRAM_DMA_XFER_ERR_CB_ID   SRAM DMA Xfer Error callback ID
 752:HALLIB/STM32F4xx_HAL_Driver/Src/stm32f4xx_hal_sram.c ****   * @param pCallback : pointer to the Callback function
 753:HALLIB/STM32F4xx_HAL_Driver/Src/stm32f4xx_hal_sram.c ****   * @retval status
 754:HALLIB/STM32F4xx_HAL_Driver/Src/stm32f4xx_hal_sram.c ****   */
 755:HALLIB/STM32F4xx_HAL_Driver/Src/stm32f4xx_hal_sram.c **** HAL_StatusTypeDef HAL_SRAM_RegisterDmaCallback(SRAM_HandleTypeDef *hsram, HAL_SRAM_CallbackIDTypeDe
 756:HALLIB/STM32F4xx_HAL_Driver/Src/stm32f4xx_hal_sram.c **** {
 757:HALLIB/STM32F4xx_HAL_Driver/Src/stm32f4xx_hal_sram.c ****   HAL_StatusTypeDef status = HAL_OK;
 758:HALLIB/STM32F4xx_HAL_Driver/Src/stm32f4xx_hal_sram.c ****   HAL_SRAM_StateTypeDef state;
 759:HALLIB/STM32F4xx_HAL_Driver/Src/stm32f4xx_hal_sram.c **** 
 760:HALLIB/STM32F4xx_HAL_Driver/Src/stm32f4xx_hal_sram.c ****   if(pCallback == NULL)
 761:HALLIB/STM32F4xx_HAL_Driver/Src/stm32f4xx_hal_sram.c ****   {
 762:HALLIB/STM32F4xx_HAL_Driver/Src/stm32f4xx_hal_sram.c ****     return HAL_ERROR;
 763:HALLIB/STM32F4xx_HAL_Driver/Src/stm32f4xx_hal_sram.c ****   }
 764:HALLIB/STM32F4xx_HAL_Driver/Src/stm32f4xx_hal_sram.c **** 
 765:HALLIB/STM32F4xx_HAL_Driver/Src/stm32f4xx_hal_sram.c ****   /* Process locked */
 766:HALLIB/STM32F4xx_HAL_Driver/Src/stm32f4xx_hal_sram.c ****   __HAL_LOCK(hsram);
 767:HALLIB/STM32F4xx_HAL_Driver/Src/stm32f4xx_hal_sram.c **** 
 768:HALLIB/STM32F4xx_HAL_Driver/Src/stm32f4xx_hal_sram.c ****   state = hsram->State;
 769:HALLIB/STM32F4xx_HAL_Driver/Src/stm32f4xx_hal_sram.c ****   if((state == HAL_SRAM_STATE_READY) || (state == HAL_SRAM_STATE_PROTECTED))
 770:HALLIB/STM32F4xx_HAL_Driver/Src/stm32f4xx_hal_sram.c ****   {
 771:HALLIB/STM32F4xx_HAL_Driver/Src/stm32f4xx_hal_sram.c ****     switch (CallbackId)
 772:HALLIB/STM32F4xx_HAL_Driver/Src/stm32f4xx_hal_sram.c ****     {
 773:HALLIB/STM32F4xx_HAL_Driver/Src/stm32f4xx_hal_sram.c ****     case HAL_SRAM_DMA_XFER_CPLT_CB_ID :
 774:HALLIB/STM32F4xx_HAL_Driver/Src/stm32f4xx_hal_sram.c ****       hsram->DmaXferCpltCallback = pCallback;
 775:HALLIB/STM32F4xx_HAL_Driver/Src/stm32f4xx_hal_sram.c ****       break;
 776:HALLIB/STM32F4xx_HAL_Driver/Src/stm32f4xx_hal_sram.c ****     case HAL_SRAM_DMA_XFER_ERR_CB_ID :
 777:HALLIB/STM32F4xx_HAL_Driver/Src/stm32f4xx_hal_sram.c ****       hsram->DmaXferErrorCallback = pCallback;
 778:HALLIB/STM32F4xx_HAL_Driver/Src/stm32f4xx_hal_sram.c ****       break;
 779:HALLIB/STM32F4xx_HAL_Driver/Src/stm32f4xx_hal_sram.c ****     default :
 780:HALLIB/STM32F4xx_HAL_Driver/Src/stm32f4xx_hal_sram.c ****       /* update return status */
 781:HALLIB/STM32F4xx_HAL_Driver/Src/stm32f4xx_hal_sram.c ****       status =  HAL_ERROR;
 782:HALLIB/STM32F4xx_HAL_Driver/Src/stm32f4xx_hal_sram.c ****       break;
 783:HALLIB/STM32F4xx_HAL_Driver/Src/stm32f4xx_hal_sram.c ****     }
 784:HALLIB/STM32F4xx_HAL_Driver/Src/stm32f4xx_hal_sram.c ****   }
 785:HALLIB/STM32F4xx_HAL_Driver/Src/stm32f4xx_hal_sram.c ****   else
 786:HALLIB/STM32F4xx_HAL_Driver/Src/stm32f4xx_hal_sram.c ****   {
 787:HALLIB/STM32F4xx_HAL_Driver/Src/stm32f4xx_hal_sram.c ****     /* update return status */
 788:HALLIB/STM32F4xx_HAL_Driver/Src/stm32f4xx_hal_sram.c ****     status =  HAL_ERROR;
 789:HALLIB/STM32F4xx_HAL_Driver/Src/stm32f4xx_hal_sram.c ****   }
 790:HALLIB/STM32F4xx_HAL_Driver/Src/stm32f4xx_hal_sram.c **** 
 791:HALLIB/STM32F4xx_HAL_Driver/Src/stm32f4xx_hal_sram.c ****   /* Release Lock */
 792:HALLIB/STM32F4xx_HAL_Driver/Src/stm32f4xx_hal_sram.c ****   __HAL_UNLOCK(hsram);
 793:HALLIB/STM32F4xx_HAL_Driver/Src/stm32f4xx_hal_sram.c ****   return status;
 794:HALLIB/STM32F4xx_HAL_Driver/Src/stm32f4xx_hal_sram.c **** }
 795:HALLIB/STM32F4xx_HAL_Driver/Src/stm32f4xx_hal_sram.c **** #endif
 796:HALLIB/STM32F4xx_HAL_Driver/Src/stm32f4xx_hal_sram.c **** /**
 797:HALLIB/STM32F4xx_HAL_Driver/Src/stm32f4xx_hal_sram.c ****   * @}
 798:HALLIB/STM32F4xx_HAL_Driver/Src/stm32f4xx_hal_sram.c ****   */
 799:HALLIB/STM32F4xx_HAL_Driver/Src/stm32f4xx_hal_sram.c ****   
 800:HALLIB/STM32F4xx_HAL_Driver/Src/stm32f4xx_hal_sram.c **** /** @defgroup SRAM_Exported_Functions_Group3 Control functions 
ARM GAS  /tmp/ccrUXzMj.s 			page 34


 801:HALLIB/STM32F4xx_HAL_Driver/Src/stm32f4xx_hal_sram.c ****  *  @brief   management functions 
 802:HALLIB/STM32F4xx_HAL_Driver/Src/stm32f4xx_hal_sram.c ****  *
 803:HALLIB/STM32F4xx_HAL_Driver/Src/stm32f4xx_hal_sram.c **** @verbatim   
 804:HALLIB/STM32F4xx_HAL_Driver/Src/stm32f4xx_hal_sram.c ****   ==============================================================================
 805:HALLIB/STM32F4xx_HAL_Driver/Src/stm32f4xx_hal_sram.c ****                         ##### SRAM Control functions #####
 806:HALLIB/STM32F4xx_HAL_Driver/Src/stm32f4xx_hal_sram.c ****   ==============================================================================  
 807:HALLIB/STM32F4xx_HAL_Driver/Src/stm32f4xx_hal_sram.c ****   [..]
 808:HALLIB/STM32F4xx_HAL_Driver/Src/stm32f4xx_hal_sram.c ****     This subsection provides a set of functions allowing to control dynamically
 809:HALLIB/STM32F4xx_HAL_Driver/Src/stm32f4xx_hal_sram.c ****     the SRAM interface.
 810:HALLIB/STM32F4xx_HAL_Driver/Src/stm32f4xx_hal_sram.c **** 
 811:HALLIB/STM32F4xx_HAL_Driver/Src/stm32f4xx_hal_sram.c **** @endverbatim
 812:HALLIB/STM32F4xx_HAL_Driver/Src/stm32f4xx_hal_sram.c ****   * @{
 813:HALLIB/STM32F4xx_HAL_Driver/Src/stm32f4xx_hal_sram.c ****   */
 814:HALLIB/STM32F4xx_HAL_Driver/Src/stm32f4xx_hal_sram.c ****     
 815:HALLIB/STM32F4xx_HAL_Driver/Src/stm32f4xx_hal_sram.c **** /**
 816:HALLIB/STM32F4xx_HAL_Driver/Src/stm32f4xx_hal_sram.c ****   * @brief  Enables dynamically SRAM write operation.
 817:HALLIB/STM32F4xx_HAL_Driver/Src/stm32f4xx_hal_sram.c ****   * @param  hsram pointer to a SRAM_HandleTypeDef structure that contains
 818:HALLIB/STM32F4xx_HAL_Driver/Src/stm32f4xx_hal_sram.c ****   *                the configuration information for SRAM module.
 819:HALLIB/STM32F4xx_HAL_Driver/Src/stm32f4xx_hal_sram.c ****   * @retval HAL status
 820:HALLIB/STM32F4xx_HAL_Driver/Src/stm32f4xx_hal_sram.c ****   */
 821:HALLIB/STM32F4xx_HAL_Driver/Src/stm32f4xx_hal_sram.c **** HAL_StatusTypeDef HAL_SRAM_WriteOperation_Enable(SRAM_HandleTypeDef *hsram)
 822:HALLIB/STM32F4xx_HAL_Driver/Src/stm32f4xx_hal_sram.c **** {
 1028              		.loc 1 822 1 is_stmt 1 view -0
 1029              		.cfi_startproc
 1030              		@ args = 0, pretend = 0, frame = 0
 1031              		@ frame_needed = 0, uses_anonymous_args = 0
 1032              		.loc 1 822 1 is_stmt 0 view .LVU291
 1033 0000 38B5     		push	{r3, r4, r5, lr}
 1034              	.LCFI23:
 1035              		.cfi_def_cfa_offset 16
 1036              		.cfi_offset 3, -16
 1037              		.cfi_offset 4, -12
 1038              		.cfi_offset 5, -8
 1039              		.cfi_offset 14, -4
 823:HALLIB/STM32F4xx_HAL_Driver/Src/stm32f4xx_hal_sram.c ****   /* Process Locked */
 824:HALLIB/STM32F4xx_HAL_Driver/Src/stm32f4xx_hal_sram.c ****   __HAL_LOCK(hsram);
 1040              		.loc 1 824 3 is_stmt 1 view .LVU292
 1041              		.loc 1 824 3 view .LVU293
 1042 0002 90F84830 		ldrb	r3, [r0, #72]	@ zero_extendqisi2
 1043 0006 012B     		cmp	r3, #1
 1044 0008 0DD0     		beq	.L70
 1045 000a 0446     		mov	r4, r0
 1046              		.loc 1 824 3 discriminator 2 view .LVU294
 1047 000c 0125     		movs	r5, #1
 1048 000e 80F84850 		strb	r5, [r0, #72]
 1049              		.loc 1 824 3 discriminator 2 view .LVU295
 825:HALLIB/STM32F4xx_HAL_Driver/Src/stm32f4xx_hal_sram.c **** 
 826:HALLIB/STM32F4xx_HAL_Driver/Src/stm32f4xx_hal_sram.c ****   /* Enable write operation */
 827:HALLIB/STM32F4xx_HAL_Driver/Src/stm32f4xx_hal_sram.c ****   FMC_NORSRAM_WriteOperation_Enable(hsram->Instance, hsram->Init.NSBank); 
 1050              		.loc 1 827 3 discriminator 2 view .LVU296
 1051 0012 8168     		ldr	r1, [r0, #8]
 1052 0014 0068     		ldr	r0, [r0]
 1053              	.LVL91:
 1054              		.loc 1 827 3 is_stmt 0 discriminator 2 view .LVU297
 1055 0016 FFF7FEFF 		bl	FSMC_NORSRAM_WriteOperation_Enable
 1056              	.LVL92:
 828:HALLIB/STM32F4xx_HAL_Driver/Src/stm32f4xx_hal_sram.c ****   
ARM GAS  /tmp/ccrUXzMj.s 			page 35


 829:HALLIB/STM32F4xx_HAL_Driver/Src/stm32f4xx_hal_sram.c ****   /* Update the SRAM controller state */
 830:HALLIB/STM32F4xx_HAL_Driver/Src/stm32f4xx_hal_sram.c ****   hsram->State = HAL_SRAM_STATE_READY;
 1057              		.loc 1 830 3 is_stmt 1 discriminator 2 view .LVU298
 1058              		.loc 1 830 16 is_stmt 0 discriminator 2 view .LVU299
 1059 001a 84F84950 		strb	r5, [r4, #73]
 831:HALLIB/STM32F4xx_HAL_Driver/Src/stm32f4xx_hal_sram.c ****   
 832:HALLIB/STM32F4xx_HAL_Driver/Src/stm32f4xx_hal_sram.c ****   /* Process unlocked */
 833:HALLIB/STM32F4xx_HAL_Driver/Src/stm32f4xx_hal_sram.c ****   __HAL_UNLOCK(hsram); 
 1060              		.loc 1 833 3 is_stmt 1 discriminator 2 view .LVU300
 1061              		.loc 1 833 3 discriminator 2 view .LVU301
 1062 001e 0020     		movs	r0, #0
 1063 0020 84F84800 		strb	r0, [r4, #72]
 1064              		.loc 1 833 3 discriminator 2 view .LVU302
 834:HALLIB/STM32F4xx_HAL_Driver/Src/stm32f4xx_hal_sram.c ****   
 835:HALLIB/STM32F4xx_HAL_Driver/Src/stm32f4xx_hal_sram.c ****   return HAL_OK;  
 1065              		.loc 1 835 3 discriminator 2 view .LVU303
 1066              	.LVL93:
 1067              	.L69:
 836:HALLIB/STM32F4xx_HAL_Driver/Src/stm32f4xx_hal_sram.c **** }
 1068              		.loc 1 836 1 is_stmt 0 view .LVU304
 1069 0024 38BD     		pop	{r3, r4, r5, pc}
 1070              	.LVL94:
 1071              	.L70:
 824:HALLIB/STM32F4xx_HAL_Driver/Src/stm32f4xx_hal_sram.c **** 
 1072              		.loc 1 824 3 view .LVU305
 1073 0026 0220     		movs	r0, #2
 1074              	.LVL95:
 824:HALLIB/STM32F4xx_HAL_Driver/Src/stm32f4xx_hal_sram.c **** 
 1075              		.loc 1 824 3 view .LVU306
 1076 0028 FCE7     		b	.L69
 1077              		.cfi_endproc
 1078              	.LFE146:
 1080              		.section	.text.HAL_SRAM_WriteOperation_Disable,"ax",%progbits
 1081              		.align	1
 1082              		.global	HAL_SRAM_WriteOperation_Disable
 1083              		.syntax unified
 1084              		.thumb
 1085              		.thumb_func
 1086              		.fpu fpv4-sp-d16
 1088              	HAL_SRAM_WriteOperation_Disable:
 1089              	.LVL96:
 1090              	.LFB147:
 837:HALLIB/STM32F4xx_HAL_Driver/Src/stm32f4xx_hal_sram.c **** 
 838:HALLIB/STM32F4xx_HAL_Driver/Src/stm32f4xx_hal_sram.c **** /**
 839:HALLIB/STM32F4xx_HAL_Driver/Src/stm32f4xx_hal_sram.c ****   * @brief  Disables dynamically SRAM write operation.
 840:HALLIB/STM32F4xx_HAL_Driver/Src/stm32f4xx_hal_sram.c ****   * @param  hsram pointer to a SRAM_HandleTypeDef structure that contains
 841:HALLIB/STM32F4xx_HAL_Driver/Src/stm32f4xx_hal_sram.c ****   *                the configuration information for SRAM module.
 842:HALLIB/STM32F4xx_HAL_Driver/Src/stm32f4xx_hal_sram.c ****   * @retval HAL status
 843:HALLIB/STM32F4xx_HAL_Driver/Src/stm32f4xx_hal_sram.c ****   */
 844:HALLIB/STM32F4xx_HAL_Driver/Src/stm32f4xx_hal_sram.c **** HAL_StatusTypeDef HAL_SRAM_WriteOperation_Disable(SRAM_HandleTypeDef *hsram)
 845:HALLIB/STM32F4xx_HAL_Driver/Src/stm32f4xx_hal_sram.c **** {
 1091              		.loc 1 845 1 is_stmt 1 view -0
 1092              		.cfi_startproc
 1093              		@ args = 0, pretend = 0, frame = 0
 1094              		@ frame_needed = 0, uses_anonymous_args = 0
 846:HALLIB/STM32F4xx_HAL_Driver/Src/stm32f4xx_hal_sram.c ****   /* Process Locked */
 847:HALLIB/STM32F4xx_HAL_Driver/Src/stm32f4xx_hal_sram.c ****   __HAL_LOCK(hsram);
ARM GAS  /tmp/ccrUXzMj.s 			page 36


 1095              		.loc 1 847 3 view .LVU308
 1096              		.loc 1 847 3 view .LVU309
 1097 0000 90F84830 		ldrb	r3, [r0, #72]	@ zero_extendqisi2
 1098 0004 012B     		cmp	r3, #1
 1099 0006 12D0     		beq	.L74
 845:HALLIB/STM32F4xx_HAL_Driver/Src/stm32f4xx_hal_sram.c ****   /* Process Locked */
 1100              		.loc 1 845 1 is_stmt 0 discriminator 2 view .LVU310
 1101 0008 10B5     		push	{r4, lr}
 1102              	.LCFI24:
 1103              		.cfi_def_cfa_offset 8
 1104              		.cfi_offset 4, -8
 1105              		.cfi_offset 14, -4
 1106 000a 0446     		mov	r4, r0
 1107              		.loc 1 847 3 is_stmt 1 discriminator 2 view .LVU311
 1108 000c 0123     		movs	r3, #1
 1109 000e 80F84830 		strb	r3, [r0, #72]
 1110              		.loc 1 847 3 discriminator 2 view .LVU312
 848:HALLIB/STM32F4xx_HAL_Driver/Src/stm32f4xx_hal_sram.c **** 
 849:HALLIB/STM32F4xx_HAL_Driver/Src/stm32f4xx_hal_sram.c ****   /* Update the SRAM controller state */
 850:HALLIB/STM32F4xx_HAL_Driver/Src/stm32f4xx_hal_sram.c ****   hsram->State = HAL_SRAM_STATE_BUSY;
 1111              		.loc 1 850 3 discriminator 2 view .LVU313
 1112              		.loc 1 850 16 is_stmt 0 discriminator 2 view .LVU314
 1113 0012 0223     		movs	r3, #2
 1114 0014 80F84930 		strb	r3, [r0, #73]
 851:HALLIB/STM32F4xx_HAL_Driver/Src/stm32f4xx_hal_sram.c ****     
 852:HALLIB/STM32F4xx_HAL_Driver/Src/stm32f4xx_hal_sram.c ****   /* Disable write operation */
 853:HALLIB/STM32F4xx_HAL_Driver/Src/stm32f4xx_hal_sram.c ****   FMC_NORSRAM_WriteOperation_Disable(hsram->Instance, hsram->Init.NSBank); 
 1115              		.loc 1 853 3 is_stmt 1 discriminator 2 view .LVU315
 1116 0018 8168     		ldr	r1, [r0, #8]
 1117 001a 0068     		ldr	r0, [r0]
 1118              	.LVL97:
 1119              		.loc 1 853 3 is_stmt 0 discriminator 2 view .LVU316
 1120 001c FFF7FEFF 		bl	FSMC_NORSRAM_WriteOperation_Disable
 1121              	.LVL98:
 854:HALLIB/STM32F4xx_HAL_Driver/Src/stm32f4xx_hal_sram.c ****   
 855:HALLIB/STM32F4xx_HAL_Driver/Src/stm32f4xx_hal_sram.c ****   /* Update the SRAM controller state */
 856:HALLIB/STM32F4xx_HAL_Driver/Src/stm32f4xx_hal_sram.c ****   hsram->State = HAL_SRAM_STATE_PROTECTED;
 1122              		.loc 1 856 3 is_stmt 1 discriminator 2 view .LVU317
 1123              		.loc 1 856 16 is_stmt 0 discriminator 2 view .LVU318
 1124 0020 0423     		movs	r3, #4
 1125 0022 84F84930 		strb	r3, [r4, #73]
 857:HALLIB/STM32F4xx_HAL_Driver/Src/stm32f4xx_hal_sram.c ****   
 858:HALLIB/STM32F4xx_HAL_Driver/Src/stm32f4xx_hal_sram.c ****   /* Process unlocked */
 859:HALLIB/STM32F4xx_HAL_Driver/Src/stm32f4xx_hal_sram.c ****   __HAL_UNLOCK(hsram); 
 1126              		.loc 1 859 3 is_stmt 1 discriminator 2 view .LVU319
 1127              		.loc 1 859 3 discriminator 2 view .LVU320
 1128 0026 0020     		movs	r0, #0
 1129 0028 84F84800 		strb	r0, [r4, #72]
 1130              		.loc 1 859 3 discriminator 2 view .LVU321
 860:HALLIB/STM32F4xx_HAL_Driver/Src/stm32f4xx_hal_sram.c ****   
 861:HALLIB/STM32F4xx_HAL_Driver/Src/stm32f4xx_hal_sram.c ****   return HAL_OK;  
 1131              		.loc 1 861 3 discriminator 2 view .LVU322
 862:HALLIB/STM32F4xx_HAL_Driver/Src/stm32f4xx_hal_sram.c **** }
 1132              		.loc 1 862 1 is_stmt 0 discriminator 2 view .LVU323
 1133 002c 10BD     		pop	{r4, pc}
 1134              	.LVL99:
 1135              	.L74:
ARM GAS  /tmp/ccrUXzMj.s 			page 37


 1136              	.LCFI25:
 1137              		.cfi_def_cfa_offset 0
 1138              		.cfi_restore 4
 1139              		.cfi_restore 14
 847:HALLIB/STM32F4xx_HAL_Driver/Src/stm32f4xx_hal_sram.c **** 
 1140              		.loc 1 847 3 view .LVU324
 1141 002e 0220     		movs	r0, #2
 1142              	.LVL100:
 1143              		.loc 1 862 1 view .LVU325
 1144 0030 7047     		bx	lr
 1145              		.cfi_endproc
 1146              	.LFE147:
 1148              		.section	.text.HAL_SRAM_GetState,"ax",%progbits
 1149              		.align	1
 1150              		.global	HAL_SRAM_GetState
 1151              		.syntax unified
 1152              		.thumb
 1153              		.thumb_func
 1154              		.fpu fpv4-sp-d16
 1156              	HAL_SRAM_GetState:
 1157              	.LVL101:
 1158              	.LFB148:
 863:HALLIB/STM32F4xx_HAL_Driver/Src/stm32f4xx_hal_sram.c **** 
 864:HALLIB/STM32F4xx_HAL_Driver/Src/stm32f4xx_hal_sram.c **** /**
 865:HALLIB/STM32F4xx_HAL_Driver/Src/stm32f4xx_hal_sram.c ****   * @}
 866:HALLIB/STM32F4xx_HAL_Driver/Src/stm32f4xx_hal_sram.c ****   */
 867:HALLIB/STM32F4xx_HAL_Driver/Src/stm32f4xx_hal_sram.c **** 
 868:HALLIB/STM32F4xx_HAL_Driver/Src/stm32f4xx_hal_sram.c **** /** @defgroup SRAM_Exported_Functions_Group4 State functions 
 869:HALLIB/STM32F4xx_HAL_Driver/Src/stm32f4xx_hal_sram.c ****  *  @brief   Peripheral State functions 
 870:HALLIB/STM32F4xx_HAL_Driver/Src/stm32f4xx_hal_sram.c ****  *
 871:HALLIB/STM32F4xx_HAL_Driver/Src/stm32f4xx_hal_sram.c **** @verbatim   
 872:HALLIB/STM32F4xx_HAL_Driver/Src/stm32f4xx_hal_sram.c ****   ==============================================================================
 873:HALLIB/STM32F4xx_HAL_Driver/Src/stm32f4xx_hal_sram.c ****                       ##### SRAM State functions #####
 874:HALLIB/STM32F4xx_HAL_Driver/Src/stm32f4xx_hal_sram.c ****   ==============================================================================  
 875:HALLIB/STM32F4xx_HAL_Driver/Src/stm32f4xx_hal_sram.c ****   [..]
 876:HALLIB/STM32F4xx_HAL_Driver/Src/stm32f4xx_hal_sram.c ****     This subsection permits to get in run-time the status of the SRAM controller 
 877:HALLIB/STM32F4xx_HAL_Driver/Src/stm32f4xx_hal_sram.c ****     and the data flow.
 878:HALLIB/STM32F4xx_HAL_Driver/Src/stm32f4xx_hal_sram.c **** 
 879:HALLIB/STM32F4xx_HAL_Driver/Src/stm32f4xx_hal_sram.c **** @endverbatim
 880:HALLIB/STM32F4xx_HAL_Driver/Src/stm32f4xx_hal_sram.c ****   * @{
 881:HALLIB/STM32F4xx_HAL_Driver/Src/stm32f4xx_hal_sram.c ****   */
 882:HALLIB/STM32F4xx_HAL_Driver/Src/stm32f4xx_hal_sram.c ****   
 883:HALLIB/STM32F4xx_HAL_Driver/Src/stm32f4xx_hal_sram.c **** /**
 884:HALLIB/STM32F4xx_HAL_Driver/Src/stm32f4xx_hal_sram.c ****   * @brief  Returns the SRAM controller state
 885:HALLIB/STM32F4xx_HAL_Driver/Src/stm32f4xx_hal_sram.c ****   * @param  hsram pointer to a SRAM_HandleTypeDef structure that contains
 886:HALLIB/STM32F4xx_HAL_Driver/Src/stm32f4xx_hal_sram.c ****   *                the configuration information for SRAM module.
 887:HALLIB/STM32F4xx_HAL_Driver/Src/stm32f4xx_hal_sram.c ****   * @retval HAL state
 888:HALLIB/STM32F4xx_HAL_Driver/Src/stm32f4xx_hal_sram.c ****   */
 889:HALLIB/STM32F4xx_HAL_Driver/Src/stm32f4xx_hal_sram.c **** HAL_SRAM_StateTypeDef HAL_SRAM_GetState(SRAM_HandleTypeDef *hsram)
 890:HALLIB/STM32F4xx_HAL_Driver/Src/stm32f4xx_hal_sram.c **** {
 1159              		.loc 1 890 1 is_stmt 1 view -0
 1160              		.cfi_startproc
 1161              		@ args = 0, pretend = 0, frame = 0
 1162              		@ frame_needed = 0, uses_anonymous_args = 0
 1163              		@ link register save eliminated.
 891:HALLIB/STM32F4xx_HAL_Driver/Src/stm32f4xx_hal_sram.c ****   return hsram->State;
 1164              		.loc 1 891 3 view .LVU327
ARM GAS  /tmp/ccrUXzMj.s 			page 38


 1165              		.loc 1 891 15 is_stmt 0 view .LVU328
 1166 0000 90F84900 		ldrb	r0, [r0, #73]	@ zero_extendqisi2
 1167              	.LVL102:
 892:HALLIB/STM32F4xx_HAL_Driver/Src/stm32f4xx_hal_sram.c **** }
 1168              		.loc 1 892 1 view .LVU329
 1169 0004 7047     		bx	lr
 1170              		.cfi_endproc
 1171              	.LFE148:
 1173              		.text
 1174              	.Letext0:
 1175              		.file 2 "/opt/gcc_arm/gcc-arm-none-eabi-9-2019-q4-major/arm-none-eabi/include/machine/_default_typ
 1176              		.file 3 "/opt/gcc_arm/gcc-arm-none-eabi-9-2019-q4-major/arm-none-eabi/include/sys/_stdint.h"
 1177              		.file 4 "CORE/core_cm4.h"
 1178              		.file 5 "USER/system_stm32f4xx.h"
 1179              		.file 6 "USER/stm32f407xx.h"
 1180              		.file 7 "HALLIB/STM32F4xx_HAL_Driver/Inc/stm32f4xx_hal_def.h"
 1181              		.file 8 "HALLIB/STM32F4xx_HAL_Driver/Inc/stm32f4xx_hal_dma.h"
 1182              		.file 9 "HALLIB/STM32F4xx_HAL_Driver/Inc/stm32f4xx_ll_fsmc.h"
 1183              		.file 10 "HALLIB/STM32F4xx_HAL_Driver/Inc/stm32f4xx_hal_sram.h"
ARM GAS  /tmp/ccrUXzMj.s 			page 39

