ARM GAS  /tmp/cccL9nWh.s 			page 1


   1              		.cpu cortex-m4
   2              		.eabi_attribute 27, 1
   3              		.eabi_attribute 28, 1
   4              		.eabi_attribute 20, 1
   5              		.eabi_attribute 21, 1
   6              		.eabi_attribute 23, 3
   7              		.eabi_attribute 24, 1
   8              		.eabi_attribute 25, 1
   9              		.eabi_attribute 26, 1
  10              		.eabi_attribute 30, 1
  11              		.eabi_attribute 34, 1
  12              		.eabi_attribute 18, 4
  13              		.file	"stm32f4xx_hal_pccard.c"
  14              		.text
  15              	.Ltext0:
  16              		.cfi_sections	.debug_frame
  17              		.section	.text.HAL_PCCARD_MspInit,"ax",%progbits
  18              		.align	1
  19              		.weak	HAL_PCCARD_MspInit
  20              		.arch armv7e-m
  21              		.syntax unified
  22              		.thumb
  23              		.thumb_func
  24              		.fpu fpv4-sp-d16
  26              	HAL_PCCARD_MspInit:
  27              	.LVL0:
  28              	.LFB134:
  29              		.file 1 "HALLIB/STM32F4xx_HAL_Driver/Src/stm32f4xx_hal_pccard.c"
   1:HALLIB/STM32F4xx_HAL_Driver/Src/stm32f4xx_hal_pccard.c **** /**
   2:HALLIB/STM32F4xx_HAL_Driver/Src/stm32f4xx_hal_pccard.c ****   ******************************************************************************
   3:HALLIB/STM32F4xx_HAL_Driver/Src/stm32f4xx_hal_pccard.c ****   * @file    stm32f4xx_hal_pccard.c
   4:HALLIB/STM32F4xx_HAL_Driver/Src/stm32f4xx_hal_pccard.c ****   * @author  MCD Application Team
   5:HALLIB/STM32F4xx_HAL_Driver/Src/stm32f4xx_hal_pccard.c ****   * @brief   PCCARD HAL module driver.
   6:HALLIB/STM32F4xx_HAL_Driver/Src/stm32f4xx_hal_pccard.c ****   *          This file provides a generic firmware to drive PCCARD memories mounted 
   7:HALLIB/STM32F4xx_HAL_Driver/Src/stm32f4xx_hal_pccard.c ****   *          as external device.
   8:HALLIB/STM32F4xx_HAL_Driver/Src/stm32f4xx_hal_pccard.c ****   *         
   9:HALLIB/STM32F4xx_HAL_Driver/Src/stm32f4xx_hal_pccard.c ****   @verbatim
  10:HALLIB/STM32F4xx_HAL_Driver/Src/stm32f4xx_hal_pccard.c ****  ===============================================================================
  11:HALLIB/STM32F4xx_HAL_Driver/Src/stm32f4xx_hal_pccard.c ****                         ##### How to use this driver #####
  12:HALLIB/STM32F4xx_HAL_Driver/Src/stm32f4xx_hal_pccard.c ****  ===============================================================================  
  13:HALLIB/STM32F4xx_HAL_Driver/Src/stm32f4xx_hal_pccard.c ****    [..]
  14:HALLIB/STM32F4xx_HAL_Driver/Src/stm32f4xx_hal_pccard.c ****      This driver is a generic layered driver which contains a set of APIs used to 
  15:HALLIB/STM32F4xx_HAL_Driver/Src/stm32f4xx_hal_pccard.c ****      control PCCARD/compact flash memories. It uses the FMC/FSMC layer functions 
  16:HALLIB/STM32F4xx_HAL_Driver/Src/stm32f4xx_hal_pccard.c ****      to interface with PCCARD devices. This driver is used for:
  17:HALLIB/STM32F4xx_HAL_Driver/Src/stm32f4xx_hal_pccard.c ****     
  18:HALLIB/STM32F4xx_HAL_Driver/Src/stm32f4xx_hal_pccard.c ****     (+) PCCARD/Compact Flash memory configuration sequence using the function 
  19:HALLIB/STM32F4xx_HAL_Driver/Src/stm32f4xx_hal_pccard.c ****         HAL_PCCARD_Init()/HAL_CF_Init() with control and timing parameters for
  20:HALLIB/STM32F4xx_HAL_Driver/Src/stm32f4xx_hal_pccard.c ****         both common and attribute spaces.
  21:HALLIB/STM32F4xx_HAL_Driver/Src/stm32f4xx_hal_pccard.c ****             
  22:HALLIB/STM32F4xx_HAL_Driver/Src/stm32f4xx_hal_pccard.c ****     (+) Read PCCARD/Compact Flash memory maker and device IDs using the function
  23:HALLIB/STM32F4xx_HAL_Driver/Src/stm32f4xx_hal_pccard.c ****         HAL_PCCARD_Read_ID()/HAL_CF_Read_ID(). The read information is stored in
  24:HALLIB/STM32F4xx_HAL_Driver/Src/stm32f4xx_hal_pccard.c ****         the CompactFlash_ID structure declared by the function caller. 
  25:HALLIB/STM32F4xx_HAL_Driver/Src/stm32f4xx_hal_pccard.c ****         
  26:HALLIB/STM32F4xx_HAL_Driver/Src/stm32f4xx_hal_pccard.c ****     (+) Access PCCARD/Compact Flash memory by read/write operations using the functions
  27:HALLIB/STM32F4xx_HAL_Driver/Src/stm32f4xx_hal_pccard.c ****         HAL_PCCARD_Read_Sector()/ HAL_PCCARD_Write_Sector() - 
  28:HALLIB/STM32F4xx_HAL_Driver/Src/stm32f4xx_hal_pccard.c ****         HAL_CF_Read_Sector()/HAL_CF_Write_Sector(), to read/write sector. 
  29:HALLIB/STM32F4xx_HAL_Driver/Src/stm32f4xx_hal_pccard.c ****         
ARM GAS  /tmp/cccL9nWh.s 			page 2


  30:HALLIB/STM32F4xx_HAL_Driver/Src/stm32f4xx_hal_pccard.c ****     (+) Perform PCCARD/Compact Flash Reset chip operation using the function
  31:HALLIB/STM32F4xx_HAL_Driver/Src/stm32f4xx_hal_pccard.c ****         HAL_PCCARD_Reset()/HAL_CF_Reset.
  32:HALLIB/STM32F4xx_HAL_Driver/Src/stm32f4xx_hal_pccard.c ****         
  33:HALLIB/STM32F4xx_HAL_Driver/Src/stm32f4xx_hal_pccard.c ****     (+) Perform PCCARD/Compact Flash erase sector operation using the function 
  34:HALLIB/STM32F4xx_HAL_Driver/Src/stm32f4xx_hal_pccard.c ****         HAL_PCCARD_Erase_Sector()/HAL_CF_Erase_Sector.
  35:HALLIB/STM32F4xx_HAL_Driver/Src/stm32f4xx_hal_pccard.c ****     
  36:HALLIB/STM32F4xx_HAL_Driver/Src/stm32f4xx_hal_pccard.c ****     (+) Read the PCCARD/Compact Flash status operation using the function
  37:HALLIB/STM32F4xx_HAL_Driver/Src/stm32f4xx_hal_pccard.c ****         HAL_PCCARD_ReadStatus()/HAL_CF_ReadStatus().
  38:HALLIB/STM32F4xx_HAL_Driver/Src/stm32f4xx_hal_pccard.c ****      
  39:HALLIB/STM32F4xx_HAL_Driver/Src/stm32f4xx_hal_pccard.c ****     (+) You can monitor the PCCARD/Compact Flash  device HAL state by calling
  40:HALLIB/STM32F4xx_HAL_Driver/Src/stm32f4xx_hal_pccard.c ****         the function HAL_PCCARD_GetState()/HAL_CF_GetState()
  41:HALLIB/STM32F4xx_HAL_Driver/Src/stm32f4xx_hal_pccard.c ****         
  42:HALLIB/STM32F4xx_HAL_Driver/Src/stm32f4xx_hal_pccard.c ****    [..]
  43:HALLIB/STM32F4xx_HAL_Driver/Src/stm32f4xx_hal_pccard.c ****      (@) This driver is a set of generic APIs which handle standard PCCARD/compact flash 
  44:HALLIB/STM32F4xx_HAL_Driver/Src/stm32f4xx_hal_pccard.c ****          operations. If a PCCARD/Compact Flash device contains different operations 
  45:HALLIB/STM32F4xx_HAL_Driver/Src/stm32f4xx_hal_pccard.c ****          and/or implementations, it should be implemented separately.
  46:HALLIB/STM32F4xx_HAL_Driver/Src/stm32f4xx_hal_pccard.c ****    
  47:HALLIB/STM32F4xx_HAL_Driver/Src/stm32f4xx_hal_pccard.c ****       *** Callback registration ***
  48:HALLIB/STM32F4xx_HAL_Driver/Src/stm32f4xx_hal_pccard.c ****     =============================================
  49:HALLIB/STM32F4xx_HAL_Driver/Src/stm32f4xx_hal_pccard.c ****     [..]
  50:HALLIB/STM32F4xx_HAL_Driver/Src/stm32f4xx_hal_pccard.c ****       The compilation define  USE_HAL_PCCARD_REGISTER_CALLBACKS when set to 1
  51:HALLIB/STM32F4xx_HAL_Driver/Src/stm32f4xx_hal_pccard.c ****       allows the user to configure dynamically the driver callbacks.
  52:HALLIB/STM32F4xx_HAL_Driver/Src/stm32f4xx_hal_pccard.c **** 
  53:HALLIB/STM32F4xx_HAL_Driver/Src/stm32f4xx_hal_pccard.c ****       Use Functions @ref HAL_PCCARD_RegisterCallback() to register a user callback,
  54:HALLIB/STM32F4xx_HAL_Driver/Src/stm32f4xx_hal_pccard.c ****       it allows to register following callbacks:
  55:HALLIB/STM32F4xx_HAL_Driver/Src/stm32f4xx_hal_pccard.c ****         (+) MspInitCallback    : PCCARD MspInit.
  56:HALLIB/STM32F4xx_HAL_Driver/Src/stm32f4xx_hal_pccard.c ****         (+) MspDeInitCallback  : PCCARD MspDeInit.
  57:HALLIB/STM32F4xx_HAL_Driver/Src/stm32f4xx_hal_pccard.c ****       This function takes as parameters the HAL peripheral handle, the Callback ID
  58:HALLIB/STM32F4xx_HAL_Driver/Src/stm32f4xx_hal_pccard.c ****       and a pointer to the user callback function.
  59:HALLIB/STM32F4xx_HAL_Driver/Src/stm32f4xx_hal_pccard.c **** 
  60:HALLIB/STM32F4xx_HAL_Driver/Src/stm32f4xx_hal_pccard.c ****       Use function @ref HAL_PCCARD_UnRegisterCallback() to reset a callback to the default
  61:HALLIB/STM32F4xx_HAL_Driver/Src/stm32f4xx_hal_pccard.c ****       weak (surcharged) function. It allows to reset following callbacks:
  62:HALLIB/STM32F4xx_HAL_Driver/Src/stm32f4xx_hal_pccard.c ****         (+) MspInitCallback    : PCCARD MspInit.
  63:HALLIB/STM32F4xx_HAL_Driver/Src/stm32f4xx_hal_pccard.c ****         (+) MspDeInitCallback  : PCCARD MspDeInit.
  64:HALLIB/STM32F4xx_HAL_Driver/Src/stm32f4xx_hal_pccard.c ****       This function) takes as parameters the HAL peripheral handle and the Callback ID.
  65:HALLIB/STM32F4xx_HAL_Driver/Src/stm32f4xx_hal_pccard.c **** 
  66:HALLIB/STM32F4xx_HAL_Driver/Src/stm32f4xx_hal_pccard.c ****       By default, after the @ref HAL_PCCARD_Init and if the state is HAL_PCCARD_STATE_RESET
  67:HALLIB/STM32F4xx_HAL_Driver/Src/stm32f4xx_hal_pccard.c ****       all callbacks are reset to the corresponding legacy weak (surcharged) functions.
  68:HALLIB/STM32F4xx_HAL_Driver/Src/stm32f4xx_hal_pccard.c ****       Exception done for MspInit and MspDeInit callbacks that are respectively
  69:HALLIB/STM32F4xx_HAL_Driver/Src/stm32f4xx_hal_pccard.c ****       reset to the legacy weak (surcharged) functions in the @ref HAL_PCCARD_Init
  70:HALLIB/STM32F4xx_HAL_Driver/Src/stm32f4xx_hal_pccard.c ****       and @ref  HAL_PCCARD_DeInit only when these callbacks are null (not registered beforehand).
  71:HALLIB/STM32F4xx_HAL_Driver/Src/stm32f4xx_hal_pccard.c ****       If not, MspInit or MspDeInit are not null, the @ref HAL_PCCARD_Init and @ref HAL_PCCARD_DeIni
  72:HALLIB/STM32F4xx_HAL_Driver/Src/stm32f4xx_hal_pccard.c ****       keep and use the user MspInit/MspDeInit callbacks (registered beforehand)
  73:HALLIB/STM32F4xx_HAL_Driver/Src/stm32f4xx_hal_pccard.c **** 
  74:HALLIB/STM32F4xx_HAL_Driver/Src/stm32f4xx_hal_pccard.c ****       Callbacks can be registered/unregistered in READY state only.
  75:HALLIB/STM32F4xx_HAL_Driver/Src/stm32f4xx_hal_pccard.c ****       Exception done for MspInit/MspDeInit callbacks that can be registered/unregistered
  76:HALLIB/STM32F4xx_HAL_Driver/Src/stm32f4xx_hal_pccard.c ****       in READY or RESET state, thus registered (user) MspInit/DeInit callbacks can be used
  77:HALLIB/STM32F4xx_HAL_Driver/Src/stm32f4xx_hal_pccard.c ****       during the Init/DeInit.
  78:HALLIB/STM32F4xx_HAL_Driver/Src/stm32f4xx_hal_pccard.c ****       In that case first register the MspInit/MspDeInit user callbacks
  79:HALLIB/STM32F4xx_HAL_Driver/Src/stm32f4xx_hal_pccard.c ****       using @ref HAL_PCCARD_RegisterCallback before calling @ref HAL_PCCARD_DeInit
  80:HALLIB/STM32F4xx_HAL_Driver/Src/stm32f4xx_hal_pccard.c ****       or @ref HAL_PCCARD_Init function.
  81:HALLIB/STM32F4xx_HAL_Driver/Src/stm32f4xx_hal_pccard.c **** 
  82:HALLIB/STM32F4xx_HAL_Driver/Src/stm32f4xx_hal_pccard.c ****       When The compilation define USE_HAL_PCCARD_REGISTER_CALLBACKS is set to 0 or
  83:HALLIB/STM32F4xx_HAL_Driver/Src/stm32f4xx_hal_pccard.c ****       not defined, the callback registering feature is not available
  84:HALLIB/STM32F4xx_HAL_Driver/Src/stm32f4xx_hal_pccard.c ****       and weak (surcharged) callbacks are used.
  85:HALLIB/STM32F4xx_HAL_Driver/Src/stm32f4xx_hal_pccard.c **** 
  86:HALLIB/STM32F4xx_HAL_Driver/Src/stm32f4xx_hal_pccard.c ****   @endverbatim
ARM GAS  /tmp/cccL9nWh.s 			page 3


  87:HALLIB/STM32F4xx_HAL_Driver/Src/stm32f4xx_hal_pccard.c ****   ******************************************************************************
  88:HALLIB/STM32F4xx_HAL_Driver/Src/stm32f4xx_hal_pccard.c ****   * @attention
  89:HALLIB/STM32F4xx_HAL_Driver/Src/stm32f4xx_hal_pccard.c ****   *
  90:HALLIB/STM32F4xx_HAL_Driver/Src/stm32f4xx_hal_pccard.c ****   * <h2><center>&copy; Copyright (c) 2017 STMicroelectronics.
  91:HALLIB/STM32F4xx_HAL_Driver/Src/stm32f4xx_hal_pccard.c ****   * All rights reserved.</center></h2>
  92:HALLIB/STM32F4xx_HAL_Driver/Src/stm32f4xx_hal_pccard.c ****   *
  93:HALLIB/STM32F4xx_HAL_Driver/Src/stm32f4xx_hal_pccard.c ****   * This software component is licensed by ST under BSD 3-Clause license,
  94:HALLIB/STM32F4xx_HAL_Driver/Src/stm32f4xx_hal_pccard.c ****   * the "License"; You may not use this file except in compliance with the
  95:HALLIB/STM32F4xx_HAL_Driver/Src/stm32f4xx_hal_pccard.c ****   * License. You may obtain a copy of the License at:
  96:HALLIB/STM32F4xx_HAL_Driver/Src/stm32f4xx_hal_pccard.c ****   *                        opensource.org/licenses/BSD-3-Clause
  97:HALLIB/STM32F4xx_HAL_Driver/Src/stm32f4xx_hal_pccard.c ****   *
  98:HALLIB/STM32F4xx_HAL_Driver/Src/stm32f4xx_hal_pccard.c ****   ******************************************************************************
  99:HALLIB/STM32F4xx_HAL_Driver/Src/stm32f4xx_hal_pccard.c ****   */ 
 100:HALLIB/STM32F4xx_HAL_Driver/Src/stm32f4xx_hal_pccard.c **** 
 101:HALLIB/STM32F4xx_HAL_Driver/Src/stm32f4xx_hal_pccard.c **** /* Includes ------------------------------------------------------------------*/
 102:HALLIB/STM32F4xx_HAL_Driver/Src/stm32f4xx_hal_pccard.c **** #include "stm32f4xx_hal.h"
 103:HALLIB/STM32F4xx_HAL_Driver/Src/stm32f4xx_hal_pccard.c **** 
 104:HALLIB/STM32F4xx_HAL_Driver/Src/stm32f4xx_hal_pccard.c **** /** @addtogroup STM32F4xx_HAL_Driver
 105:HALLIB/STM32F4xx_HAL_Driver/Src/stm32f4xx_hal_pccard.c ****   * @{
 106:HALLIB/STM32F4xx_HAL_Driver/Src/stm32f4xx_hal_pccard.c ****   */
 107:HALLIB/STM32F4xx_HAL_Driver/Src/stm32f4xx_hal_pccard.c **** 
 108:HALLIB/STM32F4xx_HAL_Driver/Src/stm32f4xx_hal_pccard.c **** #ifdef HAL_PCCARD_MODULE_ENABLED
 109:HALLIB/STM32F4xx_HAL_Driver/Src/stm32f4xx_hal_pccard.c **** #if defined(STM32F405xx) || defined(STM32F415xx) || defined(STM32F407xx) || defined(STM32F417xx) ||
 110:HALLIB/STM32F4xx_HAL_Driver/Src/stm32f4xx_hal_pccard.c ****     defined(STM32F427xx) || defined(STM32F437xx) || defined(STM32F429xx) || defined(STM32F439xx)
 111:HALLIB/STM32F4xx_HAL_Driver/Src/stm32f4xx_hal_pccard.c **** /** @defgroup PCCARD PCCARD  
 112:HALLIB/STM32F4xx_HAL_Driver/Src/stm32f4xx_hal_pccard.c ****   * @brief PCCARD HAL module driver
 113:HALLIB/STM32F4xx_HAL_Driver/Src/stm32f4xx_hal_pccard.c ****   * @{
 114:HALLIB/STM32F4xx_HAL_Driver/Src/stm32f4xx_hal_pccard.c ****   */
 115:HALLIB/STM32F4xx_HAL_Driver/Src/stm32f4xx_hal_pccard.c **** /* Private typedef -----------------------------------------------------------*/
 116:HALLIB/STM32F4xx_HAL_Driver/Src/stm32f4xx_hal_pccard.c **** /* Private define ------------------------------------------------------------*/
 117:HALLIB/STM32F4xx_HAL_Driver/Src/stm32f4xx_hal_pccard.c ****     
 118:HALLIB/STM32F4xx_HAL_Driver/Src/stm32f4xx_hal_pccard.c **** /** @defgroup PCCARD_Private_Defines PCCARD Private Defines
 119:HALLIB/STM32F4xx_HAL_Driver/Src/stm32f4xx_hal_pccard.c ****   * @{
 120:HALLIB/STM32F4xx_HAL_Driver/Src/stm32f4xx_hal_pccard.c ****   */
 121:HALLIB/STM32F4xx_HAL_Driver/Src/stm32f4xx_hal_pccard.c **** #define PCCARD_TIMEOUT_READ_ID                 0x0000FFFFU
 122:HALLIB/STM32F4xx_HAL_Driver/Src/stm32f4xx_hal_pccard.c **** #define PCCARD_TIMEOUT_READ_WRITE_SECTOR       0x0000FFFFU
 123:HALLIB/STM32F4xx_HAL_Driver/Src/stm32f4xx_hal_pccard.c **** #define PCCARD_TIMEOUT_ERASE_SECTOR            0x00000400U
 124:HALLIB/STM32F4xx_HAL_Driver/Src/stm32f4xx_hal_pccard.c **** #define PCCARD_TIMEOUT_STATUS                  0x01000000U
 125:HALLIB/STM32F4xx_HAL_Driver/Src/stm32f4xx_hal_pccard.c **** 
 126:HALLIB/STM32F4xx_HAL_Driver/Src/stm32f4xx_hal_pccard.c **** #define PCCARD_STATUS_OK                       (uint8_t)0x58
 127:HALLIB/STM32F4xx_HAL_Driver/Src/stm32f4xx_hal_pccard.c **** #define PCCARD_STATUS_WRITE_OK                 (uint8_t)0x50
 128:HALLIB/STM32F4xx_HAL_Driver/Src/stm32f4xx_hal_pccard.c **** /**
 129:HALLIB/STM32F4xx_HAL_Driver/Src/stm32f4xx_hal_pccard.c ****   * @}
 130:HALLIB/STM32F4xx_HAL_Driver/Src/stm32f4xx_hal_pccard.c ****   */ 
 131:HALLIB/STM32F4xx_HAL_Driver/Src/stm32f4xx_hal_pccard.c ****     
 132:HALLIB/STM32F4xx_HAL_Driver/Src/stm32f4xx_hal_pccard.c **** /* Private macro -------------------------------------------------------------*/
 133:HALLIB/STM32F4xx_HAL_Driver/Src/stm32f4xx_hal_pccard.c **** /* Private variables ---------------------------------------------------------*/
 134:HALLIB/STM32F4xx_HAL_Driver/Src/stm32f4xx_hal_pccard.c **** /* Private function ----------------------------------------------------------*/
 135:HALLIB/STM32F4xx_HAL_Driver/Src/stm32f4xx_hal_pccard.c **** /* Exported functions --------------------------------------------------------*/
 136:HALLIB/STM32F4xx_HAL_Driver/Src/stm32f4xx_hal_pccard.c **** /** @defgroup PCCARD_Exported_Functions PCCARD Exported Functions
 137:HALLIB/STM32F4xx_HAL_Driver/Src/stm32f4xx_hal_pccard.c ****   * @{
 138:HALLIB/STM32F4xx_HAL_Driver/Src/stm32f4xx_hal_pccard.c ****   */
 139:HALLIB/STM32F4xx_HAL_Driver/Src/stm32f4xx_hal_pccard.c **** 
 140:HALLIB/STM32F4xx_HAL_Driver/Src/stm32f4xx_hal_pccard.c **** /** @defgroup PCCARD_Exported_Functions_Group1 Initialization and de-initialization functions 
 141:HALLIB/STM32F4xx_HAL_Driver/Src/stm32f4xx_hal_pccard.c ****   * @brief    Initialization and Configuration functions 
 142:HALLIB/STM32F4xx_HAL_Driver/Src/stm32f4xx_hal_pccard.c ****   *
 143:HALLIB/STM32F4xx_HAL_Driver/Src/stm32f4xx_hal_pccard.c ****   @verbatim    
ARM GAS  /tmp/cccL9nWh.s 			page 4


 144:HALLIB/STM32F4xx_HAL_Driver/Src/stm32f4xx_hal_pccard.c ****   ==============================================================================
 145:HALLIB/STM32F4xx_HAL_Driver/Src/stm32f4xx_hal_pccard.c ****           ##### PCCARD Initialization and de-initialization functions #####
 146:HALLIB/STM32F4xx_HAL_Driver/Src/stm32f4xx_hal_pccard.c ****   ==============================================================================
 147:HALLIB/STM32F4xx_HAL_Driver/Src/stm32f4xx_hal_pccard.c ****   [..]  
 148:HALLIB/STM32F4xx_HAL_Driver/Src/stm32f4xx_hal_pccard.c ****     This section provides functions allowing to initialize/de-initialize
 149:HALLIB/STM32F4xx_HAL_Driver/Src/stm32f4xx_hal_pccard.c ****     the PCCARD memory
 150:HALLIB/STM32F4xx_HAL_Driver/Src/stm32f4xx_hal_pccard.c ****   
 151:HALLIB/STM32F4xx_HAL_Driver/Src/stm32f4xx_hal_pccard.c **** @endverbatim
 152:HALLIB/STM32F4xx_HAL_Driver/Src/stm32f4xx_hal_pccard.c ****   * @{
 153:HALLIB/STM32F4xx_HAL_Driver/Src/stm32f4xx_hal_pccard.c ****   */
 154:HALLIB/STM32F4xx_HAL_Driver/Src/stm32f4xx_hal_pccard.c ****     
 155:HALLIB/STM32F4xx_HAL_Driver/Src/stm32f4xx_hal_pccard.c **** /**
 156:HALLIB/STM32F4xx_HAL_Driver/Src/stm32f4xx_hal_pccard.c ****   * @brief  Perform the PCCARD memory Initialization sequence
 157:HALLIB/STM32F4xx_HAL_Driver/Src/stm32f4xx_hal_pccard.c ****   * @param  hpccard pointer to a PCCARD_HandleTypeDef structure that contains
 158:HALLIB/STM32F4xx_HAL_Driver/Src/stm32f4xx_hal_pccard.c ****   *                the configuration information for PCCARD module.
 159:HALLIB/STM32F4xx_HAL_Driver/Src/stm32f4xx_hal_pccard.c ****   * @param  ComSpaceTiming Common space timing structure
 160:HALLIB/STM32F4xx_HAL_Driver/Src/stm32f4xx_hal_pccard.c ****   * @param  AttSpaceTiming Attribute space timing structure
 161:HALLIB/STM32F4xx_HAL_Driver/Src/stm32f4xx_hal_pccard.c ****   * @param  IOSpaceTiming IO space timing structure     
 162:HALLIB/STM32F4xx_HAL_Driver/Src/stm32f4xx_hal_pccard.c ****   * @retval HAL status
 163:HALLIB/STM32F4xx_HAL_Driver/Src/stm32f4xx_hal_pccard.c ****   */
 164:HALLIB/STM32F4xx_HAL_Driver/Src/stm32f4xx_hal_pccard.c **** HAL_StatusTypeDef HAL_PCCARD_Init(PCCARD_HandleTypeDef *hpccard, FMC_NAND_PCC_TimingTypeDef *ComSpa
 165:HALLIB/STM32F4xx_HAL_Driver/Src/stm32f4xx_hal_pccard.c **** {
 166:HALLIB/STM32F4xx_HAL_Driver/Src/stm32f4xx_hal_pccard.c ****   /* Check the PCCARD controller state */
 167:HALLIB/STM32F4xx_HAL_Driver/Src/stm32f4xx_hal_pccard.c ****   if(hpccard == NULL)
 168:HALLIB/STM32F4xx_HAL_Driver/Src/stm32f4xx_hal_pccard.c ****   {
 169:HALLIB/STM32F4xx_HAL_Driver/Src/stm32f4xx_hal_pccard.c ****      return HAL_ERROR;
 170:HALLIB/STM32F4xx_HAL_Driver/Src/stm32f4xx_hal_pccard.c ****   }
 171:HALLIB/STM32F4xx_HAL_Driver/Src/stm32f4xx_hal_pccard.c ****   
 172:HALLIB/STM32F4xx_HAL_Driver/Src/stm32f4xx_hal_pccard.c ****   if(hpccard->State == HAL_PCCARD_STATE_RESET)
 173:HALLIB/STM32F4xx_HAL_Driver/Src/stm32f4xx_hal_pccard.c ****   {  
 174:HALLIB/STM32F4xx_HAL_Driver/Src/stm32f4xx_hal_pccard.c ****     /* Allocate lock resource and initialize it */
 175:HALLIB/STM32F4xx_HAL_Driver/Src/stm32f4xx_hal_pccard.c ****     hpccard->Lock = HAL_UNLOCKED;
 176:HALLIB/STM32F4xx_HAL_Driver/Src/stm32f4xx_hal_pccard.c **** #if (USE_HAL_PCCARD_REGISTER_CALLBACKS == 1)
 177:HALLIB/STM32F4xx_HAL_Driver/Src/stm32f4xx_hal_pccard.c ****     if(hpccard->MspInitCallback == NULL)
 178:HALLIB/STM32F4xx_HAL_Driver/Src/stm32f4xx_hal_pccard.c ****     {
 179:HALLIB/STM32F4xx_HAL_Driver/Src/stm32f4xx_hal_pccard.c ****       hpccard->MspInitCallback = HAL_PCCARD_MspInit;
 180:HALLIB/STM32F4xx_HAL_Driver/Src/stm32f4xx_hal_pccard.c ****     }
 181:HALLIB/STM32F4xx_HAL_Driver/Src/stm32f4xx_hal_pccard.c ****     hpccard->ItCallback = HAL_PCCARD_ITCallback;
 182:HALLIB/STM32F4xx_HAL_Driver/Src/stm32f4xx_hal_pccard.c **** 
 183:HALLIB/STM32F4xx_HAL_Driver/Src/stm32f4xx_hal_pccard.c ****     /* Init the low level hardware */
 184:HALLIB/STM32F4xx_HAL_Driver/Src/stm32f4xx_hal_pccard.c ****     hpccard->MspInitCallback(hpccard);
 185:HALLIB/STM32F4xx_HAL_Driver/Src/stm32f4xx_hal_pccard.c **** #else
 186:HALLIB/STM32F4xx_HAL_Driver/Src/stm32f4xx_hal_pccard.c ****     /* Initialize the low level hardware (MSP) */
 187:HALLIB/STM32F4xx_HAL_Driver/Src/stm32f4xx_hal_pccard.c ****     HAL_PCCARD_MspInit(hpccard);
 188:HALLIB/STM32F4xx_HAL_Driver/Src/stm32f4xx_hal_pccard.c **** #endif
 189:HALLIB/STM32F4xx_HAL_Driver/Src/stm32f4xx_hal_pccard.c ****   }
 190:HALLIB/STM32F4xx_HAL_Driver/Src/stm32f4xx_hal_pccard.c ****   
 191:HALLIB/STM32F4xx_HAL_Driver/Src/stm32f4xx_hal_pccard.c ****   /* Initialize the PCCARD state */
 192:HALLIB/STM32F4xx_HAL_Driver/Src/stm32f4xx_hal_pccard.c ****   hpccard->State = HAL_PCCARD_STATE_BUSY;    
 193:HALLIB/STM32F4xx_HAL_Driver/Src/stm32f4xx_hal_pccard.c **** 
 194:HALLIB/STM32F4xx_HAL_Driver/Src/stm32f4xx_hal_pccard.c ****   /* Initialize PCCARD control Interface */
 195:HALLIB/STM32F4xx_HAL_Driver/Src/stm32f4xx_hal_pccard.c ****   FMC_PCCARD_Init(hpccard->Instance, &(hpccard->Init));
 196:HALLIB/STM32F4xx_HAL_Driver/Src/stm32f4xx_hal_pccard.c ****   
 197:HALLIB/STM32F4xx_HAL_Driver/Src/stm32f4xx_hal_pccard.c ****   /* Init PCCARD common space timing Interface */
 198:HALLIB/STM32F4xx_HAL_Driver/Src/stm32f4xx_hal_pccard.c ****   FMC_PCCARD_CommonSpace_Timing_Init(hpccard->Instance, ComSpaceTiming);
 199:HALLIB/STM32F4xx_HAL_Driver/Src/stm32f4xx_hal_pccard.c ****   
 200:HALLIB/STM32F4xx_HAL_Driver/Src/stm32f4xx_hal_pccard.c ****   /* Init PCCARD attribute space timing Interface */  
ARM GAS  /tmp/cccL9nWh.s 			page 5


 201:HALLIB/STM32F4xx_HAL_Driver/Src/stm32f4xx_hal_pccard.c ****   FMC_PCCARD_AttributeSpace_Timing_Init(hpccard->Instance, AttSpaceTiming);
 202:HALLIB/STM32F4xx_HAL_Driver/Src/stm32f4xx_hal_pccard.c ****   
 203:HALLIB/STM32F4xx_HAL_Driver/Src/stm32f4xx_hal_pccard.c ****   /* Init PCCARD IO space timing Interface */  
 204:HALLIB/STM32F4xx_HAL_Driver/Src/stm32f4xx_hal_pccard.c ****   FMC_PCCARD_IOSpace_Timing_Init(hpccard->Instance, IOSpaceTiming);
 205:HALLIB/STM32F4xx_HAL_Driver/Src/stm32f4xx_hal_pccard.c ****   
 206:HALLIB/STM32F4xx_HAL_Driver/Src/stm32f4xx_hal_pccard.c ****   /* Enable the PCCARD device */
 207:HALLIB/STM32F4xx_HAL_Driver/Src/stm32f4xx_hal_pccard.c ****   __FMC_PCCARD_ENABLE(hpccard->Instance); 
 208:HALLIB/STM32F4xx_HAL_Driver/Src/stm32f4xx_hal_pccard.c ****   
 209:HALLIB/STM32F4xx_HAL_Driver/Src/stm32f4xx_hal_pccard.c ****   /* Update the PCCARD state */
 210:HALLIB/STM32F4xx_HAL_Driver/Src/stm32f4xx_hal_pccard.c ****   hpccard->State = HAL_PCCARD_STATE_READY;  
 211:HALLIB/STM32F4xx_HAL_Driver/Src/stm32f4xx_hal_pccard.c ****   
 212:HALLIB/STM32F4xx_HAL_Driver/Src/stm32f4xx_hal_pccard.c ****   return HAL_OK;
 213:HALLIB/STM32F4xx_HAL_Driver/Src/stm32f4xx_hal_pccard.c **** 
 214:HALLIB/STM32F4xx_HAL_Driver/Src/stm32f4xx_hal_pccard.c **** }
 215:HALLIB/STM32F4xx_HAL_Driver/Src/stm32f4xx_hal_pccard.c **** 
 216:HALLIB/STM32F4xx_HAL_Driver/Src/stm32f4xx_hal_pccard.c **** /**
 217:HALLIB/STM32F4xx_HAL_Driver/Src/stm32f4xx_hal_pccard.c ****   * @brief  Perform the PCCARD memory De-initialization sequence
 218:HALLIB/STM32F4xx_HAL_Driver/Src/stm32f4xx_hal_pccard.c ****   * @param  hpccard pointer to a PCCARD_HandleTypeDef structure that contains
 219:HALLIB/STM32F4xx_HAL_Driver/Src/stm32f4xx_hal_pccard.c ****   *                the configuration information for PCCARD module.
 220:HALLIB/STM32F4xx_HAL_Driver/Src/stm32f4xx_hal_pccard.c ****   * @retval HAL status
 221:HALLIB/STM32F4xx_HAL_Driver/Src/stm32f4xx_hal_pccard.c ****   */
 222:HALLIB/STM32F4xx_HAL_Driver/Src/stm32f4xx_hal_pccard.c **** HAL_StatusTypeDef  HAL_PCCARD_DeInit(PCCARD_HandleTypeDef *hpccard)
 223:HALLIB/STM32F4xx_HAL_Driver/Src/stm32f4xx_hal_pccard.c **** {
 224:HALLIB/STM32F4xx_HAL_Driver/Src/stm32f4xx_hal_pccard.c **** #if (USE_HAL_PCCARD_REGISTER_CALLBACKS == 1)
 225:HALLIB/STM32F4xx_HAL_Driver/Src/stm32f4xx_hal_pccard.c ****   if(hpccard->MspDeInitCallback == NULL)
 226:HALLIB/STM32F4xx_HAL_Driver/Src/stm32f4xx_hal_pccard.c ****   {
 227:HALLIB/STM32F4xx_HAL_Driver/Src/stm32f4xx_hal_pccard.c ****     hpccard->MspDeInitCallback = HAL_PCCARD_MspDeInit;
 228:HALLIB/STM32F4xx_HAL_Driver/Src/stm32f4xx_hal_pccard.c ****   }
 229:HALLIB/STM32F4xx_HAL_Driver/Src/stm32f4xx_hal_pccard.c **** 
 230:HALLIB/STM32F4xx_HAL_Driver/Src/stm32f4xx_hal_pccard.c ****   /* DeInit the low level hardware */
 231:HALLIB/STM32F4xx_HAL_Driver/Src/stm32f4xx_hal_pccard.c ****   hpccard->MspDeInitCallback(hpccard);
 232:HALLIB/STM32F4xx_HAL_Driver/Src/stm32f4xx_hal_pccard.c **** #else
 233:HALLIB/STM32F4xx_HAL_Driver/Src/stm32f4xx_hal_pccard.c ****   /* De-Initialize the low level hardware (MSP) */
 234:HALLIB/STM32F4xx_HAL_Driver/Src/stm32f4xx_hal_pccard.c ****   HAL_PCCARD_MspDeInit(hpccard);
 235:HALLIB/STM32F4xx_HAL_Driver/Src/stm32f4xx_hal_pccard.c **** #endif
 236:HALLIB/STM32F4xx_HAL_Driver/Src/stm32f4xx_hal_pccard.c **** 
 237:HALLIB/STM32F4xx_HAL_Driver/Src/stm32f4xx_hal_pccard.c ****   /* Configure the PCCARD registers with their reset values */
 238:HALLIB/STM32F4xx_HAL_Driver/Src/stm32f4xx_hal_pccard.c ****   FMC_PCCARD_DeInit(hpccard->Instance);
 239:HALLIB/STM32F4xx_HAL_Driver/Src/stm32f4xx_hal_pccard.c ****   
 240:HALLIB/STM32F4xx_HAL_Driver/Src/stm32f4xx_hal_pccard.c ****   /* Update the PCCARD controller state */
 241:HALLIB/STM32F4xx_HAL_Driver/Src/stm32f4xx_hal_pccard.c ****   hpccard->State = HAL_PCCARD_STATE_RESET;
 242:HALLIB/STM32F4xx_HAL_Driver/Src/stm32f4xx_hal_pccard.c **** 
 243:HALLIB/STM32F4xx_HAL_Driver/Src/stm32f4xx_hal_pccard.c ****   /* Release Lock */
 244:HALLIB/STM32F4xx_HAL_Driver/Src/stm32f4xx_hal_pccard.c ****   __HAL_UNLOCK(hpccard);
 245:HALLIB/STM32F4xx_HAL_Driver/Src/stm32f4xx_hal_pccard.c **** 
 246:HALLIB/STM32F4xx_HAL_Driver/Src/stm32f4xx_hal_pccard.c ****   return HAL_OK; 
 247:HALLIB/STM32F4xx_HAL_Driver/Src/stm32f4xx_hal_pccard.c **** }
 248:HALLIB/STM32F4xx_HAL_Driver/Src/stm32f4xx_hal_pccard.c **** 
 249:HALLIB/STM32F4xx_HAL_Driver/Src/stm32f4xx_hal_pccard.c **** /**
 250:HALLIB/STM32F4xx_HAL_Driver/Src/stm32f4xx_hal_pccard.c ****   * @brief  PCCARD MSP Init
 251:HALLIB/STM32F4xx_HAL_Driver/Src/stm32f4xx_hal_pccard.c ****   * @param  hpccard pointer to a PCCARD_HandleTypeDef structure that contains
 252:HALLIB/STM32F4xx_HAL_Driver/Src/stm32f4xx_hal_pccard.c ****   *                the configuration information for PCCARD module.
 253:HALLIB/STM32F4xx_HAL_Driver/Src/stm32f4xx_hal_pccard.c ****   * @retval None
 254:HALLIB/STM32F4xx_HAL_Driver/Src/stm32f4xx_hal_pccard.c ****   */
 255:HALLIB/STM32F4xx_HAL_Driver/Src/stm32f4xx_hal_pccard.c **** __weak void HAL_PCCARD_MspInit(PCCARD_HandleTypeDef *hpccard)
 256:HALLIB/STM32F4xx_HAL_Driver/Src/stm32f4xx_hal_pccard.c **** {
  30              		.loc 1 256 1 view -0
ARM GAS  /tmp/cccL9nWh.s 			page 6


  31              		.cfi_startproc
  32              		@ args = 0, pretend = 0, frame = 0
  33              		@ frame_needed = 0, uses_anonymous_args = 0
  34              		@ link register save eliminated.
 257:HALLIB/STM32F4xx_HAL_Driver/Src/stm32f4xx_hal_pccard.c ****   /* Prevent unused argument(s) compilation warning */
 258:HALLIB/STM32F4xx_HAL_Driver/Src/stm32f4xx_hal_pccard.c ****   UNUSED(hpccard);
  35              		.loc 1 258 3 view .LVU1
 259:HALLIB/STM32F4xx_HAL_Driver/Src/stm32f4xx_hal_pccard.c ****   /* NOTE : This function Should not be modified, when the callback is needed,
 260:HALLIB/STM32F4xx_HAL_Driver/Src/stm32f4xx_hal_pccard.c ****             the HAL_PCCARD_MspInit could be implemented in the user file
 261:HALLIB/STM32F4xx_HAL_Driver/Src/stm32f4xx_hal_pccard.c ****    */ 
 262:HALLIB/STM32F4xx_HAL_Driver/Src/stm32f4xx_hal_pccard.c **** }
  36              		.loc 1 262 1 is_stmt 0 view .LVU2
  37 0000 7047     		bx	lr
  38              		.cfi_endproc
  39              	.LFE134:
  41              		.section	.text.HAL_PCCARD_Init,"ax",%progbits
  42              		.align	1
  43              		.global	HAL_PCCARD_Init
  44              		.syntax unified
  45              		.thumb
  46              		.thumb_func
  47              		.fpu fpv4-sp-d16
  49              	HAL_PCCARD_Init:
  50              	.LVL1:
  51              	.LFB132:
 165:HALLIB/STM32F4xx_HAL_Driver/Src/stm32f4xx_hal_pccard.c ****   /* Check the PCCARD controller state */
  52              		.loc 1 165 1 is_stmt 1 view -0
  53              		.cfi_startproc
  54              		@ args = 0, pretend = 0, frame = 0
  55              		@ frame_needed = 0, uses_anonymous_args = 0
 167:HALLIB/STM32F4xx_HAL_Driver/Src/stm32f4xx_hal_pccard.c ****   {
  56              		.loc 1 167 3 view .LVU4
 167:HALLIB/STM32F4xx_HAL_Driver/Src/stm32f4xx_hal_pccard.c ****   {
  57              		.loc 1 167 5 is_stmt 0 view .LVU5
  58 0000 30B3     		cbz	r0, .L5
 165:HALLIB/STM32F4xx_HAL_Driver/Src/stm32f4xx_hal_pccard.c ****   /* Check the PCCARD controller state */
  59              		.loc 1 165 1 view .LVU6
  60 0002 F8B5     		push	{r3, r4, r5, r6, r7, lr}
  61              	.LCFI0:
  62              		.cfi_def_cfa_offset 24
  63              		.cfi_offset 3, -24
  64              		.cfi_offset 4, -20
  65              		.cfi_offset 5, -16
  66              		.cfi_offset 6, -12
  67              		.cfi_offset 7, -8
  68              		.cfi_offset 14, -4
  69 0004 0F46     		mov	r7, r1
  70 0006 1646     		mov	r6, r2
  71 0008 1D46     		mov	r5, r3
  72 000a 0446     		mov	r4, r0
 172:HALLIB/STM32F4xx_HAL_Driver/Src/stm32f4xx_hal_pccard.c ****   {  
  73              		.loc 1 172 3 is_stmt 1 view .LVU7
 172:HALLIB/STM32F4xx_HAL_Driver/Src/stm32f4xx_hal_pccard.c ****   {  
  74              		.loc 1 172 13 is_stmt 0 view .LVU8
  75 000c 037C     		ldrb	r3, [r0, #16]	@ zero_extendqisi2
  76              	.LVL2:
 172:HALLIB/STM32F4xx_HAL_Driver/Src/stm32f4xx_hal_pccard.c ****   {  
ARM GAS  /tmp/cccL9nWh.s 			page 7


  77              		.loc 1 172 5 view .LVU9
  78 000e DBB1     		cbz	r3, .L10
  79              	.LVL3:
  80              	.L4:
 192:HALLIB/STM32F4xx_HAL_Driver/Src/stm32f4xx_hal_pccard.c **** 
  81              		.loc 1 192 3 is_stmt 1 view .LVU10
 192:HALLIB/STM32F4xx_HAL_Driver/Src/stm32f4xx_hal_pccard.c **** 
  82              		.loc 1 192 18 is_stmt 0 view .LVU11
  83 0010 0223     		movs	r3, #2
  84 0012 2374     		strb	r3, [r4, #16]
 195:HALLIB/STM32F4xx_HAL_Driver/Src/stm32f4xx_hal_pccard.c ****   
  85              		.loc 1 195 3 is_stmt 1 view .LVU12
  86 0014 2146     		mov	r1, r4
  87 0016 51F8040B 		ldr	r0, [r1], #4
  88 001a FFF7FEFF 		bl	FSMC_PCCARD_Init
  89              	.LVL4:
 198:HALLIB/STM32F4xx_HAL_Driver/Src/stm32f4xx_hal_pccard.c ****   
  90              		.loc 1 198 3 view .LVU13
  91 001e 3946     		mov	r1, r7
  92 0020 2068     		ldr	r0, [r4]
  93 0022 FFF7FEFF 		bl	FSMC_PCCARD_CommonSpace_Timing_Init
  94              	.LVL5:
 201:HALLIB/STM32F4xx_HAL_Driver/Src/stm32f4xx_hal_pccard.c ****   
  95              		.loc 1 201 3 view .LVU14
  96 0026 3146     		mov	r1, r6
  97 0028 2068     		ldr	r0, [r4]
  98 002a FFF7FEFF 		bl	FSMC_PCCARD_AttributeSpace_Timing_Init
  99              	.LVL6:
 204:HALLIB/STM32F4xx_HAL_Driver/Src/stm32f4xx_hal_pccard.c ****   
 100              		.loc 1 204 3 view .LVU15
 101 002e 2946     		mov	r1, r5
 102 0030 2068     		ldr	r0, [r4]
 103 0032 FFF7FEFF 		bl	FSMC_PCCARD_IOSpace_Timing_Init
 104              	.LVL7:
 207:HALLIB/STM32F4xx_HAL_Driver/Src/stm32f4xx_hal_pccard.c ****   
 105              		.loc 1 207 3 view .LVU16
 106 0036 2268     		ldr	r2, [r4]
 107 0038 1368     		ldr	r3, [r2]
 108 003a 43F00403 		orr	r3, r3, #4
 109 003e 1360     		str	r3, [r2]
 210:HALLIB/STM32F4xx_HAL_Driver/Src/stm32f4xx_hal_pccard.c ****   
 110              		.loc 1 210 3 view .LVU17
 210:HALLIB/STM32F4xx_HAL_Driver/Src/stm32f4xx_hal_pccard.c ****   
 111              		.loc 1 210 18 is_stmt 0 view .LVU18
 112 0040 0123     		movs	r3, #1
 113 0042 2374     		strb	r3, [r4, #16]
 212:HALLIB/STM32F4xx_HAL_Driver/Src/stm32f4xx_hal_pccard.c **** 
 114              		.loc 1 212 3 is_stmt 1 view .LVU19
 212:HALLIB/STM32F4xx_HAL_Driver/Src/stm32f4xx_hal_pccard.c **** 
 115              		.loc 1 212 10 is_stmt 0 view .LVU20
 116 0044 0020     		movs	r0, #0
 214:HALLIB/STM32F4xx_HAL_Driver/Src/stm32f4xx_hal_pccard.c **** 
 117              		.loc 1 214 1 view .LVU21
 118 0046 F8BD     		pop	{r3, r4, r5, r6, r7, pc}
 119              	.LVL8:
 120              	.L10:
 175:HALLIB/STM32F4xx_HAL_Driver/Src/stm32f4xx_hal_pccard.c **** #if (USE_HAL_PCCARD_REGISTER_CALLBACKS == 1)
ARM GAS  /tmp/cccL9nWh.s 			page 8


 121              		.loc 1 175 5 is_stmt 1 view .LVU22
 175:HALLIB/STM32F4xx_HAL_Driver/Src/stm32f4xx_hal_pccard.c **** #if (USE_HAL_PCCARD_REGISTER_CALLBACKS == 1)
 122              		.loc 1 175 19 is_stmt 0 view .LVU23
 123 0048 4374     		strb	r3, [r0, #17]
 187:HALLIB/STM32F4xx_HAL_Driver/Src/stm32f4xx_hal_pccard.c **** #endif
 124              		.loc 1 187 5 is_stmt 1 view .LVU24
 125 004a FFF7FEFF 		bl	HAL_PCCARD_MspInit
 126              	.LVL9:
 187:HALLIB/STM32F4xx_HAL_Driver/Src/stm32f4xx_hal_pccard.c **** #endif
 127              		.loc 1 187 5 is_stmt 0 view .LVU25
 128 004e DFE7     		b	.L4
 129              	.LVL10:
 130              	.L5:
 131              	.LCFI1:
 132              		.cfi_def_cfa_offset 0
 133              		.cfi_restore 3
 134              		.cfi_restore 4
 135              		.cfi_restore 5
 136              		.cfi_restore 6
 137              		.cfi_restore 7
 138              		.cfi_restore 14
 169:HALLIB/STM32F4xx_HAL_Driver/Src/stm32f4xx_hal_pccard.c ****   }
 139              		.loc 1 169 13 view .LVU26
 140 0050 0120     		movs	r0, #1
 141              	.LVL11:
 214:HALLIB/STM32F4xx_HAL_Driver/Src/stm32f4xx_hal_pccard.c **** 
 142              		.loc 1 214 1 view .LVU27
 143 0052 7047     		bx	lr
 144              		.cfi_endproc
 145              	.LFE132:
 147              		.section	.text.HAL_PCCARD_MspDeInit,"ax",%progbits
 148              		.align	1
 149              		.weak	HAL_PCCARD_MspDeInit
 150              		.syntax unified
 151              		.thumb
 152              		.thumb_func
 153              		.fpu fpv4-sp-d16
 155              	HAL_PCCARD_MspDeInit:
 156              	.LVL12:
 157              	.LFB135:
 263:HALLIB/STM32F4xx_HAL_Driver/Src/stm32f4xx_hal_pccard.c **** 
 264:HALLIB/STM32F4xx_HAL_Driver/Src/stm32f4xx_hal_pccard.c **** /**
 265:HALLIB/STM32F4xx_HAL_Driver/Src/stm32f4xx_hal_pccard.c ****   * @brief  PCCARD MSP DeInit
 266:HALLIB/STM32F4xx_HAL_Driver/Src/stm32f4xx_hal_pccard.c ****   * @param  hpccard pointer to a PCCARD_HandleTypeDef structure that contains
 267:HALLIB/STM32F4xx_HAL_Driver/Src/stm32f4xx_hal_pccard.c ****   *                the configuration information for PCCARD module.
 268:HALLIB/STM32F4xx_HAL_Driver/Src/stm32f4xx_hal_pccard.c ****   * @retval None
 269:HALLIB/STM32F4xx_HAL_Driver/Src/stm32f4xx_hal_pccard.c ****   */
 270:HALLIB/STM32F4xx_HAL_Driver/Src/stm32f4xx_hal_pccard.c **** __weak void HAL_PCCARD_MspDeInit(PCCARD_HandleTypeDef *hpccard)
 271:HALLIB/STM32F4xx_HAL_Driver/Src/stm32f4xx_hal_pccard.c **** {
 158              		.loc 1 271 1 is_stmt 1 view -0
 159              		.cfi_startproc
 160              		@ args = 0, pretend = 0, frame = 0
 161              		@ frame_needed = 0, uses_anonymous_args = 0
 162              		@ link register save eliminated.
 272:HALLIB/STM32F4xx_HAL_Driver/Src/stm32f4xx_hal_pccard.c ****   /* Prevent unused argument(s) compilation warning */
 273:HALLIB/STM32F4xx_HAL_Driver/Src/stm32f4xx_hal_pccard.c ****   UNUSED(hpccard);
 163              		.loc 1 273 3 view .LVU29
ARM GAS  /tmp/cccL9nWh.s 			page 9


 274:HALLIB/STM32F4xx_HAL_Driver/Src/stm32f4xx_hal_pccard.c ****   /* NOTE : This function Should not be modified, when the callback is needed,
 275:HALLIB/STM32F4xx_HAL_Driver/Src/stm32f4xx_hal_pccard.c ****             the HAL_PCCARD_MspDeInit could be implemented in the user file
 276:HALLIB/STM32F4xx_HAL_Driver/Src/stm32f4xx_hal_pccard.c ****    */ 
 277:HALLIB/STM32F4xx_HAL_Driver/Src/stm32f4xx_hal_pccard.c **** }
 164              		.loc 1 277 1 is_stmt 0 view .LVU30
 165 0000 7047     		bx	lr
 166              		.cfi_endproc
 167              	.LFE135:
 169              		.section	.text.HAL_PCCARD_DeInit,"ax",%progbits
 170              		.align	1
 171              		.global	HAL_PCCARD_DeInit
 172              		.syntax unified
 173              		.thumb
 174              		.thumb_func
 175              		.fpu fpv4-sp-d16
 177              	HAL_PCCARD_DeInit:
 178              	.LVL13:
 179              	.LFB133:
 223:HALLIB/STM32F4xx_HAL_Driver/Src/stm32f4xx_hal_pccard.c **** #if (USE_HAL_PCCARD_REGISTER_CALLBACKS == 1)
 180              		.loc 1 223 1 is_stmt 1 view -0
 181              		.cfi_startproc
 182              		@ args = 0, pretend = 0, frame = 0
 183              		@ frame_needed = 0, uses_anonymous_args = 0
 223:HALLIB/STM32F4xx_HAL_Driver/Src/stm32f4xx_hal_pccard.c **** #if (USE_HAL_PCCARD_REGISTER_CALLBACKS == 1)
 184              		.loc 1 223 1 is_stmt 0 view .LVU32
 185 0000 10B5     		push	{r4, lr}
 186              	.LCFI2:
 187              		.cfi_def_cfa_offset 8
 188              		.cfi_offset 4, -8
 189              		.cfi_offset 14, -4
 190 0002 0446     		mov	r4, r0
 234:HALLIB/STM32F4xx_HAL_Driver/Src/stm32f4xx_hal_pccard.c **** #endif
 191              		.loc 1 234 3 is_stmt 1 view .LVU33
 192 0004 FFF7FEFF 		bl	HAL_PCCARD_MspDeInit
 193              	.LVL14:
 238:HALLIB/STM32F4xx_HAL_Driver/Src/stm32f4xx_hal_pccard.c ****   
 194              		.loc 1 238 3 view .LVU34
 195 0008 2068     		ldr	r0, [r4]
 196 000a FFF7FEFF 		bl	FSMC_PCCARD_DeInit
 197              	.LVL15:
 241:HALLIB/STM32F4xx_HAL_Driver/Src/stm32f4xx_hal_pccard.c **** 
 198              		.loc 1 241 3 view .LVU35
 241:HALLIB/STM32F4xx_HAL_Driver/Src/stm32f4xx_hal_pccard.c **** 
 199              		.loc 1 241 18 is_stmt 0 view .LVU36
 200 000e 0020     		movs	r0, #0
 201 0010 2074     		strb	r0, [r4, #16]
 244:HALLIB/STM32F4xx_HAL_Driver/Src/stm32f4xx_hal_pccard.c **** 
 202              		.loc 1 244 3 is_stmt 1 view .LVU37
 244:HALLIB/STM32F4xx_HAL_Driver/Src/stm32f4xx_hal_pccard.c **** 
 203              		.loc 1 244 3 view .LVU38
 204 0012 6074     		strb	r0, [r4, #17]
 244:HALLIB/STM32F4xx_HAL_Driver/Src/stm32f4xx_hal_pccard.c **** 
 205              		.loc 1 244 3 view .LVU39
 246:HALLIB/STM32F4xx_HAL_Driver/Src/stm32f4xx_hal_pccard.c **** }
 206              		.loc 1 246 3 view .LVU40
 247:HALLIB/STM32F4xx_HAL_Driver/Src/stm32f4xx_hal_pccard.c **** 
 207              		.loc 1 247 1 is_stmt 0 view .LVU41
ARM GAS  /tmp/cccL9nWh.s 			page 10


 208 0014 10BD     		pop	{r4, pc}
 247:HALLIB/STM32F4xx_HAL_Driver/Src/stm32f4xx_hal_pccard.c **** 
 209              		.loc 1 247 1 view .LVU42
 210              		.cfi_endproc
 211              	.LFE133:
 213              		.section	.text.HAL_PCCARD_Read_ID,"ax",%progbits
 214              		.align	1
 215              		.global	HAL_PCCARD_Read_ID
 216              		.syntax unified
 217              		.thumb
 218              		.thumb_func
 219              		.fpu fpv4-sp-d16
 221              	HAL_PCCARD_Read_ID:
 222              	.LVL16:
 223              	.LFB136:
 278:HALLIB/STM32F4xx_HAL_Driver/Src/stm32f4xx_hal_pccard.c **** 
 279:HALLIB/STM32F4xx_HAL_Driver/Src/stm32f4xx_hal_pccard.c **** /**
 280:HALLIB/STM32F4xx_HAL_Driver/Src/stm32f4xx_hal_pccard.c ****   * @}
 281:HALLIB/STM32F4xx_HAL_Driver/Src/stm32f4xx_hal_pccard.c ****   */
 282:HALLIB/STM32F4xx_HAL_Driver/Src/stm32f4xx_hal_pccard.c **** 
 283:HALLIB/STM32F4xx_HAL_Driver/Src/stm32f4xx_hal_pccard.c **** /** @defgroup PCCARD_Exported_Functions_Group2 Input and Output functions 
 284:HALLIB/STM32F4xx_HAL_Driver/Src/stm32f4xx_hal_pccard.c ****   * @brief    Input Output and memory control functions 
 285:HALLIB/STM32F4xx_HAL_Driver/Src/stm32f4xx_hal_pccard.c ****   *
 286:HALLIB/STM32F4xx_HAL_Driver/Src/stm32f4xx_hal_pccard.c ****   @verbatim    
 287:HALLIB/STM32F4xx_HAL_Driver/Src/stm32f4xx_hal_pccard.c ****   ==============================================================================
 288:HALLIB/STM32F4xx_HAL_Driver/Src/stm32f4xx_hal_pccard.c ****                     ##### PCCARD Input and Output functions #####
 289:HALLIB/STM32F4xx_HAL_Driver/Src/stm32f4xx_hal_pccard.c ****   ==============================================================================
 290:HALLIB/STM32F4xx_HAL_Driver/Src/stm32f4xx_hal_pccard.c ****   [..]  
 291:HALLIB/STM32F4xx_HAL_Driver/Src/stm32f4xx_hal_pccard.c ****     This section provides functions allowing to use and control the PCCARD memory
 292:HALLIB/STM32F4xx_HAL_Driver/Src/stm32f4xx_hal_pccard.c ****   
 293:HALLIB/STM32F4xx_HAL_Driver/Src/stm32f4xx_hal_pccard.c **** @endverbatim
 294:HALLIB/STM32F4xx_HAL_Driver/Src/stm32f4xx_hal_pccard.c ****   * @{
 295:HALLIB/STM32F4xx_HAL_Driver/Src/stm32f4xx_hal_pccard.c ****   */
 296:HALLIB/STM32F4xx_HAL_Driver/Src/stm32f4xx_hal_pccard.c ****   
 297:HALLIB/STM32F4xx_HAL_Driver/Src/stm32f4xx_hal_pccard.c **** /**
 298:HALLIB/STM32F4xx_HAL_Driver/Src/stm32f4xx_hal_pccard.c ****   * @brief  Read Compact Flash's ID.
 299:HALLIB/STM32F4xx_HAL_Driver/Src/stm32f4xx_hal_pccard.c ****   * @param  hpccard pointer to a PCCARD_HandleTypeDef structure that contains
 300:HALLIB/STM32F4xx_HAL_Driver/Src/stm32f4xx_hal_pccard.c ****   *                the configuration information for PCCARD module.
 301:HALLIB/STM32F4xx_HAL_Driver/Src/stm32f4xx_hal_pccard.c ****   * @param  CompactFlash_ID Compact flash ID structure.  
 302:HALLIB/STM32F4xx_HAL_Driver/Src/stm32f4xx_hal_pccard.c ****   * @param  pStatus pointer to compact flash status         
 303:HALLIB/STM32F4xx_HAL_Driver/Src/stm32f4xx_hal_pccard.c ****   * @retval HAL status
 304:HALLIB/STM32F4xx_HAL_Driver/Src/stm32f4xx_hal_pccard.c ****   *   
 305:HALLIB/STM32F4xx_HAL_Driver/Src/stm32f4xx_hal_pccard.c ****   */ 
 306:HALLIB/STM32F4xx_HAL_Driver/Src/stm32f4xx_hal_pccard.c **** HAL_StatusTypeDef HAL_PCCARD_Read_ID(PCCARD_HandleTypeDef *hpccard, uint8_t CompactFlash_ID[], uint
 307:HALLIB/STM32F4xx_HAL_Driver/Src/stm32f4xx_hal_pccard.c **** {
 224              		.loc 1 307 1 is_stmt 1 view -0
 225              		.cfi_startproc
 226              		@ args = 0, pretend = 0, frame = 0
 227              		@ frame_needed = 0, uses_anonymous_args = 0
 228              		@ link register save eliminated.
 308:HALLIB/STM32F4xx_HAL_Driver/Src/stm32f4xx_hal_pccard.c ****   uint32_t timeout = PCCARD_TIMEOUT_READ_ID, index = 0U;
 229              		.loc 1 308 3 view .LVU44
 309:HALLIB/STM32F4xx_HAL_Driver/Src/stm32f4xx_hal_pccard.c ****   uint8_t status = 0;
 230              		.loc 1 309 3 view .LVU45
 310:HALLIB/STM32F4xx_HAL_Driver/Src/stm32f4xx_hal_pccard.c ****   
 311:HALLIB/STM32F4xx_HAL_Driver/Src/stm32f4xx_hal_pccard.c ****   /* Process Locked */
 312:HALLIB/STM32F4xx_HAL_Driver/Src/stm32f4xx_hal_pccard.c ****   __HAL_LOCK(hpccard);  
ARM GAS  /tmp/cccL9nWh.s 			page 11


 231              		.loc 1 312 3 view .LVU46
 232              		.loc 1 312 3 view .LVU47
 233 0000 437C     		ldrb	r3, [r0, #17]	@ zero_extendqisi2
 234 0002 012B     		cmp	r3, #1
 235 0004 2AD0     		beq	.L21
 307:HALLIB/STM32F4xx_HAL_Driver/Src/stm32f4xx_hal_pccard.c ****   uint32_t timeout = PCCARD_TIMEOUT_READ_ID, index = 0U;
 236              		.loc 1 307 1 is_stmt 0 discriminator 2 view .LVU48
 237 0006 30B4     		push	{r4, r5}
 238              	.LCFI3:
 239              		.cfi_def_cfa_offset 8
 240              		.cfi_offset 4, -8
 241              		.cfi_offset 5, -4
 242 0008 0546     		mov	r5, r0
 243              		.loc 1 312 3 is_stmt 1 discriminator 2 view .LVU49
 244 000a 0123     		movs	r3, #1
 245 000c 4374     		strb	r3, [r0, #17]
 246              		.loc 1 312 3 discriminator 2 view .LVU50
 313:HALLIB/STM32F4xx_HAL_Driver/Src/stm32f4xx_hal_pccard.c ****   
 314:HALLIB/STM32F4xx_HAL_Driver/Src/stm32f4xx_hal_pccard.c ****   /* Check the PCCARD controller state */
 315:HALLIB/STM32F4xx_HAL_Driver/Src/stm32f4xx_hal_pccard.c ****   if(hpccard->State == HAL_PCCARD_STATE_BUSY)
 247              		.loc 1 315 3 discriminator 2 view .LVU51
 248              		.loc 1 315 13 is_stmt 0 discriminator 2 view .LVU52
 249 000e 007C     		ldrb	r0, [r0, #16]	@ zero_extendqisi2
 250              	.LVL17:
 251              		.loc 1 315 13 discriminator 2 view .LVU53
 252 0010 C0B2     		uxtb	r0, r0
 253              		.loc 1 315 5 discriminator 2 view .LVU54
 254 0012 0228     		cmp	r0, #2
 255 0014 18D0     		beq	.L15
 316:HALLIB/STM32F4xx_HAL_Driver/Src/stm32f4xx_hal_pccard.c ****   {
 317:HALLIB/STM32F4xx_HAL_Driver/Src/stm32f4xx_hal_pccard.c ****      return HAL_BUSY;
 318:HALLIB/STM32F4xx_HAL_Driver/Src/stm32f4xx_hal_pccard.c ****   }
 319:HALLIB/STM32F4xx_HAL_Driver/Src/stm32f4xx_hal_pccard.c ****   
 320:HALLIB/STM32F4xx_HAL_Driver/Src/stm32f4xx_hal_pccard.c ****   /* Update the PCCARD controller state */
 321:HALLIB/STM32F4xx_HAL_Driver/Src/stm32f4xx_hal_pccard.c ****   hpccard->State = HAL_PCCARD_STATE_BUSY;
 256              		.loc 1 321 3 is_stmt 1 view .LVU55
 257              		.loc 1 321 18 is_stmt 0 view .LVU56
 258 0016 0223     		movs	r3, #2
 259 0018 2B74     		strb	r3, [r5, #16]
 322:HALLIB/STM32F4xx_HAL_Driver/Src/stm32f4xx_hal_pccard.c ****   
 323:HALLIB/STM32F4xx_HAL_Driver/Src/stm32f4xx_hal_pccard.c ****   /* Initialize the PCCARD status */
 324:HALLIB/STM32F4xx_HAL_Driver/Src/stm32f4xx_hal_pccard.c ****   *pStatus = PCCARD_READY;  
 260              		.loc 1 324 3 is_stmt 1 view .LVU57
 261              		.loc 1 324 12 is_stmt 0 view .LVU58
 262 001a 4023     		movs	r3, #64
 263 001c 1370     		strb	r3, [r2]
 325:HALLIB/STM32F4xx_HAL_Driver/Src/stm32f4xx_hal_pccard.c ****   
 326:HALLIB/STM32F4xx_HAL_Driver/Src/stm32f4xx_hal_pccard.c ****   /* Send the Identify Command */
 327:HALLIB/STM32F4xx_HAL_Driver/Src/stm32f4xx_hal_pccard.c ****   *(__IO uint16_t *)(PCCARD_IO_SPACE_PRIMARY_ADDR | ATA_STATUS_CMD)  = 0xECEC;
 264              		.loc 1 327 3 is_stmt 1 view .LVU59
 265              		.loc 1 327 70 is_stmt 0 view .LVU60
 266 001e 104B     		ldr	r3, .L27
 267 0020 4EF6EC40 		movw	r0, 60652	@ movhi
 268 0024 1880     		strh	r0, [r3]	@ unaligned
 308:HALLIB/STM32F4xx_HAL_Driver/Src/stm32f4xx_hal_pccard.c ****   uint8_t status = 0;
 269              		.loc 1 308 12 view .LVU61
 270 0026 4FF6FF74 		movw	r4, #65535
ARM GAS  /tmp/cccL9nWh.s 			page 12


 271              	.LVL18:
 272              	.L17:
 328:HALLIB/STM32F4xx_HAL_Driver/Src/stm32f4xx_hal_pccard.c ****     
 329:HALLIB/STM32F4xx_HAL_Driver/Src/stm32f4xx_hal_pccard.c ****   /* Read PCCARD IDs and timeout treatment */
 330:HALLIB/STM32F4xx_HAL_Driver/Src/stm32f4xx_hal_pccard.c ****   do 
 273              		.loc 1 330 3 is_stmt 1 discriminator 2 view .LVU62
 331:HALLIB/STM32F4xx_HAL_Driver/Src/stm32f4xx_hal_pccard.c ****   {
 332:HALLIB/STM32F4xx_HAL_Driver/Src/stm32f4xx_hal_pccard.c ****      /* Read the PCCARD status */
 333:HALLIB/STM32F4xx_HAL_Driver/Src/stm32f4xx_hal_pccard.c ****      status = *(__IO uint8_t *)(PCCARD_IO_SPACE_PRIMARY_ADDR | ATA_STATUS_CMD_ALTERNATE);
 274              		.loc 1 333 6 discriminator 2 view .LVU63
 275              		.loc 1 333 13 is_stmt 0 discriminator 2 view .LVU64
 276 002a 0E4B     		ldr	r3, .L27+4
 277 002c 1B78     		ldrb	r3, [r3]	@ zero_extendqisi2
 278 002e DBB2     		uxtb	r3, r3
 279              	.LVL19:
 334:HALLIB/STM32F4xx_HAL_Driver/Src/stm32f4xx_hal_pccard.c ****      
 335:HALLIB/STM32F4xx_HAL_Driver/Src/stm32f4xx_hal_pccard.c ****      timeout--;
 280              		.loc 1 335 6 is_stmt 1 discriminator 2 view .LVU65
 281              		.loc 1 335 13 is_stmt 0 discriminator 2 view .LVU66
 282 0030 013C     		subs	r4, r4, #1
 283              	.LVL20:
 336:HALLIB/STM32F4xx_HAL_Driver/Src/stm32f4xx_hal_pccard.c ****   }while((status != PCCARD_STATUS_OK) && timeout); 
 284              		.loc 1 336 9 is_stmt 1 discriminator 2 view .LVU67
 285              		.loc 1 336 3 is_stmt 0 discriminator 2 view .LVU68
 286 0032 582B     		cmp	r3, #88
 287 0034 01D0     		beq	.L16
 288              		.loc 1 336 39 discriminator 1 view .LVU69
 289 0036 002C     		cmp	r4, #0
 290 0038 F7D1     		bne	.L17
 291              	.L16:
 337:HALLIB/STM32F4xx_HAL_Driver/Src/stm32f4xx_hal_pccard.c ****   
 338:HALLIB/STM32F4xx_HAL_Driver/Src/stm32f4xx_hal_pccard.c ****   if(timeout == 0U)
 292              		.loc 1 338 3 is_stmt 1 view .LVU70
 293              		.loc 1 338 5 is_stmt 0 view .LVU71
 294 003a 3CB9     		cbnz	r4, .L22
 339:HALLIB/STM32F4xx_HAL_Driver/Src/stm32f4xx_hal_pccard.c ****   {
 340:HALLIB/STM32F4xx_HAL_Driver/Src/stm32f4xx_hal_pccard.c ****     *pStatus = PCCARD_TIMEOUT_ERROR;
 295              		.loc 1 340 5 is_stmt 1 view .LVU72
 296              		.loc 1 340 14 is_stmt 0 view .LVU73
 297 003c 6023     		movs	r3, #96
 298              	.LVL21:
 299              		.loc 1 340 14 view .LVU74
 300 003e 1370     		strb	r3, [r2]
 301              	.LVL22:
 302              	.L19:
 341:HALLIB/STM32F4xx_HAL_Driver/Src/stm32f4xx_hal_pccard.c ****   }
 342:HALLIB/STM32F4xx_HAL_Driver/Src/stm32f4xx_hal_pccard.c ****   else
 343:HALLIB/STM32F4xx_HAL_Driver/Src/stm32f4xx_hal_pccard.c ****   {
 344:HALLIB/STM32F4xx_HAL_Driver/Src/stm32f4xx_hal_pccard.c ****      /* Read PCCARD ID bytes */
 345:HALLIB/STM32F4xx_HAL_Driver/Src/stm32f4xx_hal_pccard.c ****     for(index = 0U; index < 16U; index++)
 346:HALLIB/STM32F4xx_HAL_Driver/Src/stm32f4xx_hal_pccard.c ****     {
 347:HALLIB/STM32F4xx_HAL_Driver/Src/stm32f4xx_hal_pccard.c ****       CompactFlash_ID[index] = *(__IO uint8_t *)(PCCARD_IO_SPACE_PRIMARY_ADDR | ATA_DATA);
 348:HALLIB/STM32F4xx_HAL_Driver/Src/stm32f4xx_hal_pccard.c ****     }    
 349:HALLIB/STM32F4xx_HAL_Driver/Src/stm32f4xx_hal_pccard.c ****   }
 350:HALLIB/STM32F4xx_HAL_Driver/Src/stm32f4xx_hal_pccard.c ****   
 351:HALLIB/STM32F4xx_HAL_Driver/Src/stm32f4xx_hal_pccard.c ****   /* Update the PCCARD controller state */
 352:HALLIB/STM32F4xx_HAL_Driver/Src/stm32f4xx_hal_pccard.c ****   hpccard->State = HAL_PCCARD_STATE_READY;
ARM GAS  /tmp/cccL9nWh.s 			page 13


 303              		.loc 1 352 3 is_stmt 1 view .LVU75
 304              		.loc 1 352 18 is_stmt 0 view .LVU76
 305 0040 0123     		movs	r3, #1
 306 0042 2B74     		strb	r3, [r5, #16]
 353:HALLIB/STM32F4xx_HAL_Driver/Src/stm32f4xx_hal_pccard.c ****   
 354:HALLIB/STM32F4xx_HAL_Driver/Src/stm32f4xx_hal_pccard.c ****   /* Process unlocked */
 355:HALLIB/STM32F4xx_HAL_Driver/Src/stm32f4xx_hal_pccard.c ****   __HAL_UNLOCK(hpccard);  
 307              		.loc 1 355 3 is_stmt 1 view .LVU77
 308              		.loc 1 355 3 view .LVU78
 309 0044 0020     		movs	r0, #0
 310 0046 6874     		strb	r0, [r5, #17]
 311              		.loc 1 355 3 view .LVU79
 356:HALLIB/STM32F4xx_HAL_Driver/Src/stm32f4xx_hal_pccard.c ****   
 357:HALLIB/STM32F4xx_HAL_Driver/Src/stm32f4xx_hal_pccard.c ****   return HAL_OK;
 312              		.loc 1 357 3 view .LVU80
 313              	.LVL23:
 314              	.L15:
 358:HALLIB/STM32F4xx_HAL_Driver/Src/stm32f4xx_hal_pccard.c **** }
 315              		.loc 1 358 1 is_stmt 0 view .LVU81
 316 0048 30BC     		pop	{r4, r5}
 317              	.LCFI4:
 318              		.cfi_remember_state
 319              		.cfi_restore 5
 320              		.cfi_restore 4
 321              		.cfi_def_cfa_offset 0
 322              	.LVL24:
 323              		.loc 1 358 1 view .LVU82
 324 004a 7047     		bx	lr
 325              	.LVL25:
 326              	.L22:
 327              	.LCFI5:
 328              		.cfi_restore_state
 345:HALLIB/STM32F4xx_HAL_Driver/Src/stm32f4xx_hal_pccard.c ****     {
 329              		.loc 1 345 15 view .LVU83
 330 004c 0023     		movs	r3, #0
 331              	.LVL26:
 332              	.L18:
 345:HALLIB/STM32F4xx_HAL_Driver/Src/stm32f4xx_hal_pccard.c ****     {
 333              		.loc 1 345 21 is_stmt 1 discriminator 1 view .LVU84
 345:HALLIB/STM32F4xx_HAL_Driver/Src/stm32f4xx_hal_pccard.c ****     {
 334              		.loc 1 345 5 is_stmt 0 discriminator 1 view .LVU85
 335 004e 0F2B     		cmp	r3, #15
 336 0050 F6D8     		bhi	.L19
 347:HALLIB/STM32F4xx_HAL_Driver/Src/stm32f4xx_hal_pccard.c ****     }    
 337              		.loc 1 347 7 is_stmt 1 discriminator 3 view .LVU86
 347:HALLIB/STM32F4xx_HAL_Driver/Src/stm32f4xx_hal_pccard.c ****     }    
 338              		.loc 1 347 32 is_stmt 0 discriminator 3 view .LVU87
 339 0052 054A     		ldr	r2, .L27+8
 340 0054 1278     		ldrb	r2, [r2]	@ zero_extendqisi2
 347:HALLIB/STM32F4xx_HAL_Driver/Src/stm32f4xx_hal_pccard.c ****     }    
 341              		.loc 1 347 30 discriminator 3 view .LVU88
 342 0056 CA54     		strb	r2, [r1, r3]
 345:HALLIB/STM32F4xx_HAL_Driver/Src/stm32f4xx_hal_pccard.c ****     {
 343              		.loc 1 345 34 is_stmt 1 discriminator 3 view .LVU89
 345:HALLIB/STM32F4xx_HAL_Driver/Src/stm32f4xx_hal_pccard.c ****     {
 344              		.loc 1 345 39 is_stmt 0 discriminator 3 view .LVU90
 345 0058 0133     		adds	r3, r3, #1
ARM GAS  /tmp/cccL9nWh.s 			page 14


 346              	.LVL27:
 345:HALLIB/STM32F4xx_HAL_Driver/Src/stm32f4xx_hal_pccard.c ****     {
 347              		.loc 1 345 39 discriminator 3 view .LVU91
 348 005a F8E7     		b	.L18
 349              	.LVL28:
 350              	.L21:
 351              	.LCFI6:
 352              		.cfi_def_cfa_offset 0
 353              		.cfi_restore 4
 354              		.cfi_restore 5
 312:HALLIB/STM32F4xx_HAL_Driver/Src/stm32f4xx_hal_pccard.c ****   
 355              		.loc 1 312 3 view .LVU92
 356 005c 0220     		movs	r0, #2
 357              	.LVL29:
 358              		.loc 1 358 1 view .LVU93
 359 005e 7047     		bx	lr
 360              	.L28:
 361              		.align	2
 362              	.L27:
 363 0060 F701009C 		.word	-1677721097
 364 0064 FE01009C 		.word	-1677721090
 365 0068 F001009C 		.word	-1677721104
 366              		.cfi_endproc
 367              	.LFE136:
 369              		.section	.text.HAL_PCCARD_Read_Sector,"ax",%progbits
 370              		.align	1
 371              		.global	HAL_PCCARD_Read_Sector
 372              		.syntax unified
 373              		.thumb
 374              		.thumb_func
 375              		.fpu fpv4-sp-d16
 377              	HAL_PCCARD_Read_Sector:
 378              	.LVL30:
 379              	.LFB137:
 359:HALLIB/STM32F4xx_HAL_Driver/Src/stm32f4xx_hal_pccard.c ****    
 360:HALLIB/STM32F4xx_HAL_Driver/Src/stm32f4xx_hal_pccard.c **** /**
 361:HALLIB/STM32F4xx_HAL_Driver/Src/stm32f4xx_hal_pccard.c ****   * @brief  Read sector from PCCARD memory
 362:HALLIB/STM32F4xx_HAL_Driver/Src/stm32f4xx_hal_pccard.c ****   * @param  hpccard pointer to a PCCARD_HandleTypeDef structure that contains
 363:HALLIB/STM32F4xx_HAL_Driver/Src/stm32f4xx_hal_pccard.c ****   *                the configuration information for PCCARD module.
 364:HALLIB/STM32F4xx_HAL_Driver/Src/stm32f4xx_hal_pccard.c ****   * @param  pBuffer pointer to destination read buffer
 365:HALLIB/STM32F4xx_HAL_Driver/Src/stm32f4xx_hal_pccard.c ****   * @param  SectorAddress Sector address to read
 366:HALLIB/STM32F4xx_HAL_Driver/Src/stm32f4xx_hal_pccard.c ****   * @param  pStatus pointer to PCCARD status
 367:HALLIB/STM32F4xx_HAL_Driver/Src/stm32f4xx_hal_pccard.c ****   * @retval HAL status
 368:HALLIB/STM32F4xx_HAL_Driver/Src/stm32f4xx_hal_pccard.c ****   */    
 369:HALLIB/STM32F4xx_HAL_Driver/Src/stm32f4xx_hal_pccard.c **** HAL_StatusTypeDef HAL_PCCARD_Read_Sector(PCCARD_HandleTypeDef *hpccard, uint16_t *pBuffer, uint16_t
 370:HALLIB/STM32F4xx_HAL_Driver/Src/stm32f4xx_hal_pccard.c **** {
 380              		.loc 1 370 1 is_stmt 1 view -0
 381              		.cfi_startproc
 382              		@ args = 0, pretend = 0, frame = 0
 383              		@ frame_needed = 0, uses_anonymous_args = 0
 384              		@ link register save eliminated.
 385              		.loc 1 370 1 is_stmt 0 view .LVU95
 386 0000 30B4     		push	{r4, r5}
 387              	.LCFI7:
 388              		.cfi_def_cfa_offset 8
 389              		.cfi_offset 4, -8
 390              		.cfi_offset 5, -4
ARM GAS  /tmp/cccL9nWh.s 			page 15


 391 0002 0546     		mov	r5, r0
 371:HALLIB/STM32F4xx_HAL_Driver/Src/stm32f4xx_hal_pccard.c ****   uint32_t timeout = PCCARD_TIMEOUT_READ_WRITE_SECTOR, index = 0U;
 392              		.loc 1 371 3 is_stmt 1 view .LVU96
 393              	.LVL31:
 372:HALLIB/STM32F4xx_HAL_Driver/Src/stm32f4xx_hal_pccard.c ****   uint8_t status = 0;
 394              		.loc 1 372 3 view .LVU97
 373:HALLIB/STM32F4xx_HAL_Driver/Src/stm32f4xx_hal_pccard.c **** 
 374:HALLIB/STM32F4xx_HAL_Driver/Src/stm32f4xx_hal_pccard.c ****   /* Process Locked */
 375:HALLIB/STM32F4xx_HAL_Driver/Src/stm32f4xx_hal_pccard.c ****   __HAL_LOCK(hpccard);
 395              		.loc 1 375 3 view .LVU98
 396              		.loc 1 375 3 view .LVU99
 397 0004 407C     		ldrb	r0, [r0, #17]	@ zero_extendqisi2
 398              	.LVL32:
 399              		.loc 1 375 3 is_stmt 0 view .LVU100
 400 0006 0128     		cmp	r0, #1
 401 0008 3ED0     		beq	.L39
 402              		.loc 1 375 3 is_stmt 1 discriminator 2 view .LVU101
 403 000a 0120     		movs	r0, #1
 404 000c 6874     		strb	r0, [r5, #17]
 405              		.loc 1 375 3 discriminator 2 view .LVU102
 376:HALLIB/STM32F4xx_HAL_Driver/Src/stm32f4xx_hal_pccard.c ****   
 377:HALLIB/STM32F4xx_HAL_Driver/Src/stm32f4xx_hal_pccard.c ****   /* Check the PCCARD controller state */
 378:HALLIB/STM32F4xx_HAL_Driver/Src/stm32f4xx_hal_pccard.c ****   if(hpccard->State == HAL_PCCARD_STATE_BUSY)
 406              		.loc 1 378 3 discriminator 2 view .LVU103
 407              		.loc 1 378 13 is_stmt 0 discriminator 2 view .LVU104
 408 000e 287C     		ldrb	r0, [r5, #16]	@ zero_extendqisi2
 409 0010 C0B2     		uxtb	r0, r0
 410              		.loc 1 378 5 discriminator 2 view .LVU105
 411 0012 0228     		cmp	r0, #2
 412 0014 36D0     		beq	.L30
 379:HALLIB/STM32F4xx_HAL_Driver/Src/stm32f4xx_hal_pccard.c ****   {
 380:HALLIB/STM32F4xx_HAL_Driver/Src/stm32f4xx_hal_pccard.c ****      return HAL_BUSY;
 381:HALLIB/STM32F4xx_HAL_Driver/Src/stm32f4xx_hal_pccard.c ****   }
 382:HALLIB/STM32F4xx_HAL_Driver/Src/stm32f4xx_hal_pccard.c ****   
 383:HALLIB/STM32F4xx_HAL_Driver/Src/stm32f4xx_hal_pccard.c ****   /* Update the PCCARD controller state */
 384:HALLIB/STM32F4xx_HAL_Driver/Src/stm32f4xx_hal_pccard.c ****   hpccard->State = HAL_PCCARD_STATE_BUSY;
 413              		.loc 1 384 3 is_stmt 1 view .LVU106
 414              		.loc 1 384 18 is_stmt 0 view .LVU107
 415 0016 0220     		movs	r0, #2
 416 0018 2874     		strb	r0, [r5, #16]
 385:HALLIB/STM32F4xx_HAL_Driver/Src/stm32f4xx_hal_pccard.c **** 
 386:HALLIB/STM32F4xx_HAL_Driver/Src/stm32f4xx_hal_pccard.c ****   /* Initialize PCCARD status */
 387:HALLIB/STM32F4xx_HAL_Driver/Src/stm32f4xx_hal_pccard.c ****   *pStatus = PCCARD_READY;
 417              		.loc 1 387 3 is_stmt 1 view .LVU108
 418              		.loc 1 387 12 is_stmt 0 view .LVU109
 419 001a 4020     		movs	r0, #64
 420 001c 1870     		strb	r0, [r3]
 388:HALLIB/STM32F4xx_HAL_Driver/Src/stm32f4xx_hal_pccard.c **** 
 389:HALLIB/STM32F4xx_HAL_Driver/Src/stm32f4xx_hal_pccard.c ****   /* Set the parameters to write a sector */
 390:HALLIB/STM32F4xx_HAL_Driver/Src/stm32f4xx_hal_pccard.c ****   *(__IO uint16_t *)(PCCARD_IO_SPACE_PRIMARY_ADDR | ATA_CYLINDER_HIGH) = (uint16_t)0x00;
 421              		.loc 1 390 3 is_stmt 1 view .LVU110
 422              		.loc 1 390 72 is_stmt 0 view .LVU111
 423 001e 1B48     		ldr	r0, .L42
 424 0020 4FF00004 		mov	r4, #0	@ movhi
 425 0024 0480     		strh	r4, [r0]	@ unaligned
 391:HALLIB/STM32F4xx_HAL_Driver/Src/stm32f4xx_hal_pccard.c ****   *(__IO uint16_t *)(PCCARD_IO_SPACE_PRIMARY_ADDR | ATA_SECTOR_COUNT)  = ((uint16_t)0x0100) | ((uin
 426              		.loc 1 391 3 is_stmt 1 view .LVU112
ARM GAS  /tmp/cccL9nWh.s 			page 16


 427              		.loc 1 391 72 is_stmt 0 view .LVU113
 428 0026 42F48072 		orr	r2, r2, #256
 429              	.LVL33:
 430              		.loc 1 391 72 view .LVU114
 431 002a 0338     		subs	r0, r0, #3
 432 002c 0280     		strh	r2, [r0]	@ movhi
 392:HALLIB/STM32F4xx_HAL_Driver/Src/stm32f4xx_hal_pccard.c ****   *(__IO uint16_t *)(PCCARD_IO_SPACE_PRIMARY_ADDR | ATA_STATUS_CMD)    = (uint16_t)0xE4A0;  
 433              		.loc 1 392 3 is_stmt 1 view .LVU115
 434              		.loc 1 392 72 is_stmt 0 view .LVU116
 435 002e 184A     		ldr	r2, .L42+4
 436 0030 4EF2A040 		movw	r0, 58528	@ movhi
 437 0034 1080     		strh	r0, [r2]	@ unaligned
 371:HALLIB/STM32F4xx_HAL_Driver/Src/stm32f4xx_hal_pccard.c ****   uint8_t status = 0;
 438              		.loc 1 371 12 view .LVU117
 439 0036 4FF6FF70 		movw	r0, #65535
 440              	.LVL34:
 441              	.L32:
 393:HALLIB/STM32F4xx_HAL_Driver/Src/stm32f4xx_hal_pccard.c **** 
 394:HALLIB/STM32F4xx_HAL_Driver/Src/stm32f4xx_hal_pccard.c ****   do
 442              		.loc 1 394 3 is_stmt 1 discriminator 2 view .LVU118
 395:HALLIB/STM32F4xx_HAL_Driver/Src/stm32f4xx_hal_pccard.c ****   {
 396:HALLIB/STM32F4xx_HAL_Driver/Src/stm32f4xx_hal_pccard.c ****     /* wait till the Status = 0x80 */
 397:HALLIB/STM32F4xx_HAL_Driver/Src/stm32f4xx_hal_pccard.c ****     status =  *(__IO uint16_t *)(PCCARD_IO_SPACE_PRIMARY_ADDR | ATA_STATUS_CMD_ALTERNATE);
 443              		.loc 1 397 5 discriminator 2 view .LVU119
 444              		.loc 1 397 15 is_stmt 0 discriminator 2 view .LVU120
 445 003a 164A     		ldr	r2, .L42+8
 446 003c 1288     		ldrh	r2, [r2]
 447              		.loc 1 397 12 discriminator 2 view .LVU121
 448 003e D2B2     		uxtb	r2, r2
 449              	.LVL35:
 398:HALLIB/STM32F4xx_HAL_Driver/Src/stm32f4xx_hal_pccard.c ****     timeout--;
 450              		.loc 1 398 5 is_stmt 1 discriminator 2 view .LVU122
 451              		.loc 1 398 12 is_stmt 0 discriminator 2 view .LVU123
 452 0040 0138     		subs	r0, r0, #1
 453              	.LVL36:
 399:HALLIB/STM32F4xx_HAL_Driver/Src/stm32f4xx_hal_pccard.c ****   }while((status == 0x80) && timeout);
 454              		.loc 1 399 9 is_stmt 1 discriminator 2 view .LVU124
 455              		.loc 1 399 3 is_stmt 0 discriminator 2 view .LVU125
 456 0042 802A     		cmp	r2, #128
 457 0044 01D1     		bne	.L31
 458              		.loc 1 399 27 discriminator 1 view .LVU126
 459 0046 0028     		cmp	r0, #0
 460 0048 F7D1     		bne	.L32
 461              	.L31:
 400:HALLIB/STM32F4xx_HAL_Driver/Src/stm32f4xx_hal_pccard.c ****   
 401:HALLIB/STM32F4xx_HAL_Driver/Src/stm32f4xx_hal_pccard.c ****   if(timeout == 0U)
 462              		.loc 1 401 3 is_stmt 1 view .LVU127
 463              		.loc 1 401 5 is_stmt 0 view .LVU128
 464 004a 08B9     		cbnz	r0, .L33
 402:HALLIB/STM32F4xx_HAL_Driver/Src/stm32f4xx_hal_pccard.c ****   {
 403:HALLIB/STM32F4xx_HAL_Driver/Src/stm32f4xx_hal_pccard.c ****     *pStatus = PCCARD_TIMEOUT_ERROR;
 465              		.loc 1 403 5 is_stmt 1 view .LVU129
 466              		.loc 1 403 14 is_stmt 0 view .LVU130
 467 004c 6022     		movs	r2, #96
 468              	.LVL37:
 469              		.loc 1 403 14 view .LVU131
 470 004e 1A70     		strb	r2, [r3]
ARM GAS  /tmp/cccL9nWh.s 			page 17


 471              	.L33:
 404:HALLIB/STM32F4xx_HAL_Driver/Src/stm32f4xx_hal_pccard.c ****   }
 405:HALLIB/STM32F4xx_HAL_Driver/Src/stm32f4xx_hal_pccard.c ****   
 406:HALLIB/STM32F4xx_HAL_Driver/Src/stm32f4xx_hal_pccard.c ****   timeout = PCCARD_TIMEOUT_READ_WRITE_SECTOR;
 472              		.loc 1 406 3 is_stmt 1 view .LVU132
 473              	.LVL38:
 474              		.loc 1 406 11 is_stmt 0 view .LVU133
 475 0050 4FF6FF74 		movw	r4, #65535
 476              	.LVL39:
 477              	.L35:
 407:HALLIB/STM32F4xx_HAL_Driver/Src/stm32f4xx_hal_pccard.c **** 
 408:HALLIB/STM32F4xx_HAL_Driver/Src/stm32f4xx_hal_pccard.c ****   do
 478              		.loc 1 408 3 is_stmt 1 discriminator 2 view .LVU134
 409:HALLIB/STM32F4xx_HAL_Driver/Src/stm32f4xx_hal_pccard.c ****   {
 410:HALLIB/STM32F4xx_HAL_Driver/Src/stm32f4xx_hal_pccard.c ****     /* wait till the Status = PCCARD_STATUS_OK */
 411:HALLIB/STM32F4xx_HAL_Driver/Src/stm32f4xx_hal_pccard.c ****     status =  *(__IO uint16_t *)(PCCARD_IO_SPACE_PRIMARY_ADDR | ATA_STATUS_CMD_ALTERNATE);
 479              		.loc 1 411 5 discriminator 2 view .LVU135
 480              		.loc 1 411 15 is_stmt 0 discriminator 2 view .LVU136
 481 0054 0F4A     		ldr	r2, .L42+8
 482 0056 1288     		ldrh	r2, [r2]
 483              		.loc 1 411 12 discriminator 2 view .LVU137
 484 0058 D2B2     		uxtb	r2, r2
 485              	.LVL40:
 412:HALLIB/STM32F4xx_HAL_Driver/Src/stm32f4xx_hal_pccard.c ****     timeout--;
 486              		.loc 1 412 5 is_stmt 1 discriminator 2 view .LVU138
 487              		.loc 1 412 12 is_stmt 0 discriminator 2 view .LVU139
 488 005a 013C     		subs	r4, r4, #1
 489              	.LVL41:
 413:HALLIB/STM32F4xx_HAL_Driver/Src/stm32f4xx_hal_pccard.c ****   }while((status != PCCARD_STATUS_OK) && timeout);
 490              		.loc 1 413 9 is_stmt 1 discriminator 2 view .LVU140
 491              		.loc 1 413 3 is_stmt 0 discriminator 2 view .LVU141
 492 005c 582A     		cmp	r2, #88
 493 005e 01D0     		beq	.L34
 494              		.loc 1 413 39 discriminator 1 view .LVU142
 495 0060 002C     		cmp	r4, #0
 496 0062 F7D1     		bne	.L35
 497              	.L34:
 414:HALLIB/STM32F4xx_HAL_Driver/Src/stm32f4xx_hal_pccard.c ****   
 415:HALLIB/STM32F4xx_HAL_Driver/Src/stm32f4xx_hal_pccard.c ****   if(timeout == 0U)
 498              		.loc 1 415 3 is_stmt 1 view .LVU143
 499              		.loc 1 415 5 is_stmt 0 view .LVU144
 500 0064 0CB9     		cbnz	r4, .L36
 416:HALLIB/STM32F4xx_HAL_Driver/Src/stm32f4xx_hal_pccard.c ****   {
 417:HALLIB/STM32F4xx_HAL_Driver/Src/stm32f4xx_hal_pccard.c ****     *pStatus = PCCARD_TIMEOUT_ERROR;
 501              		.loc 1 417 5 is_stmt 1 view .LVU145
 502              		.loc 1 417 14 is_stmt 0 view .LVU146
 503 0066 6022     		movs	r2, #96
 504              	.LVL42:
 505              		.loc 1 417 14 view .LVU147
 506 0068 1A70     		strb	r2, [r3]
 507              	.L36:
 406:HALLIB/STM32F4xx_HAL_Driver/Src/stm32f4xx_hal_pccard.c **** 
 508              		.loc 1 406 11 discriminator 1 view .LVU148
 509 006a 0023     		movs	r3, #0
 510              	.LVL43:
 511              	.L37:
 418:HALLIB/STM32F4xx_HAL_Driver/Src/stm32f4xx_hal_pccard.c ****   }
ARM GAS  /tmp/cccL9nWh.s 			page 18


 419:HALLIB/STM32F4xx_HAL_Driver/Src/stm32f4xx_hal_pccard.c ****   
 420:HALLIB/STM32F4xx_HAL_Driver/Src/stm32f4xx_hal_pccard.c ****   /* Read bytes */
 421:HALLIB/STM32F4xx_HAL_Driver/Src/stm32f4xx_hal_pccard.c ****   for(; index < PCCARD_SECTOR_SIZE; index++)
 512              		.loc 1 421 9 is_stmt 1 discriminator 1 view .LVU149
 513              		.loc 1 421 3 is_stmt 0 discriminator 1 view .LVU150
 514 006c FE2B     		cmp	r3, #254
 515 006e 05D8     		bhi	.L41
 422:HALLIB/STM32F4xx_HAL_Driver/Src/stm32f4xx_hal_pccard.c ****   {
 423:HALLIB/STM32F4xx_HAL_Driver/Src/stm32f4xx_hal_pccard.c ****     *(uint16_t *)pBuffer++ = *(uint16_t *)(PCCARD_IO_SPACE_PRIMARY_ADDR);
 516              		.loc 1 423 5 is_stmt 1 discriminator 2 view .LVU151
 517              	.LVL44:
 518              		.loc 1 423 30 is_stmt 0 discriminator 2 view .LVU152
 519 0070 094A     		ldr	r2, .L42+12
 520 0072 1288     		ldrh	r2, [r2]
 521              		.loc 1 423 28 discriminator 2 view .LVU153
 522 0074 21F8022B 		strh	r2, [r1], #2	@ movhi
 523              	.LVL45:
 421:HALLIB/STM32F4xx_HAL_Driver/Src/stm32f4xx_hal_pccard.c ****   {
 524              		.loc 1 421 37 is_stmt 1 discriminator 2 view .LVU154
 421:HALLIB/STM32F4xx_HAL_Driver/Src/stm32f4xx_hal_pccard.c ****   {
 525              		.loc 1 421 42 is_stmt 0 discriminator 2 view .LVU155
 526 0078 0133     		adds	r3, r3, #1
 527              	.LVL46:
 421:HALLIB/STM32F4xx_HAL_Driver/Src/stm32f4xx_hal_pccard.c ****   {
 528              		.loc 1 421 42 discriminator 2 view .LVU156
 529 007a F7E7     		b	.L37
 530              	.L41:
 424:HALLIB/STM32F4xx_HAL_Driver/Src/stm32f4xx_hal_pccard.c ****   } 
 425:HALLIB/STM32F4xx_HAL_Driver/Src/stm32f4xx_hal_pccard.c **** 
 426:HALLIB/STM32F4xx_HAL_Driver/Src/stm32f4xx_hal_pccard.c ****   /* Update the PCCARD controller state */
 427:HALLIB/STM32F4xx_HAL_Driver/Src/stm32f4xx_hal_pccard.c ****   hpccard->State = HAL_PCCARD_STATE_READY;
 531              		.loc 1 427 3 is_stmt 1 view .LVU157
 532              		.loc 1 427 18 is_stmt 0 view .LVU158
 533 007c 0123     		movs	r3, #1
 534              	.LVL47:
 535              		.loc 1 427 18 view .LVU159
 536 007e 2B74     		strb	r3, [r5, #16]
 428:HALLIB/STM32F4xx_HAL_Driver/Src/stm32f4xx_hal_pccard.c ****   
 429:HALLIB/STM32F4xx_HAL_Driver/Src/stm32f4xx_hal_pccard.c ****   /* Process unlocked */
 430:HALLIB/STM32F4xx_HAL_Driver/Src/stm32f4xx_hal_pccard.c ****   __HAL_UNLOCK(hpccard);
 537              		.loc 1 430 3 is_stmt 1 view .LVU160
 538              		.loc 1 430 3 view .LVU161
 539 0080 0020     		movs	r0, #0
 540 0082 6874     		strb	r0, [r5, #17]
 541              		.loc 1 430 3 view .LVU162
 431:HALLIB/STM32F4xx_HAL_Driver/Src/stm32f4xx_hal_pccard.c ****       
 432:HALLIB/STM32F4xx_HAL_Driver/Src/stm32f4xx_hal_pccard.c ****   return HAL_OK;
 542              		.loc 1 432 3 view .LVU163
 543              	.LVL48:
 544              	.L30:
 433:HALLIB/STM32F4xx_HAL_Driver/Src/stm32f4xx_hal_pccard.c **** }
 545              		.loc 1 433 1 is_stmt 0 view .LVU164
 546 0084 30BC     		pop	{r4, r5}
 547              	.LCFI8:
 548              		.cfi_remember_state
 549              		.cfi_restore 5
 550              		.cfi_restore 4
ARM GAS  /tmp/cccL9nWh.s 			page 19


 551              		.cfi_def_cfa_offset 0
 552              	.LVL49:
 553              		.loc 1 433 1 view .LVU165
 554 0086 7047     		bx	lr
 555              	.LVL50:
 556              	.L39:
 557              	.LCFI9:
 558              		.cfi_restore_state
 375:HALLIB/STM32F4xx_HAL_Driver/Src/stm32f4xx_hal_pccard.c ****   
 559              		.loc 1 375 3 view .LVU166
 560 0088 0220     		movs	r0, #2
 561 008a FBE7     		b	.L30
 562              	.L43:
 563              		.align	2
 564              	.L42:
 565 008c F501009C 		.word	-1677721099
 566 0090 F701009C 		.word	-1677721097
 567 0094 FE01009C 		.word	-1677721090
 568 0098 F001009C 		.word	-1677721104
 569              		.cfi_endproc
 570              	.LFE137:
 572              		.section	.text.HAL_PCCARD_Write_Sector,"ax",%progbits
 573              		.align	1
 574              		.global	HAL_PCCARD_Write_Sector
 575              		.syntax unified
 576              		.thumb
 577              		.thumb_func
 578              		.fpu fpv4-sp-d16
 580              	HAL_PCCARD_Write_Sector:
 581              	.LVL51:
 582              	.LFB138:
 434:HALLIB/STM32F4xx_HAL_Driver/Src/stm32f4xx_hal_pccard.c **** 
 435:HALLIB/STM32F4xx_HAL_Driver/Src/stm32f4xx_hal_pccard.c **** 
 436:HALLIB/STM32F4xx_HAL_Driver/Src/stm32f4xx_hal_pccard.c **** /**
 437:HALLIB/STM32F4xx_HAL_Driver/Src/stm32f4xx_hal_pccard.c ****   * @brief  Write sector to PCCARD memory
 438:HALLIB/STM32F4xx_HAL_Driver/Src/stm32f4xx_hal_pccard.c ****   * @param  hpccard pointer to a PCCARD_HandleTypeDef structure that contains
 439:HALLIB/STM32F4xx_HAL_Driver/Src/stm32f4xx_hal_pccard.c ****   *                the configuration information for PCCARD module.
 440:HALLIB/STM32F4xx_HAL_Driver/Src/stm32f4xx_hal_pccard.c ****   * @param  pBuffer pointer to source write buffer
 441:HALLIB/STM32F4xx_HAL_Driver/Src/stm32f4xx_hal_pccard.c ****   * @param  SectorAddress Sector address to write
 442:HALLIB/STM32F4xx_HAL_Driver/Src/stm32f4xx_hal_pccard.c ****   * @param  pStatus pointer to PCCARD status
 443:HALLIB/STM32F4xx_HAL_Driver/Src/stm32f4xx_hal_pccard.c ****   * @retval HAL status
 444:HALLIB/STM32F4xx_HAL_Driver/Src/stm32f4xx_hal_pccard.c ****   */
 445:HALLIB/STM32F4xx_HAL_Driver/Src/stm32f4xx_hal_pccard.c **** HAL_StatusTypeDef HAL_PCCARD_Write_Sector(PCCARD_HandleTypeDef *hpccard, uint16_t *pBuffer, uint16_
 446:HALLIB/STM32F4xx_HAL_Driver/Src/stm32f4xx_hal_pccard.c **** {
 583              		.loc 1 446 1 is_stmt 1 view -0
 584              		.cfi_startproc
 585              		@ args = 0, pretend = 0, frame = 0
 586              		@ frame_needed = 0, uses_anonymous_args = 0
 587              		@ link register save eliminated.
 588              		.loc 1 446 1 is_stmt 0 view .LVU168
 589 0000 F0B4     		push	{r4, r5, r6, r7}
 590              	.LCFI10:
 591              		.cfi_def_cfa_offset 16
 592              		.cfi_offset 4, -16
 593              		.cfi_offset 5, -12
 594              		.cfi_offset 6, -8
 595              		.cfi_offset 7, -4
ARM GAS  /tmp/cccL9nWh.s 			page 20


 596 0002 0746     		mov	r7, r0
 447:HALLIB/STM32F4xx_HAL_Driver/Src/stm32f4xx_hal_pccard.c ****   uint32_t timeout = PCCARD_TIMEOUT_READ_WRITE_SECTOR, index = 0U;
 597              		.loc 1 447 3 is_stmt 1 view .LVU169
 598              	.LVL52:
 448:HALLIB/STM32F4xx_HAL_Driver/Src/stm32f4xx_hal_pccard.c ****   uint8_t status = 0;
 599              		.loc 1 448 3 view .LVU170
 449:HALLIB/STM32F4xx_HAL_Driver/Src/stm32f4xx_hal_pccard.c **** 
 450:HALLIB/STM32F4xx_HAL_Driver/Src/stm32f4xx_hal_pccard.c ****   /* Process Locked */
 451:HALLIB/STM32F4xx_HAL_Driver/Src/stm32f4xx_hal_pccard.c ****   __HAL_LOCK(hpccard);  
 600              		.loc 1 451 3 view .LVU171
 601              		.loc 1 451 3 view .LVU172
 602 0004 407C     		ldrb	r0, [r0, #17]	@ zero_extendqisi2
 603              	.LVL53:
 604              		.loc 1 451 3 is_stmt 0 view .LVU173
 605 0006 0128     		cmp	r0, #1
 606 0008 3CD0     		beq	.L54
 607              		.loc 1 451 3 is_stmt 1 discriminator 2 view .LVU174
 608 000a 0120     		movs	r0, #1
 609 000c 7874     		strb	r0, [r7, #17]
 610              		.loc 1 451 3 discriminator 2 view .LVU175
 452:HALLIB/STM32F4xx_HAL_Driver/Src/stm32f4xx_hal_pccard.c ****   
 453:HALLIB/STM32F4xx_HAL_Driver/Src/stm32f4xx_hal_pccard.c ****   /* Check the PCCARD controller state */
 454:HALLIB/STM32F4xx_HAL_Driver/Src/stm32f4xx_hal_pccard.c ****   if(hpccard->State == HAL_PCCARD_STATE_BUSY)
 611              		.loc 1 454 3 discriminator 2 view .LVU176
 612              		.loc 1 454 13 is_stmt 0 discriminator 2 view .LVU177
 613 000e 387C     		ldrb	r0, [r7, #16]	@ zero_extendqisi2
 614 0010 C0B2     		uxtb	r0, r0
 615              		.loc 1 454 5 discriminator 2 view .LVU178
 616 0012 0228     		cmp	r0, #2
 617 0014 34D0     		beq	.L45
 455:HALLIB/STM32F4xx_HAL_Driver/Src/stm32f4xx_hal_pccard.c ****   {
 456:HALLIB/STM32F4xx_HAL_Driver/Src/stm32f4xx_hal_pccard.c ****      return HAL_BUSY;
 457:HALLIB/STM32F4xx_HAL_Driver/Src/stm32f4xx_hal_pccard.c ****   }
 458:HALLIB/STM32F4xx_HAL_Driver/Src/stm32f4xx_hal_pccard.c ****    
 459:HALLIB/STM32F4xx_HAL_Driver/Src/stm32f4xx_hal_pccard.c ****   /* Update the PCCARD controller state */
 460:HALLIB/STM32F4xx_HAL_Driver/Src/stm32f4xx_hal_pccard.c ****   hpccard->State = HAL_PCCARD_STATE_BUSY;
 618              		.loc 1 460 3 is_stmt 1 view .LVU179
 619              		.loc 1 460 18 is_stmt 0 view .LVU180
 620 0016 0220     		movs	r0, #2
 621 0018 3874     		strb	r0, [r7, #16]
 461:HALLIB/STM32F4xx_HAL_Driver/Src/stm32f4xx_hal_pccard.c ****     
 462:HALLIB/STM32F4xx_HAL_Driver/Src/stm32f4xx_hal_pccard.c ****   /* Initialize PCCARD status */
 463:HALLIB/STM32F4xx_HAL_Driver/Src/stm32f4xx_hal_pccard.c ****   *pStatus = PCCARD_READY;  
 622              		.loc 1 463 3 is_stmt 1 view .LVU181
 623              		.loc 1 463 12 is_stmt 0 view .LVU182
 624 001a 4020     		movs	r0, #64
 625 001c 1870     		strb	r0, [r3]
 464:HALLIB/STM32F4xx_HAL_Driver/Src/stm32f4xx_hal_pccard.c ****     
 465:HALLIB/STM32F4xx_HAL_Driver/Src/stm32f4xx_hal_pccard.c ****   /* Set the parameters to write a sector */
 466:HALLIB/STM32F4xx_HAL_Driver/Src/stm32f4xx_hal_pccard.c ****   *(__IO uint16_t *)(PCCARD_IO_SPACE_PRIMARY_ADDR | ATA_CYLINDER_HIGH) = (uint16_t)0x00;
 626              		.loc 1 466 3 is_stmt 1 view .LVU183
 627              		.loc 1 466 72 is_stmt 0 view .LVU184
 628 001e 1A48     		ldr	r0, .L56
 629 0020 4FF00004 		mov	r4, #0	@ movhi
 630 0024 0480     		strh	r4, [r0]	@ unaligned
 467:HALLIB/STM32F4xx_HAL_Driver/Src/stm32f4xx_hal_pccard.c ****   *(__IO uint16_t *)(PCCARD_IO_SPACE_PRIMARY_ADDR | ATA_SECTOR_COUNT)  = ((uint16_t)0x0100) | ((uin
 631              		.loc 1 467 3 is_stmt 1 view .LVU185
ARM GAS  /tmp/cccL9nWh.s 			page 21


 632              		.loc 1 467 72 is_stmt 0 view .LVU186
 633 0026 42F48072 		orr	r2, r2, #256
 634              	.LVL54:
 635              		.loc 1 467 72 view .LVU187
 636 002a 0338     		subs	r0, r0, #3
 637 002c 0280     		strh	r2, [r0]	@ movhi
 468:HALLIB/STM32F4xx_HAL_Driver/Src/stm32f4xx_hal_pccard.c ****   *(__IO uint16_t *)(PCCARD_IO_SPACE_PRIMARY_ADDR | ATA_STATUS_CMD)    = (uint16_t)0x30A0;
 638              		.loc 1 468 3 is_stmt 1 view .LVU188
 639              		.loc 1 468 72 is_stmt 0 view .LVU189
 640 002e 174A     		ldr	r2, .L56+4
 641 0030 43F2A000 		movw	r0, 12448	@ movhi
 642 0034 1080     		strh	r0, [r2]	@ unaligned
 447:HALLIB/STM32F4xx_HAL_Driver/Src/stm32f4xx_hal_pccard.c ****   uint8_t status = 0;
 643              		.loc 1 447 12 view .LVU190
 644 0036 4FF6FF76 		movw	r6, #65535
 645              	.LVL55:
 646              	.L47:
 469:HALLIB/STM32F4xx_HAL_Driver/Src/stm32f4xx_hal_pccard.c ****   
 470:HALLIB/STM32F4xx_HAL_Driver/Src/stm32f4xx_hal_pccard.c ****   do
 647              		.loc 1 470 3 is_stmt 1 discriminator 2 view .LVU191
 471:HALLIB/STM32F4xx_HAL_Driver/Src/stm32f4xx_hal_pccard.c ****   {
 472:HALLIB/STM32F4xx_HAL_Driver/Src/stm32f4xx_hal_pccard.c ****     /* Wait till the Status = PCCARD_STATUS_OK */
 473:HALLIB/STM32F4xx_HAL_Driver/Src/stm32f4xx_hal_pccard.c ****     status =  *(__IO uint8_t *)(PCCARD_IO_SPACE_PRIMARY_ADDR | ATA_STATUS_CMD_ALTERNATE);
 648              		.loc 1 473 5 discriminator 2 view .LVU192
 649              		.loc 1 473 12 is_stmt 0 discriminator 2 view .LVU193
 650 003a 154A     		ldr	r2, .L56+8
 651 003c 1278     		ldrb	r2, [r2]	@ zero_extendqisi2
 652 003e D2B2     		uxtb	r2, r2
 653              	.LVL56:
 474:HALLIB/STM32F4xx_HAL_Driver/Src/stm32f4xx_hal_pccard.c ****     timeout--;
 654              		.loc 1 474 5 is_stmt 1 discriminator 2 view .LVU194
 655              		.loc 1 474 12 is_stmt 0 discriminator 2 view .LVU195
 656 0040 013E     		subs	r6, r6, #1
 657              	.LVL57:
 475:HALLIB/STM32F4xx_HAL_Driver/Src/stm32f4xx_hal_pccard.c ****   }while((status != PCCARD_STATUS_OK) && timeout);
 658              		.loc 1 475 9 is_stmt 1 discriminator 2 view .LVU196
 659              		.loc 1 475 3 is_stmt 0 discriminator 2 view .LVU197
 660 0042 582A     		cmp	r2, #88
 661 0044 01D0     		beq	.L46
 662              		.loc 1 475 39 discriminator 1 view .LVU198
 663 0046 002E     		cmp	r6, #0
 664 0048 F7D1     		bne	.L47
 665              	.L46:
 476:HALLIB/STM32F4xx_HAL_Driver/Src/stm32f4xx_hal_pccard.c ****   
 477:HALLIB/STM32F4xx_HAL_Driver/Src/stm32f4xx_hal_pccard.c ****   if(timeout == 0U)
 666              		.loc 1 477 3 is_stmt 1 view .LVU199
 667              		.loc 1 477 5 is_stmt 0 view .LVU200
 668 004a 0EB9     		cbnz	r6, .L48
 478:HALLIB/STM32F4xx_HAL_Driver/Src/stm32f4xx_hal_pccard.c ****   {
 479:HALLIB/STM32F4xx_HAL_Driver/Src/stm32f4xx_hal_pccard.c ****     *pStatus = PCCARD_TIMEOUT_ERROR;
 669              		.loc 1 479 5 is_stmt 1 view .LVU201
 670              		.loc 1 479 14 is_stmt 0 view .LVU202
 671 004c 6022     		movs	r2, #96
 672              	.LVL58:
 673              		.loc 1 479 14 view .LVU203
 674 004e 1A70     		strb	r2, [r3]
 675              	.L48:
ARM GAS  /tmp/cccL9nWh.s 			page 22


 447:HALLIB/STM32F4xx_HAL_Driver/Src/stm32f4xx_hal_pccard.c ****   uint8_t status = 0;
 676              		.loc 1 447 12 discriminator 1 view .LVU204
 677 0050 0022     		movs	r2, #0
 678 0052 04E0     		b	.L49
 679              	.LVL59:
 680              	.L50:
 480:HALLIB/STM32F4xx_HAL_Driver/Src/stm32f4xx_hal_pccard.c ****   }
 481:HALLIB/STM32F4xx_HAL_Driver/Src/stm32f4xx_hal_pccard.c ****   
 482:HALLIB/STM32F4xx_HAL_Driver/Src/stm32f4xx_hal_pccard.c ****   /* Write bytes */
 483:HALLIB/STM32F4xx_HAL_Driver/Src/stm32f4xx_hal_pccard.c ****   for(; index < PCCARD_SECTOR_SIZE; index++)
 484:HALLIB/STM32F4xx_HAL_Driver/Src/stm32f4xx_hal_pccard.c ****   {
 485:HALLIB/STM32F4xx_HAL_Driver/Src/stm32f4xx_hal_pccard.c ****     *(uint16_t *)(PCCARD_IO_SPACE_PRIMARY_ADDR) = *(uint16_t *)pBuffer++;
 681              		.loc 1 485 5 is_stmt 1 discriminator 2 view .LVU205
 682              		.loc 1 485 51 is_stmt 0 discriminator 2 view .LVU206
 683 0054 31F8025B 		ldrh	r5, [r1], #2
 684              	.LVL60:
 685              		.loc 1 485 49 discriminator 2 view .LVU207
 686 0058 0E4C     		ldr	r4, .L56+12
 687 005a 2580     		strh	r5, [r4]	@ movhi
 483:HALLIB/STM32F4xx_HAL_Driver/Src/stm32f4xx_hal_pccard.c ****   {
 688              		.loc 1 483 37 is_stmt 1 discriminator 2 view .LVU208
 483:HALLIB/STM32F4xx_HAL_Driver/Src/stm32f4xx_hal_pccard.c ****   {
 689              		.loc 1 483 42 is_stmt 0 discriminator 2 view .LVU209
 690 005c 0132     		adds	r2, r2, #1
 691              	.LVL61:
 692              	.L49:
 483:HALLIB/STM32F4xx_HAL_Driver/Src/stm32f4xx_hal_pccard.c ****   {
 693              		.loc 1 483 9 is_stmt 1 discriminator 1 view .LVU210
 483:HALLIB/STM32F4xx_HAL_Driver/Src/stm32f4xx_hal_pccard.c ****   {
 694              		.loc 1 483 3 is_stmt 0 discriminator 1 view .LVU211
 695 005e FE2A     		cmp	r2, #254
 696 0060 F8D9     		bls	.L50
 697              	.LVL62:
 698              	.L52:
 486:HALLIB/STM32F4xx_HAL_Driver/Src/stm32f4xx_hal_pccard.c ****   }
 487:HALLIB/STM32F4xx_HAL_Driver/Src/stm32f4xx_hal_pccard.c **** 
 488:HALLIB/STM32F4xx_HAL_Driver/Src/stm32f4xx_hal_pccard.c ****   do
 699              		.loc 1 488 3 is_stmt 1 discriminator 2 view .LVU212
 489:HALLIB/STM32F4xx_HAL_Driver/Src/stm32f4xx_hal_pccard.c ****   {
 490:HALLIB/STM32F4xx_HAL_Driver/Src/stm32f4xx_hal_pccard.c ****     /* Wait till the Status = PCCARD_STATUS_WRITE_OK */
 491:HALLIB/STM32F4xx_HAL_Driver/Src/stm32f4xx_hal_pccard.c ****     status =  *(__IO uint8_t *)(PCCARD_IO_SPACE_PRIMARY_ADDR | ATA_STATUS_CMD_ALTERNATE);
 700              		.loc 1 491 5 discriminator 2 view .LVU213
 701              		.loc 1 491 12 is_stmt 0 discriminator 2 view .LVU214
 702 0062 0B4A     		ldr	r2, .L56+8
 703 0064 1278     		ldrb	r2, [r2]	@ zero_extendqisi2
 704 0066 D2B2     		uxtb	r2, r2
 705              	.LVL63:
 492:HALLIB/STM32F4xx_HAL_Driver/Src/stm32f4xx_hal_pccard.c ****     timeout--;
 706              		.loc 1 492 5 is_stmt 1 discriminator 2 view .LVU215
 707              		.loc 1 492 12 is_stmt 0 discriminator 2 view .LVU216
 708 0068 013E     		subs	r6, r6, #1
 709              	.LVL64:
 493:HALLIB/STM32F4xx_HAL_Driver/Src/stm32f4xx_hal_pccard.c ****   }while((status != PCCARD_STATUS_WRITE_OK) && timeout);
 710              		.loc 1 493 9 is_stmt 1 discriminator 2 view .LVU217
 711              		.loc 1 493 3 is_stmt 0 discriminator 2 view .LVU218
 712 006a 502A     		cmp	r2, #80
 713 006c 01D0     		beq	.L51
ARM GAS  /tmp/cccL9nWh.s 			page 23


 714              		.loc 1 493 45 discriminator 1 view .LVU219
 715 006e 002E     		cmp	r6, #0
 716 0070 F7D1     		bne	.L52
 717              	.L51:
 494:HALLIB/STM32F4xx_HAL_Driver/Src/stm32f4xx_hal_pccard.c **** 
 495:HALLIB/STM32F4xx_HAL_Driver/Src/stm32f4xx_hal_pccard.c ****   if(timeout == 0U)
 718              		.loc 1 495 3 is_stmt 1 view .LVU220
 719              		.loc 1 495 5 is_stmt 0 view .LVU221
 720 0072 0EB9     		cbnz	r6, .L53
 496:HALLIB/STM32F4xx_HAL_Driver/Src/stm32f4xx_hal_pccard.c ****   {
 497:HALLIB/STM32F4xx_HAL_Driver/Src/stm32f4xx_hal_pccard.c ****     *pStatus = PCCARD_TIMEOUT_ERROR;
 721              		.loc 1 497 5 is_stmt 1 view .LVU222
 722              		.loc 1 497 14 is_stmt 0 view .LVU223
 723 0074 6022     		movs	r2, #96
 724              	.LVL65:
 725              		.loc 1 497 14 view .LVU224
 726 0076 1A70     		strb	r2, [r3]
 727              	.L53:
 498:HALLIB/STM32F4xx_HAL_Driver/Src/stm32f4xx_hal_pccard.c ****   }  
 499:HALLIB/STM32F4xx_HAL_Driver/Src/stm32f4xx_hal_pccard.c **** 
 500:HALLIB/STM32F4xx_HAL_Driver/Src/stm32f4xx_hal_pccard.c ****   /* Update the PCCARD controller state */
 501:HALLIB/STM32F4xx_HAL_Driver/Src/stm32f4xx_hal_pccard.c ****   hpccard->State = HAL_PCCARD_STATE_READY;
 728              		.loc 1 501 3 is_stmt 1 view .LVU225
 729              		.loc 1 501 18 is_stmt 0 view .LVU226
 730 0078 0123     		movs	r3, #1
 731              	.LVL66:
 732              		.loc 1 501 18 view .LVU227
 733 007a 3B74     		strb	r3, [r7, #16]
 502:HALLIB/STM32F4xx_HAL_Driver/Src/stm32f4xx_hal_pccard.c ****   
 503:HALLIB/STM32F4xx_HAL_Driver/Src/stm32f4xx_hal_pccard.c ****   /* Process unlocked */
 504:HALLIB/STM32F4xx_HAL_Driver/Src/stm32f4xx_hal_pccard.c ****   __HAL_UNLOCK(hpccard);  
 734              		.loc 1 504 3 is_stmt 1 view .LVU228
 735              		.loc 1 504 3 view .LVU229
 736 007c 0020     		movs	r0, #0
 737 007e 7874     		strb	r0, [r7, #17]
 738              		.loc 1 504 3 view .LVU230
 505:HALLIB/STM32F4xx_HAL_Driver/Src/stm32f4xx_hal_pccard.c ****   
 506:HALLIB/STM32F4xx_HAL_Driver/Src/stm32f4xx_hal_pccard.c ****   return HAL_OK;
 739              		.loc 1 506 3 view .LVU231
 740              	.LVL67:
 741              	.L45:
 507:HALLIB/STM32F4xx_HAL_Driver/Src/stm32f4xx_hal_pccard.c **** }
 742              		.loc 1 507 1 is_stmt 0 view .LVU232
 743 0080 F0BC     		pop	{r4, r5, r6, r7}
 744              	.LCFI11:
 745              		.cfi_remember_state
 746              		.cfi_restore 7
 747              		.cfi_restore 6
 748              		.cfi_restore 5
 749              		.cfi_restore 4
 750              		.cfi_def_cfa_offset 0
 751              	.LVL68:
 752              		.loc 1 507 1 view .LVU233
 753 0082 7047     		bx	lr
 754              	.LVL69:
 755              	.L54:
 756              	.LCFI12:
ARM GAS  /tmp/cccL9nWh.s 			page 24


 757              		.cfi_restore_state
 451:HALLIB/STM32F4xx_HAL_Driver/Src/stm32f4xx_hal_pccard.c ****   
 758              		.loc 1 451 3 view .LVU234
 759 0084 0220     		movs	r0, #2
 760 0086 FBE7     		b	.L45
 761              	.L57:
 762              		.align	2
 763              	.L56:
 764 0088 F501009C 		.word	-1677721099
 765 008c F701009C 		.word	-1677721097
 766 0090 FE01009C 		.word	-1677721090
 767 0094 F001009C 		.word	-1677721104
 768              		.cfi_endproc
 769              	.LFE138:
 771              		.section	.text.HAL_PCCARD_Erase_Sector,"ax",%progbits
 772              		.align	1
 773              		.global	HAL_PCCARD_Erase_Sector
 774              		.syntax unified
 775              		.thumb
 776              		.thumb_func
 777              		.fpu fpv4-sp-d16
 779              	HAL_PCCARD_Erase_Sector:
 780              	.LVL70:
 781              	.LFB139:
 508:HALLIB/STM32F4xx_HAL_Driver/Src/stm32f4xx_hal_pccard.c **** 
 509:HALLIB/STM32F4xx_HAL_Driver/Src/stm32f4xx_hal_pccard.c **** 
 510:HALLIB/STM32F4xx_HAL_Driver/Src/stm32f4xx_hal_pccard.c **** /**
 511:HALLIB/STM32F4xx_HAL_Driver/Src/stm32f4xx_hal_pccard.c ****   * @brief  Erase sector from PCCARD memory 
 512:HALLIB/STM32F4xx_HAL_Driver/Src/stm32f4xx_hal_pccard.c ****   * @param  hpccard pointer to a PCCARD_HandleTypeDef structure that contains
 513:HALLIB/STM32F4xx_HAL_Driver/Src/stm32f4xx_hal_pccard.c ****   *                the configuration information for PCCARD module.
 514:HALLIB/STM32F4xx_HAL_Driver/Src/stm32f4xx_hal_pccard.c ****   * @param  SectorAddress Sector address to erase
 515:HALLIB/STM32F4xx_HAL_Driver/Src/stm32f4xx_hal_pccard.c ****   * @param  pStatus pointer to PCCARD status
 516:HALLIB/STM32F4xx_HAL_Driver/Src/stm32f4xx_hal_pccard.c ****   * @retval HAL status
 517:HALLIB/STM32F4xx_HAL_Driver/Src/stm32f4xx_hal_pccard.c ****   */
 518:HALLIB/STM32F4xx_HAL_Driver/Src/stm32f4xx_hal_pccard.c **** HAL_StatusTypeDef  HAL_PCCARD_Erase_Sector(PCCARD_HandleTypeDef *hpccard, uint16_t SectorAddress, u
 519:HALLIB/STM32F4xx_HAL_Driver/Src/stm32f4xx_hal_pccard.c **** {
 782              		.loc 1 519 1 is_stmt 1 view -0
 783              		.cfi_startproc
 784              		@ args = 0, pretend = 0, frame = 0
 785              		@ frame_needed = 0, uses_anonymous_args = 0
 786              		@ link register save eliminated.
 520:HALLIB/STM32F4xx_HAL_Driver/Src/stm32f4xx_hal_pccard.c ****   uint32_t timeout = PCCARD_TIMEOUT_ERASE_SECTOR;
 787              		.loc 1 520 3 view .LVU236
 521:HALLIB/STM32F4xx_HAL_Driver/Src/stm32f4xx_hal_pccard.c ****   uint8_t status = 0;
 788              		.loc 1 521 3 view .LVU237
 522:HALLIB/STM32F4xx_HAL_Driver/Src/stm32f4xx_hal_pccard.c ****   
 523:HALLIB/STM32F4xx_HAL_Driver/Src/stm32f4xx_hal_pccard.c ****   /* Process Locked */
 524:HALLIB/STM32F4xx_HAL_Driver/Src/stm32f4xx_hal_pccard.c ****   __HAL_LOCK(hpccard);  
 789              		.loc 1 524 3 view .LVU238
 790              		.loc 1 524 3 view .LVU239
 791 0000 437C     		ldrb	r3, [r0, #17]	@ zero_extendqisi2
 792 0002 012B     		cmp	r3, #1
 793 0004 33D0     		beq	.L64
 519:HALLIB/STM32F4xx_HAL_Driver/Src/stm32f4xx_hal_pccard.c ****   uint32_t timeout = PCCARD_TIMEOUT_ERASE_SECTOR;
 794              		.loc 1 519 1 is_stmt 0 discriminator 2 view .LVU240
 795 0006 10B4     		push	{r4}
 796              	.LCFI13:
ARM GAS  /tmp/cccL9nWh.s 			page 25


 797              		.cfi_def_cfa_offset 4
 798              		.cfi_offset 4, -4
 799 0008 0446     		mov	r4, r0
 800              		.loc 1 524 3 is_stmt 1 discriminator 2 view .LVU241
 801 000a 0123     		movs	r3, #1
 802 000c 4374     		strb	r3, [r0, #17]
 803              		.loc 1 524 3 discriminator 2 view .LVU242
 525:HALLIB/STM32F4xx_HAL_Driver/Src/stm32f4xx_hal_pccard.c ****   
 526:HALLIB/STM32F4xx_HAL_Driver/Src/stm32f4xx_hal_pccard.c ****   /* Check the PCCARD controller state */
 527:HALLIB/STM32F4xx_HAL_Driver/Src/stm32f4xx_hal_pccard.c ****   if(hpccard->State == HAL_PCCARD_STATE_BUSY)
 804              		.loc 1 527 3 discriminator 2 view .LVU243
 805              		.loc 1 527 13 is_stmt 0 discriminator 2 view .LVU244
 806 000e 007C     		ldrb	r0, [r0, #16]	@ zero_extendqisi2
 807              	.LVL71:
 808              		.loc 1 527 13 discriminator 2 view .LVU245
 809 0010 C0B2     		uxtb	r0, r0
 810              		.loc 1 527 5 discriminator 2 view .LVU246
 811 0012 0228     		cmp	r0, #2
 812 0014 28D0     		beq	.L59
 528:HALLIB/STM32F4xx_HAL_Driver/Src/stm32f4xx_hal_pccard.c ****   {
 529:HALLIB/STM32F4xx_HAL_Driver/Src/stm32f4xx_hal_pccard.c ****      return HAL_BUSY;
 530:HALLIB/STM32F4xx_HAL_Driver/Src/stm32f4xx_hal_pccard.c ****   }
 531:HALLIB/STM32F4xx_HAL_Driver/Src/stm32f4xx_hal_pccard.c **** 
 532:HALLIB/STM32F4xx_HAL_Driver/Src/stm32f4xx_hal_pccard.c ****   /* Update the PCCARD controller state */
 533:HALLIB/STM32F4xx_HAL_Driver/Src/stm32f4xx_hal_pccard.c ****   hpccard->State = HAL_PCCARD_STATE_BUSY;
 813              		.loc 1 533 3 is_stmt 1 view .LVU247
 814              		.loc 1 533 18 is_stmt 0 view .LVU248
 815 0016 0223     		movs	r3, #2
 816 0018 2374     		strb	r3, [r4, #16]
 534:HALLIB/STM32F4xx_HAL_Driver/Src/stm32f4xx_hal_pccard.c ****   
 535:HALLIB/STM32F4xx_HAL_Driver/Src/stm32f4xx_hal_pccard.c ****   /* Initialize PCCARD status */ 
 536:HALLIB/STM32F4xx_HAL_Driver/Src/stm32f4xx_hal_pccard.c ****   *pStatus = PCCARD_READY;
 817              		.loc 1 536 3 is_stmt 1 view .LVU249
 818              		.loc 1 536 12 is_stmt 0 view .LVU250
 819 001a 4023     		movs	r3, #64
 820 001c 1370     		strb	r3, [r2]
 537:HALLIB/STM32F4xx_HAL_Driver/Src/stm32f4xx_hal_pccard.c ****     
 538:HALLIB/STM32F4xx_HAL_Driver/Src/stm32f4xx_hal_pccard.c ****   /* Set the parameters to write a sector */
 539:HALLIB/STM32F4xx_HAL_Driver/Src/stm32f4xx_hal_pccard.c ****   *(__IO uint8_t *)(PCCARD_IO_SPACE_PRIMARY_ADDR | ATA_CYLINDER_LOW)  = 0x00;
 821              		.loc 1 539 3 is_stmt 1 view .LVU251
 822              		.loc 1 539 71 is_stmt 0 view .LVU252
 823 001e 0023     		movs	r3, #0
 824 0020 1448     		ldr	r0, .L69
 825 0022 0370     		strb	r3, [r0]
 540:HALLIB/STM32F4xx_HAL_Driver/Src/stm32f4xx_hal_pccard.c ****   *(__IO uint8_t *)(PCCARD_IO_SPACE_PRIMARY_ADDR | ATA_CYLINDER_HIGH) = 0x00;
 826              		.loc 1 540 3 is_stmt 1 view .LVU253
 827              		.loc 1 540 71 is_stmt 0 view .LVU254
 828 0024 0130     		adds	r0, r0, #1
 829 0026 0370     		strb	r3, [r0]
 541:HALLIB/STM32F4xx_HAL_Driver/Src/stm32f4xx_hal_pccard.c ****   *(__IO uint8_t *)(PCCARD_IO_SPACE_PRIMARY_ADDR | ATA_SECTOR_NUMBER) = SectorAddress;
 830              		.loc 1 541 3 is_stmt 1 view .LVU255
 831              		.loc 1 541 71 is_stmt 0 view .LVU256
 832 0028 C9B2     		uxtb	r1, r1
 833              	.LVL72:
 834              		.loc 1 541 71 view .LVU257
 835 002a 134B     		ldr	r3, .L69+4
 836 002c 1970     		strb	r1, [r3]
ARM GAS  /tmp/cccL9nWh.s 			page 26


 542:HALLIB/STM32F4xx_HAL_Driver/Src/stm32f4xx_hal_pccard.c ****   *(__IO uint8_t *)(PCCARD_IO_SPACE_PRIMARY_ADDR | ATA_SECTOR_COUNT)  = 0x01;
 837              		.loc 1 542 3 is_stmt 1 view .LVU258
 838              		.loc 1 542 71 is_stmt 0 view .LVU259
 839 002e 013B     		subs	r3, r3, #1
 840 0030 0121     		movs	r1, #1
 841 0032 1970     		strb	r1, [r3]
 543:HALLIB/STM32F4xx_HAL_Driver/Src/stm32f4xx_hal_pccard.c ****   *(__IO uint8_t *)(PCCARD_IO_SPACE_PRIMARY_ADDR | ATA_CARD_HEAD)     = 0xA0;
 842              		.loc 1 543 3 is_stmt 1 view .LVU260
 843              		.loc 1 543 71 is_stmt 0 view .LVU261
 844 0034 0433     		adds	r3, r3, #4
 845 0036 A021     		movs	r1, #160
 846 0038 1970     		strb	r1, [r3]
 544:HALLIB/STM32F4xx_HAL_Driver/Src/stm32f4xx_hal_pccard.c ****   *(__IO uint8_t *)(PCCARD_IO_SPACE_PRIMARY_ADDR | ATA_STATUS_CMD)    = ATA_ERASE_SECTOR_CMD;
 847              		.loc 1 544 3 is_stmt 1 view .LVU262
 848              		.loc 1 544 71 is_stmt 0 view .LVU263
 849 003a 0133     		adds	r3, r3, #1
 850 003c C021     		movs	r1, #192
 851 003e 1970     		strb	r1, [r3]
 545:HALLIB/STM32F4xx_HAL_Driver/Src/stm32f4xx_hal_pccard.c ****   
 546:HALLIB/STM32F4xx_HAL_Driver/Src/stm32f4xx_hal_pccard.c ****   /* wait till the PCCARD is ready */
 547:HALLIB/STM32F4xx_HAL_Driver/Src/stm32f4xx_hal_pccard.c ****   status =  *(__IO uint8_t *)(PCCARD_IO_SPACE_PRIMARY_ADDR | ATA_STATUS_CMD_ALTERNATE);
 852              		.loc 1 547 3 is_stmt 1 view .LVU264
 853              		.loc 1 547 10 is_stmt 0 view .LVU265
 854 0040 0733     		adds	r3, r3, #7
 855 0042 1B78     		ldrb	r3, [r3]	@ zero_extendqisi2
 856 0044 DBB2     		uxtb	r3, r3
 857              	.LVL73:
 548:HALLIB/STM32F4xx_HAL_Driver/Src/stm32f4xx_hal_pccard.c ****   
 549:HALLIB/STM32F4xx_HAL_Driver/Src/stm32f4xx_hal_pccard.c ****   while((status != PCCARD_STATUS_WRITE_OK) && timeout)
 858              		.loc 1 549 3 is_stmt 1 view .LVU266
 520:HALLIB/STM32F4xx_HAL_Driver/Src/stm32f4xx_hal_pccard.c ****   uint8_t status = 0;
 859              		.loc 1 520 12 is_stmt 0 view .LVU267
 860 0046 4FF48061 		mov	r1, #1024
 861              	.LVL74:
 862              	.L60:
 863              		.loc 1 549 8 is_stmt 1 view .LVU268
 864 004a 502B     		cmp	r3, #80
 865 004c 05D0     		beq	.L61
 866              		.loc 1 549 44 is_stmt 0 discriminator 1 view .LVU269
 867 004e 21B1     		cbz	r1, .L61
 550:HALLIB/STM32F4xx_HAL_Driver/Src/stm32f4xx_hal_pccard.c ****   {
 551:HALLIB/STM32F4xx_HAL_Driver/Src/stm32f4xx_hal_pccard.c ****     status =  *(__IO uint8_t *)(PCCARD_IO_SPACE_PRIMARY_ADDR | ATA_STATUS_CMD_ALTERNATE);
 868              		.loc 1 551 5 is_stmt 1 view .LVU270
 869              		.loc 1 551 12 is_stmt 0 view .LVU271
 870 0050 0A4B     		ldr	r3, .L69+8
 871              	.LVL75:
 872              		.loc 1 551 12 view .LVU272
 873 0052 1B78     		ldrb	r3, [r3]	@ zero_extendqisi2
 874 0054 DBB2     		uxtb	r3, r3
 875              	.LVL76:
 552:HALLIB/STM32F4xx_HAL_Driver/Src/stm32f4xx_hal_pccard.c ****     timeout--;
 876              		.loc 1 552 5 is_stmt 1 view .LVU273
 877              		.loc 1 552 12 is_stmt 0 view .LVU274
 878 0056 0139     		subs	r1, r1, #1
 879              	.LVL77:
 880              		.loc 1 552 12 view .LVU275
 881 0058 F7E7     		b	.L60
ARM GAS  /tmp/cccL9nWh.s 			page 27


 882              	.L61:
 553:HALLIB/STM32F4xx_HAL_Driver/Src/stm32f4xx_hal_pccard.c ****   } 
 554:HALLIB/STM32F4xx_HAL_Driver/Src/stm32f4xx_hal_pccard.c ****   
 555:HALLIB/STM32F4xx_HAL_Driver/Src/stm32f4xx_hal_pccard.c ****   if(timeout == 0U)
 883              		.loc 1 555 3 is_stmt 1 view .LVU276
 884              		.loc 1 555 5 is_stmt 0 view .LVU277
 885 005a 09B9     		cbnz	r1, .L63
 556:HALLIB/STM32F4xx_HAL_Driver/Src/stm32f4xx_hal_pccard.c ****   {
 557:HALLIB/STM32F4xx_HAL_Driver/Src/stm32f4xx_hal_pccard.c ****     *pStatus = PCCARD_TIMEOUT_ERROR;
 886              		.loc 1 557 5 is_stmt 1 view .LVU278
 887              		.loc 1 557 14 is_stmt 0 view .LVU279
 888 005c 6023     		movs	r3, #96
 889              	.LVL78:
 890              		.loc 1 557 14 view .LVU280
 891 005e 1370     		strb	r3, [r2]
 892              	.L63:
 558:HALLIB/STM32F4xx_HAL_Driver/Src/stm32f4xx_hal_pccard.c ****   }
 559:HALLIB/STM32F4xx_HAL_Driver/Src/stm32f4xx_hal_pccard.c ****   
 560:HALLIB/STM32F4xx_HAL_Driver/Src/stm32f4xx_hal_pccard.c ****   /* Check the PCCARD controller state */
 561:HALLIB/STM32F4xx_HAL_Driver/Src/stm32f4xx_hal_pccard.c ****   hpccard->State = HAL_PCCARD_STATE_READY;
 893              		.loc 1 561 3 is_stmt 1 view .LVU281
 894              		.loc 1 561 18 is_stmt 0 view .LVU282
 895 0060 0123     		movs	r3, #1
 896 0062 2374     		strb	r3, [r4, #16]
 562:HALLIB/STM32F4xx_HAL_Driver/Src/stm32f4xx_hal_pccard.c ****   
 563:HALLIB/STM32F4xx_HAL_Driver/Src/stm32f4xx_hal_pccard.c ****   /* Process unlocked */
 564:HALLIB/STM32F4xx_HAL_Driver/Src/stm32f4xx_hal_pccard.c ****   __HAL_UNLOCK(hpccard);   
 897              		.loc 1 564 3 is_stmt 1 view .LVU283
 898              		.loc 1 564 3 view .LVU284
 899 0064 0020     		movs	r0, #0
 900 0066 6074     		strb	r0, [r4, #17]
 901              		.loc 1 564 3 view .LVU285
 565:HALLIB/STM32F4xx_HAL_Driver/Src/stm32f4xx_hal_pccard.c ****   
 566:HALLIB/STM32F4xx_HAL_Driver/Src/stm32f4xx_hal_pccard.c ****   return HAL_OK;
 902              		.loc 1 566 3 view .LVU286
 903              	.LVL79:
 904              	.L59:
 567:HALLIB/STM32F4xx_HAL_Driver/Src/stm32f4xx_hal_pccard.c **** }
 905              		.loc 1 567 1 is_stmt 0 view .LVU287
 906 0068 5DF8044B 		ldr	r4, [sp], #4
 907              	.LCFI14:
 908              		.cfi_restore 4
 909              		.cfi_def_cfa_offset 0
 910              	.LVL80:
 911              		.loc 1 567 1 view .LVU288
 912 006c 7047     		bx	lr
 913              	.LVL81:
 914              	.L64:
 524:HALLIB/STM32F4xx_HAL_Driver/Src/stm32f4xx_hal_pccard.c ****   
 915              		.loc 1 524 3 view .LVU289
 916 006e 0220     		movs	r0, #2
 917              	.LVL82:
 918              		.loc 1 567 1 view .LVU290
 919 0070 7047     		bx	lr
 920              	.L70:
 921 0072 00BF     		.align	2
 922              	.L69:
ARM GAS  /tmp/cccL9nWh.s 			page 28


 923 0074 F401009C 		.word	-1677721100
 924 0078 F301009C 		.word	-1677721101
 925 007c FE01009C 		.word	-1677721090
 926              		.cfi_endproc
 927              	.LFE139:
 929              		.section	.text.HAL_PCCARD_Reset,"ax",%progbits
 930              		.align	1
 931              		.global	HAL_PCCARD_Reset
 932              		.syntax unified
 933              		.thumb
 934              		.thumb_func
 935              		.fpu fpv4-sp-d16
 937              	HAL_PCCARD_Reset:
 938              	.LVL83:
 939              	.LFB140:
 568:HALLIB/STM32F4xx_HAL_Driver/Src/stm32f4xx_hal_pccard.c **** 
 569:HALLIB/STM32F4xx_HAL_Driver/Src/stm32f4xx_hal_pccard.c **** /**
 570:HALLIB/STM32F4xx_HAL_Driver/Src/stm32f4xx_hal_pccard.c ****   * @brief  Reset the PCCARD memory 
 571:HALLIB/STM32F4xx_HAL_Driver/Src/stm32f4xx_hal_pccard.c ****   * @param  hpccard pointer to a PCCARD_HandleTypeDef structure that contains
 572:HALLIB/STM32F4xx_HAL_Driver/Src/stm32f4xx_hal_pccard.c ****   *                the configuration information for PCCARD module.
 573:HALLIB/STM32F4xx_HAL_Driver/Src/stm32f4xx_hal_pccard.c ****   * @retval HAL status
 574:HALLIB/STM32F4xx_HAL_Driver/Src/stm32f4xx_hal_pccard.c ****   */
 575:HALLIB/STM32F4xx_HAL_Driver/Src/stm32f4xx_hal_pccard.c **** HAL_StatusTypeDef HAL_PCCARD_Reset(PCCARD_HandleTypeDef *hpccard)
 576:HALLIB/STM32F4xx_HAL_Driver/Src/stm32f4xx_hal_pccard.c **** {
 940              		.loc 1 576 1 is_stmt 1 view -0
 941              		.cfi_startproc
 942              		@ args = 0, pretend = 0, frame = 0
 943              		@ frame_needed = 0, uses_anonymous_args = 0
 944              		@ link register save eliminated.
 945              		.loc 1 576 1 is_stmt 0 view .LVU292
 946 0000 0346     		mov	r3, r0
 577:HALLIB/STM32F4xx_HAL_Driver/Src/stm32f4xx_hal_pccard.c ****   /* Process Locked */
 578:HALLIB/STM32F4xx_HAL_Driver/Src/stm32f4xx_hal_pccard.c ****   __HAL_LOCK(hpccard);  
 947              		.loc 1 578 3 is_stmt 1 view .LVU293
 948              		.loc 1 578 3 view .LVU294
 949 0002 427C     		ldrb	r2, [r0, #17]	@ zero_extendqisi2
 950 0004 012A     		cmp	r2, #1
 951 0006 0ED0     		beq	.L73
 952              		.loc 1 578 3 discriminator 2 view .LVU295
 953 0008 0122     		movs	r2, #1
 954 000a 4274     		strb	r2, [r0, #17]
 955              		.loc 1 578 3 discriminator 2 view .LVU296
 579:HALLIB/STM32F4xx_HAL_Driver/Src/stm32f4xx_hal_pccard.c ****   
 580:HALLIB/STM32F4xx_HAL_Driver/Src/stm32f4xx_hal_pccard.c ****   /* Check the PCCARD controller state */
 581:HALLIB/STM32F4xx_HAL_Driver/Src/stm32f4xx_hal_pccard.c ****   if(hpccard->State == HAL_PCCARD_STATE_BUSY)
 956              		.loc 1 581 3 discriminator 2 view .LVU297
 957              		.loc 1 581 13 is_stmt 0 discriminator 2 view .LVU298
 958 000c 007C     		ldrb	r0, [r0, #16]	@ zero_extendqisi2
 959              	.LVL84:
 960              		.loc 1 581 13 discriminator 2 view .LVU299
 961 000e C0B2     		uxtb	r0, r0
 962              		.loc 1 581 5 discriminator 2 view .LVU300
 963 0010 0228     		cmp	r0, #2
 964 0012 09D0     		beq	.L72
 582:HALLIB/STM32F4xx_HAL_Driver/Src/stm32f4xx_hal_pccard.c ****   {
 583:HALLIB/STM32F4xx_HAL_Driver/Src/stm32f4xx_hal_pccard.c ****      return HAL_BUSY;
 584:HALLIB/STM32F4xx_HAL_Driver/Src/stm32f4xx_hal_pccard.c ****   }
ARM GAS  /tmp/cccL9nWh.s 			page 29


 585:HALLIB/STM32F4xx_HAL_Driver/Src/stm32f4xx_hal_pccard.c **** 
 586:HALLIB/STM32F4xx_HAL_Driver/Src/stm32f4xx_hal_pccard.c ****   /* Provide a SW reset and Read and verify the:
 587:HALLIB/STM32F4xx_HAL_Driver/Src/stm32f4xx_hal_pccard.c ****    - PCCard Configuration Option Register at address 0x98000200 --> 0x80
 588:HALLIB/STM32F4xx_HAL_Driver/Src/stm32f4xx_hal_pccard.c ****    - Card Configuration and Status Register at address 0x98000202 --> 0x00
 589:HALLIB/STM32F4xx_HAL_Driver/Src/stm32f4xx_hal_pccard.c ****    - Pin Replacement Register at address 0x98000204 --> 0x0C
 590:HALLIB/STM32F4xx_HAL_Driver/Src/stm32f4xx_hal_pccard.c ****    - Socket and Copy Register at address 0x98000206 --> 0x00
 591:HALLIB/STM32F4xx_HAL_Driver/Src/stm32f4xx_hal_pccard.c ****   */
 592:HALLIB/STM32F4xx_HAL_Driver/Src/stm32f4xx_hal_pccard.c **** 
 593:HALLIB/STM32F4xx_HAL_Driver/Src/stm32f4xx_hal_pccard.c ****   /* Check the PCCARD controller state */
 594:HALLIB/STM32F4xx_HAL_Driver/Src/stm32f4xx_hal_pccard.c ****   hpccard->State = HAL_PCCARD_STATE_BUSY;
 965              		.loc 1 594 3 is_stmt 1 view .LVU301
 966              		.loc 1 594 18 is_stmt 0 view .LVU302
 967 0014 0222     		movs	r2, #2
 968 0016 1A74     		strb	r2, [r3, #16]
 595:HALLIB/STM32F4xx_HAL_Driver/Src/stm32f4xx_hal_pccard.c ****   
 596:HALLIB/STM32F4xx_HAL_Driver/Src/stm32f4xx_hal_pccard.c ****   *(__IO uint8_t *)(PCCARD_ATTRIBUTE_SPACE_ADDRESS | ATA_CARD_CONFIGURATION ) = 0x01;
 969              		.loc 1 596 3 is_stmt 1 view .LVU303
 970              		.loc 1 596 79 is_stmt 0 view .LVU304
 971 0018 0122     		movs	r2, #1
 972 001a 0449     		ldr	r1, .L74
 973 001c 0A70     		strb	r2, [r1]
 597:HALLIB/STM32F4xx_HAL_Driver/Src/stm32f4xx_hal_pccard.c ****     
 598:HALLIB/STM32F4xx_HAL_Driver/Src/stm32f4xx_hal_pccard.c ****   /* Check the PCCARD controller state */
 599:HALLIB/STM32F4xx_HAL_Driver/Src/stm32f4xx_hal_pccard.c ****   hpccard->State = HAL_PCCARD_STATE_READY;
 974              		.loc 1 599 3 is_stmt 1 view .LVU305
 975              		.loc 1 599 18 is_stmt 0 view .LVU306
 976 001e 1A74     		strb	r2, [r3, #16]
 600:HALLIB/STM32F4xx_HAL_Driver/Src/stm32f4xx_hal_pccard.c ****   
 601:HALLIB/STM32F4xx_HAL_Driver/Src/stm32f4xx_hal_pccard.c ****   /* Process unlocked */
 602:HALLIB/STM32F4xx_HAL_Driver/Src/stm32f4xx_hal_pccard.c ****   __HAL_UNLOCK(hpccard);  
 977              		.loc 1 602 3 is_stmt 1 view .LVU307
 978              		.loc 1 602 3 view .LVU308
 979 0020 0020     		movs	r0, #0
 980 0022 5874     		strb	r0, [r3, #17]
 981              		.loc 1 602 3 view .LVU309
 603:HALLIB/STM32F4xx_HAL_Driver/Src/stm32f4xx_hal_pccard.c ****   
 604:HALLIB/STM32F4xx_HAL_Driver/Src/stm32f4xx_hal_pccard.c ****   return HAL_OK;
 982              		.loc 1 604 3 view .LVU310
 983              		.loc 1 604 10 is_stmt 0 view .LVU311
 984 0024 7047     		bx	lr
 985              	.LVL85:
 986              	.L73:
 578:HALLIB/STM32F4xx_HAL_Driver/Src/stm32f4xx_hal_pccard.c ****   
 987              		.loc 1 578 3 view .LVU312
 988 0026 0220     		movs	r0, #2
 989              	.LVL86:
 990              	.L72:
 605:HALLIB/STM32F4xx_HAL_Driver/Src/stm32f4xx_hal_pccard.c **** }
 991              		.loc 1 605 1 view .LVU313
 992 0028 7047     		bx	lr
 993              	.L75:
 994 002a 00BF     		.align	2
 995              	.L74:
 996 002c 02020098 		.word	-1744829950
 997              		.cfi_endproc
 998              	.LFE140:
 1000              		.section	.text.HAL_PCCARD_ITCallback,"ax",%progbits
ARM GAS  /tmp/cccL9nWh.s 			page 30


 1001              		.align	1
 1002              		.weak	HAL_PCCARD_ITCallback
 1003              		.syntax unified
 1004              		.thumb
 1005              		.thumb_func
 1006              		.fpu fpv4-sp-d16
 1008              	HAL_PCCARD_ITCallback:
 1009              	.LVL87:
 1010              	.LFB142:
 606:HALLIB/STM32F4xx_HAL_Driver/Src/stm32f4xx_hal_pccard.c **** 
 607:HALLIB/STM32F4xx_HAL_Driver/Src/stm32f4xx_hal_pccard.c **** /**
 608:HALLIB/STM32F4xx_HAL_Driver/Src/stm32f4xx_hal_pccard.c ****   * @brief  This function handles PCCARD device interrupt request.
 609:HALLIB/STM32F4xx_HAL_Driver/Src/stm32f4xx_hal_pccard.c ****   * @param  hpccard pointer to a PCCARD_HandleTypeDef structure that contains
 610:HALLIB/STM32F4xx_HAL_Driver/Src/stm32f4xx_hal_pccard.c ****   *                the configuration information for PCCARD module.
 611:HALLIB/STM32F4xx_HAL_Driver/Src/stm32f4xx_hal_pccard.c ****   * @retval HAL status
 612:HALLIB/STM32F4xx_HAL_Driver/Src/stm32f4xx_hal_pccard.c **** */
 613:HALLIB/STM32F4xx_HAL_Driver/Src/stm32f4xx_hal_pccard.c **** void HAL_PCCARD_IRQHandler(PCCARD_HandleTypeDef *hpccard)
 614:HALLIB/STM32F4xx_HAL_Driver/Src/stm32f4xx_hal_pccard.c **** {
 615:HALLIB/STM32F4xx_HAL_Driver/Src/stm32f4xx_hal_pccard.c ****   /* Check PCCARD interrupt Rising edge flag */
 616:HALLIB/STM32F4xx_HAL_Driver/Src/stm32f4xx_hal_pccard.c ****   if(__FMC_PCCARD_GET_FLAG(hpccard->Instance, FMC_FLAG_RISING_EDGE))
 617:HALLIB/STM32F4xx_HAL_Driver/Src/stm32f4xx_hal_pccard.c ****   {
 618:HALLIB/STM32F4xx_HAL_Driver/Src/stm32f4xx_hal_pccard.c ****     /* PCCARD interrupt callback*/
 619:HALLIB/STM32F4xx_HAL_Driver/Src/stm32f4xx_hal_pccard.c **** #if (USE_HAL_PCCARD_REGISTER_CALLBACKS == 1)
 620:HALLIB/STM32F4xx_HAL_Driver/Src/stm32f4xx_hal_pccard.c ****     hpccard->ItCallback(hpccard);
 621:HALLIB/STM32F4xx_HAL_Driver/Src/stm32f4xx_hal_pccard.c **** #else
 622:HALLIB/STM32F4xx_HAL_Driver/Src/stm32f4xx_hal_pccard.c ****     HAL_PCCARD_ITCallback(hpccard);
 623:HALLIB/STM32F4xx_HAL_Driver/Src/stm32f4xx_hal_pccard.c **** #endif
 624:HALLIB/STM32F4xx_HAL_Driver/Src/stm32f4xx_hal_pccard.c **** 
 625:HALLIB/STM32F4xx_HAL_Driver/Src/stm32f4xx_hal_pccard.c ****     /* Clear PCCARD interrupt Rising edge pending bit */
 626:HALLIB/STM32F4xx_HAL_Driver/Src/stm32f4xx_hal_pccard.c ****     __FMC_PCCARD_CLEAR_FLAG(hpccard->Instance, FMC_FLAG_RISING_EDGE);
 627:HALLIB/STM32F4xx_HAL_Driver/Src/stm32f4xx_hal_pccard.c ****   }
 628:HALLIB/STM32F4xx_HAL_Driver/Src/stm32f4xx_hal_pccard.c ****   
 629:HALLIB/STM32F4xx_HAL_Driver/Src/stm32f4xx_hal_pccard.c ****   /* Check PCCARD interrupt Level flag */
 630:HALLIB/STM32F4xx_HAL_Driver/Src/stm32f4xx_hal_pccard.c ****   if(__FMC_PCCARD_GET_FLAG(hpccard->Instance, FMC_FLAG_LEVEL))
 631:HALLIB/STM32F4xx_HAL_Driver/Src/stm32f4xx_hal_pccard.c ****   {
 632:HALLIB/STM32F4xx_HAL_Driver/Src/stm32f4xx_hal_pccard.c ****     /* PCCARD interrupt callback*/
 633:HALLIB/STM32F4xx_HAL_Driver/Src/stm32f4xx_hal_pccard.c **** #if (USE_HAL_PCCARD_REGISTER_CALLBACKS == 1)
 634:HALLIB/STM32F4xx_HAL_Driver/Src/stm32f4xx_hal_pccard.c ****     hpccard->ItCallback(hpccard);
 635:HALLIB/STM32F4xx_HAL_Driver/Src/stm32f4xx_hal_pccard.c **** #else
 636:HALLIB/STM32F4xx_HAL_Driver/Src/stm32f4xx_hal_pccard.c ****     HAL_PCCARD_ITCallback(hpccard);
 637:HALLIB/STM32F4xx_HAL_Driver/Src/stm32f4xx_hal_pccard.c **** #endif
 638:HALLIB/STM32F4xx_HAL_Driver/Src/stm32f4xx_hal_pccard.c **** 
 639:HALLIB/STM32F4xx_HAL_Driver/Src/stm32f4xx_hal_pccard.c ****     /* Clear PCCARD interrupt Level pending bit */
 640:HALLIB/STM32F4xx_HAL_Driver/Src/stm32f4xx_hal_pccard.c ****     __FMC_PCCARD_CLEAR_FLAG(hpccard->Instance, FMC_FLAG_LEVEL);
 641:HALLIB/STM32F4xx_HAL_Driver/Src/stm32f4xx_hal_pccard.c ****   }
 642:HALLIB/STM32F4xx_HAL_Driver/Src/stm32f4xx_hal_pccard.c **** 
 643:HALLIB/STM32F4xx_HAL_Driver/Src/stm32f4xx_hal_pccard.c ****   /* Check PCCARD interrupt Falling edge flag */
 644:HALLIB/STM32F4xx_HAL_Driver/Src/stm32f4xx_hal_pccard.c ****   if(__FMC_PCCARD_GET_FLAG(hpccard->Instance, FMC_FLAG_FALLING_EDGE))
 645:HALLIB/STM32F4xx_HAL_Driver/Src/stm32f4xx_hal_pccard.c ****   {
 646:HALLIB/STM32F4xx_HAL_Driver/Src/stm32f4xx_hal_pccard.c ****     /* PCCARD interrupt callback*/
 647:HALLIB/STM32F4xx_HAL_Driver/Src/stm32f4xx_hal_pccard.c **** #if (USE_HAL_PCCARD_REGISTER_CALLBACKS == 1)
 648:HALLIB/STM32F4xx_HAL_Driver/Src/stm32f4xx_hal_pccard.c ****     hpccard->ItCallback(hpccard);
 649:HALLIB/STM32F4xx_HAL_Driver/Src/stm32f4xx_hal_pccard.c **** #else
 650:HALLIB/STM32F4xx_HAL_Driver/Src/stm32f4xx_hal_pccard.c ****     HAL_PCCARD_ITCallback(hpccard);
 651:HALLIB/STM32F4xx_HAL_Driver/Src/stm32f4xx_hal_pccard.c **** #endif
 652:HALLIB/STM32F4xx_HAL_Driver/Src/stm32f4xx_hal_pccard.c **** 
 653:HALLIB/STM32F4xx_HAL_Driver/Src/stm32f4xx_hal_pccard.c ****     /* Clear PCCARD interrupt Falling edge pending bit */
ARM GAS  /tmp/cccL9nWh.s 			page 31


 654:HALLIB/STM32F4xx_HAL_Driver/Src/stm32f4xx_hal_pccard.c ****     __FMC_PCCARD_CLEAR_FLAG(hpccard->Instance, FMC_FLAG_FALLING_EDGE);
 655:HALLIB/STM32F4xx_HAL_Driver/Src/stm32f4xx_hal_pccard.c ****   }
 656:HALLIB/STM32F4xx_HAL_Driver/Src/stm32f4xx_hal_pccard.c ****   
 657:HALLIB/STM32F4xx_HAL_Driver/Src/stm32f4xx_hal_pccard.c ****   /* Check PCCARD interrupt FIFO empty flag */
 658:HALLIB/STM32F4xx_HAL_Driver/Src/stm32f4xx_hal_pccard.c ****   if(__FMC_PCCARD_GET_FLAG(hpccard->Instance, FMC_FLAG_FEMPT))
 659:HALLIB/STM32F4xx_HAL_Driver/Src/stm32f4xx_hal_pccard.c ****   {
 660:HALLIB/STM32F4xx_HAL_Driver/Src/stm32f4xx_hal_pccard.c ****     /* PCCARD interrupt callback*/
 661:HALLIB/STM32F4xx_HAL_Driver/Src/stm32f4xx_hal_pccard.c **** #if (USE_HAL_PCCARD_REGISTER_CALLBACKS == 1)
 662:HALLIB/STM32F4xx_HAL_Driver/Src/stm32f4xx_hal_pccard.c ****     hpccard->ItCallback(hpccard);
 663:HALLIB/STM32F4xx_HAL_Driver/Src/stm32f4xx_hal_pccard.c **** #else
 664:HALLIB/STM32F4xx_HAL_Driver/Src/stm32f4xx_hal_pccard.c ****     HAL_PCCARD_ITCallback(hpccard);
 665:HALLIB/STM32F4xx_HAL_Driver/Src/stm32f4xx_hal_pccard.c **** #endif
 666:HALLIB/STM32F4xx_HAL_Driver/Src/stm32f4xx_hal_pccard.c **** 
 667:HALLIB/STM32F4xx_HAL_Driver/Src/stm32f4xx_hal_pccard.c ****     /* Clear PCCARD interrupt FIFO empty pending bit */
 668:HALLIB/STM32F4xx_HAL_Driver/Src/stm32f4xx_hal_pccard.c ****     __FMC_PCCARD_CLEAR_FLAG(hpccard->Instance, FMC_FLAG_FEMPT);
 669:HALLIB/STM32F4xx_HAL_Driver/Src/stm32f4xx_hal_pccard.c ****   }  
 670:HALLIB/STM32F4xx_HAL_Driver/Src/stm32f4xx_hal_pccard.c **** }
 671:HALLIB/STM32F4xx_HAL_Driver/Src/stm32f4xx_hal_pccard.c **** 
 672:HALLIB/STM32F4xx_HAL_Driver/Src/stm32f4xx_hal_pccard.c **** /**
 673:HALLIB/STM32F4xx_HAL_Driver/Src/stm32f4xx_hal_pccard.c ****   * @brief  PCCARD interrupt feature callback
 674:HALLIB/STM32F4xx_HAL_Driver/Src/stm32f4xx_hal_pccard.c ****   * @param  hpccard pointer to a PCCARD_HandleTypeDef structure that contains
 675:HALLIB/STM32F4xx_HAL_Driver/Src/stm32f4xx_hal_pccard.c ****   *                the configuration information for PCCARD module.
 676:HALLIB/STM32F4xx_HAL_Driver/Src/stm32f4xx_hal_pccard.c ****   * @retval None
 677:HALLIB/STM32F4xx_HAL_Driver/Src/stm32f4xx_hal_pccard.c ****   */
 678:HALLIB/STM32F4xx_HAL_Driver/Src/stm32f4xx_hal_pccard.c **** __weak void HAL_PCCARD_ITCallback(PCCARD_HandleTypeDef *hpccard)
 679:HALLIB/STM32F4xx_HAL_Driver/Src/stm32f4xx_hal_pccard.c **** {
 1011              		.loc 1 679 1 is_stmt 1 view -0
 1012              		.cfi_startproc
 1013              		@ args = 0, pretend = 0, frame = 0
 1014              		@ frame_needed = 0, uses_anonymous_args = 0
 1015              		@ link register save eliminated.
 680:HALLIB/STM32F4xx_HAL_Driver/Src/stm32f4xx_hal_pccard.c ****   /* Prevent unused argument(s) compilation warning */
 681:HALLIB/STM32F4xx_HAL_Driver/Src/stm32f4xx_hal_pccard.c ****   UNUSED(hpccard);
 1016              		.loc 1 681 3 view .LVU315
 682:HALLIB/STM32F4xx_HAL_Driver/Src/stm32f4xx_hal_pccard.c ****   /* NOTE : This function Should not be modified, when the callback is needed,
 683:HALLIB/STM32F4xx_HAL_Driver/Src/stm32f4xx_hal_pccard.c ****             the HAL_PCCARD_ITCallback could be implemented in the user file
 684:HALLIB/STM32F4xx_HAL_Driver/Src/stm32f4xx_hal_pccard.c ****    */
 685:HALLIB/STM32F4xx_HAL_Driver/Src/stm32f4xx_hal_pccard.c **** }
 1017              		.loc 1 685 1 is_stmt 0 view .LVU316
 1018 0000 7047     		bx	lr
 1019              		.cfi_endproc
 1020              	.LFE142:
 1022              		.section	.text.HAL_PCCARD_IRQHandler,"ax",%progbits
 1023              		.align	1
 1024              		.global	HAL_PCCARD_IRQHandler
 1025              		.syntax unified
 1026              		.thumb
 1027              		.thumb_func
 1028              		.fpu fpv4-sp-d16
 1030              	HAL_PCCARD_IRQHandler:
 1031              	.LVL88:
 1032              	.LFB141:
 614:HALLIB/STM32F4xx_HAL_Driver/Src/stm32f4xx_hal_pccard.c ****   /* Check PCCARD interrupt Rising edge flag */
 1033              		.loc 1 614 1 is_stmt 1 view -0
 1034              		.cfi_startproc
 1035              		@ args = 0, pretend = 0, frame = 0
 1036              		@ frame_needed = 0, uses_anonymous_args = 0
ARM GAS  /tmp/cccL9nWh.s 			page 32


 614:HALLIB/STM32F4xx_HAL_Driver/Src/stm32f4xx_hal_pccard.c ****   /* Check PCCARD interrupt Rising edge flag */
 1037              		.loc 1 614 1 is_stmt 0 view .LVU318
 1038 0000 10B5     		push	{r4, lr}
 1039              	.LCFI15:
 1040              		.cfi_def_cfa_offset 8
 1041              		.cfi_offset 4, -8
 1042              		.cfi_offset 14, -4
 1043 0002 0446     		mov	r4, r0
 616:HALLIB/STM32F4xx_HAL_Driver/Src/stm32f4xx_hal_pccard.c ****   {
 1044              		.loc 1 616 3 is_stmt 1 view .LVU319
 616:HALLIB/STM32F4xx_HAL_Driver/Src/stm32f4xx_hal_pccard.c ****   {
 1045              		.loc 1 616 6 is_stmt 0 view .LVU320
 1046 0004 0368     		ldr	r3, [r0]
 1047 0006 5B68     		ldr	r3, [r3, #4]
 616:HALLIB/STM32F4xx_HAL_Driver/Src/stm32f4xx_hal_pccard.c ****   {
 1048              		.loc 1 616 5 view .LVU321
 1049 0008 13F0010F 		tst	r3, #1
 1050 000c 0FD1     		bne	.L83
 1051              	.LVL89:
 1052              	.L78:
 630:HALLIB/STM32F4xx_HAL_Driver/Src/stm32f4xx_hal_pccard.c ****   {
 1053              		.loc 1 630 3 is_stmt 1 view .LVU322
 630:HALLIB/STM32F4xx_HAL_Driver/Src/stm32f4xx_hal_pccard.c ****   {
 1054              		.loc 1 630 6 is_stmt 0 view .LVU323
 1055 000e 2368     		ldr	r3, [r4]
 1056 0010 5B68     		ldr	r3, [r3, #4]
 630:HALLIB/STM32F4xx_HAL_Driver/Src/stm32f4xx_hal_pccard.c ****   {
 1057              		.loc 1 630 5 view .LVU324
 1058 0012 13F0020F 		tst	r3, #2
 1059 0016 12D1     		bne	.L84
 1060              	.L79:
 644:HALLIB/STM32F4xx_HAL_Driver/Src/stm32f4xx_hal_pccard.c ****   {
 1061              		.loc 1 644 3 is_stmt 1 view .LVU325
 644:HALLIB/STM32F4xx_HAL_Driver/Src/stm32f4xx_hal_pccard.c ****   {
 1062              		.loc 1 644 6 is_stmt 0 view .LVU326
 1063 0018 2368     		ldr	r3, [r4]
 1064 001a 5B68     		ldr	r3, [r3, #4]
 644:HALLIB/STM32F4xx_HAL_Driver/Src/stm32f4xx_hal_pccard.c ****   {
 1065              		.loc 1 644 5 view .LVU327
 1066 001c 13F0040F 		tst	r3, #4
 1067 0020 16D1     		bne	.L85
 1068              	.L80:
 658:HALLIB/STM32F4xx_HAL_Driver/Src/stm32f4xx_hal_pccard.c ****   {
 1069              		.loc 1 658 3 is_stmt 1 view .LVU328
 658:HALLIB/STM32F4xx_HAL_Driver/Src/stm32f4xx_hal_pccard.c ****   {
 1070              		.loc 1 658 6 is_stmt 0 view .LVU329
 1071 0022 2368     		ldr	r3, [r4]
 1072 0024 5B68     		ldr	r3, [r3, #4]
 658:HALLIB/STM32F4xx_HAL_Driver/Src/stm32f4xx_hal_pccard.c ****   {
 1073              		.loc 1 658 5 view .LVU330
 1074 0026 13F0400F 		tst	r3, #64
 1075 002a 1AD1     		bne	.L86
 1076              	.L77:
 670:HALLIB/STM32F4xx_HAL_Driver/Src/stm32f4xx_hal_pccard.c **** 
 1077              		.loc 1 670 1 view .LVU331
 1078 002c 10BD     		pop	{r4, pc}
 1079              	.LVL90:
ARM GAS  /tmp/cccL9nWh.s 			page 33


 1080              	.L83:
 622:HALLIB/STM32F4xx_HAL_Driver/Src/stm32f4xx_hal_pccard.c **** #endif
 1081              		.loc 1 622 5 is_stmt 1 view .LVU332
 1082 002e FFF7FEFF 		bl	HAL_PCCARD_ITCallback
 1083              	.LVL91:
 626:HALLIB/STM32F4xx_HAL_Driver/Src/stm32f4xx_hal_pccard.c ****   }
 1084              		.loc 1 626 5 view .LVU333
 1085 0032 2268     		ldr	r2, [r4]
 1086 0034 5368     		ldr	r3, [r2, #4]
 1087 0036 23F00103 		bic	r3, r3, #1
 1088 003a 5360     		str	r3, [r2, #4]
 1089 003c E7E7     		b	.L78
 1090              	.L84:
 636:HALLIB/STM32F4xx_HAL_Driver/Src/stm32f4xx_hal_pccard.c **** #endif
 1091              		.loc 1 636 5 view .LVU334
 1092 003e 2046     		mov	r0, r4
 1093 0040 FFF7FEFF 		bl	HAL_PCCARD_ITCallback
 1094              	.LVL92:
 640:HALLIB/STM32F4xx_HAL_Driver/Src/stm32f4xx_hal_pccard.c ****   }
 1095              		.loc 1 640 5 view .LVU335
 1096 0044 2268     		ldr	r2, [r4]
 1097 0046 5368     		ldr	r3, [r2, #4]
 1098 0048 23F00203 		bic	r3, r3, #2
 1099 004c 5360     		str	r3, [r2, #4]
 1100 004e E3E7     		b	.L79
 1101              	.L85:
 650:HALLIB/STM32F4xx_HAL_Driver/Src/stm32f4xx_hal_pccard.c **** #endif
 1102              		.loc 1 650 5 view .LVU336
 1103 0050 2046     		mov	r0, r4
 1104 0052 FFF7FEFF 		bl	HAL_PCCARD_ITCallback
 1105              	.LVL93:
 654:HALLIB/STM32F4xx_HAL_Driver/Src/stm32f4xx_hal_pccard.c ****   }
 1106              		.loc 1 654 5 view .LVU337
 1107 0056 2268     		ldr	r2, [r4]
 1108 0058 5368     		ldr	r3, [r2, #4]
 1109 005a 23F00403 		bic	r3, r3, #4
 1110 005e 5360     		str	r3, [r2, #4]
 1111 0060 DFE7     		b	.L80
 1112              	.L86:
 664:HALLIB/STM32F4xx_HAL_Driver/Src/stm32f4xx_hal_pccard.c **** #endif
 1113              		.loc 1 664 5 view .LVU338
 1114 0062 2046     		mov	r0, r4
 1115 0064 FFF7FEFF 		bl	HAL_PCCARD_ITCallback
 1116              	.LVL94:
 668:HALLIB/STM32F4xx_HAL_Driver/Src/stm32f4xx_hal_pccard.c ****   }  
 1117              		.loc 1 668 5 view .LVU339
 1118 0068 2268     		ldr	r2, [r4]
 1119 006a 5368     		ldr	r3, [r2, #4]
 1120 006c 23F04003 		bic	r3, r3, #64
 1121 0070 5360     		str	r3, [r2, #4]
 670:HALLIB/STM32F4xx_HAL_Driver/Src/stm32f4xx_hal_pccard.c **** 
 1122              		.loc 1 670 1 is_stmt 0 view .LVU340
 1123 0072 DBE7     		b	.L77
 1124              		.cfi_endproc
 1125              	.LFE141:
 1127              		.section	.text.HAL_PCCARD_GetState,"ax",%progbits
 1128              		.align	1
ARM GAS  /tmp/cccL9nWh.s 			page 34


 1129              		.global	HAL_PCCARD_GetState
 1130              		.syntax unified
 1131              		.thumb
 1132              		.thumb_func
 1133              		.fpu fpv4-sp-d16
 1135              	HAL_PCCARD_GetState:
 1136              	.LVL95:
 1137              	.LFB143:
 686:HALLIB/STM32F4xx_HAL_Driver/Src/stm32f4xx_hal_pccard.c **** 
 687:HALLIB/STM32F4xx_HAL_Driver/Src/stm32f4xx_hal_pccard.c **** #if (USE_HAL_PCCARD_REGISTER_CALLBACKS == 1)
 688:HALLIB/STM32F4xx_HAL_Driver/Src/stm32f4xx_hal_pccard.c **** /**
 689:HALLIB/STM32F4xx_HAL_Driver/Src/stm32f4xx_hal_pccard.c ****   * @brief  Register a User PCCARD Callback
 690:HALLIB/STM32F4xx_HAL_Driver/Src/stm32f4xx_hal_pccard.c ****   *         To be used instead of the weak (surcharged) predefined callback
 691:HALLIB/STM32F4xx_HAL_Driver/Src/stm32f4xx_hal_pccard.c ****   * @param hpccard : PCCARD handle
 692:HALLIB/STM32F4xx_HAL_Driver/Src/stm32f4xx_hal_pccard.c ****   * @param CallbackId : ID of the callback to be registered
 693:HALLIB/STM32F4xx_HAL_Driver/Src/stm32f4xx_hal_pccard.c ****   *        This parameter can be one of the following values:
 694:HALLIB/STM32F4xx_HAL_Driver/Src/stm32f4xx_hal_pccard.c ****   *          @arg @ref HAL_PCCARD_MSP_INIT_CB_ID       PCCARD MspInit callback ID
 695:HALLIB/STM32F4xx_HAL_Driver/Src/stm32f4xx_hal_pccard.c ****   *          @arg @ref HAL_PCCARD_MSP_DEINIT_CB_ID     PCCARD MspDeInit callback ID
 696:HALLIB/STM32F4xx_HAL_Driver/Src/stm32f4xx_hal_pccard.c ****   *          @arg @ref HAL_PCCARD_IT_CB_ID             PCCARD IT callback ID
 697:HALLIB/STM32F4xx_HAL_Driver/Src/stm32f4xx_hal_pccard.c ****   * @param pCallback : pointer to the Callback function
 698:HALLIB/STM32F4xx_HAL_Driver/Src/stm32f4xx_hal_pccard.c ****   * @retval status
 699:HALLIB/STM32F4xx_HAL_Driver/Src/stm32f4xx_hal_pccard.c ****   */
 700:HALLIB/STM32F4xx_HAL_Driver/Src/stm32f4xx_hal_pccard.c **** HAL_StatusTypeDef HAL_PCCARD_RegisterCallback (PCCARD_HandleTypeDef *hpccard, HAL_PCCARD_CallbackID
 701:HALLIB/STM32F4xx_HAL_Driver/Src/stm32f4xx_hal_pccard.c **** {
 702:HALLIB/STM32F4xx_HAL_Driver/Src/stm32f4xx_hal_pccard.c ****   HAL_StatusTypeDef status = HAL_OK;
 703:HALLIB/STM32F4xx_HAL_Driver/Src/stm32f4xx_hal_pccard.c **** 
 704:HALLIB/STM32F4xx_HAL_Driver/Src/stm32f4xx_hal_pccard.c ****   if(pCallback == NULL)
 705:HALLIB/STM32F4xx_HAL_Driver/Src/stm32f4xx_hal_pccard.c ****   {
 706:HALLIB/STM32F4xx_HAL_Driver/Src/stm32f4xx_hal_pccard.c ****     return HAL_ERROR;
 707:HALLIB/STM32F4xx_HAL_Driver/Src/stm32f4xx_hal_pccard.c ****   }
 708:HALLIB/STM32F4xx_HAL_Driver/Src/stm32f4xx_hal_pccard.c **** 
 709:HALLIB/STM32F4xx_HAL_Driver/Src/stm32f4xx_hal_pccard.c ****   /* Process locked */
 710:HALLIB/STM32F4xx_HAL_Driver/Src/stm32f4xx_hal_pccard.c ****   __HAL_LOCK(hpccard);
 711:HALLIB/STM32F4xx_HAL_Driver/Src/stm32f4xx_hal_pccard.c **** 
 712:HALLIB/STM32F4xx_HAL_Driver/Src/stm32f4xx_hal_pccard.c ****   if(hpccard->State == HAL_PCCARD_STATE_READY)
 713:HALLIB/STM32F4xx_HAL_Driver/Src/stm32f4xx_hal_pccard.c ****   {
 714:HALLIB/STM32F4xx_HAL_Driver/Src/stm32f4xx_hal_pccard.c ****     switch (CallbackId)
 715:HALLIB/STM32F4xx_HAL_Driver/Src/stm32f4xx_hal_pccard.c ****     {
 716:HALLIB/STM32F4xx_HAL_Driver/Src/stm32f4xx_hal_pccard.c ****     case HAL_PCCARD_MSP_INIT_CB_ID :
 717:HALLIB/STM32F4xx_HAL_Driver/Src/stm32f4xx_hal_pccard.c ****       hpccard->MspInitCallback = pCallback;
 718:HALLIB/STM32F4xx_HAL_Driver/Src/stm32f4xx_hal_pccard.c ****       break;
 719:HALLIB/STM32F4xx_HAL_Driver/Src/stm32f4xx_hal_pccard.c ****     case HAL_PCCARD_MSP_DEINIT_CB_ID :
 720:HALLIB/STM32F4xx_HAL_Driver/Src/stm32f4xx_hal_pccard.c ****       hpccard->MspDeInitCallback = pCallback;
 721:HALLIB/STM32F4xx_HAL_Driver/Src/stm32f4xx_hal_pccard.c ****       break;
 722:HALLIB/STM32F4xx_HAL_Driver/Src/stm32f4xx_hal_pccard.c ****     case HAL_PCCARD_IT_CB_ID :
 723:HALLIB/STM32F4xx_HAL_Driver/Src/stm32f4xx_hal_pccard.c ****       hpccard->ItCallback = pCallback;
 724:HALLIB/STM32F4xx_HAL_Driver/Src/stm32f4xx_hal_pccard.c ****       break;
 725:HALLIB/STM32F4xx_HAL_Driver/Src/stm32f4xx_hal_pccard.c ****     default :
 726:HALLIB/STM32F4xx_HAL_Driver/Src/stm32f4xx_hal_pccard.c ****       /* update return status */
 727:HALLIB/STM32F4xx_HAL_Driver/Src/stm32f4xx_hal_pccard.c ****       status =  HAL_ERROR;
 728:HALLIB/STM32F4xx_HAL_Driver/Src/stm32f4xx_hal_pccard.c ****       break;
 729:HALLIB/STM32F4xx_HAL_Driver/Src/stm32f4xx_hal_pccard.c ****     }
 730:HALLIB/STM32F4xx_HAL_Driver/Src/stm32f4xx_hal_pccard.c ****   }
 731:HALLIB/STM32F4xx_HAL_Driver/Src/stm32f4xx_hal_pccard.c ****   else if(hpccard->State == HAL_PCCARD_STATE_RESET)
 732:HALLIB/STM32F4xx_HAL_Driver/Src/stm32f4xx_hal_pccard.c ****   {
 733:HALLIB/STM32F4xx_HAL_Driver/Src/stm32f4xx_hal_pccard.c ****     switch (CallbackId)
 734:HALLIB/STM32F4xx_HAL_Driver/Src/stm32f4xx_hal_pccard.c ****     {
ARM GAS  /tmp/cccL9nWh.s 			page 35


 735:HALLIB/STM32F4xx_HAL_Driver/Src/stm32f4xx_hal_pccard.c ****     case HAL_PCCARD_MSP_INIT_CB_ID :
 736:HALLIB/STM32F4xx_HAL_Driver/Src/stm32f4xx_hal_pccard.c ****       hpccard->MspInitCallback = pCallback;
 737:HALLIB/STM32F4xx_HAL_Driver/Src/stm32f4xx_hal_pccard.c ****       break;
 738:HALLIB/STM32F4xx_HAL_Driver/Src/stm32f4xx_hal_pccard.c ****     case HAL_PCCARD_MSP_DEINIT_CB_ID :
 739:HALLIB/STM32F4xx_HAL_Driver/Src/stm32f4xx_hal_pccard.c ****       hpccard->MspDeInitCallback = pCallback;
 740:HALLIB/STM32F4xx_HAL_Driver/Src/stm32f4xx_hal_pccard.c ****       break;
 741:HALLIB/STM32F4xx_HAL_Driver/Src/stm32f4xx_hal_pccard.c ****     default :
 742:HALLIB/STM32F4xx_HAL_Driver/Src/stm32f4xx_hal_pccard.c ****       /* update return status */
 743:HALLIB/STM32F4xx_HAL_Driver/Src/stm32f4xx_hal_pccard.c ****       status =  HAL_ERROR;
 744:HALLIB/STM32F4xx_HAL_Driver/Src/stm32f4xx_hal_pccard.c ****       break;
 745:HALLIB/STM32F4xx_HAL_Driver/Src/stm32f4xx_hal_pccard.c ****     }
 746:HALLIB/STM32F4xx_HAL_Driver/Src/stm32f4xx_hal_pccard.c ****   }
 747:HALLIB/STM32F4xx_HAL_Driver/Src/stm32f4xx_hal_pccard.c ****   else
 748:HALLIB/STM32F4xx_HAL_Driver/Src/stm32f4xx_hal_pccard.c ****   {
 749:HALLIB/STM32F4xx_HAL_Driver/Src/stm32f4xx_hal_pccard.c ****     /* update return status */
 750:HALLIB/STM32F4xx_HAL_Driver/Src/stm32f4xx_hal_pccard.c ****     status =  HAL_ERROR;
 751:HALLIB/STM32F4xx_HAL_Driver/Src/stm32f4xx_hal_pccard.c ****   }
 752:HALLIB/STM32F4xx_HAL_Driver/Src/stm32f4xx_hal_pccard.c **** 
 753:HALLIB/STM32F4xx_HAL_Driver/Src/stm32f4xx_hal_pccard.c ****   /* Release Lock */
 754:HALLIB/STM32F4xx_HAL_Driver/Src/stm32f4xx_hal_pccard.c ****   __HAL_UNLOCK(hpccard);
 755:HALLIB/STM32F4xx_HAL_Driver/Src/stm32f4xx_hal_pccard.c ****   return status;
 756:HALLIB/STM32F4xx_HAL_Driver/Src/stm32f4xx_hal_pccard.c **** }
 757:HALLIB/STM32F4xx_HAL_Driver/Src/stm32f4xx_hal_pccard.c **** 
 758:HALLIB/STM32F4xx_HAL_Driver/Src/stm32f4xx_hal_pccard.c **** /**
 759:HALLIB/STM32F4xx_HAL_Driver/Src/stm32f4xx_hal_pccard.c ****   * @brief  Unregister a User PCCARD Callback
 760:HALLIB/STM32F4xx_HAL_Driver/Src/stm32f4xx_hal_pccard.c ****   *         PCCARD Callback is redirected to the weak (surcharged) predefined callback
 761:HALLIB/STM32F4xx_HAL_Driver/Src/stm32f4xx_hal_pccard.c ****   * @param hpccard : PCCARD handle
 762:HALLIB/STM32F4xx_HAL_Driver/Src/stm32f4xx_hal_pccard.c ****   * @param CallbackId : ID of the callback to be unregistered
 763:HALLIB/STM32F4xx_HAL_Driver/Src/stm32f4xx_hal_pccard.c ****   *        This parameter can be one of the following values:
 764:HALLIB/STM32F4xx_HAL_Driver/Src/stm32f4xx_hal_pccard.c ****   *          @arg @ref HAL_PCCARD_MSP_INIT_CB_ID       PCCARD MspInit callback ID
 765:HALLIB/STM32F4xx_HAL_Driver/Src/stm32f4xx_hal_pccard.c ****   *          @arg @ref HAL_PCCARD_MSP_DEINIT_CB_ID     PCCARD MspDeInit callback ID
 766:HALLIB/STM32F4xx_HAL_Driver/Src/stm32f4xx_hal_pccard.c ****   *          @arg @ref HAL_PCCARD_IT_CB_ID             PCCARD IT callback ID
 767:HALLIB/STM32F4xx_HAL_Driver/Src/stm32f4xx_hal_pccard.c ****   * @retval status
 768:HALLIB/STM32F4xx_HAL_Driver/Src/stm32f4xx_hal_pccard.c ****   */
 769:HALLIB/STM32F4xx_HAL_Driver/Src/stm32f4xx_hal_pccard.c **** HAL_StatusTypeDef HAL_PCCARD_UnRegisterCallback (PCCARD_HandleTypeDef *hpccard, HAL_PCCARD_Callback
 770:HALLIB/STM32F4xx_HAL_Driver/Src/stm32f4xx_hal_pccard.c **** {
 771:HALLIB/STM32F4xx_HAL_Driver/Src/stm32f4xx_hal_pccard.c ****   HAL_StatusTypeDef status = HAL_OK;
 772:HALLIB/STM32F4xx_HAL_Driver/Src/stm32f4xx_hal_pccard.c **** 
 773:HALLIB/STM32F4xx_HAL_Driver/Src/stm32f4xx_hal_pccard.c ****   /* Process locked */
 774:HALLIB/STM32F4xx_HAL_Driver/Src/stm32f4xx_hal_pccard.c ****   __HAL_LOCK(hpccard);
 775:HALLIB/STM32F4xx_HAL_Driver/Src/stm32f4xx_hal_pccard.c **** 
 776:HALLIB/STM32F4xx_HAL_Driver/Src/stm32f4xx_hal_pccard.c ****   if(hpccard->State == HAL_PCCARD_STATE_READY)
 777:HALLIB/STM32F4xx_HAL_Driver/Src/stm32f4xx_hal_pccard.c ****   {
 778:HALLIB/STM32F4xx_HAL_Driver/Src/stm32f4xx_hal_pccard.c ****     switch (CallbackId)
 779:HALLIB/STM32F4xx_HAL_Driver/Src/stm32f4xx_hal_pccard.c ****     {
 780:HALLIB/STM32F4xx_HAL_Driver/Src/stm32f4xx_hal_pccard.c ****     case HAL_PCCARD_MSP_INIT_CB_ID :
 781:HALLIB/STM32F4xx_HAL_Driver/Src/stm32f4xx_hal_pccard.c ****       hpccard->MspInitCallback = HAL_PCCARD_MspInit;
 782:HALLIB/STM32F4xx_HAL_Driver/Src/stm32f4xx_hal_pccard.c ****       break;
 783:HALLIB/STM32F4xx_HAL_Driver/Src/stm32f4xx_hal_pccard.c ****     case HAL_PCCARD_MSP_DEINIT_CB_ID :
 784:HALLIB/STM32F4xx_HAL_Driver/Src/stm32f4xx_hal_pccard.c ****       hpccard->MspDeInitCallback = HAL_PCCARD_MspDeInit;
 785:HALLIB/STM32F4xx_HAL_Driver/Src/stm32f4xx_hal_pccard.c ****       break;
 786:HALLIB/STM32F4xx_HAL_Driver/Src/stm32f4xx_hal_pccard.c ****     case HAL_PCCARD_IT_CB_ID :
 787:HALLIB/STM32F4xx_HAL_Driver/Src/stm32f4xx_hal_pccard.c ****       hpccard->ItCallback = HAL_PCCARD_ITCallback;
 788:HALLIB/STM32F4xx_HAL_Driver/Src/stm32f4xx_hal_pccard.c ****       break;
 789:HALLIB/STM32F4xx_HAL_Driver/Src/stm32f4xx_hal_pccard.c ****     default :
 790:HALLIB/STM32F4xx_HAL_Driver/Src/stm32f4xx_hal_pccard.c ****       /* update return status */
 791:HALLIB/STM32F4xx_HAL_Driver/Src/stm32f4xx_hal_pccard.c ****       status =  HAL_ERROR;
ARM GAS  /tmp/cccL9nWh.s 			page 36


 792:HALLIB/STM32F4xx_HAL_Driver/Src/stm32f4xx_hal_pccard.c ****       break;
 793:HALLIB/STM32F4xx_HAL_Driver/Src/stm32f4xx_hal_pccard.c ****     }
 794:HALLIB/STM32F4xx_HAL_Driver/Src/stm32f4xx_hal_pccard.c ****   }
 795:HALLIB/STM32F4xx_HAL_Driver/Src/stm32f4xx_hal_pccard.c ****   else if(hpccard->State == HAL_PCCARD_STATE_RESET)
 796:HALLIB/STM32F4xx_HAL_Driver/Src/stm32f4xx_hal_pccard.c ****   {
 797:HALLIB/STM32F4xx_HAL_Driver/Src/stm32f4xx_hal_pccard.c ****     switch (CallbackId)
 798:HALLIB/STM32F4xx_HAL_Driver/Src/stm32f4xx_hal_pccard.c ****     {
 799:HALLIB/STM32F4xx_HAL_Driver/Src/stm32f4xx_hal_pccard.c ****     case HAL_PCCARD_MSP_INIT_CB_ID :
 800:HALLIB/STM32F4xx_HAL_Driver/Src/stm32f4xx_hal_pccard.c ****       hpccard->MspInitCallback = HAL_PCCARD_MspInit;
 801:HALLIB/STM32F4xx_HAL_Driver/Src/stm32f4xx_hal_pccard.c ****       break;
 802:HALLIB/STM32F4xx_HAL_Driver/Src/stm32f4xx_hal_pccard.c ****     case HAL_PCCARD_MSP_DEINIT_CB_ID :
 803:HALLIB/STM32F4xx_HAL_Driver/Src/stm32f4xx_hal_pccard.c ****       hpccard->MspDeInitCallback = HAL_PCCARD_MspDeInit;
 804:HALLIB/STM32F4xx_HAL_Driver/Src/stm32f4xx_hal_pccard.c ****       break;
 805:HALLIB/STM32F4xx_HAL_Driver/Src/stm32f4xx_hal_pccard.c ****     default :
 806:HALLIB/STM32F4xx_HAL_Driver/Src/stm32f4xx_hal_pccard.c ****       /* update return status */
 807:HALLIB/STM32F4xx_HAL_Driver/Src/stm32f4xx_hal_pccard.c ****       status =  HAL_ERROR;
 808:HALLIB/STM32F4xx_HAL_Driver/Src/stm32f4xx_hal_pccard.c ****       break;
 809:HALLIB/STM32F4xx_HAL_Driver/Src/stm32f4xx_hal_pccard.c ****     }
 810:HALLIB/STM32F4xx_HAL_Driver/Src/stm32f4xx_hal_pccard.c ****   }
 811:HALLIB/STM32F4xx_HAL_Driver/Src/stm32f4xx_hal_pccard.c ****   else
 812:HALLIB/STM32F4xx_HAL_Driver/Src/stm32f4xx_hal_pccard.c ****   {
 813:HALLIB/STM32F4xx_HAL_Driver/Src/stm32f4xx_hal_pccard.c ****     /* update return status */
 814:HALLIB/STM32F4xx_HAL_Driver/Src/stm32f4xx_hal_pccard.c ****     status =  HAL_ERROR;
 815:HALLIB/STM32F4xx_HAL_Driver/Src/stm32f4xx_hal_pccard.c ****   }
 816:HALLIB/STM32F4xx_HAL_Driver/Src/stm32f4xx_hal_pccard.c **** 
 817:HALLIB/STM32F4xx_HAL_Driver/Src/stm32f4xx_hal_pccard.c ****   /* Release Lock */
 818:HALLIB/STM32F4xx_HAL_Driver/Src/stm32f4xx_hal_pccard.c ****   __HAL_UNLOCK(hpccard);
 819:HALLIB/STM32F4xx_HAL_Driver/Src/stm32f4xx_hal_pccard.c ****   return status;
 820:HALLIB/STM32F4xx_HAL_Driver/Src/stm32f4xx_hal_pccard.c **** }
 821:HALLIB/STM32F4xx_HAL_Driver/Src/stm32f4xx_hal_pccard.c **** #endif
 822:HALLIB/STM32F4xx_HAL_Driver/Src/stm32f4xx_hal_pccard.c **** 
 823:HALLIB/STM32F4xx_HAL_Driver/Src/stm32f4xx_hal_pccard.c **** /**
 824:HALLIB/STM32F4xx_HAL_Driver/Src/stm32f4xx_hal_pccard.c ****   * @}
 825:HALLIB/STM32F4xx_HAL_Driver/Src/stm32f4xx_hal_pccard.c ****   */
 826:HALLIB/STM32F4xx_HAL_Driver/Src/stm32f4xx_hal_pccard.c **** 
 827:HALLIB/STM32F4xx_HAL_Driver/Src/stm32f4xx_hal_pccard.c **** /** @defgroup PCCARD_Exported_Functions_Group3 State functions 
 828:HALLIB/STM32F4xx_HAL_Driver/Src/stm32f4xx_hal_pccard.c ****  *  @brief   Peripheral State functions 
 829:HALLIB/STM32F4xx_HAL_Driver/Src/stm32f4xx_hal_pccard.c ****  *
 830:HALLIB/STM32F4xx_HAL_Driver/Src/stm32f4xx_hal_pccard.c **** @verbatim   
 831:HALLIB/STM32F4xx_HAL_Driver/Src/stm32f4xx_hal_pccard.c ****   ==============================================================================
 832:HALLIB/STM32F4xx_HAL_Driver/Src/stm32f4xx_hal_pccard.c ****                       ##### PCCARD State functions #####
 833:HALLIB/STM32F4xx_HAL_Driver/Src/stm32f4xx_hal_pccard.c ****   ==============================================================================  
 834:HALLIB/STM32F4xx_HAL_Driver/Src/stm32f4xx_hal_pccard.c ****   [..]
 835:HALLIB/STM32F4xx_HAL_Driver/Src/stm32f4xx_hal_pccard.c ****     This subsection permits to get in run-time the status of the PCCARD controller 
 836:HALLIB/STM32F4xx_HAL_Driver/Src/stm32f4xx_hal_pccard.c ****     and the data flow.
 837:HALLIB/STM32F4xx_HAL_Driver/Src/stm32f4xx_hal_pccard.c **** 
 838:HALLIB/STM32F4xx_HAL_Driver/Src/stm32f4xx_hal_pccard.c **** @endverbatim
 839:HALLIB/STM32F4xx_HAL_Driver/Src/stm32f4xx_hal_pccard.c ****   * @{
 840:HALLIB/STM32F4xx_HAL_Driver/Src/stm32f4xx_hal_pccard.c ****   */ 
 841:HALLIB/STM32F4xx_HAL_Driver/Src/stm32f4xx_hal_pccard.c ****   
 842:HALLIB/STM32F4xx_HAL_Driver/Src/stm32f4xx_hal_pccard.c **** /**
 843:HALLIB/STM32F4xx_HAL_Driver/Src/stm32f4xx_hal_pccard.c ****   * @brief  return the PCCARD controller state
 844:HALLIB/STM32F4xx_HAL_Driver/Src/stm32f4xx_hal_pccard.c ****   * @param  hpccard pointer to a PCCARD_HandleTypeDef structure that contains
 845:HALLIB/STM32F4xx_HAL_Driver/Src/stm32f4xx_hal_pccard.c ****   *                the configuration information for PCCARD module.
 846:HALLIB/STM32F4xx_HAL_Driver/Src/stm32f4xx_hal_pccard.c ****   * @retval HAL state
 847:HALLIB/STM32F4xx_HAL_Driver/Src/stm32f4xx_hal_pccard.c ****   */
 848:HALLIB/STM32F4xx_HAL_Driver/Src/stm32f4xx_hal_pccard.c **** HAL_PCCARD_StateTypeDef HAL_PCCARD_GetState(PCCARD_HandleTypeDef *hpccard)
ARM GAS  /tmp/cccL9nWh.s 			page 37


 849:HALLIB/STM32F4xx_HAL_Driver/Src/stm32f4xx_hal_pccard.c **** {
 1138              		.loc 1 849 1 is_stmt 1 view -0
 1139              		.cfi_startproc
 1140              		@ args = 0, pretend = 0, frame = 0
 1141              		@ frame_needed = 0, uses_anonymous_args = 0
 1142              		@ link register save eliminated.
 850:HALLIB/STM32F4xx_HAL_Driver/Src/stm32f4xx_hal_pccard.c ****   return hpccard->State;
 1143              		.loc 1 850 3 view .LVU342
 1144              		.loc 1 850 17 is_stmt 0 view .LVU343
 1145 0000 007C     		ldrb	r0, [r0, #16]	@ zero_extendqisi2
 1146              	.LVL96:
 851:HALLIB/STM32F4xx_HAL_Driver/Src/stm32f4xx_hal_pccard.c **** }  
 1147              		.loc 1 851 1 view .LVU344
 1148 0002 7047     		bx	lr
 1149              		.cfi_endproc
 1150              	.LFE143:
 1152              		.section	.text.HAL_PCCARD_GetStatus,"ax",%progbits
 1153              		.align	1
 1154              		.global	HAL_PCCARD_GetStatus
 1155              		.syntax unified
 1156              		.thumb
 1157              		.thumb_func
 1158              		.fpu fpv4-sp-d16
 1160              	HAL_PCCARD_GetStatus:
 1161              	.LVL97:
 1162              	.LFB144:
 852:HALLIB/STM32F4xx_HAL_Driver/Src/stm32f4xx_hal_pccard.c ****  
 853:HALLIB/STM32F4xx_HAL_Driver/Src/stm32f4xx_hal_pccard.c **** /**
 854:HALLIB/STM32F4xx_HAL_Driver/Src/stm32f4xx_hal_pccard.c ****   * @brief  Get the compact flash memory status
 855:HALLIB/STM32F4xx_HAL_Driver/Src/stm32f4xx_hal_pccard.c ****   * @param  hpccard pointer to a PCCARD_HandleTypeDef structure that contains
 856:HALLIB/STM32F4xx_HAL_Driver/Src/stm32f4xx_hal_pccard.c ****   *                the configuration information for PCCARD module.       
 857:HALLIB/STM32F4xx_HAL_Driver/Src/stm32f4xx_hal_pccard.c ****   * @retval New status of the PCCARD operation. This parameter can be:
 858:HALLIB/STM32F4xx_HAL_Driver/Src/stm32f4xx_hal_pccard.c ****   *          - CompactFlash_TIMEOUT_ERROR: when the previous operation generate 
 859:HALLIB/STM32F4xx_HAL_Driver/Src/stm32f4xx_hal_pccard.c ****   *            a Timeout error
 860:HALLIB/STM32F4xx_HAL_Driver/Src/stm32f4xx_hal_pccard.c ****   *          - CompactFlash_READY: when memory is ready for the next operation          
 861:HALLIB/STM32F4xx_HAL_Driver/Src/stm32f4xx_hal_pccard.c ****   */
 862:HALLIB/STM32F4xx_HAL_Driver/Src/stm32f4xx_hal_pccard.c **** HAL_PCCARD_StatusTypeDef HAL_PCCARD_GetStatus(PCCARD_HandleTypeDef *hpccard)
 863:HALLIB/STM32F4xx_HAL_Driver/Src/stm32f4xx_hal_pccard.c **** {
 1163              		.loc 1 863 1 is_stmt 1 view -0
 1164              		.cfi_startproc
 1165              		@ args = 0, pretend = 0, frame = 0
 1166              		@ frame_needed = 0, uses_anonymous_args = 0
 1167              		@ link register save eliminated.
 864:HALLIB/STM32F4xx_HAL_Driver/Src/stm32f4xx_hal_pccard.c ****   uint32_t timeout = PCCARD_TIMEOUT_STATUS, status_pccard = 0U;  
 1168              		.loc 1 864 3 view .LVU346
 865:HALLIB/STM32F4xx_HAL_Driver/Src/stm32f4xx_hal_pccard.c ****   
 866:HALLIB/STM32F4xx_HAL_Driver/Src/stm32f4xx_hal_pccard.c ****   /* Check the PCCARD controller state */
 867:HALLIB/STM32F4xx_HAL_Driver/Src/stm32f4xx_hal_pccard.c ****   if(hpccard->State == HAL_PCCARD_STATE_BUSY)
 1169              		.loc 1 867 3 view .LVU347
 1170              		.loc 1 867 13 is_stmt 0 view .LVU348
 1171 0000 037C     		ldrb	r3, [r0, #16]	@ zero_extendqisi2
 1172 0002 DBB2     		uxtb	r3, r3
 1173              		.loc 1 867 5 view .LVU349
 1174 0004 022B     		cmp	r3, #2
 1175 0006 10D0     		beq	.L94
 868:HALLIB/STM32F4xx_HAL_Driver/Src/stm32f4xx_hal_pccard.c ****   {
 869:HALLIB/STM32F4xx_HAL_Driver/Src/stm32f4xx_hal_pccard.c ****      return HAL_PCCARD_STATUS_ONGOING;
ARM GAS  /tmp/cccL9nWh.s 			page 38


 870:HALLIB/STM32F4xx_HAL_Driver/Src/stm32f4xx_hal_pccard.c ****   }
 871:HALLIB/STM32F4xx_HAL_Driver/Src/stm32f4xx_hal_pccard.c **** 
 872:HALLIB/STM32F4xx_HAL_Driver/Src/stm32f4xx_hal_pccard.c ****   status_pccard =  *(__IO uint8_t *)(PCCARD_IO_SPACE_PRIMARY_ADDR | ATA_STATUS_CMD_ALTERNATE);
 1176              		.loc 1 872 3 is_stmt 1 view .LVU350
 1177              		.loc 1 872 20 is_stmt 0 view .LVU351
 1178 0008 094B     		ldr	r3, .L96
 1179 000a 1878     		ldrb	r0, [r3]	@ zero_extendqisi2
 1180              	.LVL98:
 1181              		.loc 1 872 20 view .LVU352
 1182 000c C0B2     		uxtb	r0, r0
 1183              	.LVL99:
 873:HALLIB/STM32F4xx_HAL_Driver/Src/stm32f4xx_hal_pccard.c ****   
 874:HALLIB/STM32F4xx_HAL_Driver/Src/stm32f4xx_hal_pccard.c ****   while((status_pccard == PCCARD_BUSY) && timeout)
 1184              		.loc 1 874 3 is_stmt 1 view .LVU353
 864:HALLIB/STM32F4xx_HAL_Driver/Src/stm32f4xx_hal_pccard.c ****   
 1185              		.loc 1 864 12 is_stmt 0 view .LVU354
 1186 000e 4FF08073 		mov	r3, #16777216
 1187              	.LVL100:
 1188              	.L90:
 1189              		.loc 1 874 8 is_stmt 1 view .LVU355
 1190 0012 8028     		cmp	r0, #128
 1191 0014 05D1     		bne	.L91
 1192              		.loc 1 874 40 is_stmt 0 discriminator 1 view .LVU356
 1193 0016 23B1     		cbz	r3, .L91
 875:HALLIB/STM32F4xx_HAL_Driver/Src/stm32f4xx_hal_pccard.c ****   {
 876:HALLIB/STM32F4xx_HAL_Driver/Src/stm32f4xx_hal_pccard.c ****     status_pccard =  *(__IO uint8_t *)(PCCARD_IO_SPACE_PRIMARY_ADDR | ATA_STATUS_CMD_ALTERNATE);
 1194              		.loc 1 876 5 is_stmt 1 view .LVU357
 1195              		.loc 1 876 22 is_stmt 0 view .LVU358
 1196 0018 054A     		ldr	r2, .L96
 1197 001a 1078     		ldrb	r0, [r2]	@ zero_extendqisi2
 1198              	.LVL101:
 1199              		.loc 1 876 22 view .LVU359
 1200 001c C0B2     		uxtb	r0, r0
 1201              	.LVL102:
 877:HALLIB/STM32F4xx_HAL_Driver/Src/stm32f4xx_hal_pccard.c ****     timeout--;
 1202              		.loc 1 877 5 is_stmt 1 view .LVU360
 1203              		.loc 1 877 12 is_stmt 0 view .LVU361
 1204 001e 013B     		subs	r3, r3, #1
 1205              	.LVL103:
 1206              		.loc 1 877 12 view .LVU362
 1207 0020 F7E7     		b	.L90
 1208              	.L91:
 878:HALLIB/STM32F4xx_HAL_Driver/Src/stm32f4xx_hal_pccard.c ****   }
 879:HALLIB/STM32F4xx_HAL_Driver/Src/stm32f4xx_hal_pccard.c **** 
 880:HALLIB/STM32F4xx_HAL_Driver/Src/stm32f4xx_hal_pccard.c ****   if(timeout == 0U)
 1209              		.loc 1 880 3 is_stmt 1 view .LVU363
 1210              		.loc 1 880 5 is_stmt 0 view .LVU364
 1211 0022 03B9     		cbnz	r3, .L93
 881:HALLIB/STM32F4xx_HAL_Driver/Src/stm32f4xx_hal_pccard.c ****   {          
 882:HALLIB/STM32F4xx_HAL_Driver/Src/stm32f4xx_hal_pccard.c ****     status_pccard =  PCCARD_TIMEOUT_ERROR;      
 1212              		.loc 1 882 19 view .LVU365
 1213 0024 6020     		movs	r0, #96
 1214              	.LVL104:
 1215              	.L93:
 883:HALLIB/STM32F4xx_HAL_Driver/Src/stm32f4xx_hal_pccard.c ****   }   
 884:HALLIB/STM32F4xx_HAL_Driver/Src/stm32f4xx_hal_pccard.c **** 
 885:HALLIB/STM32F4xx_HAL_Driver/Src/stm32f4xx_hal_pccard.c ****   /* Return the operation status */
ARM GAS  /tmp/cccL9nWh.s 			page 39


 886:HALLIB/STM32F4xx_HAL_Driver/Src/stm32f4xx_hal_pccard.c ****   return (HAL_PCCARD_StatusTypeDef) status_pccard;      
 1216              		.loc 1 886 3 is_stmt 1 view .LVU366
 1217              		.loc 1 886 10 is_stmt 0 view .LVU367
 1218 0026 C0B2     		uxtb	r0, r0
 1219              	.LVL105:
 1220              		.loc 1 886 10 view .LVU368
 1221 0028 7047     		bx	lr
 1222              	.LVL106:
 1223              	.L94:
 869:HALLIB/STM32F4xx_HAL_Driver/Src/stm32f4xx_hal_pccard.c ****   }
 1224              		.loc 1 869 13 view .LVU369
 1225 002a 0120     		movs	r0, #1
 1226              	.LVL107:
 887:HALLIB/STM32F4xx_HAL_Driver/Src/stm32f4xx_hal_pccard.c **** }
 1227              		.loc 1 887 1 view .LVU370
 1228 002c 7047     		bx	lr
 1229              	.L97:
 1230 002e 00BF     		.align	2
 1231              	.L96:
 1232 0030 FE01009C 		.word	-1677721090
 1233              		.cfi_endproc
 1234              	.LFE144:
 1236              		.section	.text.HAL_PCCARD_ReadStatus,"ax",%progbits
 1237              		.align	1
 1238              		.global	HAL_PCCARD_ReadStatus
 1239              		.syntax unified
 1240              		.thumb
 1241              		.thumb_func
 1242              		.fpu fpv4-sp-d16
 1244              	HAL_PCCARD_ReadStatus:
 1245              	.LVL108:
 1246              	.LFB145:
 888:HALLIB/STM32F4xx_HAL_Driver/Src/stm32f4xx_hal_pccard.c ****   
 889:HALLIB/STM32F4xx_HAL_Driver/Src/stm32f4xx_hal_pccard.c **** /**
 890:HALLIB/STM32F4xx_HAL_Driver/Src/stm32f4xx_hal_pccard.c ****   * @brief  Reads the Compact Flash memory status using the Read status command
 891:HALLIB/STM32F4xx_HAL_Driver/Src/stm32f4xx_hal_pccard.c ****   * @param  hpccard pointer to a PCCARD_HandleTypeDef structure that contains
 892:HALLIB/STM32F4xx_HAL_Driver/Src/stm32f4xx_hal_pccard.c ****   *                the configuration information for PCCARD module.      
 893:HALLIB/STM32F4xx_HAL_Driver/Src/stm32f4xx_hal_pccard.c ****   * @retval The status of the Compact Flash memory. This parameter can be:
 894:HALLIB/STM32F4xx_HAL_Driver/Src/stm32f4xx_hal_pccard.c ****   *          - CompactFlash_BUSY: when memory is busy
 895:HALLIB/STM32F4xx_HAL_Driver/Src/stm32f4xx_hal_pccard.c ****   *          - CompactFlash_READY: when memory is ready for the next operation    
 896:HALLIB/STM32F4xx_HAL_Driver/Src/stm32f4xx_hal_pccard.c ****   *          - CompactFlash_ERROR: when the previous operation generates error                
 897:HALLIB/STM32F4xx_HAL_Driver/Src/stm32f4xx_hal_pccard.c ****   */
 898:HALLIB/STM32F4xx_HAL_Driver/Src/stm32f4xx_hal_pccard.c **** HAL_PCCARD_StatusTypeDef HAL_PCCARD_ReadStatus(PCCARD_HandleTypeDef *hpccard)
 899:HALLIB/STM32F4xx_HAL_Driver/Src/stm32f4xx_hal_pccard.c **** {
 1247              		.loc 1 899 1 is_stmt 1 view -0
 1248              		.cfi_startproc
 1249              		@ args = 0, pretend = 0, frame = 0
 1250              		@ frame_needed = 0, uses_anonymous_args = 0
 1251              		@ link register save eliminated.
 900:HALLIB/STM32F4xx_HAL_Driver/Src/stm32f4xx_hal_pccard.c ****   uint8_t data = 0U, status_pccard = PCCARD_BUSY;
 1252              		.loc 1 900 3 view .LVU372
 901:HALLIB/STM32F4xx_HAL_Driver/Src/stm32f4xx_hal_pccard.c ****   
 902:HALLIB/STM32F4xx_HAL_Driver/Src/stm32f4xx_hal_pccard.c ****   /* Check the PCCARD controller state */
 903:HALLIB/STM32F4xx_HAL_Driver/Src/stm32f4xx_hal_pccard.c ****   if(hpccard->State == HAL_PCCARD_STATE_BUSY)
 1253              		.loc 1 903 3 view .LVU373
 1254              		.loc 1 903 13 is_stmt 0 view .LVU374
 1255 0000 037C     		ldrb	r3, [r0, #16]	@ zero_extendqisi2
ARM GAS  /tmp/cccL9nWh.s 			page 40


 1256 0002 DBB2     		uxtb	r3, r3
 1257              		.loc 1 903 5 view .LVU375
 1258 0004 022B     		cmp	r3, #2
 1259 0006 0BD0     		beq	.L100
 904:HALLIB/STM32F4xx_HAL_Driver/Src/stm32f4xx_hal_pccard.c ****   {
 905:HALLIB/STM32F4xx_HAL_Driver/Src/stm32f4xx_hal_pccard.c ****      return HAL_PCCARD_STATUS_ONGOING;
 906:HALLIB/STM32F4xx_HAL_Driver/Src/stm32f4xx_hal_pccard.c ****   } 
 907:HALLIB/STM32F4xx_HAL_Driver/Src/stm32f4xx_hal_pccard.c **** 
 908:HALLIB/STM32F4xx_HAL_Driver/Src/stm32f4xx_hal_pccard.c ****   /* Read status operation */
 909:HALLIB/STM32F4xx_HAL_Driver/Src/stm32f4xx_hal_pccard.c ****   data =  *(__IO uint8_t *)(PCCARD_IO_SPACE_PRIMARY_ADDR | ATA_STATUS_CMD_ALTERNATE);
 1260              		.loc 1 909 3 is_stmt 1 view .LVU376
 1261              		.loc 1 909 8 is_stmt 0 view .LVU377
 1262 0008 074B     		ldr	r3, .L102
 1263 000a 1878     		ldrb	r0, [r3]	@ zero_extendqisi2
 1264              	.LVL109:
 1265              		.loc 1 909 8 view .LVU378
 1266 000c C3B2     		uxtb	r3, r0
 1267              	.LVL110:
 910:HALLIB/STM32F4xx_HAL_Driver/Src/stm32f4xx_hal_pccard.c **** 
 911:HALLIB/STM32F4xx_HAL_Driver/Src/stm32f4xx_hal_pccard.c ****   if((data & PCCARD_TIMEOUT_ERROR) == PCCARD_TIMEOUT_ERROR)
 1268              		.loc 1 911 3 is_stmt 1 view .LVU379
 1269 000e 00F06000 		and	r0, r0, #96
 1270              		.loc 1 911 5 is_stmt 0 view .LVU380
 1271 0012 6028     		cmp	r0, #96
 1272 0014 07D0     		beq	.L99
 912:HALLIB/STM32F4xx_HAL_Driver/Src/stm32f4xx_hal_pccard.c ****   {
 913:HALLIB/STM32F4xx_HAL_Driver/Src/stm32f4xx_hal_pccard.c ****     status_pccard = PCCARD_TIMEOUT_ERROR;
 914:HALLIB/STM32F4xx_HAL_Driver/Src/stm32f4xx_hal_pccard.c ****   } 
 915:HALLIB/STM32F4xx_HAL_Driver/Src/stm32f4xx_hal_pccard.c ****   else if((data & PCCARD_READY) == PCCARD_READY)
 1273              		.loc 1 915 8 is_stmt 1 view .LVU381
 1274              		.loc 1 915 10 is_stmt 0 view .LVU382
 1275 0016 13F0400F 		tst	r3, #64
 1276 001a 03D1     		bne	.L101
 900:HALLIB/STM32F4xx_HAL_Driver/Src/stm32f4xx_hal_pccard.c ****   
 1277              		.loc 1 900 22 view .LVU383
 1278 001c 8020     		movs	r0, #128
 1279 001e 7047     		bx	lr
 1280              	.LVL111:
 1281              	.L100:
 905:HALLIB/STM32F4xx_HAL_Driver/Src/stm32f4xx_hal_pccard.c ****   } 
 1282              		.loc 1 905 13 view .LVU384
 1283 0020 0120     		movs	r0, #1
 1284              	.LVL112:
 905:HALLIB/STM32F4xx_HAL_Driver/Src/stm32f4xx_hal_pccard.c ****   } 
 1285              		.loc 1 905 13 view .LVU385
 1286 0022 7047     		bx	lr
 1287              	.LVL113:
 1288              	.L101:
 916:HALLIB/STM32F4xx_HAL_Driver/Src/stm32f4xx_hal_pccard.c ****   {
 917:HALLIB/STM32F4xx_HAL_Driver/Src/stm32f4xx_hal_pccard.c ****     status_pccard = PCCARD_READY;
 1289              		.loc 1 917 19 view .LVU386
 1290 0024 4020     		movs	r0, #64
 1291              	.L99:
 1292              	.LVL114:
 918:HALLIB/STM32F4xx_HAL_Driver/Src/stm32f4xx_hal_pccard.c ****   }
 919:HALLIB/STM32F4xx_HAL_Driver/Src/stm32f4xx_hal_pccard.c ****   
 920:HALLIB/STM32F4xx_HAL_Driver/Src/stm32f4xx_hal_pccard.c ****   return (HAL_PCCARD_StatusTypeDef) status_pccard;
ARM GAS  /tmp/cccL9nWh.s 			page 41


 921:HALLIB/STM32F4xx_HAL_Driver/Src/stm32f4xx_hal_pccard.c **** }  
 1293              		.loc 1 921 1 view .LVU387
 1294 0026 7047     		bx	lr
 1295              	.L103:
 1296              		.align	2
 1297              	.L102:
 1298 0028 FE01009C 		.word	-1677721090
 1299              		.cfi_endproc
 1300              	.LFE145:
 1302              		.text
 1303              	.Letext0:
 1304              		.file 2 "/opt/gcc_arm/gcc-arm-none-eabi-9-2019-q4-major/arm-none-eabi/include/machine/_default_typ
 1305              		.file 3 "/opt/gcc_arm/gcc-arm-none-eabi-9-2019-q4-major/arm-none-eabi/include/sys/_stdint.h"
 1306              		.file 4 "CORE/core_cm4.h"
 1307              		.file 5 "USER/system_stm32f4xx.h"
 1308              		.file 6 "USER/stm32f407xx.h"
 1309              		.file 7 "HALLIB/STM32F4xx_HAL_Driver/Inc/stm32f4xx_hal_def.h"
 1310              		.file 8 "HALLIB/STM32F4xx_HAL_Driver/Inc/stm32f4xx_ll_fsmc.h"
 1311              		.file 9 "HALLIB/STM32F4xx_HAL_Driver/Inc/stm32f4xx_hal_pccard.h"
ARM GAS  /tmp/cccL9nWh.s 			page 42

