ARM GAS  /tmp/ccrNs9nx.s 			page 1


   1              		.cpu cortex-m4
   2              		.eabi_attribute 27, 1
   3              		.eabi_attribute 28, 1
   4              		.eabi_attribute 20, 1
   5              		.eabi_attribute 21, 1
   6              		.eabi_attribute 23, 3
   7              		.eabi_attribute 24, 1
   8              		.eabi_attribute 25, 1
   9              		.eabi_attribute 26, 1
  10              		.eabi_attribute 30, 1
  11              		.eabi_attribute 34, 1
  12              		.eabi_attribute 18, 4
  13              		.file	"stm32f4xx_hal_rng.c"
  14              		.text
  15              	.Ltext0:
  16              		.cfi_sections	.debug_frame
  17              		.section	.text.HAL_RNG_MspInit,"ax",%progbits
  18              		.align	1
  19              		.weak	HAL_RNG_MspInit
  20              		.arch armv7e-m
  21              		.syntax unified
  22              		.thumb
  23              		.thumb_func
  24              		.fpu fpv4-sp-d16
  26              	HAL_RNG_MspInit:
  27              	.LVL0:
  28              	.LFB241:
  29              		.file 1 "stm32f4xx-hal-driver/Src/stm32f4xx_hal_rng.c"
   1:stm32f4xx-hal-driver/Src/stm32f4xx_hal_rng.c **** /**
   2:stm32f4xx-hal-driver/Src/stm32f4xx_hal_rng.c ****   ******************************************************************************
   3:stm32f4xx-hal-driver/Src/stm32f4xx_hal_rng.c ****   * @file    stm32f4xx_hal_rng.c
   4:stm32f4xx-hal-driver/Src/stm32f4xx_hal_rng.c ****   * @author  MCD Application Team
   5:stm32f4xx-hal-driver/Src/stm32f4xx_hal_rng.c ****   * @brief   RNG HAL module driver.
   6:stm32f4xx-hal-driver/Src/stm32f4xx_hal_rng.c ****   *          This file provides firmware functions to manage the following
   7:stm32f4xx-hal-driver/Src/stm32f4xx_hal_rng.c ****   *          functionalities of the Random Number Generator (RNG) peripheral:
   8:stm32f4xx-hal-driver/Src/stm32f4xx_hal_rng.c ****   *           + Initialization and configuration functions
   9:stm32f4xx-hal-driver/Src/stm32f4xx_hal_rng.c ****   *           + Peripheral Control functions
  10:stm32f4xx-hal-driver/Src/stm32f4xx_hal_rng.c ****   *           + Peripheral State functions
  11:stm32f4xx-hal-driver/Src/stm32f4xx_hal_rng.c ****   *
  12:stm32f4xx-hal-driver/Src/stm32f4xx_hal_rng.c ****   ******************************************************************************
  13:stm32f4xx-hal-driver/Src/stm32f4xx_hal_rng.c ****   * @attention
  14:stm32f4xx-hal-driver/Src/stm32f4xx_hal_rng.c ****   *
  15:stm32f4xx-hal-driver/Src/stm32f4xx_hal_rng.c ****   * Copyright (c) 2016 STMicroelectronics.
  16:stm32f4xx-hal-driver/Src/stm32f4xx_hal_rng.c ****   * All rights reserved.
  17:stm32f4xx-hal-driver/Src/stm32f4xx_hal_rng.c ****   *
  18:stm32f4xx-hal-driver/Src/stm32f4xx_hal_rng.c ****   * This software is licensed under terms that can be found in the LICENSE file
  19:stm32f4xx-hal-driver/Src/stm32f4xx_hal_rng.c ****   * in the root directory of this software component.
  20:stm32f4xx-hal-driver/Src/stm32f4xx_hal_rng.c ****   * If no LICENSE file comes with this software, it is provided AS-IS.
  21:stm32f4xx-hal-driver/Src/stm32f4xx_hal_rng.c ****   *
  22:stm32f4xx-hal-driver/Src/stm32f4xx_hal_rng.c ****   ******************************************************************************
  23:stm32f4xx-hal-driver/Src/stm32f4xx_hal_rng.c ****   @verbatim
  24:stm32f4xx-hal-driver/Src/stm32f4xx_hal_rng.c ****   ==============================================================================
  25:stm32f4xx-hal-driver/Src/stm32f4xx_hal_rng.c ****                      ##### How to use this driver #####
  26:stm32f4xx-hal-driver/Src/stm32f4xx_hal_rng.c ****   ==============================================================================
  27:stm32f4xx-hal-driver/Src/stm32f4xx_hal_rng.c ****   [..]
  28:stm32f4xx-hal-driver/Src/stm32f4xx_hal_rng.c ****       The RNG HAL driver can be used as follows:
  29:stm32f4xx-hal-driver/Src/stm32f4xx_hal_rng.c **** 
ARM GAS  /tmp/ccrNs9nx.s 			page 2


  30:stm32f4xx-hal-driver/Src/stm32f4xx_hal_rng.c ****       (#) Enable the RNG controller clock using __HAL_RCC_RNG_CLK_ENABLE() macro
  31:stm32f4xx-hal-driver/Src/stm32f4xx_hal_rng.c ****           in HAL_RNG_MspInit().
  32:stm32f4xx-hal-driver/Src/stm32f4xx_hal_rng.c ****       (#) Activate the RNG peripheral using HAL_RNG_Init() function.
  33:stm32f4xx-hal-driver/Src/stm32f4xx_hal_rng.c ****       (#) Wait until the 32 bit Random Number Generator contains a valid
  34:stm32f4xx-hal-driver/Src/stm32f4xx_hal_rng.c ****           random data using (polling/interrupt) mode.
  35:stm32f4xx-hal-driver/Src/stm32f4xx_hal_rng.c ****       (#) Get the 32 bit random number using HAL_RNG_GenerateRandomNumber() function.
  36:stm32f4xx-hal-driver/Src/stm32f4xx_hal_rng.c **** 
  37:stm32f4xx-hal-driver/Src/stm32f4xx_hal_rng.c ****     ##### Callback registration #####
  38:stm32f4xx-hal-driver/Src/stm32f4xx_hal_rng.c ****     ==================================
  39:stm32f4xx-hal-driver/Src/stm32f4xx_hal_rng.c **** 
  40:stm32f4xx-hal-driver/Src/stm32f4xx_hal_rng.c ****     [..]
  41:stm32f4xx-hal-driver/Src/stm32f4xx_hal_rng.c ****     The compilation define USE_HAL_RNG_REGISTER_CALLBACKS when set to 1
  42:stm32f4xx-hal-driver/Src/stm32f4xx_hal_rng.c ****     allows the user to configure dynamically the driver callbacks.
  43:stm32f4xx-hal-driver/Src/stm32f4xx_hal_rng.c **** 
  44:stm32f4xx-hal-driver/Src/stm32f4xx_hal_rng.c ****     [..]
  45:stm32f4xx-hal-driver/Src/stm32f4xx_hal_rng.c ****     Use Function HAL_RNG_RegisterCallback() to register a user callback.
  46:stm32f4xx-hal-driver/Src/stm32f4xx_hal_rng.c ****     Function HAL_RNG_RegisterCallback() allows to register following callbacks:
  47:stm32f4xx-hal-driver/Src/stm32f4xx_hal_rng.c ****     (+) ErrorCallback             : RNG Error Callback.
  48:stm32f4xx-hal-driver/Src/stm32f4xx_hal_rng.c ****     (+) MspInitCallback           : RNG MspInit.
  49:stm32f4xx-hal-driver/Src/stm32f4xx_hal_rng.c ****     (+) MspDeInitCallback         : RNG MspDeInit.
  50:stm32f4xx-hal-driver/Src/stm32f4xx_hal_rng.c ****     This function takes as parameters the HAL peripheral handle, the Callback ID
  51:stm32f4xx-hal-driver/Src/stm32f4xx_hal_rng.c ****     and a pointer to the user callback function.
  52:stm32f4xx-hal-driver/Src/stm32f4xx_hal_rng.c **** 
  53:stm32f4xx-hal-driver/Src/stm32f4xx_hal_rng.c ****     [..]
  54:stm32f4xx-hal-driver/Src/stm32f4xx_hal_rng.c ****     Use function HAL_RNG_UnRegisterCallback() to reset a callback to the default
  55:stm32f4xx-hal-driver/Src/stm32f4xx_hal_rng.c ****     weak (overridden) function.
  56:stm32f4xx-hal-driver/Src/stm32f4xx_hal_rng.c ****     HAL_RNG_UnRegisterCallback() takes as parameters the HAL peripheral handle,
  57:stm32f4xx-hal-driver/Src/stm32f4xx_hal_rng.c ****     and the Callback ID.
  58:stm32f4xx-hal-driver/Src/stm32f4xx_hal_rng.c ****     This function allows to reset following callbacks:
  59:stm32f4xx-hal-driver/Src/stm32f4xx_hal_rng.c ****     (+) ErrorCallback             : RNG Error Callback.
  60:stm32f4xx-hal-driver/Src/stm32f4xx_hal_rng.c ****     (+) MspInitCallback           : RNG MspInit.
  61:stm32f4xx-hal-driver/Src/stm32f4xx_hal_rng.c ****     (+) MspDeInitCallback         : RNG MspDeInit.
  62:stm32f4xx-hal-driver/Src/stm32f4xx_hal_rng.c **** 
  63:stm32f4xx-hal-driver/Src/stm32f4xx_hal_rng.c ****     [..]
  64:stm32f4xx-hal-driver/Src/stm32f4xx_hal_rng.c ****     For specific callback ReadyDataCallback, use dedicated register callbacks:
  65:stm32f4xx-hal-driver/Src/stm32f4xx_hal_rng.c ****     respectively HAL_RNG_RegisterReadyDataCallback() , HAL_RNG_UnRegisterReadyDataCallback().
  66:stm32f4xx-hal-driver/Src/stm32f4xx_hal_rng.c **** 
  67:stm32f4xx-hal-driver/Src/stm32f4xx_hal_rng.c ****     [..]
  68:stm32f4xx-hal-driver/Src/stm32f4xx_hal_rng.c ****     By default, after the HAL_RNG_Init() and when the state is HAL_RNG_STATE_RESET
  69:stm32f4xx-hal-driver/Src/stm32f4xx_hal_rng.c ****     all callbacks are set to the corresponding weak (overridden) functions:
  70:stm32f4xx-hal-driver/Src/stm32f4xx_hal_rng.c ****     example HAL_RNG_ErrorCallback().
  71:stm32f4xx-hal-driver/Src/stm32f4xx_hal_rng.c ****     Exception done for MspInit and MspDeInit functions that are respectively
  72:stm32f4xx-hal-driver/Src/stm32f4xx_hal_rng.c ****     reset to the legacy weak (overridden) functions in the HAL_RNG_Init()
  73:stm32f4xx-hal-driver/Src/stm32f4xx_hal_rng.c ****     and HAL_RNG_DeInit() only when these callbacks are null (not registered beforehand).
  74:stm32f4xx-hal-driver/Src/stm32f4xx_hal_rng.c ****     If not, MspInit or MspDeInit are not null, the HAL_RNG_Init() and HAL_RNG_DeInit()
  75:stm32f4xx-hal-driver/Src/stm32f4xx_hal_rng.c ****     keep and use the user MspInit/MspDeInit callbacks (registered beforehand).
  76:stm32f4xx-hal-driver/Src/stm32f4xx_hal_rng.c **** 
  77:stm32f4xx-hal-driver/Src/stm32f4xx_hal_rng.c ****     [..]
  78:stm32f4xx-hal-driver/Src/stm32f4xx_hal_rng.c ****     Callbacks can be registered/unregistered in HAL_RNG_STATE_READY state only.
  79:stm32f4xx-hal-driver/Src/stm32f4xx_hal_rng.c ****     Exception done MspInit/MspDeInit that can be registered/unregistered
  80:stm32f4xx-hal-driver/Src/stm32f4xx_hal_rng.c ****     in HAL_RNG_STATE_READY or HAL_RNG_STATE_RESET state, thus registered (user)
  81:stm32f4xx-hal-driver/Src/stm32f4xx_hal_rng.c ****     MspInit/DeInit callbacks can be used during the Init/DeInit.
  82:stm32f4xx-hal-driver/Src/stm32f4xx_hal_rng.c ****     In that case first register the MspInit/MspDeInit user callbacks
  83:stm32f4xx-hal-driver/Src/stm32f4xx_hal_rng.c ****     using HAL_RNG_RegisterCallback() before calling HAL_RNG_DeInit()
  84:stm32f4xx-hal-driver/Src/stm32f4xx_hal_rng.c ****     or HAL_RNG_Init() function.
  85:stm32f4xx-hal-driver/Src/stm32f4xx_hal_rng.c **** 
  86:stm32f4xx-hal-driver/Src/stm32f4xx_hal_rng.c ****     [..]
ARM GAS  /tmp/ccrNs9nx.s 			page 3


  87:stm32f4xx-hal-driver/Src/stm32f4xx_hal_rng.c ****     When The compilation define USE_HAL_RNG_REGISTER_CALLBACKS is set to 0 or
  88:stm32f4xx-hal-driver/Src/stm32f4xx_hal_rng.c ****     not defined, the callback registration feature is not available
  89:stm32f4xx-hal-driver/Src/stm32f4xx_hal_rng.c ****     and weak (overridden) callbacks are used.
  90:stm32f4xx-hal-driver/Src/stm32f4xx_hal_rng.c **** 
  91:stm32f4xx-hal-driver/Src/stm32f4xx_hal_rng.c ****   @endverbatim
  92:stm32f4xx-hal-driver/Src/stm32f4xx_hal_rng.c ****   ******************************************************************************
  93:stm32f4xx-hal-driver/Src/stm32f4xx_hal_rng.c ****   */
  94:stm32f4xx-hal-driver/Src/stm32f4xx_hal_rng.c **** 
  95:stm32f4xx-hal-driver/Src/stm32f4xx_hal_rng.c **** /* Includes ------------------------------------------------------------------*/
  96:stm32f4xx-hal-driver/Src/stm32f4xx_hal_rng.c **** #include "stm32f4xx_hal.h"
  97:stm32f4xx-hal-driver/Src/stm32f4xx_hal_rng.c **** 
  98:stm32f4xx-hal-driver/Src/stm32f4xx_hal_rng.c **** /** @addtogroup STM32F4xx_HAL_Driver
  99:stm32f4xx-hal-driver/Src/stm32f4xx_hal_rng.c ****   * @{
 100:stm32f4xx-hal-driver/Src/stm32f4xx_hal_rng.c ****   */
 101:stm32f4xx-hal-driver/Src/stm32f4xx_hal_rng.c **** 
 102:stm32f4xx-hal-driver/Src/stm32f4xx_hal_rng.c **** #if defined (RNG)
 103:stm32f4xx-hal-driver/Src/stm32f4xx_hal_rng.c **** 
 104:stm32f4xx-hal-driver/Src/stm32f4xx_hal_rng.c **** /** @addtogroup RNG
 105:stm32f4xx-hal-driver/Src/stm32f4xx_hal_rng.c ****   * @brief RNG HAL module driver.
 106:stm32f4xx-hal-driver/Src/stm32f4xx_hal_rng.c ****   * @{
 107:stm32f4xx-hal-driver/Src/stm32f4xx_hal_rng.c ****   */
 108:stm32f4xx-hal-driver/Src/stm32f4xx_hal_rng.c **** 
 109:stm32f4xx-hal-driver/Src/stm32f4xx_hal_rng.c **** #ifdef HAL_RNG_MODULE_ENABLED
 110:stm32f4xx-hal-driver/Src/stm32f4xx_hal_rng.c **** 
 111:stm32f4xx-hal-driver/Src/stm32f4xx_hal_rng.c **** /* Private types -------------------------------------------------------------*/
 112:stm32f4xx-hal-driver/Src/stm32f4xx_hal_rng.c **** /* Private defines -----------------------------------------------------------*/
 113:stm32f4xx-hal-driver/Src/stm32f4xx_hal_rng.c **** /* Private variables ---------------------------------------------------------*/
 114:stm32f4xx-hal-driver/Src/stm32f4xx_hal_rng.c **** /* Private constants ---------------------------------------------------------*/
 115:stm32f4xx-hal-driver/Src/stm32f4xx_hal_rng.c **** /** @defgroup RNG_Private_Constants RNG Private Constants
 116:stm32f4xx-hal-driver/Src/stm32f4xx_hal_rng.c ****   * @{
 117:stm32f4xx-hal-driver/Src/stm32f4xx_hal_rng.c ****   */
 118:stm32f4xx-hal-driver/Src/stm32f4xx_hal_rng.c **** #define RNG_TIMEOUT_VALUE     2U
 119:stm32f4xx-hal-driver/Src/stm32f4xx_hal_rng.c **** /**
 120:stm32f4xx-hal-driver/Src/stm32f4xx_hal_rng.c ****   * @}
 121:stm32f4xx-hal-driver/Src/stm32f4xx_hal_rng.c ****   */
 122:stm32f4xx-hal-driver/Src/stm32f4xx_hal_rng.c **** /* Private macros ------------------------------------------------------------*/
 123:stm32f4xx-hal-driver/Src/stm32f4xx_hal_rng.c **** /* Private functions prototypes ----------------------------------------------*/
 124:stm32f4xx-hal-driver/Src/stm32f4xx_hal_rng.c **** /* Private functions ---------------------------------------------------------*/
 125:stm32f4xx-hal-driver/Src/stm32f4xx_hal_rng.c **** /* Exported functions --------------------------------------------------------*/
 126:stm32f4xx-hal-driver/Src/stm32f4xx_hal_rng.c **** 
 127:stm32f4xx-hal-driver/Src/stm32f4xx_hal_rng.c **** /** @addtogroup RNG_Exported_Functions
 128:stm32f4xx-hal-driver/Src/stm32f4xx_hal_rng.c ****   * @{
 129:stm32f4xx-hal-driver/Src/stm32f4xx_hal_rng.c ****   */
 130:stm32f4xx-hal-driver/Src/stm32f4xx_hal_rng.c **** 
 131:stm32f4xx-hal-driver/Src/stm32f4xx_hal_rng.c **** /** @addtogroup RNG_Exported_Functions_Group1
 132:stm32f4xx-hal-driver/Src/stm32f4xx_hal_rng.c ****   *  @brief   Initialization and configuration functions
 133:stm32f4xx-hal-driver/Src/stm32f4xx_hal_rng.c ****   *
 134:stm32f4xx-hal-driver/Src/stm32f4xx_hal_rng.c **** @verbatim
 135:stm32f4xx-hal-driver/Src/stm32f4xx_hal_rng.c ****  ===============================================================================
 136:stm32f4xx-hal-driver/Src/stm32f4xx_hal_rng.c ****           ##### Initialization and configuration functions #####
 137:stm32f4xx-hal-driver/Src/stm32f4xx_hal_rng.c ****  ===============================================================================
 138:stm32f4xx-hal-driver/Src/stm32f4xx_hal_rng.c ****     [..]  This section provides functions allowing to:
 139:stm32f4xx-hal-driver/Src/stm32f4xx_hal_rng.c ****       (+) Initialize the RNG according to the specified parameters
 140:stm32f4xx-hal-driver/Src/stm32f4xx_hal_rng.c ****           in the RNG_InitTypeDef and create the associated handle
 141:stm32f4xx-hal-driver/Src/stm32f4xx_hal_rng.c ****       (+) DeInitialize the RNG peripheral
 142:stm32f4xx-hal-driver/Src/stm32f4xx_hal_rng.c ****       (+) Initialize the RNG MSP
 143:stm32f4xx-hal-driver/Src/stm32f4xx_hal_rng.c ****       (+) DeInitialize RNG MSP
ARM GAS  /tmp/ccrNs9nx.s 			page 4


 144:stm32f4xx-hal-driver/Src/stm32f4xx_hal_rng.c **** 
 145:stm32f4xx-hal-driver/Src/stm32f4xx_hal_rng.c **** @endverbatim
 146:stm32f4xx-hal-driver/Src/stm32f4xx_hal_rng.c ****   * @{
 147:stm32f4xx-hal-driver/Src/stm32f4xx_hal_rng.c ****   */
 148:stm32f4xx-hal-driver/Src/stm32f4xx_hal_rng.c **** 
 149:stm32f4xx-hal-driver/Src/stm32f4xx_hal_rng.c **** /**
 150:stm32f4xx-hal-driver/Src/stm32f4xx_hal_rng.c ****   * @brief  Initializes the RNG peripheral and creates the associated handle.
 151:stm32f4xx-hal-driver/Src/stm32f4xx_hal_rng.c ****   * @param  hrng pointer to a RNG_HandleTypeDef structure that contains
 152:stm32f4xx-hal-driver/Src/stm32f4xx_hal_rng.c ****   *                the configuration information for RNG.
 153:stm32f4xx-hal-driver/Src/stm32f4xx_hal_rng.c ****   * @retval HAL status
 154:stm32f4xx-hal-driver/Src/stm32f4xx_hal_rng.c ****   */
 155:stm32f4xx-hal-driver/Src/stm32f4xx_hal_rng.c **** HAL_StatusTypeDef HAL_RNG_Init(RNG_HandleTypeDef *hrng)
 156:stm32f4xx-hal-driver/Src/stm32f4xx_hal_rng.c **** {
 157:stm32f4xx-hal-driver/Src/stm32f4xx_hal_rng.c ****   /* Check the RNG handle allocation */
 158:stm32f4xx-hal-driver/Src/stm32f4xx_hal_rng.c ****   if (hrng == NULL)
 159:stm32f4xx-hal-driver/Src/stm32f4xx_hal_rng.c ****   {
 160:stm32f4xx-hal-driver/Src/stm32f4xx_hal_rng.c ****     return HAL_ERROR;
 161:stm32f4xx-hal-driver/Src/stm32f4xx_hal_rng.c ****   }
 162:stm32f4xx-hal-driver/Src/stm32f4xx_hal_rng.c ****   /* Check the parameters */
 163:stm32f4xx-hal-driver/Src/stm32f4xx_hal_rng.c ****   assert_param(IS_RNG_ALL_INSTANCE(hrng->Instance));
 164:stm32f4xx-hal-driver/Src/stm32f4xx_hal_rng.c **** 
 165:stm32f4xx-hal-driver/Src/stm32f4xx_hal_rng.c **** #if (USE_HAL_RNG_REGISTER_CALLBACKS == 1)
 166:stm32f4xx-hal-driver/Src/stm32f4xx_hal_rng.c ****   if (hrng->State == HAL_RNG_STATE_RESET)
 167:stm32f4xx-hal-driver/Src/stm32f4xx_hal_rng.c ****   {
 168:stm32f4xx-hal-driver/Src/stm32f4xx_hal_rng.c ****     /* Allocate lock resource and initialize it */
 169:stm32f4xx-hal-driver/Src/stm32f4xx_hal_rng.c ****     hrng->Lock = HAL_UNLOCKED;
 170:stm32f4xx-hal-driver/Src/stm32f4xx_hal_rng.c **** 
 171:stm32f4xx-hal-driver/Src/stm32f4xx_hal_rng.c ****     hrng->ReadyDataCallback  = HAL_RNG_ReadyDataCallback;  /* Legacy weak ReadyDataCallback  */
 172:stm32f4xx-hal-driver/Src/stm32f4xx_hal_rng.c ****     hrng->ErrorCallback      = HAL_RNG_ErrorCallback;      /* Legacy weak ErrorCallback      */
 173:stm32f4xx-hal-driver/Src/stm32f4xx_hal_rng.c **** 
 174:stm32f4xx-hal-driver/Src/stm32f4xx_hal_rng.c ****     if (hrng->MspInitCallback == NULL)
 175:stm32f4xx-hal-driver/Src/stm32f4xx_hal_rng.c ****     {
 176:stm32f4xx-hal-driver/Src/stm32f4xx_hal_rng.c ****       hrng->MspInitCallback = HAL_RNG_MspInit; /* Legacy weak MspInit  */
 177:stm32f4xx-hal-driver/Src/stm32f4xx_hal_rng.c ****     }
 178:stm32f4xx-hal-driver/Src/stm32f4xx_hal_rng.c **** 
 179:stm32f4xx-hal-driver/Src/stm32f4xx_hal_rng.c ****     /* Init the low level hardware */
 180:stm32f4xx-hal-driver/Src/stm32f4xx_hal_rng.c ****     hrng->MspInitCallback(hrng);
 181:stm32f4xx-hal-driver/Src/stm32f4xx_hal_rng.c ****   }
 182:stm32f4xx-hal-driver/Src/stm32f4xx_hal_rng.c **** #else
 183:stm32f4xx-hal-driver/Src/stm32f4xx_hal_rng.c ****   if (hrng->State == HAL_RNG_STATE_RESET)
 184:stm32f4xx-hal-driver/Src/stm32f4xx_hal_rng.c ****   {
 185:stm32f4xx-hal-driver/Src/stm32f4xx_hal_rng.c ****     /* Allocate lock resource and initialize it */
 186:stm32f4xx-hal-driver/Src/stm32f4xx_hal_rng.c ****     hrng->Lock = HAL_UNLOCKED;
 187:stm32f4xx-hal-driver/Src/stm32f4xx_hal_rng.c **** 
 188:stm32f4xx-hal-driver/Src/stm32f4xx_hal_rng.c ****     /* Init the low level hardware */
 189:stm32f4xx-hal-driver/Src/stm32f4xx_hal_rng.c ****     HAL_RNG_MspInit(hrng);
 190:stm32f4xx-hal-driver/Src/stm32f4xx_hal_rng.c ****   }
 191:stm32f4xx-hal-driver/Src/stm32f4xx_hal_rng.c **** #endif /* USE_HAL_RNG_REGISTER_CALLBACKS */
 192:stm32f4xx-hal-driver/Src/stm32f4xx_hal_rng.c **** 
 193:stm32f4xx-hal-driver/Src/stm32f4xx_hal_rng.c ****   /* Change RNG peripheral state */
 194:stm32f4xx-hal-driver/Src/stm32f4xx_hal_rng.c ****   hrng->State = HAL_RNG_STATE_BUSY;
 195:stm32f4xx-hal-driver/Src/stm32f4xx_hal_rng.c **** 
 196:stm32f4xx-hal-driver/Src/stm32f4xx_hal_rng.c **** 
 197:stm32f4xx-hal-driver/Src/stm32f4xx_hal_rng.c ****   /* Enable the RNG Peripheral */
 198:stm32f4xx-hal-driver/Src/stm32f4xx_hal_rng.c ****   __HAL_RNG_ENABLE(hrng);
 199:stm32f4xx-hal-driver/Src/stm32f4xx_hal_rng.c **** 
 200:stm32f4xx-hal-driver/Src/stm32f4xx_hal_rng.c ****   /* Initialize the RNG state */
ARM GAS  /tmp/ccrNs9nx.s 			page 5


 201:stm32f4xx-hal-driver/Src/stm32f4xx_hal_rng.c ****   hrng->State = HAL_RNG_STATE_READY;
 202:stm32f4xx-hal-driver/Src/stm32f4xx_hal_rng.c **** 
 203:stm32f4xx-hal-driver/Src/stm32f4xx_hal_rng.c ****   /* Initialise the error code */
 204:stm32f4xx-hal-driver/Src/stm32f4xx_hal_rng.c ****   hrng->ErrorCode = HAL_RNG_ERROR_NONE;
 205:stm32f4xx-hal-driver/Src/stm32f4xx_hal_rng.c **** 
 206:stm32f4xx-hal-driver/Src/stm32f4xx_hal_rng.c ****   /* Return function status */
 207:stm32f4xx-hal-driver/Src/stm32f4xx_hal_rng.c ****   return HAL_OK;
 208:stm32f4xx-hal-driver/Src/stm32f4xx_hal_rng.c **** }
 209:stm32f4xx-hal-driver/Src/stm32f4xx_hal_rng.c **** 
 210:stm32f4xx-hal-driver/Src/stm32f4xx_hal_rng.c **** /**
 211:stm32f4xx-hal-driver/Src/stm32f4xx_hal_rng.c ****   * @brief  DeInitializes the RNG peripheral.
 212:stm32f4xx-hal-driver/Src/stm32f4xx_hal_rng.c ****   * @param  hrng pointer to a RNG_HandleTypeDef structure that contains
 213:stm32f4xx-hal-driver/Src/stm32f4xx_hal_rng.c ****   *                the configuration information for RNG.
 214:stm32f4xx-hal-driver/Src/stm32f4xx_hal_rng.c ****   * @retval HAL status
 215:stm32f4xx-hal-driver/Src/stm32f4xx_hal_rng.c ****   */
 216:stm32f4xx-hal-driver/Src/stm32f4xx_hal_rng.c **** HAL_StatusTypeDef HAL_RNG_DeInit(RNG_HandleTypeDef *hrng)
 217:stm32f4xx-hal-driver/Src/stm32f4xx_hal_rng.c **** {
 218:stm32f4xx-hal-driver/Src/stm32f4xx_hal_rng.c ****   /* Check the RNG handle allocation */
 219:stm32f4xx-hal-driver/Src/stm32f4xx_hal_rng.c ****   if (hrng == NULL)
 220:stm32f4xx-hal-driver/Src/stm32f4xx_hal_rng.c ****   {
 221:stm32f4xx-hal-driver/Src/stm32f4xx_hal_rng.c ****     return HAL_ERROR;
 222:stm32f4xx-hal-driver/Src/stm32f4xx_hal_rng.c ****   }
 223:stm32f4xx-hal-driver/Src/stm32f4xx_hal_rng.c **** 
 224:stm32f4xx-hal-driver/Src/stm32f4xx_hal_rng.c ****   /* Disable the RNG Peripheral */
 225:stm32f4xx-hal-driver/Src/stm32f4xx_hal_rng.c ****   CLEAR_BIT(hrng->Instance->CR, RNG_CR_IE | RNG_CR_RNGEN);
 226:stm32f4xx-hal-driver/Src/stm32f4xx_hal_rng.c **** 
 227:stm32f4xx-hal-driver/Src/stm32f4xx_hal_rng.c ****   /* Clear RNG interrupt status flags */
 228:stm32f4xx-hal-driver/Src/stm32f4xx_hal_rng.c ****   CLEAR_BIT(hrng->Instance->SR, RNG_SR_CEIS | RNG_SR_SEIS);
 229:stm32f4xx-hal-driver/Src/stm32f4xx_hal_rng.c **** 
 230:stm32f4xx-hal-driver/Src/stm32f4xx_hal_rng.c **** #if (USE_HAL_RNG_REGISTER_CALLBACKS == 1)
 231:stm32f4xx-hal-driver/Src/stm32f4xx_hal_rng.c ****   if (hrng->MspDeInitCallback == NULL)
 232:stm32f4xx-hal-driver/Src/stm32f4xx_hal_rng.c ****   {
 233:stm32f4xx-hal-driver/Src/stm32f4xx_hal_rng.c ****     hrng->MspDeInitCallback = HAL_RNG_MspDeInit; /* Legacy weak MspDeInit  */
 234:stm32f4xx-hal-driver/Src/stm32f4xx_hal_rng.c ****   }
 235:stm32f4xx-hal-driver/Src/stm32f4xx_hal_rng.c **** 
 236:stm32f4xx-hal-driver/Src/stm32f4xx_hal_rng.c ****   /* DeInit the low level hardware */
 237:stm32f4xx-hal-driver/Src/stm32f4xx_hal_rng.c ****   hrng->MspDeInitCallback(hrng);
 238:stm32f4xx-hal-driver/Src/stm32f4xx_hal_rng.c **** #else
 239:stm32f4xx-hal-driver/Src/stm32f4xx_hal_rng.c ****   /* DeInit the low level hardware */
 240:stm32f4xx-hal-driver/Src/stm32f4xx_hal_rng.c ****   HAL_RNG_MspDeInit(hrng);
 241:stm32f4xx-hal-driver/Src/stm32f4xx_hal_rng.c **** #endif /* USE_HAL_RNG_REGISTER_CALLBACKS */
 242:stm32f4xx-hal-driver/Src/stm32f4xx_hal_rng.c **** 
 243:stm32f4xx-hal-driver/Src/stm32f4xx_hal_rng.c ****   /* Update the RNG state */
 244:stm32f4xx-hal-driver/Src/stm32f4xx_hal_rng.c ****   hrng->State = HAL_RNG_STATE_RESET;
 245:stm32f4xx-hal-driver/Src/stm32f4xx_hal_rng.c **** 
 246:stm32f4xx-hal-driver/Src/stm32f4xx_hal_rng.c ****   /* Initialise the error code */
 247:stm32f4xx-hal-driver/Src/stm32f4xx_hal_rng.c ****   hrng->ErrorCode = HAL_RNG_ERROR_NONE;
 248:stm32f4xx-hal-driver/Src/stm32f4xx_hal_rng.c **** 
 249:stm32f4xx-hal-driver/Src/stm32f4xx_hal_rng.c ****   /* Release Lock */
 250:stm32f4xx-hal-driver/Src/stm32f4xx_hal_rng.c ****   __HAL_UNLOCK(hrng);
 251:stm32f4xx-hal-driver/Src/stm32f4xx_hal_rng.c **** 
 252:stm32f4xx-hal-driver/Src/stm32f4xx_hal_rng.c ****   /* Return the function status */
 253:stm32f4xx-hal-driver/Src/stm32f4xx_hal_rng.c ****   return HAL_OK;
 254:stm32f4xx-hal-driver/Src/stm32f4xx_hal_rng.c **** }
 255:stm32f4xx-hal-driver/Src/stm32f4xx_hal_rng.c **** 
 256:stm32f4xx-hal-driver/Src/stm32f4xx_hal_rng.c **** /**
 257:stm32f4xx-hal-driver/Src/stm32f4xx_hal_rng.c ****   * @brief  Initializes the RNG MSP.
ARM GAS  /tmp/ccrNs9nx.s 			page 6


 258:stm32f4xx-hal-driver/Src/stm32f4xx_hal_rng.c ****   * @param  hrng pointer to a RNG_HandleTypeDef structure that contains
 259:stm32f4xx-hal-driver/Src/stm32f4xx_hal_rng.c ****   *                the configuration information for RNG.
 260:stm32f4xx-hal-driver/Src/stm32f4xx_hal_rng.c ****   * @retval None
 261:stm32f4xx-hal-driver/Src/stm32f4xx_hal_rng.c ****   */
 262:stm32f4xx-hal-driver/Src/stm32f4xx_hal_rng.c **** __weak void HAL_RNG_MspInit(RNG_HandleTypeDef *hrng)
 263:stm32f4xx-hal-driver/Src/stm32f4xx_hal_rng.c **** {
  30              		.loc 1 263 1 view -0
  31              		.cfi_startproc
  32              		@ args = 0, pretend = 0, frame = 0
  33              		@ frame_needed = 0, uses_anonymous_args = 0
  34              		@ link register save eliminated.
 264:stm32f4xx-hal-driver/Src/stm32f4xx_hal_rng.c ****   /* Prevent unused argument(s) compilation warning */
 265:stm32f4xx-hal-driver/Src/stm32f4xx_hal_rng.c ****   UNUSED(hrng);
  35              		.loc 1 265 3 view .LVU1
 266:stm32f4xx-hal-driver/Src/stm32f4xx_hal_rng.c ****   /* NOTE : This function should not be modified. When the callback is needed,
 267:stm32f4xx-hal-driver/Src/stm32f4xx_hal_rng.c ****             function HAL_RNG_MspInit must be implemented in the user file.
 268:stm32f4xx-hal-driver/Src/stm32f4xx_hal_rng.c ****    */
 269:stm32f4xx-hal-driver/Src/stm32f4xx_hal_rng.c **** }
  36              		.loc 1 269 1 is_stmt 0 view .LVU2
  37 0000 7047     		bx	lr
  38              		.cfi_endproc
  39              	.LFE241:
  41              		.section	.text.HAL_RNG_Init,"ax",%progbits
  42              		.align	1
  43              		.global	HAL_RNG_Init
  44              		.syntax unified
  45              		.thumb
  46              		.thumb_func
  47              		.fpu fpv4-sp-d16
  49              	HAL_RNG_Init:
  50              	.LVL1:
  51              	.LFB239:
 156:stm32f4xx-hal-driver/Src/stm32f4xx_hal_rng.c ****   /* Check the RNG handle allocation */
  52              		.loc 1 156 1 is_stmt 1 view -0
  53              		.cfi_startproc
  54              		@ args = 0, pretend = 0, frame = 0
  55              		@ frame_needed = 0, uses_anonymous_args = 0
 158:stm32f4xx-hal-driver/Src/stm32f4xx_hal_rng.c ****   {
  56              		.loc 1 158 3 view .LVU4
 158:stm32f4xx-hal-driver/Src/stm32f4xx_hal_rng.c ****   {
  57              		.loc 1 158 6 is_stmt 0 view .LVU5
  58 0000 98B1     		cbz	r0, .L5
 156:stm32f4xx-hal-driver/Src/stm32f4xx_hal_rng.c ****   /* Check the RNG handle allocation */
  59              		.loc 1 156 1 view .LVU6
  60 0002 10B5     		push	{r4, lr}
  61              	.LCFI0:
  62              		.cfi_def_cfa_offset 8
  63              		.cfi_offset 4, -8
  64              		.cfi_offset 14, -4
  65 0004 0446     		mov	r4, r0
 163:stm32f4xx-hal-driver/Src/stm32f4xx_hal_rng.c **** 
  66              		.loc 1 163 3 is_stmt 1 view .LVU7
 183:stm32f4xx-hal-driver/Src/stm32f4xx_hal_rng.c ****   {
  67              		.loc 1 183 3 view .LVU8
 183:stm32f4xx-hal-driver/Src/stm32f4xx_hal_rng.c ****   {
  68              		.loc 1 183 11 is_stmt 0 view .LVU9
  69 0006 4379     		ldrb	r3, [r0, #5]	@ zero_extendqisi2
ARM GAS  /tmp/ccrNs9nx.s 			page 7


 183:stm32f4xx-hal-driver/Src/stm32f4xx_hal_rng.c ****   {
  70              		.loc 1 183 6 view .LVU10
  71 0008 5BB1     		cbz	r3, .L10
  72              	.LVL2:
  73              	.L4:
 194:stm32f4xx-hal-driver/Src/stm32f4xx_hal_rng.c **** 
  74              		.loc 1 194 3 is_stmt 1 view .LVU11
 194:stm32f4xx-hal-driver/Src/stm32f4xx_hal_rng.c **** 
  75              		.loc 1 194 15 is_stmt 0 view .LVU12
  76 000a 0223     		movs	r3, #2
  77 000c 6371     		strb	r3, [r4, #5]
 198:stm32f4xx-hal-driver/Src/stm32f4xx_hal_rng.c **** 
  78              		.loc 1 198 3 is_stmt 1 view .LVU13
  79 000e 2268     		ldr	r2, [r4]
  80 0010 1368     		ldr	r3, [r2]
  81 0012 43F00403 		orr	r3, r3, #4
  82 0016 1360     		str	r3, [r2]
 201:stm32f4xx-hal-driver/Src/stm32f4xx_hal_rng.c **** 
  83              		.loc 1 201 3 view .LVU14
 201:stm32f4xx-hal-driver/Src/stm32f4xx_hal_rng.c **** 
  84              		.loc 1 201 15 is_stmt 0 view .LVU15
  85 0018 0123     		movs	r3, #1
  86 001a 6371     		strb	r3, [r4, #5]
 204:stm32f4xx-hal-driver/Src/stm32f4xx_hal_rng.c **** 
  87              		.loc 1 204 3 is_stmt 1 view .LVU16
 204:stm32f4xx-hal-driver/Src/stm32f4xx_hal_rng.c **** 
  88              		.loc 1 204 19 is_stmt 0 view .LVU17
  89 001c 0020     		movs	r0, #0
  90 001e A060     		str	r0, [r4, #8]
 207:stm32f4xx-hal-driver/Src/stm32f4xx_hal_rng.c **** }
  91              		.loc 1 207 3 is_stmt 1 view .LVU18
 208:stm32f4xx-hal-driver/Src/stm32f4xx_hal_rng.c **** 
  92              		.loc 1 208 1 is_stmt 0 view .LVU19
  93 0020 10BD     		pop	{r4, pc}
  94              	.LVL3:
  95              	.L10:
 186:stm32f4xx-hal-driver/Src/stm32f4xx_hal_rng.c **** 
  96              		.loc 1 186 5 is_stmt 1 view .LVU20
 186:stm32f4xx-hal-driver/Src/stm32f4xx_hal_rng.c **** 
  97              		.loc 1 186 16 is_stmt 0 view .LVU21
  98 0022 0371     		strb	r3, [r0, #4]
 189:stm32f4xx-hal-driver/Src/stm32f4xx_hal_rng.c ****   }
  99              		.loc 1 189 5 is_stmt 1 view .LVU22
 100 0024 FFF7FEFF 		bl	HAL_RNG_MspInit
 101              	.LVL4:
 189:stm32f4xx-hal-driver/Src/stm32f4xx_hal_rng.c ****   }
 102              		.loc 1 189 5 is_stmt 0 view .LVU23
 103 0028 EFE7     		b	.L4
 104              	.LVL5:
 105              	.L5:
 106              	.LCFI1:
 107              		.cfi_def_cfa_offset 0
 108              		.cfi_restore 4
 109              		.cfi_restore 14
 160:stm32f4xx-hal-driver/Src/stm32f4xx_hal_rng.c ****   }
 110              		.loc 1 160 12 view .LVU24
 111 002a 0120     		movs	r0, #1
ARM GAS  /tmp/ccrNs9nx.s 			page 8


 112              	.LVL6:
 208:stm32f4xx-hal-driver/Src/stm32f4xx_hal_rng.c **** 
 113              		.loc 1 208 1 view .LVU25
 114 002c 7047     		bx	lr
 115              		.cfi_endproc
 116              	.LFE239:
 118              		.section	.text.HAL_RNG_MspDeInit,"ax",%progbits
 119              		.align	1
 120              		.weak	HAL_RNG_MspDeInit
 121              		.syntax unified
 122              		.thumb
 123              		.thumb_func
 124              		.fpu fpv4-sp-d16
 126              	HAL_RNG_MspDeInit:
 127              	.LVL7:
 128              	.LFB242:
 270:stm32f4xx-hal-driver/Src/stm32f4xx_hal_rng.c **** 
 271:stm32f4xx-hal-driver/Src/stm32f4xx_hal_rng.c **** /**
 272:stm32f4xx-hal-driver/Src/stm32f4xx_hal_rng.c ****   * @brief  DeInitializes the RNG MSP.
 273:stm32f4xx-hal-driver/Src/stm32f4xx_hal_rng.c ****   * @param  hrng pointer to a RNG_HandleTypeDef structure that contains
 274:stm32f4xx-hal-driver/Src/stm32f4xx_hal_rng.c ****   *                the configuration information for RNG.
 275:stm32f4xx-hal-driver/Src/stm32f4xx_hal_rng.c ****   * @retval None
 276:stm32f4xx-hal-driver/Src/stm32f4xx_hal_rng.c ****   */
 277:stm32f4xx-hal-driver/Src/stm32f4xx_hal_rng.c **** __weak void HAL_RNG_MspDeInit(RNG_HandleTypeDef *hrng)
 278:stm32f4xx-hal-driver/Src/stm32f4xx_hal_rng.c **** {
 129              		.loc 1 278 1 is_stmt 1 view -0
 130              		.cfi_startproc
 131              		@ args = 0, pretend = 0, frame = 0
 132              		@ frame_needed = 0, uses_anonymous_args = 0
 133              		@ link register save eliminated.
 279:stm32f4xx-hal-driver/Src/stm32f4xx_hal_rng.c ****   /* Prevent unused argument(s) compilation warning */
 280:stm32f4xx-hal-driver/Src/stm32f4xx_hal_rng.c ****   UNUSED(hrng);
 134              		.loc 1 280 3 view .LVU27
 281:stm32f4xx-hal-driver/Src/stm32f4xx_hal_rng.c ****   /* NOTE : This function should not be modified. When the callback is needed,
 282:stm32f4xx-hal-driver/Src/stm32f4xx_hal_rng.c ****             function HAL_RNG_MspDeInit must be implemented in the user file.
 283:stm32f4xx-hal-driver/Src/stm32f4xx_hal_rng.c ****    */
 284:stm32f4xx-hal-driver/Src/stm32f4xx_hal_rng.c **** }
 135              		.loc 1 284 1 is_stmt 0 view .LVU28
 136 0000 7047     		bx	lr
 137              		.cfi_endproc
 138              	.LFE242:
 140              		.section	.text.HAL_RNG_DeInit,"ax",%progbits
 141              		.align	1
 142              		.global	HAL_RNG_DeInit
 143              		.syntax unified
 144              		.thumb
 145              		.thumb_func
 146              		.fpu fpv4-sp-d16
 148              	HAL_RNG_DeInit:
 149              	.LVL8:
 150              	.LFB240:
 217:stm32f4xx-hal-driver/Src/stm32f4xx_hal_rng.c ****   /* Check the RNG handle allocation */
 151              		.loc 1 217 1 is_stmt 1 view -0
 152              		.cfi_startproc
 153              		@ args = 0, pretend = 0, frame = 0
 154              		@ frame_needed = 0, uses_anonymous_args = 0
 219:stm32f4xx-hal-driver/Src/stm32f4xx_hal_rng.c ****   {
ARM GAS  /tmp/ccrNs9nx.s 			page 9


 155              		.loc 1 219 3 view .LVU30
 219:stm32f4xx-hal-driver/Src/stm32f4xx_hal_rng.c ****   {
 156              		.loc 1 219 6 is_stmt 0 view .LVU31
 157 0000 90B1     		cbz	r0, .L14
 217:stm32f4xx-hal-driver/Src/stm32f4xx_hal_rng.c ****   /* Check the RNG handle allocation */
 158              		.loc 1 217 1 view .LVU32
 159 0002 10B5     		push	{r4, lr}
 160              	.LCFI2:
 161              		.cfi_def_cfa_offset 8
 162              		.cfi_offset 4, -8
 163              		.cfi_offset 14, -4
 164 0004 0446     		mov	r4, r0
 225:stm32f4xx-hal-driver/Src/stm32f4xx_hal_rng.c **** 
 165              		.loc 1 225 3 is_stmt 1 view .LVU33
 166 0006 0268     		ldr	r2, [r0]
 167 0008 1368     		ldr	r3, [r2]
 168 000a 23F00C03 		bic	r3, r3, #12
 169 000e 1360     		str	r3, [r2]
 228:stm32f4xx-hal-driver/Src/stm32f4xx_hal_rng.c **** 
 170              		.loc 1 228 3 view .LVU34
 171 0010 0268     		ldr	r2, [r0]
 172 0012 5368     		ldr	r3, [r2, #4]
 173 0014 23F06003 		bic	r3, r3, #96
 174 0018 5360     		str	r3, [r2, #4]
 240:stm32f4xx-hal-driver/Src/stm32f4xx_hal_rng.c **** #endif /* USE_HAL_RNG_REGISTER_CALLBACKS */
 175              		.loc 1 240 3 view .LVU35
 176 001a FFF7FEFF 		bl	HAL_RNG_MspDeInit
 177              	.LVL9:
 244:stm32f4xx-hal-driver/Src/stm32f4xx_hal_rng.c **** 
 178              		.loc 1 244 3 view .LVU36
 244:stm32f4xx-hal-driver/Src/stm32f4xx_hal_rng.c **** 
 179              		.loc 1 244 15 is_stmt 0 view .LVU37
 180 001e 0020     		movs	r0, #0
 181 0020 6071     		strb	r0, [r4, #5]
 247:stm32f4xx-hal-driver/Src/stm32f4xx_hal_rng.c **** 
 182              		.loc 1 247 3 is_stmt 1 view .LVU38
 247:stm32f4xx-hal-driver/Src/stm32f4xx_hal_rng.c **** 
 183              		.loc 1 247 19 is_stmt 0 view .LVU39
 184 0022 A060     		str	r0, [r4, #8]
 250:stm32f4xx-hal-driver/Src/stm32f4xx_hal_rng.c **** 
 185              		.loc 1 250 3 is_stmt 1 view .LVU40
 250:stm32f4xx-hal-driver/Src/stm32f4xx_hal_rng.c **** 
 186              		.loc 1 250 3 view .LVU41
 187 0024 2071     		strb	r0, [r4, #4]
 250:stm32f4xx-hal-driver/Src/stm32f4xx_hal_rng.c **** 
 188              		.loc 1 250 3 view .LVU42
 253:stm32f4xx-hal-driver/Src/stm32f4xx_hal_rng.c **** }
 189              		.loc 1 253 3 view .LVU43
 254:stm32f4xx-hal-driver/Src/stm32f4xx_hal_rng.c **** 
 190              		.loc 1 254 1 is_stmt 0 view .LVU44
 191 0026 10BD     		pop	{r4, pc}
 192              	.LVL10:
 193              	.L14:
 194              	.LCFI3:
 195              		.cfi_def_cfa_offset 0
 196              		.cfi_restore 4
 197              		.cfi_restore 14
ARM GAS  /tmp/ccrNs9nx.s 			page 10


 221:stm32f4xx-hal-driver/Src/stm32f4xx_hal_rng.c ****   }
 198              		.loc 1 221 12 view .LVU45
 199 0028 0120     		movs	r0, #1
 200              	.LVL11:
 254:stm32f4xx-hal-driver/Src/stm32f4xx_hal_rng.c **** 
 201              		.loc 1 254 1 view .LVU46
 202 002a 7047     		bx	lr
 203              		.cfi_endproc
 204              	.LFE240:
 206              		.section	.text.HAL_RNG_GenerateRandomNumber,"ax",%progbits
 207              		.align	1
 208              		.global	HAL_RNG_GenerateRandomNumber
 209              		.syntax unified
 210              		.thumb
 211              		.thumb_func
 212              		.fpu fpv4-sp-d16
 214              	HAL_RNG_GenerateRandomNumber:
 215              	.LVL12:
 216              	.LFB243:
 285:stm32f4xx-hal-driver/Src/stm32f4xx_hal_rng.c **** 
 286:stm32f4xx-hal-driver/Src/stm32f4xx_hal_rng.c **** #if (USE_HAL_RNG_REGISTER_CALLBACKS == 1)
 287:stm32f4xx-hal-driver/Src/stm32f4xx_hal_rng.c **** /**
 288:stm32f4xx-hal-driver/Src/stm32f4xx_hal_rng.c ****   * @brief  Register a User RNG Callback
 289:stm32f4xx-hal-driver/Src/stm32f4xx_hal_rng.c ****   *         To be used instead of the weak predefined callback
 290:stm32f4xx-hal-driver/Src/stm32f4xx_hal_rng.c ****   * @param  hrng RNG handle
 291:stm32f4xx-hal-driver/Src/stm32f4xx_hal_rng.c ****   * @param  CallbackID ID of the callback to be registered
 292:stm32f4xx-hal-driver/Src/stm32f4xx_hal_rng.c ****   *         This parameter can be one of the following values:
 293:stm32f4xx-hal-driver/Src/stm32f4xx_hal_rng.c ****   *          @arg @ref HAL_RNG_ERROR_CB_ID Error callback ID
 294:stm32f4xx-hal-driver/Src/stm32f4xx_hal_rng.c ****   *          @arg @ref HAL_RNG_MSPINIT_CB_ID MspInit callback ID
 295:stm32f4xx-hal-driver/Src/stm32f4xx_hal_rng.c ****   *          @arg @ref HAL_RNG_MSPDEINIT_CB_ID MspDeInit callback ID
 296:stm32f4xx-hal-driver/Src/stm32f4xx_hal_rng.c ****   * @param  pCallback pointer to the Callback function
 297:stm32f4xx-hal-driver/Src/stm32f4xx_hal_rng.c ****   * @retval HAL status
 298:stm32f4xx-hal-driver/Src/stm32f4xx_hal_rng.c ****   */
 299:stm32f4xx-hal-driver/Src/stm32f4xx_hal_rng.c **** HAL_StatusTypeDef HAL_RNG_RegisterCallback(RNG_HandleTypeDef *hrng, HAL_RNG_CallbackIDTypeDef Callb
 300:stm32f4xx-hal-driver/Src/stm32f4xx_hal_rng.c ****                                            pRNG_CallbackTypeDef pCallback)
 301:stm32f4xx-hal-driver/Src/stm32f4xx_hal_rng.c **** {
 302:stm32f4xx-hal-driver/Src/stm32f4xx_hal_rng.c ****   HAL_StatusTypeDef status = HAL_OK;
 303:stm32f4xx-hal-driver/Src/stm32f4xx_hal_rng.c **** 
 304:stm32f4xx-hal-driver/Src/stm32f4xx_hal_rng.c ****   if (pCallback == NULL)
 305:stm32f4xx-hal-driver/Src/stm32f4xx_hal_rng.c ****   {
 306:stm32f4xx-hal-driver/Src/stm32f4xx_hal_rng.c ****     /* Update the error code */
 307:stm32f4xx-hal-driver/Src/stm32f4xx_hal_rng.c ****     hrng->ErrorCode = HAL_RNG_ERROR_INVALID_CALLBACK;
 308:stm32f4xx-hal-driver/Src/stm32f4xx_hal_rng.c ****     return HAL_ERROR;
 309:stm32f4xx-hal-driver/Src/stm32f4xx_hal_rng.c ****   }
 310:stm32f4xx-hal-driver/Src/stm32f4xx_hal_rng.c **** 
 311:stm32f4xx-hal-driver/Src/stm32f4xx_hal_rng.c ****   if (HAL_RNG_STATE_READY == hrng->State)
 312:stm32f4xx-hal-driver/Src/stm32f4xx_hal_rng.c ****   {
 313:stm32f4xx-hal-driver/Src/stm32f4xx_hal_rng.c ****     switch (CallbackID)
 314:stm32f4xx-hal-driver/Src/stm32f4xx_hal_rng.c ****     {
 315:stm32f4xx-hal-driver/Src/stm32f4xx_hal_rng.c ****       case HAL_RNG_ERROR_CB_ID :
 316:stm32f4xx-hal-driver/Src/stm32f4xx_hal_rng.c ****         hrng->ErrorCallback = pCallback;
 317:stm32f4xx-hal-driver/Src/stm32f4xx_hal_rng.c ****         break;
 318:stm32f4xx-hal-driver/Src/stm32f4xx_hal_rng.c **** 
 319:stm32f4xx-hal-driver/Src/stm32f4xx_hal_rng.c ****       case HAL_RNG_MSPINIT_CB_ID :
 320:stm32f4xx-hal-driver/Src/stm32f4xx_hal_rng.c ****         hrng->MspInitCallback = pCallback;
 321:stm32f4xx-hal-driver/Src/stm32f4xx_hal_rng.c ****         break;
 322:stm32f4xx-hal-driver/Src/stm32f4xx_hal_rng.c **** 
ARM GAS  /tmp/ccrNs9nx.s 			page 11


 323:stm32f4xx-hal-driver/Src/stm32f4xx_hal_rng.c ****       case HAL_RNG_MSPDEINIT_CB_ID :
 324:stm32f4xx-hal-driver/Src/stm32f4xx_hal_rng.c ****         hrng->MspDeInitCallback = pCallback;
 325:stm32f4xx-hal-driver/Src/stm32f4xx_hal_rng.c ****         break;
 326:stm32f4xx-hal-driver/Src/stm32f4xx_hal_rng.c **** 
 327:stm32f4xx-hal-driver/Src/stm32f4xx_hal_rng.c ****       default :
 328:stm32f4xx-hal-driver/Src/stm32f4xx_hal_rng.c ****         /* Update the error code */
 329:stm32f4xx-hal-driver/Src/stm32f4xx_hal_rng.c ****         hrng->ErrorCode = HAL_RNG_ERROR_INVALID_CALLBACK;
 330:stm32f4xx-hal-driver/Src/stm32f4xx_hal_rng.c ****         /* Return error status */
 331:stm32f4xx-hal-driver/Src/stm32f4xx_hal_rng.c ****         status =  HAL_ERROR;
 332:stm32f4xx-hal-driver/Src/stm32f4xx_hal_rng.c ****         break;
 333:stm32f4xx-hal-driver/Src/stm32f4xx_hal_rng.c ****     }
 334:stm32f4xx-hal-driver/Src/stm32f4xx_hal_rng.c ****   }
 335:stm32f4xx-hal-driver/Src/stm32f4xx_hal_rng.c ****   else if (HAL_RNG_STATE_RESET == hrng->State)
 336:stm32f4xx-hal-driver/Src/stm32f4xx_hal_rng.c ****   {
 337:stm32f4xx-hal-driver/Src/stm32f4xx_hal_rng.c ****     switch (CallbackID)
 338:stm32f4xx-hal-driver/Src/stm32f4xx_hal_rng.c ****     {
 339:stm32f4xx-hal-driver/Src/stm32f4xx_hal_rng.c ****       case HAL_RNG_MSPINIT_CB_ID :
 340:stm32f4xx-hal-driver/Src/stm32f4xx_hal_rng.c ****         hrng->MspInitCallback = pCallback;
 341:stm32f4xx-hal-driver/Src/stm32f4xx_hal_rng.c ****         break;
 342:stm32f4xx-hal-driver/Src/stm32f4xx_hal_rng.c **** 
 343:stm32f4xx-hal-driver/Src/stm32f4xx_hal_rng.c ****       case HAL_RNG_MSPDEINIT_CB_ID :
 344:stm32f4xx-hal-driver/Src/stm32f4xx_hal_rng.c ****         hrng->MspDeInitCallback = pCallback;
 345:stm32f4xx-hal-driver/Src/stm32f4xx_hal_rng.c ****         break;
 346:stm32f4xx-hal-driver/Src/stm32f4xx_hal_rng.c **** 
 347:stm32f4xx-hal-driver/Src/stm32f4xx_hal_rng.c ****       default :
 348:stm32f4xx-hal-driver/Src/stm32f4xx_hal_rng.c ****         /* Update the error code */
 349:stm32f4xx-hal-driver/Src/stm32f4xx_hal_rng.c ****         hrng->ErrorCode = HAL_RNG_ERROR_INVALID_CALLBACK;
 350:stm32f4xx-hal-driver/Src/stm32f4xx_hal_rng.c ****         /* Return error status */
 351:stm32f4xx-hal-driver/Src/stm32f4xx_hal_rng.c ****         status =  HAL_ERROR;
 352:stm32f4xx-hal-driver/Src/stm32f4xx_hal_rng.c ****         break;
 353:stm32f4xx-hal-driver/Src/stm32f4xx_hal_rng.c ****     }
 354:stm32f4xx-hal-driver/Src/stm32f4xx_hal_rng.c ****   }
 355:stm32f4xx-hal-driver/Src/stm32f4xx_hal_rng.c ****   else
 356:stm32f4xx-hal-driver/Src/stm32f4xx_hal_rng.c ****   {
 357:stm32f4xx-hal-driver/Src/stm32f4xx_hal_rng.c ****     /* Update the error code */
 358:stm32f4xx-hal-driver/Src/stm32f4xx_hal_rng.c ****     hrng->ErrorCode = HAL_RNG_ERROR_INVALID_CALLBACK;
 359:stm32f4xx-hal-driver/Src/stm32f4xx_hal_rng.c ****     /* Return error status */
 360:stm32f4xx-hal-driver/Src/stm32f4xx_hal_rng.c ****     status =  HAL_ERROR;
 361:stm32f4xx-hal-driver/Src/stm32f4xx_hal_rng.c ****   }
 362:stm32f4xx-hal-driver/Src/stm32f4xx_hal_rng.c **** 
 363:stm32f4xx-hal-driver/Src/stm32f4xx_hal_rng.c ****   return status;
 364:stm32f4xx-hal-driver/Src/stm32f4xx_hal_rng.c **** }
 365:stm32f4xx-hal-driver/Src/stm32f4xx_hal_rng.c **** 
 366:stm32f4xx-hal-driver/Src/stm32f4xx_hal_rng.c **** /**
 367:stm32f4xx-hal-driver/Src/stm32f4xx_hal_rng.c ****   * @brief  Unregister an RNG Callback
 368:stm32f4xx-hal-driver/Src/stm32f4xx_hal_rng.c ****   *         RNG callback is redirected to the weak predefined callback
 369:stm32f4xx-hal-driver/Src/stm32f4xx_hal_rng.c ****   * @param  hrng RNG handle
 370:stm32f4xx-hal-driver/Src/stm32f4xx_hal_rng.c ****   * @param  CallbackID ID of the callback to be unregistered
 371:stm32f4xx-hal-driver/Src/stm32f4xx_hal_rng.c ****   *         This parameter can be one of the following values:
 372:stm32f4xx-hal-driver/Src/stm32f4xx_hal_rng.c ****   *          @arg @ref HAL_RNG_ERROR_CB_ID Error callback ID
 373:stm32f4xx-hal-driver/Src/stm32f4xx_hal_rng.c ****   *          @arg @ref HAL_RNG_MSPINIT_CB_ID MspInit callback ID
 374:stm32f4xx-hal-driver/Src/stm32f4xx_hal_rng.c ****   *          @arg @ref HAL_RNG_MSPDEINIT_CB_ID MspDeInit callback ID
 375:stm32f4xx-hal-driver/Src/stm32f4xx_hal_rng.c ****   * @retval HAL status
 376:stm32f4xx-hal-driver/Src/stm32f4xx_hal_rng.c ****   */
 377:stm32f4xx-hal-driver/Src/stm32f4xx_hal_rng.c **** HAL_StatusTypeDef HAL_RNG_UnRegisterCallback(RNG_HandleTypeDef *hrng, HAL_RNG_CallbackIDTypeDef Cal
 378:stm32f4xx-hal-driver/Src/stm32f4xx_hal_rng.c **** {
 379:stm32f4xx-hal-driver/Src/stm32f4xx_hal_rng.c ****   HAL_StatusTypeDef status = HAL_OK;
ARM GAS  /tmp/ccrNs9nx.s 			page 12


 380:stm32f4xx-hal-driver/Src/stm32f4xx_hal_rng.c **** 
 381:stm32f4xx-hal-driver/Src/stm32f4xx_hal_rng.c **** 
 382:stm32f4xx-hal-driver/Src/stm32f4xx_hal_rng.c ****   if (HAL_RNG_STATE_READY == hrng->State)
 383:stm32f4xx-hal-driver/Src/stm32f4xx_hal_rng.c ****   {
 384:stm32f4xx-hal-driver/Src/stm32f4xx_hal_rng.c ****     switch (CallbackID)
 385:stm32f4xx-hal-driver/Src/stm32f4xx_hal_rng.c ****     {
 386:stm32f4xx-hal-driver/Src/stm32f4xx_hal_rng.c ****       case HAL_RNG_ERROR_CB_ID :
 387:stm32f4xx-hal-driver/Src/stm32f4xx_hal_rng.c ****         hrng->ErrorCallback = HAL_RNG_ErrorCallback;          /* Legacy weak ErrorCallback  */
 388:stm32f4xx-hal-driver/Src/stm32f4xx_hal_rng.c ****         break;
 389:stm32f4xx-hal-driver/Src/stm32f4xx_hal_rng.c **** 
 390:stm32f4xx-hal-driver/Src/stm32f4xx_hal_rng.c ****       case HAL_RNG_MSPINIT_CB_ID :
 391:stm32f4xx-hal-driver/Src/stm32f4xx_hal_rng.c ****         hrng->MspInitCallback = HAL_RNG_MspInit;              /* Legacy weak MspInit  */
 392:stm32f4xx-hal-driver/Src/stm32f4xx_hal_rng.c ****         break;
 393:stm32f4xx-hal-driver/Src/stm32f4xx_hal_rng.c **** 
 394:stm32f4xx-hal-driver/Src/stm32f4xx_hal_rng.c ****       case HAL_RNG_MSPDEINIT_CB_ID :
 395:stm32f4xx-hal-driver/Src/stm32f4xx_hal_rng.c ****         hrng->MspDeInitCallback = HAL_RNG_MspDeInit;          /* Legacy weak MspDeInit  */
 396:stm32f4xx-hal-driver/Src/stm32f4xx_hal_rng.c ****         break;
 397:stm32f4xx-hal-driver/Src/stm32f4xx_hal_rng.c **** 
 398:stm32f4xx-hal-driver/Src/stm32f4xx_hal_rng.c ****       default :
 399:stm32f4xx-hal-driver/Src/stm32f4xx_hal_rng.c ****         /* Update the error code */
 400:stm32f4xx-hal-driver/Src/stm32f4xx_hal_rng.c ****         hrng->ErrorCode = HAL_RNG_ERROR_INVALID_CALLBACK;
 401:stm32f4xx-hal-driver/Src/stm32f4xx_hal_rng.c ****         /* Return error status */
 402:stm32f4xx-hal-driver/Src/stm32f4xx_hal_rng.c ****         status =  HAL_ERROR;
 403:stm32f4xx-hal-driver/Src/stm32f4xx_hal_rng.c ****         break;
 404:stm32f4xx-hal-driver/Src/stm32f4xx_hal_rng.c ****     }
 405:stm32f4xx-hal-driver/Src/stm32f4xx_hal_rng.c ****   }
 406:stm32f4xx-hal-driver/Src/stm32f4xx_hal_rng.c ****   else if (HAL_RNG_STATE_RESET == hrng->State)
 407:stm32f4xx-hal-driver/Src/stm32f4xx_hal_rng.c ****   {
 408:stm32f4xx-hal-driver/Src/stm32f4xx_hal_rng.c ****     switch (CallbackID)
 409:stm32f4xx-hal-driver/Src/stm32f4xx_hal_rng.c ****     {
 410:stm32f4xx-hal-driver/Src/stm32f4xx_hal_rng.c ****       case HAL_RNG_MSPINIT_CB_ID :
 411:stm32f4xx-hal-driver/Src/stm32f4xx_hal_rng.c ****         hrng->MspInitCallback = HAL_RNG_MspInit;              /* Legacy weak MspInit  */
 412:stm32f4xx-hal-driver/Src/stm32f4xx_hal_rng.c ****         break;
 413:stm32f4xx-hal-driver/Src/stm32f4xx_hal_rng.c **** 
 414:stm32f4xx-hal-driver/Src/stm32f4xx_hal_rng.c ****       case HAL_RNG_MSPDEINIT_CB_ID :
 415:stm32f4xx-hal-driver/Src/stm32f4xx_hal_rng.c ****         hrng->MspDeInitCallback = HAL_RNG_MspDeInit;          /* Legacy weak MspInit  */
 416:stm32f4xx-hal-driver/Src/stm32f4xx_hal_rng.c ****         break;
 417:stm32f4xx-hal-driver/Src/stm32f4xx_hal_rng.c **** 
 418:stm32f4xx-hal-driver/Src/stm32f4xx_hal_rng.c ****       default :
 419:stm32f4xx-hal-driver/Src/stm32f4xx_hal_rng.c ****         /* Update the error code */
 420:stm32f4xx-hal-driver/Src/stm32f4xx_hal_rng.c ****         hrng->ErrorCode = HAL_RNG_ERROR_INVALID_CALLBACK;
 421:stm32f4xx-hal-driver/Src/stm32f4xx_hal_rng.c ****         /* Return error status */
 422:stm32f4xx-hal-driver/Src/stm32f4xx_hal_rng.c ****         status =  HAL_ERROR;
 423:stm32f4xx-hal-driver/Src/stm32f4xx_hal_rng.c ****         break;
 424:stm32f4xx-hal-driver/Src/stm32f4xx_hal_rng.c ****     }
 425:stm32f4xx-hal-driver/Src/stm32f4xx_hal_rng.c ****   }
 426:stm32f4xx-hal-driver/Src/stm32f4xx_hal_rng.c ****   else
 427:stm32f4xx-hal-driver/Src/stm32f4xx_hal_rng.c ****   {
 428:stm32f4xx-hal-driver/Src/stm32f4xx_hal_rng.c ****     /* Update the error code */
 429:stm32f4xx-hal-driver/Src/stm32f4xx_hal_rng.c ****     hrng->ErrorCode = HAL_RNG_ERROR_INVALID_CALLBACK;
 430:stm32f4xx-hal-driver/Src/stm32f4xx_hal_rng.c ****     /* Return error status */
 431:stm32f4xx-hal-driver/Src/stm32f4xx_hal_rng.c ****     status =  HAL_ERROR;
 432:stm32f4xx-hal-driver/Src/stm32f4xx_hal_rng.c ****   }
 433:stm32f4xx-hal-driver/Src/stm32f4xx_hal_rng.c **** 
 434:stm32f4xx-hal-driver/Src/stm32f4xx_hal_rng.c ****   return status;
 435:stm32f4xx-hal-driver/Src/stm32f4xx_hal_rng.c **** }
 436:stm32f4xx-hal-driver/Src/stm32f4xx_hal_rng.c **** 
ARM GAS  /tmp/ccrNs9nx.s 			page 13


 437:stm32f4xx-hal-driver/Src/stm32f4xx_hal_rng.c **** /**
 438:stm32f4xx-hal-driver/Src/stm32f4xx_hal_rng.c ****   * @brief  Register Data Ready RNG Callback
 439:stm32f4xx-hal-driver/Src/stm32f4xx_hal_rng.c ****   *         To be used instead of the weak HAL_RNG_ReadyDataCallback() predefined callback
 440:stm32f4xx-hal-driver/Src/stm32f4xx_hal_rng.c ****   * @param  hrng RNG handle
 441:stm32f4xx-hal-driver/Src/stm32f4xx_hal_rng.c ****   * @param  pCallback pointer to the Data Ready Callback function
 442:stm32f4xx-hal-driver/Src/stm32f4xx_hal_rng.c ****   * @retval HAL status
 443:stm32f4xx-hal-driver/Src/stm32f4xx_hal_rng.c ****   */
 444:stm32f4xx-hal-driver/Src/stm32f4xx_hal_rng.c **** HAL_StatusTypeDef HAL_RNG_RegisterReadyDataCallback(RNG_HandleTypeDef *hrng, pRNG_ReadyDataCallback
 445:stm32f4xx-hal-driver/Src/stm32f4xx_hal_rng.c **** {
 446:stm32f4xx-hal-driver/Src/stm32f4xx_hal_rng.c ****   HAL_StatusTypeDef status = HAL_OK;
 447:stm32f4xx-hal-driver/Src/stm32f4xx_hal_rng.c **** 
 448:stm32f4xx-hal-driver/Src/stm32f4xx_hal_rng.c ****   if (pCallback == NULL)
 449:stm32f4xx-hal-driver/Src/stm32f4xx_hal_rng.c ****   {
 450:stm32f4xx-hal-driver/Src/stm32f4xx_hal_rng.c ****     /* Update the error code */
 451:stm32f4xx-hal-driver/Src/stm32f4xx_hal_rng.c ****     hrng->ErrorCode = HAL_RNG_ERROR_INVALID_CALLBACK;
 452:stm32f4xx-hal-driver/Src/stm32f4xx_hal_rng.c ****     return HAL_ERROR;
 453:stm32f4xx-hal-driver/Src/stm32f4xx_hal_rng.c ****   }
 454:stm32f4xx-hal-driver/Src/stm32f4xx_hal_rng.c ****   /* Process locked */
 455:stm32f4xx-hal-driver/Src/stm32f4xx_hal_rng.c ****   __HAL_LOCK(hrng);
 456:stm32f4xx-hal-driver/Src/stm32f4xx_hal_rng.c **** 
 457:stm32f4xx-hal-driver/Src/stm32f4xx_hal_rng.c ****   if (HAL_RNG_STATE_READY == hrng->State)
 458:stm32f4xx-hal-driver/Src/stm32f4xx_hal_rng.c ****   {
 459:stm32f4xx-hal-driver/Src/stm32f4xx_hal_rng.c ****     hrng->ReadyDataCallback = pCallback;
 460:stm32f4xx-hal-driver/Src/stm32f4xx_hal_rng.c ****   }
 461:stm32f4xx-hal-driver/Src/stm32f4xx_hal_rng.c ****   else
 462:stm32f4xx-hal-driver/Src/stm32f4xx_hal_rng.c ****   {
 463:stm32f4xx-hal-driver/Src/stm32f4xx_hal_rng.c ****     /* Update the error code */
 464:stm32f4xx-hal-driver/Src/stm32f4xx_hal_rng.c ****     hrng->ErrorCode = HAL_RNG_ERROR_INVALID_CALLBACK;
 465:stm32f4xx-hal-driver/Src/stm32f4xx_hal_rng.c ****     /* Return error status */
 466:stm32f4xx-hal-driver/Src/stm32f4xx_hal_rng.c ****     status =  HAL_ERROR;
 467:stm32f4xx-hal-driver/Src/stm32f4xx_hal_rng.c ****   }
 468:stm32f4xx-hal-driver/Src/stm32f4xx_hal_rng.c **** 
 469:stm32f4xx-hal-driver/Src/stm32f4xx_hal_rng.c ****   /* Release Lock */
 470:stm32f4xx-hal-driver/Src/stm32f4xx_hal_rng.c ****   __HAL_UNLOCK(hrng);
 471:stm32f4xx-hal-driver/Src/stm32f4xx_hal_rng.c ****   return status;
 472:stm32f4xx-hal-driver/Src/stm32f4xx_hal_rng.c **** }
 473:stm32f4xx-hal-driver/Src/stm32f4xx_hal_rng.c **** 
 474:stm32f4xx-hal-driver/Src/stm32f4xx_hal_rng.c **** /**
 475:stm32f4xx-hal-driver/Src/stm32f4xx_hal_rng.c ****   * @brief  UnRegister the Data Ready RNG Callback
 476:stm32f4xx-hal-driver/Src/stm32f4xx_hal_rng.c ****   *         Data Ready RNG Callback is redirected to the weak HAL_RNG_ReadyDataCallback() predefine
 477:stm32f4xx-hal-driver/Src/stm32f4xx_hal_rng.c ****   * @param  hrng RNG handle
 478:stm32f4xx-hal-driver/Src/stm32f4xx_hal_rng.c ****   * @retval HAL status
 479:stm32f4xx-hal-driver/Src/stm32f4xx_hal_rng.c ****   */
 480:stm32f4xx-hal-driver/Src/stm32f4xx_hal_rng.c **** HAL_StatusTypeDef HAL_RNG_UnRegisterReadyDataCallback(RNG_HandleTypeDef *hrng)
 481:stm32f4xx-hal-driver/Src/stm32f4xx_hal_rng.c **** {
 482:stm32f4xx-hal-driver/Src/stm32f4xx_hal_rng.c ****   HAL_StatusTypeDef status = HAL_OK;
 483:stm32f4xx-hal-driver/Src/stm32f4xx_hal_rng.c **** 
 484:stm32f4xx-hal-driver/Src/stm32f4xx_hal_rng.c ****   /* Process locked */
 485:stm32f4xx-hal-driver/Src/stm32f4xx_hal_rng.c ****   __HAL_LOCK(hrng);
 486:stm32f4xx-hal-driver/Src/stm32f4xx_hal_rng.c **** 
 487:stm32f4xx-hal-driver/Src/stm32f4xx_hal_rng.c ****   if (HAL_RNG_STATE_READY == hrng->State)
 488:stm32f4xx-hal-driver/Src/stm32f4xx_hal_rng.c ****   {
 489:stm32f4xx-hal-driver/Src/stm32f4xx_hal_rng.c ****     hrng->ReadyDataCallback = HAL_RNG_ReadyDataCallback; /* Legacy weak ReadyDataCallback  */
 490:stm32f4xx-hal-driver/Src/stm32f4xx_hal_rng.c ****   }
 491:stm32f4xx-hal-driver/Src/stm32f4xx_hal_rng.c ****   else
 492:stm32f4xx-hal-driver/Src/stm32f4xx_hal_rng.c ****   {
 493:stm32f4xx-hal-driver/Src/stm32f4xx_hal_rng.c ****     /* Update the error code */
ARM GAS  /tmp/ccrNs9nx.s 			page 14


 494:stm32f4xx-hal-driver/Src/stm32f4xx_hal_rng.c ****     hrng->ErrorCode = HAL_RNG_ERROR_INVALID_CALLBACK;
 495:stm32f4xx-hal-driver/Src/stm32f4xx_hal_rng.c ****     /* Return error status */
 496:stm32f4xx-hal-driver/Src/stm32f4xx_hal_rng.c ****     status =  HAL_ERROR;
 497:stm32f4xx-hal-driver/Src/stm32f4xx_hal_rng.c ****   }
 498:stm32f4xx-hal-driver/Src/stm32f4xx_hal_rng.c **** 
 499:stm32f4xx-hal-driver/Src/stm32f4xx_hal_rng.c ****   /* Release Lock */
 500:stm32f4xx-hal-driver/Src/stm32f4xx_hal_rng.c ****   __HAL_UNLOCK(hrng);
 501:stm32f4xx-hal-driver/Src/stm32f4xx_hal_rng.c ****   return status;
 502:stm32f4xx-hal-driver/Src/stm32f4xx_hal_rng.c **** }
 503:stm32f4xx-hal-driver/Src/stm32f4xx_hal_rng.c **** 
 504:stm32f4xx-hal-driver/Src/stm32f4xx_hal_rng.c **** #endif /* USE_HAL_RNG_REGISTER_CALLBACKS */
 505:stm32f4xx-hal-driver/Src/stm32f4xx_hal_rng.c **** 
 506:stm32f4xx-hal-driver/Src/stm32f4xx_hal_rng.c **** /**
 507:stm32f4xx-hal-driver/Src/stm32f4xx_hal_rng.c ****   * @}
 508:stm32f4xx-hal-driver/Src/stm32f4xx_hal_rng.c ****   */
 509:stm32f4xx-hal-driver/Src/stm32f4xx_hal_rng.c **** 
 510:stm32f4xx-hal-driver/Src/stm32f4xx_hal_rng.c **** /** @addtogroup RNG_Exported_Functions_Group2
 511:stm32f4xx-hal-driver/Src/stm32f4xx_hal_rng.c ****   *  @brief   Peripheral Control functions
 512:stm32f4xx-hal-driver/Src/stm32f4xx_hal_rng.c ****   *
 513:stm32f4xx-hal-driver/Src/stm32f4xx_hal_rng.c **** @verbatim
 514:stm32f4xx-hal-driver/Src/stm32f4xx_hal_rng.c ****  ===============================================================================
 515:stm32f4xx-hal-driver/Src/stm32f4xx_hal_rng.c ****                       ##### Peripheral Control functions #####
 516:stm32f4xx-hal-driver/Src/stm32f4xx_hal_rng.c ****  ===============================================================================
 517:stm32f4xx-hal-driver/Src/stm32f4xx_hal_rng.c ****     [..]  This section provides functions allowing to:
 518:stm32f4xx-hal-driver/Src/stm32f4xx_hal_rng.c ****       (+) Get the 32 bit Random number
 519:stm32f4xx-hal-driver/Src/stm32f4xx_hal_rng.c ****       (+) Get the 32 bit Random number with interrupt enabled
 520:stm32f4xx-hal-driver/Src/stm32f4xx_hal_rng.c ****       (+) Handle RNG interrupt request
 521:stm32f4xx-hal-driver/Src/stm32f4xx_hal_rng.c **** 
 522:stm32f4xx-hal-driver/Src/stm32f4xx_hal_rng.c **** @endverbatim
 523:stm32f4xx-hal-driver/Src/stm32f4xx_hal_rng.c ****   * @{
 524:stm32f4xx-hal-driver/Src/stm32f4xx_hal_rng.c ****   */
 525:stm32f4xx-hal-driver/Src/stm32f4xx_hal_rng.c **** 
 526:stm32f4xx-hal-driver/Src/stm32f4xx_hal_rng.c **** /**
 527:stm32f4xx-hal-driver/Src/stm32f4xx_hal_rng.c ****   * @brief  Generates a 32-bit random number.
 528:stm32f4xx-hal-driver/Src/stm32f4xx_hal_rng.c ****   * @note   Each time the random number data is read the RNG_FLAG_DRDY flag
 529:stm32f4xx-hal-driver/Src/stm32f4xx_hal_rng.c ****   *         is automatically cleared.
 530:stm32f4xx-hal-driver/Src/stm32f4xx_hal_rng.c ****   * @param  hrng pointer to a RNG_HandleTypeDef structure that contains
 531:stm32f4xx-hal-driver/Src/stm32f4xx_hal_rng.c ****   *                the configuration information for RNG.
 532:stm32f4xx-hal-driver/Src/stm32f4xx_hal_rng.c ****   * @param  random32bit pointer to generated random number variable if successful.
 533:stm32f4xx-hal-driver/Src/stm32f4xx_hal_rng.c ****   * @retval HAL status
 534:stm32f4xx-hal-driver/Src/stm32f4xx_hal_rng.c ****   */
 535:stm32f4xx-hal-driver/Src/stm32f4xx_hal_rng.c **** 
 536:stm32f4xx-hal-driver/Src/stm32f4xx_hal_rng.c **** HAL_StatusTypeDef HAL_RNG_GenerateRandomNumber(RNG_HandleTypeDef *hrng, uint32_t *random32bit)
 537:stm32f4xx-hal-driver/Src/stm32f4xx_hal_rng.c **** {
 217              		.loc 1 537 1 is_stmt 1 view -0
 218              		.cfi_startproc
 219              		@ args = 0, pretend = 0, frame = 0
 220              		@ frame_needed = 0, uses_anonymous_args = 0
 221              		.loc 1 537 1 is_stmt 0 view .LVU48
 222 0000 F8B5     		push	{r3, r4, r5, r6, r7, lr}
 223              	.LCFI4:
 224              		.cfi_def_cfa_offset 24
 225              		.cfi_offset 3, -24
 226              		.cfi_offset 4, -20
 227              		.cfi_offset 5, -16
 228              		.cfi_offset 6, -12
 229              		.cfi_offset 7, -8
ARM GAS  /tmp/ccrNs9nx.s 			page 15


 230              		.cfi_offset 14, -4
 538:stm32f4xx-hal-driver/Src/stm32f4xx_hal_rng.c ****   uint32_t tickstart;
 231              		.loc 1 538 3 is_stmt 1 view .LVU49
 539:stm32f4xx-hal-driver/Src/stm32f4xx_hal_rng.c ****   HAL_StatusTypeDef status = HAL_OK;
 232              		.loc 1 539 3 view .LVU50
 233              	.LVL13:
 540:stm32f4xx-hal-driver/Src/stm32f4xx_hal_rng.c **** 
 541:stm32f4xx-hal-driver/Src/stm32f4xx_hal_rng.c ****   /* Process Locked */
 542:stm32f4xx-hal-driver/Src/stm32f4xx_hal_rng.c ****   __HAL_LOCK(hrng);
 234              		.loc 1 542 3 view .LVU51
 235              		.loc 1 542 3 view .LVU52
 236 0002 0379     		ldrb	r3, [r0, #4]	@ zero_extendqisi2
 237 0004 012B     		cmp	r3, #1
 238 0006 30D0     		beq	.L25
 239 0008 0446     		mov	r4, r0
 240 000a 0E46     		mov	r6, r1
 241              		.loc 1 542 3 discriminator 2 view .LVU53
 242 000c 0123     		movs	r3, #1
 243 000e 0371     		strb	r3, [r0, #4]
 244              		.loc 1 542 3 discriminator 2 view .LVU54
 543:stm32f4xx-hal-driver/Src/stm32f4xx_hal_rng.c **** 
 544:stm32f4xx-hal-driver/Src/stm32f4xx_hal_rng.c ****   /* Check RNG peripheral state */
 545:stm32f4xx-hal-driver/Src/stm32f4xx_hal_rng.c ****   if (hrng->State == HAL_RNG_STATE_READY)
 245              		.loc 1 545 3 discriminator 2 view .LVU55
 246              		.loc 1 545 11 is_stmt 0 discriminator 2 view .LVU56
 247 0010 4579     		ldrb	r5, [r0, #5]	@ zero_extendqisi2
 248 0012 EDB2     		uxtb	r5, r5
 249              		.loc 1 545 6 discriminator 2 view .LVU57
 250 0014 9D42     		cmp	r5, r3
 251 0016 06D0     		beq	.L27
 546:stm32f4xx-hal-driver/Src/stm32f4xx_hal_rng.c ****   {
 547:stm32f4xx-hal-driver/Src/stm32f4xx_hal_rng.c ****     /* Change RNG peripheral state */
 548:stm32f4xx-hal-driver/Src/stm32f4xx_hal_rng.c ****     hrng->State = HAL_RNG_STATE_BUSY;
 549:stm32f4xx-hal-driver/Src/stm32f4xx_hal_rng.c **** 
 550:stm32f4xx-hal-driver/Src/stm32f4xx_hal_rng.c ****     /* Get tick */
 551:stm32f4xx-hal-driver/Src/stm32f4xx_hal_rng.c ****     tickstart = HAL_GetTick();
 552:stm32f4xx-hal-driver/Src/stm32f4xx_hal_rng.c **** 
 553:stm32f4xx-hal-driver/Src/stm32f4xx_hal_rng.c ****     /* Check if data register contains valid random data */
 554:stm32f4xx-hal-driver/Src/stm32f4xx_hal_rng.c ****     while (__HAL_RNG_GET_FLAG(hrng, RNG_FLAG_DRDY) == RESET)
 555:stm32f4xx-hal-driver/Src/stm32f4xx_hal_rng.c ****     {
 556:stm32f4xx-hal-driver/Src/stm32f4xx_hal_rng.c ****       if ((HAL_GetTick() - tickstart) > RNG_TIMEOUT_VALUE)
 557:stm32f4xx-hal-driver/Src/stm32f4xx_hal_rng.c ****       {
 558:stm32f4xx-hal-driver/Src/stm32f4xx_hal_rng.c ****         /* New check to avoid false timeout detection in case of preemption */
 559:stm32f4xx-hal-driver/Src/stm32f4xx_hal_rng.c ****         if (__HAL_RNG_GET_FLAG(hrng, RNG_FLAG_DRDY) == RESET)
 560:stm32f4xx-hal-driver/Src/stm32f4xx_hal_rng.c ****         {
 561:stm32f4xx-hal-driver/Src/stm32f4xx_hal_rng.c ****           hrng->State = HAL_RNG_STATE_READY;
 562:stm32f4xx-hal-driver/Src/stm32f4xx_hal_rng.c ****           hrng->ErrorCode = HAL_RNG_ERROR_TIMEOUT;
 563:stm32f4xx-hal-driver/Src/stm32f4xx_hal_rng.c ****           /* Process Unlocked */
 564:stm32f4xx-hal-driver/Src/stm32f4xx_hal_rng.c ****           __HAL_UNLOCK(hrng);
 565:stm32f4xx-hal-driver/Src/stm32f4xx_hal_rng.c ****           return HAL_ERROR;
 566:stm32f4xx-hal-driver/Src/stm32f4xx_hal_rng.c ****         }
 567:stm32f4xx-hal-driver/Src/stm32f4xx_hal_rng.c ****       }
 568:stm32f4xx-hal-driver/Src/stm32f4xx_hal_rng.c ****     }
 569:stm32f4xx-hal-driver/Src/stm32f4xx_hal_rng.c **** 
 570:stm32f4xx-hal-driver/Src/stm32f4xx_hal_rng.c ****     /* Get a 32bit Random number */
 571:stm32f4xx-hal-driver/Src/stm32f4xx_hal_rng.c ****     hrng->RandomNumber = hrng->Instance->DR;
 572:stm32f4xx-hal-driver/Src/stm32f4xx_hal_rng.c ****     *random32bit = hrng->RandomNumber;
ARM GAS  /tmp/ccrNs9nx.s 			page 16


 573:stm32f4xx-hal-driver/Src/stm32f4xx_hal_rng.c **** 
 574:stm32f4xx-hal-driver/Src/stm32f4xx_hal_rng.c ****     hrng->State = HAL_RNG_STATE_READY;
 575:stm32f4xx-hal-driver/Src/stm32f4xx_hal_rng.c ****   }
 576:stm32f4xx-hal-driver/Src/stm32f4xx_hal_rng.c ****   else
 577:stm32f4xx-hal-driver/Src/stm32f4xx_hal_rng.c ****   {
 578:stm32f4xx-hal-driver/Src/stm32f4xx_hal_rng.c ****     hrng->ErrorCode = HAL_RNG_ERROR_BUSY;
 252              		.loc 1 578 5 is_stmt 1 view .LVU58
 253              		.loc 1 578 21 is_stmt 0 view .LVU59
 254 0018 0423     		movs	r3, #4
 255 001a 8360     		str	r3, [r0, #8]
 579:stm32f4xx-hal-driver/Src/stm32f4xx_hal_rng.c ****     status = HAL_ERROR;
 256              		.loc 1 579 5 is_stmt 1 view .LVU60
 257              	.LVL14:
 258              		.loc 1 579 12 is_stmt 0 view .LVU61
 259 001c 0125     		movs	r5, #1
 260              	.LVL15:
 261              	.L24:
 580:stm32f4xx-hal-driver/Src/stm32f4xx_hal_rng.c ****   }
 581:stm32f4xx-hal-driver/Src/stm32f4xx_hal_rng.c **** 
 582:stm32f4xx-hal-driver/Src/stm32f4xx_hal_rng.c ****   /* Process Unlocked */
 583:stm32f4xx-hal-driver/Src/stm32f4xx_hal_rng.c ****   __HAL_UNLOCK(hrng);
 262              		.loc 1 583 3 is_stmt 1 view .LVU62
 263              		.loc 1 583 3 view .LVU63
 264 001e 0023     		movs	r3, #0
 265 0020 2371     		strb	r3, [r4, #4]
 266              		.loc 1 583 3 view .LVU64
 584:stm32f4xx-hal-driver/Src/stm32f4xx_hal_rng.c **** 
 585:stm32f4xx-hal-driver/Src/stm32f4xx_hal_rng.c ****   return status;
 267              		.loc 1 585 3 view .LVU65
 268              	.LVL16:
 269              	.L20:
 586:stm32f4xx-hal-driver/Src/stm32f4xx_hal_rng.c **** }
 270              		.loc 1 586 1 is_stmt 0 view .LVU66
 271 0022 2846     		mov	r0, r5
 272 0024 F8BD     		pop	{r3, r4, r5, r6, r7, pc}
 273              	.LVL17:
 274              	.L27:
 548:stm32f4xx-hal-driver/Src/stm32f4xx_hal_rng.c **** 
 275              		.loc 1 548 5 is_stmt 1 view .LVU67
 548:stm32f4xx-hal-driver/Src/stm32f4xx_hal_rng.c **** 
 276              		.loc 1 548 17 is_stmt 0 view .LVU68
 277 0026 0223     		movs	r3, #2
 278 0028 4371     		strb	r3, [r0, #5]
 551:stm32f4xx-hal-driver/Src/stm32f4xx_hal_rng.c **** 
 279              		.loc 1 551 5 is_stmt 1 view .LVU69
 551:stm32f4xx-hal-driver/Src/stm32f4xx_hal_rng.c **** 
 280              		.loc 1 551 17 is_stmt 0 view .LVU70
 281 002a FFF7FEFF 		bl	HAL_GetTick
 282              	.LVL18:
 551:stm32f4xx-hal-driver/Src/stm32f4xx_hal_rng.c **** 
 283              		.loc 1 551 17 view .LVU71
 284 002e 0746     		mov	r7, r0
 285              	.LVL19:
 554:stm32f4xx-hal-driver/Src/stm32f4xx_hal_rng.c ****     {
 286              		.loc 1 554 5 is_stmt 1 view .LVU72
 287              	.L22:
 554:stm32f4xx-hal-driver/Src/stm32f4xx_hal_rng.c ****     {
ARM GAS  /tmp/ccrNs9nx.s 			page 17


 288              		.loc 1 554 11 view .LVU73
 554:stm32f4xx-hal-driver/Src/stm32f4xx_hal_rng.c ****     {
 289              		.loc 1 554 12 is_stmt 0 view .LVU74
 290 0030 2368     		ldr	r3, [r4]
 291 0032 5A68     		ldr	r2, [r3, #4]
 554:stm32f4xx-hal-driver/Src/stm32f4xx_hal_rng.c ****     {
 292              		.loc 1 554 11 view .LVU75
 293 0034 12F0010F 		tst	r2, #1
 294 0038 10D1     		bne	.L28
 556:stm32f4xx-hal-driver/Src/stm32f4xx_hal_rng.c ****       {
 295              		.loc 1 556 7 is_stmt 1 view .LVU76
 556:stm32f4xx-hal-driver/Src/stm32f4xx_hal_rng.c ****       {
 296              		.loc 1 556 12 is_stmt 0 view .LVU77
 297 003a FFF7FEFF 		bl	HAL_GetTick
 298              	.LVL20:
 556:stm32f4xx-hal-driver/Src/stm32f4xx_hal_rng.c ****       {
 299              		.loc 1 556 26 view .LVU78
 300 003e C01B     		subs	r0, r0, r7
 556:stm32f4xx-hal-driver/Src/stm32f4xx_hal_rng.c ****       {
 301              		.loc 1 556 10 view .LVU79
 302 0040 0228     		cmp	r0, #2
 303 0042 F5D9     		bls	.L22
 559:stm32f4xx-hal-driver/Src/stm32f4xx_hal_rng.c ****         {
 304              		.loc 1 559 9 is_stmt 1 view .LVU80
 559:stm32f4xx-hal-driver/Src/stm32f4xx_hal_rng.c ****         {
 305              		.loc 1 559 13 is_stmt 0 view .LVU81
 306 0044 2368     		ldr	r3, [r4]
 307 0046 5B68     		ldr	r3, [r3, #4]
 559:stm32f4xx-hal-driver/Src/stm32f4xx_hal_rng.c ****         {
 308              		.loc 1 559 12 view .LVU82
 309 0048 13F0010F 		tst	r3, #1
 310 004c F0D1     		bne	.L22
 561:stm32f4xx-hal-driver/Src/stm32f4xx_hal_rng.c ****           hrng->ErrorCode = HAL_RNG_ERROR_TIMEOUT;
 311              		.loc 1 561 11 is_stmt 1 view .LVU83
 561:stm32f4xx-hal-driver/Src/stm32f4xx_hal_rng.c ****           hrng->ErrorCode = HAL_RNG_ERROR_TIMEOUT;
 312              		.loc 1 561 23 is_stmt 0 view .LVU84
 313 004e 0123     		movs	r3, #1
 314 0050 6371     		strb	r3, [r4, #5]
 562:stm32f4xx-hal-driver/Src/stm32f4xx_hal_rng.c ****           /* Process Unlocked */
 315              		.loc 1 562 11 is_stmt 1 view .LVU85
 562:stm32f4xx-hal-driver/Src/stm32f4xx_hal_rng.c ****           /* Process Unlocked */
 316              		.loc 1 562 27 is_stmt 0 view .LVU86
 317 0052 0223     		movs	r3, #2
 318 0054 A360     		str	r3, [r4, #8]
 564:stm32f4xx-hal-driver/Src/stm32f4xx_hal_rng.c ****           return HAL_ERROR;
 319              		.loc 1 564 11 is_stmt 1 view .LVU87
 564:stm32f4xx-hal-driver/Src/stm32f4xx_hal_rng.c ****           return HAL_ERROR;
 320              		.loc 1 564 11 view .LVU88
 321 0056 0023     		movs	r3, #0
 322 0058 2371     		strb	r3, [r4, #4]
 564:stm32f4xx-hal-driver/Src/stm32f4xx_hal_rng.c ****           return HAL_ERROR;
 323              		.loc 1 564 11 view .LVU89
 565:stm32f4xx-hal-driver/Src/stm32f4xx_hal_rng.c ****         }
 324              		.loc 1 565 11 view .LVU90
 565:stm32f4xx-hal-driver/Src/stm32f4xx_hal_rng.c ****         }
 325              		.loc 1 565 18 is_stmt 0 view .LVU91
 326 005a E2E7     		b	.L20
ARM GAS  /tmp/ccrNs9nx.s 			page 18


 327              	.L28:
 571:stm32f4xx-hal-driver/Src/stm32f4xx_hal_rng.c ****     *random32bit = hrng->RandomNumber;
 328              		.loc 1 571 5 is_stmt 1 view .LVU92
 571:stm32f4xx-hal-driver/Src/stm32f4xx_hal_rng.c ****     *random32bit = hrng->RandomNumber;
 329              		.loc 1 571 40 is_stmt 0 view .LVU93
 330 005c 9B68     		ldr	r3, [r3, #8]
 571:stm32f4xx-hal-driver/Src/stm32f4xx_hal_rng.c ****     *random32bit = hrng->RandomNumber;
 331              		.loc 1 571 24 view .LVU94
 332 005e E360     		str	r3, [r4, #12]
 572:stm32f4xx-hal-driver/Src/stm32f4xx_hal_rng.c **** 
 333              		.loc 1 572 5 is_stmt 1 view .LVU95
 572:stm32f4xx-hal-driver/Src/stm32f4xx_hal_rng.c **** 
 334              		.loc 1 572 18 is_stmt 0 view .LVU96
 335 0060 3360     		str	r3, [r6]
 574:stm32f4xx-hal-driver/Src/stm32f4xx_hal_rng.c ****   }
 336              		.loc 1 574 5 is_stmt 1 view .LVU97
 574:stm32f4xx-hal-driver/Src/stm32f4xx_hal_rng.c ****   }
 337              		.loc 1 574 17 is_stmt 0 view .LVU98
 338 0062 0123     		movs	r3, #1
 339 0064 6371     		strb	r3, [r4, #5]
 539:stm32f4xx-hal-driver/Src/stm32f4xx_hal_rng.c **** 
 340              		.loc 1 539 21 view .LVU99
 341 0066 0025     		movs	r5, #0
 342 0068 D9E7     		b	.L24
 343              	.LVL21:
 344              	.L25:
 542:stm32f4xx-hal-driver/Src/stm32f4xx_hal_rng.c **** 
 345              		.loc 1 542 3 view .LVU100
 346 006a 0225     		movs	r5, #2
 347 006c D9E7     		b	.L20
 348              		.cfi_endproc
 349              	.LFE243:
 351              		.section	.text.HAL_RNG_GenerateRandomNumber_IT,"ax",%progbits
 352              		.align	1
 353              		.global	HAL_RNG_GenerateRandomNumber_IT
 354              		.syntax unified
 355              		.thumb
 356              		.thumb_func
 357              		.fpu fpv4-sp-d16
 359              	HAL_RNG_GenerateRandomNumber_IT:
 360              	.LVL22:
 361              	.LFB244:
 587:stm32f4xx-hal-driver/Src/stm32f4xx_hal_rng.c **** 
 588:stm32f4xx-hal-driver/Src/stm32f4xx_hal_rng.c **** /**
 589:stm32f4xx-hal-driver/Src/stm32f4xx_hal_rng.c ****   * @brief  Generates a 32-bit random number in interrupt mode.
 590:stm32f4xx-hal-driver/Src/stm32f4xx_hal_rng.c ****   * @param  hrng pointer to a RNG_HandleTypeDef structure that contains
 591:stm32f4xx-hal-driver/Src/stm32f4xx_hal_rng.c ****   *                the configuration information for RNG.
 592:stm32f4xx-hal-driver/Src/stm32f4xx_hal_rng.c ****   * @retval HAL status
 593:stm32f4xx-hal-driver/Src/stm32f4xx_hal_rng.c ****   */
 594:stm32f4xx-hal-driver/Src/stm32f4xx_hal_rng.c **** HAL_StatusTypeDef HAL_RNG_GenerateRandomNumber_IT(RNG_HandleTypeDef *hrng)
 595:stm32f4xx-hal-driver/Src/stm32f4xx_hal_rng.c **** {
 362              		.loc 1 595 1 is_stmt 1 view -0
 363              		.cfi_startproc
 364              		@ args = 0, pretend = 0, frame = 0
 365              		@ frame_needed = 0, uses_anonymous_args = 0
 366              		@ link register save eliminated.
 596:stm32f4xx-hal-driver/Src/stm32f4xx_hal_rng.c ****   HAL_StatusTypeDef status = HAL_OK;
ARM GAS  /tmp/ccrNs9nx.s 			page 19


 367              		.loc 1 596 3 view .LVU102
 597:stm32f4xx-hal-driver/Src/stm32f4xx_hal_rng.c **** 
 598:stm32f4xx-hal-driver/Src/stm32f4xx_hal_rng.c ****   /* Process Locked */
 599:stm32f4xx-hal-driver/Src/stm32f4xx_hal_rng.c ****   __HAL_LOCK(hrng);
 368              		.loc 1 599 3 view .LVU103
 369              		.loc 1 599 3 view .LVU104
 370 0000 0379     		ldrb	r3, [r0, #4]	@ zero_extendqisi2
 371 0002 012B     		cmp	r3, #1
 372 0004 14D0     		beq	.L32
 373              		.loc 1 599 3 discriminator 2 view .LVU105
 374 0006 0123     		movs	r3, #1
 375 0008 0371     		strb	r3, [r0, #4]
 376              		.loc 1 599 3 discriminator 2 view .LVU106
 600:stm32f4xx-hal-driver/Src/stm32f4xx_hal_rng.c **** 
 601:stm32f4xx-hal-driver/Src/stm32f4xx_hal_rng.c ****   /* Check RNG peripheral state */
 602:stm32f4xx-hal-driver/Src/stm32f4xx_hal_rng.c ****   if (hrng->State == HAL_RNG_STATE_READY)
 377              		.loc 1 602 3 discriminator 2 view .LVU107
 378              		.loc 1 602 11 is_stmt 0 discriminator 2 view .LVU108
 379 000a 4379     		ldrb	r3, [r0, #5]	@ zero_extendqisi2
 380 000c DBB2     		uxtb	r3, r3
 381              		.loc 1 602 6 discriminator 2 view .LVU109
 382 000e 012B     		cmp	r3, #1
 383 0010 05D0     		beq	.L33
 603:stm32f4xx-hal-driver/Src/stm32f4xx_hal_rng.c ****   {
 604:stm32f4xx-hal-driver/Src/stm32f4xx_hal_rng.c ****     /* Change RNG peripheral state */
 605:stm32f4xx-hal-driver/Src/stm32f4xx_hal_rng.c ****     hrng->State = HAL_RNG_STATE_BUSY;
 606:stm32f4xx-hal-driver/Src/stm32f4xx_hal_rng.c **** 
 607:stm32f4xx-hal-driver/Src/stm32f4xx_hal_rng.c ****     /* Enable the RNG Interrupts: Data Ready, Clock error, Seed error */
 608:stm32f4xx-hal-driver/Src/stm32f4xx_hal_rng.c ****     __HAL_RNG_ENABLE_IT(hrng);
 609:stm32f4xx-hal-driver/Src/stm32f4xx_hal_rng.c ****   }
 610:stm32f4xx-hal-driver/Src/stm32f4xx_hal_rng.c ****   else
 611:stm32f4xx-hal-driver/Src/stm32f4xx_hal_rng.c ****   {
 612:stm32f4xx-hal-driver/Src/stm32f4xx_hal_rng.c ****     /* Process Unlocked */
 613:stm32f4xx-hal-driver/Src/stm32f4xx_hal_rng.c ****     __HAL_UNLOCK(hrng);
 384              		.loc 1 613 5 is_stmt 1 view .LVU110
 385              		.loc 1 613 5 view .LVU111
 386 0012 0023     		movs	r3, #0
 387 0014 0371     		strb	r3, [r0, #4]
 388              		.loc 1 613 5 view .LVU112
 614:stm32f4xx-hal-driver/Src/stm32f4xx_hal_rng.c **** 
 615:stm32f4xx-hal-driver/Src/stm32f4xx_hal_rng.c ****     hrng->ErrorCode = HAL_RNG_ERROR_BUSY;
 389              		.loc 1 615 5 view .LVU113
 390              		.loc 1 615 21 is_stmt 0 view .LVU114
 391 0016 0423     		movs	r3, #4
 392 0018 8360     		str	r3, [r0, #8]
 616:stm32f4xx-hal-driver/Src/stm32f4xx_hal_rng.c ****     status = HAL_ERROR;
 393              		.loc 1 616 5 is_stmt 1 view .LVU115
 394              	.LVL23:
 395              		.loc 1 616 12 is_stmt 0 view .LVU116
 396 001a 0120     		movs	r0, #1
 397              	.LVL24:
 398              		.loc 1 616 12 view .LVU117
 399 001c 7047     		bx	lr
 400              	.LVL25:
 401              	.L33:
 605:stm32f4xx-hal-driver/Src/stm32f4xx_hal_rng.c **** 
 402              		.loc 1 605 5 is_stmt 1 view .LVU118
ARM GAS  /tmp/ccrNs9nx.s 			page 20


 605:stm32f4xx-hal-driver/Src/stm32f4xx_hal_rng.c **** 
 403              		.loc 1 605 17 is_stmt 0 view .LVU119
 404 001e 0223     		movs	r3, #2
 405 0020 4371     		strb	r3, [r0, #5]
 608:stm32f4xx-hal-driver/Src/stm32f4xx_hal_rng.c ****   }
 406              		.loc 1 608 5 is_stmt 1 view .LVU120
 407 0022 0268     		ldr	r2, [r0]
 408 0024 1368     		ldr	r3, [r2]
 409 0026 43F00803 		orr	r3, r3, #8
 410 002a 1360     		str	r3, [r2]
 596:stm32f4xx-hal-driver/Src/stm32f4xx_hal_rng.c **** 
 411              		.loc 1 596 21 is_stmt 0 view .LVU121
 412 002c 0020     		movs	r0, #0
 413              	.LVL26:
 596:stm32f4xx-hal-driver/Src/stm32f4xx_hal_rng.c **** 
 414              		.loc 1 596 21 view .LVU122
 415 002e 7047     		bx	lr
 416              	.LVL27:
 417              	.L32:
 599:stm32f4xx-hal-driver/Src/stm32f4xx_hal_rng.c **** 
 418              		.loc 1 599 3 view .LVU123
 419 0030 0220     		movs	r0, #2
 420              	.LVL28:
 617:stm32f4xx-hal-driver/Src/stm32f4xx_hal_rng.c ****   }
 618:stm32f4xx-hal-driver/Src/stm32f4xx_hal_rng.c **** 
 619:stm32f4xx-hal-driver/Src/stm32f4xx_hal_rng.c ****   return status;
 620:stm32f4xx-hal-driver/Src/stm32f4xx_hal_rng.c **** }
 421              		.loc 1 620 1 view .LVU124
 422 0032 7047     		bx	lr
 423              		.cfi_endproc
 424              	.LFE244:
 426              		.section	.text.HAL_RNG_GetRandomNumber,"ax",%progbits
 427              		.align	1
 428              		.global	HAL_RNG_GetRandomNumber
 429              		.syntax unified
 430              		.thumb
 431              		.thumb_func
 432              		.fpu fpv4-sp-d16
 434              	HAL_RNG_GetRandomNumber:
 435              	.LVL29:
 436              	.LFB245:
 621:stm32f4xx-hal-driver/Src/stm32f4xx_hal_rng.c **** 
 622:stm32f4xx-hal-driver/Src/stm32f4xx_hal_rng.c **** /**
 623:stm32f4xx-hal-driver/Src/stm32f4xx_hal_rng.c ****   * @brief  Returns generated random number in polling mode (Obsolete)
 624:stm32f4xx-hal-driver/Src/stm32f4xx_hal_rng.c ****   *         Use HAL_RNG_GenerateRandomNumber() API instead.
 625:stm32f4xx-hal-driver/Src/stm32f4xx_hal_rng.c ****   * @param  hrng pointer to a RNG_HandleTypeDef structure that contains
 626:stm32f4xx-hal-driver/Src/stm32f4xx_hal_rng.c ****   *                the configuration information for RNG.
 627:stm32f4xx-hal-driver/Src/stm32f4xx_hal_rng.c ****   * @retval Random value
 628:stm32f4xx-hal-driver/Src/stm32f4xx_hal_rng.c ****   */
 629:stm32f4xx-hal-driver/Src/stm32f4xx_hal_rng.c **** uint32_t HAL_RNG_GetRandomNumber(RNG_HandleTypeDef *hrng)
 630:stm32f4xx-hal-driver/Src/stm32f4xx_hal_rng.c **** {
 437              		.loc 1 630 1 is_stmt 1 view -0
 438              		.cfi_startproc
 439              		@ args = 0, pretend = 0, frame = 0
 440              		@ frame_needed = 0, uses_anonymous_args = 0
 441              		.loc 1 630 1 is_stmt 0 view .LVU126
 442 0000 10B5     		push	{r4, lr}
ARM GAS  /tmp/ccrNs9nx.s 			page 21


 443              	.LCFI5:
 444              		.cfi_def_cfa_offset 8
 445              		.cfi_offset 4, -8
 446              		.cfi_offset 14, -4
 447 0002 0446     		mov	r4, r0
 631:stm32f4xx-hal-driver/Src/stm32f4xx_hal_rng.c ****   if (HAL_RNG_GenerateRandomNumber(hrng, &(hrng->RandomNumber)) == HAL_OK)
 448              		.loc 1 631 3 is_stmt 1 view .LVU127
 449              		.loc 1 631 7 is_stmt 0 view .LVU128
 450 0004 00F10C01 		add	r1, r0, #12
 451 0008 FFF7FEFF 		bl	HAL_RNG_GenerateRandomNumber
 452              	.LVL30:
 453              		.loc 1 631 6 view .LVU129
 454 000c 08B9     		cbnz	r0, .L36
 632:stm32f4xx-hal-driver/Src/stm32f4xx_hal_rng.c ****   {
 633:stm32f4xx-hal-driver/Src/stm32f4xx_hal_rng.c ****     return hrng->RandomNumber;
 455              		.loc 1 633 5 is_stmt 1 view .LVU130
 456              		.loc 1 633 16 is_stmt 0 view .LVU131
 457 000e E068     		ldr	r0, [r4, #12]
 458              	.L34:
 634:stm32f4xx-hal-driver/Src/stm32f4xx_hal_rng.c ****   }
 635:stm32f4xx-hal-driver/Src/stm32f4xx_hal_rng.c ****   else
 636:stm32f4xx-hal-driver/Src/stm32f4xx_hal_rng.c ****   {
 637:stm32f4xx-hal-driver/Src/stm32f4xx_hal_rng.c ****     return 0U;
 638:stm32f4xx-hal-driver/Src/stm32f4xx_hal_rng.c ****   }
 639:stm32f4xx-hal-driver/Src/stm32f4xx_hal_rng.c **** }
 459              		.loc 1 639 1 view .LVU132
 460 0010 10BD     		pop	{r4, pc}
 461              	.LVL31:
 462              	.L36:
 637:stm32f4xx-hal-driver/Src/stm32f4xx_hal_rng.c ****   }
 463              		.loc 1 637 12 view .LVU133
 464 0012 0020     		movs	r0, #0
 465 0014 FCE7     		b	.L34
 466              		.cfi_endproc
 467              	.LFE245:
 469              		.section	.text.HAL_RNG_GetRandomNumber_IT,"ax",%progbits
 470              		.align	1
 471              		.global	HAL_RNG_GetRandomNumber_IT
 472              		.syntax unified
 473              		.thumb
 474              		.thumb_func
 475              		.fpu fpv4-sp-d16
 477              	HAL_RNG_GetRandomNumber_IT:
 478              	.LVL32:
 479              	.LFB246:
 640:stm32f4xx-hal-driver/Src/stm32f4xx_hal_rng.c **** 
 641:stm32f4xx-hal-driver/Src/stm32f4xx_hal_rng.c **** /**
 642:stm32f4xx-hal-driver/Src/stm32f4xx_hal_rng.c ****   * @brief  Returns a 32-bit random number with interrupt enabled (Obsolete),
 643:stm32f4xx-hal-driver/Src/stm32f4xx_hal_rng.c ****   *         Use HAL_RNG_GenerateRandomNumber_IT() API instead.
 644:stm32f4xx-hal-driver/Src/stm32f4xx_hal_rng.c ****   * @param  hrng pointer to a RNG_HandleTypeDef structure that contains
 645:stm32f4xx-hal-driver/Src/stm32f4xx_hal_rng.c ****   *                the configuration information for RNG.
 646:stm32f4xx-hal-driver/Src/stm32f4xx_hal_rng.c ****   * @retval 32-bit random number
 647:stm32f4xx-hal-driver/Src/stm32f4xx_hal_rng.c ****   */
 648:stm32f4xx-hal-driver/Src/stm32f4xx_hal_rng.c **** uint32_t HAL_RNG_GetRandomNumber_IT(RNG_HandleTypeDef *hrng)
 649:stm32f4xx-hal-driver/Src/stm32f4xx_hal_rng.c **** {
 480              		.loc 1 649 1 is_stmt 1 view -0
 481              		.cfi_startproc
ARM GAS  /tmp/ccrNs9nx.s 			page 22


 482              		@ args = 0, pretend = 0, frame = 0
 483              		@ frame_needed = 0, uses_anonymous_args = 0
 484              		@ link register save eliminated.
 650:stm32f4xx-hal-driver/Src/stm32f4xx_hal_rng.c ****   uint32_t random32bit = 0U;
 485              		.loc 1 650 3 view .LVU135
 651:stm32f4xx-hal-driver/Src/stm32f4xx_hal_rng.c **** 
 652:stm32f4xx-hal-driver/Src/stm32f4xx_hal_rng.c ****   /* Process locked */
 653:stm32f4xx-hal-driver/Src/stm32f4xx_hal_rng.c ****   __HAL_LOCK(hrng);
 486              		.loc 1 653 3 view .LVU136
 487              		.loc 1 653 3 view .LVU137
 488 0000 0379     		ldrb	r3, [r0, #4]	@ zero_extendqisi2
 489 0002 012B     		cmp	r3, #1
 490 0004 0AD0     		beq	.L40
 491              		.loc 1 653 3 discriminator 2 view .LVU138
 492 0006 0123     		movs	r3, #1
 493 0008 0371     		strb	r3, [r0, #4]
 494              		.loc 1 653 3 discriminator 2 view .LVU139
 654:stm32f4xx-hal-driver/Src/stm32f4xx_hal_rng.c **** 
 655:stm32f4xx-hal-driver/Src/stm32f4xx_hal_rng.c ****   /* Change RNG peripheral state */
 656:stm32f4xx-hal-driver/Src/stm32f4xx_hal_rng.c ****   hrng->State = HAL_RNG_STATE_BUSY;
 495              		.loc 1 656 3 discriminator 2 view .LVU140
 496              		.loc 1 656 15 is_stmt 0 discriminator 2 view .LVU141
 497 000a 0223     		movs	r3, #2
 498 000c 4371     		strb	r3, [r0, #5]
 657:stm32f4xx-hal-driver/Src/stm32f4xx_hal_rng.c **** 
 658:stm32f4xx-hal-driver/Src/stm32f4xx_hal_rng.c ****   /* Get a 32bit Random number */
 659:stm32f4xx-hal-driver/Src/stm32f4xx_hal_rng.c ****   random32bit = hrng->Instance->DR;
 499              		.loc 1 659 3 is_stmt 1 discriminator 2 view .LVU142
 500              		.loc 1 659 21 is_stmt 0 discriminator 2 view .LVU143
 501 000e 0368     		ldr	r3, [r0]
 502              		.loc 1 659 15 discriminator 2 view .LVU144
 503 0010 9868     		ldr	r0, [r3, #8]
 504              	.LVL33:
 660:stm32f4xx-hal-driver/Src/stm32f4xx_hal_rng.c **** 
 661:stm32f4xx-hal-driver/Src/stm32f4xx_hal_rng.c ****   /* Enable the RNG Interrupts: Data Ready, Clock error, Seed error */
 662:stm32f4xx-hal-driver/Src/stm32f4xx_hal_rng.c ****   __HAL_RNG_ENABLE_IT(hrng);
 505              		.loc 1 662 3 is_stmt 1 discriminator 2 view .LVU145
 506 0012 1A68     		ldr	r2, [r3]
 507 0014 42F00802 		orr	r2, r2, #8
 508 0018 1A60     		str	r2, [r3]
 663:stm32f4xx-hal-driver/Src/stm32f4xx_hal_rng.c **** 
 664:stm32f4xx-hal-driver/Src/stm32f4xx_hal_rng.c ****   /* Return the 32 bit random number */
 665:stm32f4xx-hal-driver/Src/stm32f4xx_hal_rng.c ****   return random32bit;
 509              		.loc 1 665 3 discriminator 2 view .LVU146
 510              		.loc 1 665 10 is_stmt 0 discriminator 2 view .LVU147
 511 001a 7047     		bx	lr
 512              	.LVL34:
 513              	.L40:
 653:stm32f4xx-hal-driver/Src/stm32f4xx_hal_rng.c **** 
 514              		.loc 1 653 3 view .LVU148
 515 001c 0220     		movs	r0, #2
 516              	.LVL35:
 666:stm32f4xx-hal-driver/Src/stm32f4xx_hal_rng.c **** }
 517              		.loc 1 666 1 view .LVU149
 518 001e 7047     		bx	lr
 519              		.cfi_endproc
 520              	.LFE246:
ARM GAS  /tmp/ccrNs9nx.s 			page 23


 522              		.section	.text.HAL_RNG_ReadLastRandomNumber,"ax",%progbits
 523              		.align	1
 524              		.global	HAL_RNG_ReadLastRandomNumber
 525              		.syntax unified
 526              		.thumb
 527              		.thumb_func
 528              		.fpu fpv4-sp-d16
 530              	HAL_RNG_ReadLastRandomNumber:
 531              	.LVL36:
 532              	.LFB248:
 667:stm32f4xx-hal-driver/Src/stm32f4xx_hal_rng.c **** 
 668:stm32f4xx-hal-driver/Src/stm32f4xx_hal_rng.c **** /**
 669:stm32f4xx-hal-driver/Src/stm32f4xx_hal_rng.c ****   * @brief  Handles RNG interrupt request.
 670:stm32f4xx-hal-driver/Src/stm32f4xx_hal_rng.c ****   * @note   In the case of a clock error, the RNG is no more able to generate
 671:stm32f4xx-hal-driver/Src/stm32f4xx_hal_rng.c ****   *         random numbers because the PLL48CLK clock is not correct. User has
 672:stm32f4xx-hal-driver/Src/stm32f4xx_hal_rng.c ****   *         to check that the clock controller is correctly configured to provide
 673:stm32f4xx-hal-driver/Src/stm32f4xx_hal_rng.c ****   *         the RNG clock and clear the CEIS bit using __HAL_RNG_CLEAR_IT().
 674:stm32f4xx-hal-driver/Src/stm32f4xx_hal_rng.c ****   *         The clock error has no impact on the previously generated
 675:stm32f4xx-hal-driver/Src/stm32f4xx_hal_rng.c ****   *         random numbers, and the RNG_DR register contents can be used.
 676:stm32f4xx-hal-driver/Src/stm32f4xx_hal_rng.c ****   * @note   In the case of a seed error, the generation of random numbers is
 677:stm32f4xx-hal-driver/Src/stm32f4xx_hal_rng.c ****   *         interrupted as long as the SECS bit is '1'. If a number is
 678:stm32f4xx-hal-driver/Src/stm32f4xx_hal_rng.c ****   *         available in the RNG_DR register, it must not be used because it may
 679:stm32f4xx-hal-driver/Src/stm32f4xx_hal_rng.c ****   *         not have enough entropy. In this case, it is recommended to clear the
 680:stm32f4xx-hal-driver/Src/stm32f4xx_hal_rng.c ****   *         SEIS bit using __HAL_RNG_CLEAR_IT(), then disable and enable
 681:stm32f4xx-hal-driver/Src/stm32f4xx_hal_rng.c ****   *         the RNG peripheral to reinitialize and restart the RNG.
 682:stm32f4xx-hal-driver/Src/stm32f4xx_hal_rng.c ****   * @note   User-written HAL_RNG_ErrorCallback() API is called once whether SEIS
 683:stm32f4xx-hal-driver/Src/stm32f4xx_hal_rng.c ****   *         or CEIS are set.
 684:stm32f4xx-hal-driver/Src/stm32f4xx_hal_rng.c ****   * @param  hrng pointer to a RNG_HandleTypeDef structure that contains
 685:stm32f4xx-hal-driver/Src/stm32f4xx_hal_rng.c ****   *                the configuration information for RNG.
 686:stm32f4xx-hal-driver/Src/stm32f4xx_hal_rng.c ****   * @retval None
 687:stm32f4xx-hal-driver/Src/stm32f4xx_hal_rng.c **** 
 688:stm32f4xx-hal-driver/Src/stm32f4xx_hal_rng.c ****   */
 689:stm32f4xx-hal-driver/Src/stm32f4xx_hal_rng.c **** void HAL_RNG_IRQHandler(RNG_HandleTypeDef *hrng)
 690:stm32f4xx-hal-driver/Src/stm32f4xx_hal_rng.c **** {
 691:stm32f4xx-hal-driver/Src/stm32f4xx_hal_rng.c ****   uint32_t rngclockerror = 0U;
 692:stm32f4xx-hal-driver/Src/stm32f4xx_hal_rng.c ****   uint32_t itflag   = hrng->Instance->SR;
 693:stm32f4xx-hal-driver/Src/stm32f4xx_hal_rng.c **** 
 694:stm32f4xx-hal-driver/Src/stm32f4xx_hal_rng.c ****   /* RNG clock error interrupt occurred */
 695:stm32f4xx-hal-driver/Src/stm32f4xx_hal_rng.c ****   if ((itflag & RNG_IT_CEI) == RNG_IT_CEI)
 696:stm32f4xx-hal-driver/Src/stm32f4xx_hal_rng.c ****   {
 697:stm32f4xx-hal-driver/Src/stm32f4xx_hal_rng.c ****     /* Update the error code */
 698:stm32f4xx-hal-driver/Src/stm32f4xx_hal_rng.c ****     hrng->ErrorCode = HAL_RNG_ERROR_CLOCK;
 699:stm32f4xx-hal-driver/Src/stm32f4xx_hal_rng.c ****     rngclockerror = 1U;
 700:stm32f4xx-hal-driver/Src/stm32f4xx_hal_rng.c ****   }
 701:stm32f4xx-hal-driver/Src/stm32f4xx_hal_rng.c ****   else if ((itflag & RNG_IT_SEI) == RNG_IT_SEI)
 702:stm32f4xx-hal-driver/Src/stm32f4xx_hal_rng.c ****   {
 703:stm32f4xx-hal-driver/Src/stm32f4xx_hal_rng.c ****     /* Update the error code */
 704:stm32f4xx-hal-driver/Src/stm32f4xx_hal_rng.c ****     hrng->ErrorCode = HAL_RNG_ERROR_SEED;
 705:stm32f4xx-hal-driver/Src/stm32f4xx_hal_rng.c ****     rngclockerror = 1U;
 706:stm32f4xx-hal-driver/Src/stm32f4xx_hal_rng.c ****   }
 707:stm32f4xx-hal-driver/Src/stm32f4xx_hal_rng.c ****   else
 708:stm32f4xx-hal-driver/Src/stm32f4xx_hal_rng.c ****   {
 709:stm32f4xx-hal-driver/Src/stm32f4xx_hal_rng.c ****     /* Nothing to do */
 710:stm32f4xx-hal-driver/Src/stm32f4xx_hal_rng.c ****   }
 711:stm32f4xx-hal-driver/Src/stm32f4xx_hal_rng.c **** 
 712:stm32f4xx-hal-driver/Src/stm32f4xx_hal_rng.c ****   if (rngclockerror == 1U)
 713:stm32f4xx-hal-driver/Src/stm32f4xx_hal_rng.c ****   {
ARM GAS  /tmp/ccrNs9nx.s 			page 24


 714:stm32f4xx-hal-driver/Src/stm32f4xx_hal_rng.c ****     /* Change RNG peripheral state */
 715:stm32f4xx-hal-driver/Src/stm32f4xx_hal_rng.c ****     hrng->State = HAL_RNG_STATE_ERROR;
 716:stm32f4xx-hal-driver/Src/stm32f4xx_hal_rng.c **** 
 717:stm32f4xx-hal-driver/Src/stm32f4xx_hal_rng.c **** #if (USE_HAL_RNG_REGISTER_CALLBACKS == 1)
 718:stm32f4xx-hal-driver/Src/stm32f4xx_hal_rng.c ****     /* Call registered Error callback */
 719:stm32f4xx-hal-driver/Src/stm32f4xx_hal_rng.c ****     hrng->ErrorCallback(hrng);
 720:stm32f4xx-hal-driver/Src/stm32f4xx_hal_rng.c **** #else
 721:stm32f4xx-hal-driver/Src/stm32f4xx_hal_rng.c ****     /* Call legacy weak Error callback */
 722:stm32f4xx-hal-driver/Src/stm32f4xx_hal_rng.c ****     HAL_RNG_ErrorCallback(hrng);
 723:stm32f4xx-hal-driver/Src/stm32f4xx_hal_rng.c **** #endif /* USE_HAL_RNG_REGISTER_CALLBACKS */
 724:stm32f4xx-hal-driver/Src/stm32f4xx_hal_rng.c **** 
 725:stm32f4xx-hal-driver/Src/stm32f4xx_hal_rng.c ****     /* Clear the clock error flag */
 726:stm32f4xx-hal-driver/Src/stm32f4xx_hal_rng.c ****     __HAL_RNG_CLEAR_IT(hrng, RNG_IT_CEI | RNG_IT_SEI);
 727:stm32f4xx-hal-driver/Src/stm32f4xx_hal_rng.c **** 
 728:stm32f4xx-hal-driver/Src/stm32f4xx_hal_rng.c ****     return;
 729:stm32f4xx-hal-driver/Src/stm32f4xx_hal_rng.c ****   }
 730:stm32f4xx-hal-driver/Src/stm32f4xx_hal_rng.c **** 
 731:stm32f4xx-hal-driver/Src/stm32f4xx_hal_rng.c ****   /* Check RNG data ready interrupt occurred */
 732:stm32f4xx-hal-driver/Src/stm32f4xx_hal_rng.c ****   if ((itflag & RNG_IT_DRDY) == RNG_IT_DRDY)
 733:stm32f4xx-hal-driver/Src/stm32f4xx_hal_rng.c ****   {
 734:stm32f4xx-hal-driver/Src/stm32f4xx_hal_rng.c ****     /* Generate random number once, so disable the IT */
 735:stm32f4xx-hal-driver/Src/stm32f4xx_hal_rng.c ****     __HAL_RNG_DISABLE_IT(hrng);
 736:stm32f4xx-hal-driver/Src/stm32f4xx_hal_rng.c **** 
 737:stm32f4xx-hal-driver/Src/stm32f4xx_hal_rng.c ****     /* Get the 32bit Random number (DRDY flag automatically cleared) */
 738:stm32f4xx-hal-driver/Src/stm32f4xx_hal_rng.c ****     hrng->RandomNumber = hrng->Instance->DR;
 739:stm32f4xx-hal-driver/Src/stm32f4xx_hal_rng.c **** 
 740:stm32f4xx-hal-driver/Src/stm32f4xx_hal_rng.c ****     if (hrng->State != HAL_RNG_STATE_ERROR)
 741:stm32f4xx-hal-driver/Src/stm32f4xx_hal_rng.c ****     {
 742:stm32f4xx-hal-driver/Src/stm32f4xx_hal_rng.c ****       /* Change RNG peripheral state */
 743:stm32f4xx-hal-driver/Src/stm32f4xx_hal_rng.c ****       hrng->State = HAL_RNG_STATE_READY;
 744:stm32f4xx-hal-driver/Src/stm32f4xx_hal_rng.c ****       /* Process Unlocked */
 745:stm32f4xx-hal-driver/Src/stm32f4xx_hal_rng.c ****       __HAL_UNLOCK(hrng);
 746:stm32f4xx-hal-driver/Src/stm32f4xx_hal_rng.c **** 
 747:stm32f4xx-hal-driver/Src/stm32f4xx_hal_rng.c **** #if (USE_HAL_RNG_REGISTER_CALLBACKS == 1)
 748:stm32f4xx-hal-driver/Src/stm32f4xx_hal_rng.c ****       /* Call registered Data Ready callback */
 749:stm32f4xx-hal-driver/Src/stm32f4xx_hal_rng.c ****       hrng->ReadyDataCallback(hrng, hrng->RandomNumber);
 750:stm32f4xx-hal-driver/Src/stm32f4xx_hal_rng.c **** #else
 751:stm32f4xx-hal-driver/Src/stm32f4xx_hal_rng.c ****       /* Call legacy weak Data Ready callback */
 752:stm32f4xx-hal-driver/Src/stm32f4xx_hal_rng.c ****       HAL_RNG_ReadyDataCallback(hrng, hrng->RandomNumber);
 753:stm32f4xx-hal-driver/Src/stm32f4xx_hal_rng.c **** #endif /* USE_HAL_RNG_REGISTER_CALLBACKS */
 754:stm32f4xx-hal-driver/Src/stm32f4xx_hal_rng.c ****     }
 755:stm32f4xx-hal-driver/Src/stm32f4xx_hal_rng.c ****   }
 756:stm32f4xx-hal-driver/Src/stm32f4xx_hal_rng.c **** }
 757:stm32f4xx-hal-driver/Src/stm32f4xx_hal_rng.c **** 
 758:stm32f4xx-hal-driver/Src/stm32f4xx_hal_rng.c **** /**
 759:stm32f4xx-hal-driver/Src/stm32f4xx_hal_rng.c ****   * @brief  Read latest generated random number.
 760:stm32f4xx-hal-driver/Src/stm32f4xx_hal_rng.c ****   * @param  hrng pointer to a RNG_HandleTypeDef structure that contains
 761:stm32f4xx-hal-driver/Src/stm32f4xx_hal_rng.c ****   *                the configuration information for RNG.
 762:stm32f4xx-hal-driver/Src/stm32f4xx_hal_rng.c ****   * @retval random value
 763:stm32f4xx-hal-driver/Src/stm32f4xx_hal_rng.c ****   */
 764:stm32f4xx-hal-driver/Src/stm32f4xx_hal_rng.c **** uint32_t HAL_RNG_ReadLastRandomNumber(const RNG_HandleTypeDef *hrng)
 765:stm32f4xx-hal-driver/Src/stm32f4xx_hal_rng.c **** {
 533              		.loc 1 765 1 is_stmt 1 view -0
 534              		.cfi_startproc
 535              		@ args = 0, pretend = 0, frame = 0
 536              		@ frame_needed = 0, uses_anonymous_args = 0
 537              		@ link register save eliminated.
ARM GAS  /tmp/ccrNs9nx.s 			page 25


 766:stm32f4xx-hal-driver/Src/stm32f4xx_hal_rng.c ****   return (hrng->RandomNumber);
 538              		.loc 1 766 3 view .LVU151
 767:stm32f4xx-hal-driver/Src/stm32f4xx_hal_rng.c **** }
 539              		.loc 1 767 1 is_stmt 0 view .LVU152
 540 0000 C068     		ldr	r0, [r0, #12]
 541              	.LVL37:
 542              		.loc 1 767 1 view .LVU153
 543 0002 7047     		bx	lr
 544              		.cfi_endproc
 545              	.LFE248:
 547              		.section	.text.HAL_RNG_ReadyDataCallback,"ax",%progbits
 548              		.align	1
 549              		.weak	HAL_RNG_ReadyDataCallback
 550              		.syntax unified
 551              		.thumb
 552              		.thumb_func
 553              		.fpu fpv4-sp-d16
 555              	HAL_RNG_ReadyDataCallback:
 556              	.LVL38:
 557              	.LFB249:
 768:stm32f4xx-hal-driver/Src/stm32f4xx_hal_rng.c **** 
 769:stm32f4xx-hal-driver/Src/stm32f4xx_hal_rng.c **** /**
 770:stm32f4xx-hal-driver/Src/stm32f4xx_hal_rng.c ****   * @brief  Data Ready callback in non-blocking mode.
 771:stm32f4xx-hal-driver/Src/stm32f4xx_hal_rng.c ****   * @param  hrng pointer to a RNG_HandleTypeDef structure that contains
 772:stm32f4xx-hal-driver/Src/stm32f4xx_hal_rng.c ****   *                the configuration information for RNG.
 773:stm32f4xx-hal-driver/Src/stm32f4xx_hal_rng.c ****   * @param  random32bit generated random number.
 774:stm32f4xx-hal-driver/Src/stm32f4xx_hal_rng.c ****   * @retval None
 775:stm32f4xx-hal-driver/Src/stm32f4xx_hal_rng.c ****   */
 776:stm32f4xx-hal-driver/Src/stm32f4xx_hal_rng.c **** __weak void HAL_RNG_ReadyDataCallback(RNG_HandleTypeDef *hrng, uint32_t random32bit)
 777:stm32f4xx-hal-driver/Src/stm32f4xx_hal_rng.c **** {
 558              		.loc 1 777 1 is_stmt 1 view -0
 559              		.cfi_startproc
 560              		@ args = 0, pretend = 0, frame = 0
 561              		@ frame_needed = 0, uses_anonymous_args = 0
 562              		@ link register save eliminated.
 778:stm32f4xx-hal-driver/Src/stm32f4xx_hal_rng.c ****   /* Prevent unused argument(s) compilation warning */
 779:stm32f4xx-hal-driver/Src/stm32f4xx_hal_rng.c ****   UNUSED(hrng);
 563              		.loc 1 779 3 view .LVU155
 780:stm32f4xx-hal-driver/Src/stm32f4xx_hal_rng.c ****   UNUSED(random32bit);
 564              		.loc 1 780 3 view .LVU156
 781:stm32f4xx-hal-driver/Src/stm32f4xx_hal_rng.c ****   /* NOTE : This function should not be modified. When the callback is needed,
 782:stm32f4xx-hal-driver/Src/stm32f4xx_hal_rng.c ****             function HAL_RNG_ReadyDataCallback must be implemented in the user file.
 783:stm32f4xx-hal-driver/Src/stm32f4xx_hal_rng.c ****    */
 784:stm32f4xx-hal-driver/Src/stm32f4xx_hal_rng.c **** }
 565              		.loc 1 784 1 is_stmt 0 view .LVU157
 566 0000 7047     		bx	lr
 567              		.cfi_endproc
 568              	.LFE249:
 570              		.section	.text.HAL_RNG_ErrorCallback,"ax",%progbits
 571              		.align	1
 572              		.weak	HAL_RNG_ErrorCallback
 573              		.syntax unified
 574              		.thumb
 575              		.thumb_func
 576              		.fpu fpv4-sp-d16
 578              	HAL_RNG_ErrorCallback:
 579              	.LVL39:
ARM GAS  /tmp/ccrNs9nx.s 			page 26


 580              	.LFB250:
 785:stm32f4xx-hal-driver/Src/stm32f4xx_hal_rng.c **** 
 786:stm32f4xx-hal-driver/Src/stm32f4xx_hal_rng.c **** /**
 787:stm32f4xx-hal-driver/Src/stm32f4xx_hal_rng.c ****   * @brief  RNG error callbacks.
 788:stm32f4xx-hal-driver/Src/stm32f4xx_hal_rng.c ****   * @param  hrng pointer to a RNG_HandleTypeDef structure that contains
 789:stm32f4xx-hal-driver/Src/stm32f4xx_hal_rng.c ****   *                the configuration information for RNG.
 790:stm32f4xx-hal-driver/Src/stm32f4xx_hal_rng.c ****   * @retval None
 791:stm32f4xx-hal-driver/Src/stm32f4xx_hal_rng.c ****   */
 792:stm32f4xx-hal-driver/Src/stm32f4xx_hal_rng.c **** __weak void HAL_RNG_ErrorCallback(RNG_HandleTypeDef *hrng)
 793:stm32f4xx-hal-driver/Src/stm32f4xx_hal_rng.c **** {
 581              		.loc 1 793 1 is_stmt 1 view -0
 582              		.cfi_startproc
 583              		@ args = 0, pretend = 0, frame = 0
 584              		@ frame_needed = 0, uses_anonymous_args = 0
 585              		@ link register save eliminated.
 794:stm32f4xx-hal-driver/Src/stm32f4xx_hal_rng.c ****   /* Prevent unused argument(s) compilation warning */
 795:stm32f4xx-hal-driver/Src/stm32f4xx_hal_rng.c ****   UNUSED(hrng);
 586              		.loc 1 795 3 view .LVU159
 796:stm32f4xx-hal-driver/Src/stm32f4xx_hal_rng.c ****   /* NOTE : This function should not be modified. When the callback is needed,
 797:stm32f4xx-hal-driver/Src/stm32f4xx_hal_rng.c ****             function HAL_RNG_ErrorCallback must be implemented in the user file.
 798:stm32f4xx-hal-driver/Src/stm32f4xx_hal_rng.c ****    */
 799:stm32f4xx-hal-driver/Src/stm32f4xx_hal_rng.c **** }
 587              		.loc 1 799 1 is_stmt 0 view .LVU160
 588 0000 7047     		bx	lr
 589              		.cfi_endproc
 590              	.LFE250:
 592              		.section	.text.HAL_RNG_IRQHandler,"ax",%progbits
 593              		.align	1
 594              		.global	HAL_RNG_IRQHandler
 595              		.syntax unified
 596              		.thumb
 597              		.thumb_func
 598              		.fpu fpv4-sp-d16
 600              	HAL_RNG_IRQHandler:
 601              	.LVL40:
 602              	.LFB247:
 690:stm32f4xx-hal-driver/Src/stm32f4xx_hal_rng.c ****   uint32_t rngclockerror = 0U;
 603              		.loc 1 690 1 is_stmt 1 view -0
 604              		.cfi_startproc
 605              		@ args = 0, pretend = 0, frame = 0
 606              		@ frame_needed = 0, uses_anonymous_args = 0
 690:stm32f4xx-hal-driver/Src/stm32f4xx_hal_rng.c ****   uint32_t rngclockerror = 0U;
 607              		.loc 1 690 1 is_stmt 0 view .LVU162
 608 0000 10B5     		push	{r4, lr}
 609              	.LCFI6:
 610              		.cfi_def_cfa_offset 8
 611              		.cfi_offset 4, -8
 612              		.cfi_offset 14, -4
 613 0002 0446     		mov	r4, r0
 691:stm32f4xx-hal-driver/Src/stm32f4xx_hal_rng.c ****   uint32_t itflag   = hrng->Instance->SR;
 614              		.loc 1 691 3 is_stmt 1 view .LVU163
 615              	.LVL41:
 692:stm32f4xx-hal-driver/Src/stm32f4xx_hal_rng.c **** 
 616              		.loc 1 692 3 view .LVU164
 692:stm32f4xx-hal-driver/Src/stm32f4xx_hal_rng.c **** 
 617              		.loc 1 692 27 is_stmt 0 view .LVU165
 618 0004 0268     		ldr	r2, [r0]
ARM GAS  /tmp/ccrNs9nx.s 			page 27


 692:stm32f4xx-hal-driver/Src/stm32f4xx_hal_rng.c **** 
 619              		.loc 1 692 12 view .LVU166
 620 0006 5368     		ldr	r3, [r2, #4]
 621              	.LVL42:
 695:stm32f4xx-hal-driver/Src/stm32f4xx_hal_rng.c ****   {
 622              		.loc 1 695 3 is_stmt 1 view .LVU167
 695:stm32f4xx-hal-driver/Src/stm32f4xx_hal_rng.c ****   {
 623              		.loc 1 695 6 is_stmt 0 view .LVU168
 624 0008 13F0200F 		tst	r3, #32
 625 000c 17D1     		bne	.L51
 701:stm32f4xx-hal-driver/Src/stm32f4xx_hal_rng.c ****   {
 626              		.loc 1 701 8 is_stmt 1 view .LVU169
 701:stm32f4xx-hal-driver/Src/stm32f4xx_hal_rng.c ****   {
 627              		.loc 1 701 11 is_stmt 0 view .LVU170
 628 000e 13F0400F 		tst	r3, #64
 629 0012 20D1     		bne	.L52
 710:stm32f4xx-hal-driver/Src/stm32f4xx_hal_rng.c **** 
 630              		.loc 1 710 3 is_stmt 1 view .LVU171
 712:stm32f4xx-hal-driver/Src/stm32f4xx_hal_rng.c ****   {
 631              		.loc 1 712 3 view .LVU172
 732:stm32f4xx-hal-driver/Src/stm32f4xx_hal_rng.c ****   {
 632              		.loc 1 732 3 view .LVU173
 732:stm32f4xx-hal-driver/Src/stm32f4xx_hal_rng.c ****   {
 633              		.loc 1 732 6 is_stmt 0 view .LVU174
 634 0014 13F0010F 		tst	r3, #1
 635 0018 1CD0     		beq	.L44
 735:stm32f4xx-hal-driver/Src/stm32f4xx_hal_rng.c **** 
 636              		.loc 1 735 5 is_stmt 1 view .LVU175
 637 001a 1368     		ldr	r3, [r2]
 638              	.LVL43:
 735:stm32f4xx-hal-driver/Src/stm32f4xx_hal_rng.c **** 
 639              		.loc 1 735 5 is_stmt 0 view .LVU176
 640 001c 23F00803 		bic	r3, r3, #8
 641 0020 1360     		str	r3, [r2]
 738:stm32f4xx-hal-driver/Src/stm32f4xx_hal_rng.c **** 
 642              		.loc 1 738 5 is_stmt 1 view .LVU177
 738:stm32f4xx-hal-driver/Src/stm32f4xx_hal_rng.c **** 
 643              		.loc 1 738 30 is_stmt 0 view .LVU178
 644 0022 0368     		ldr	r3, [r0]
 738:stm32f4xx-hal-driver/Src/stm32f4xx_hal_rng.c **** 
 645              		.loc 1 738 40 view .LVU179
 646 0024 9968     		ldr	r1, [r3, #8]
 738:stm32f4xx-hal-driver/Src/stm32f4xx_hal_rng.c **** 
 647              		.loc 1 738 24 view .LVU180
 648 0026 C160     		str	r1, [r0, #12]
 740:stm32f4xx-hal-driver/Src/stm32f4xx_hal_rng.c ****     {
 649              		.loc 1 740 5 is_stmt 1 view .LVU181
 740:stm32f4xx-hal-driver/Src/stm32f4xx_hal_rng.c ****     {
 650              		.loc 1 740 13 is_stmt 0 view .LVU182
 651 0028 4379     		ldrb	r3, [r0, #5]	@ zero_extendqisi2
 652 002a DBB2     		uxtb	r3, r3
 740:stm32f4xx-hal-driver/Src/stm32f4xx_hal_rng.c ****     {
 653              		.loc 1 740 8 view .LVU183
 654 002c 042B     		cmp	r3, #4
 655 002e 11D0     		beq	.L44
 743:stm32f4xx-hal-driver/Src/stm32f4xx_hal_rng.c ****       /* Process Unlocked */
 656              		.loc 1 743 7 is_stmt 1 view .LVU184
ARM GAS  /tmp/ccrNs9nx.s 			page 28


 743:stm32f4xx-hal-driver/Src/stm32f4xx_hal_rng.c ****       /* Process Unlocked */
 657              		.loc 1 743 19 is_stmt 0 view .LVU185
 658 0030 0123     		movs	r3, #1
 659 0032 4371     		strb	r3, [r0, #5]
 745:stm32f4xx-hal-driver/Src/stm32f4xx_hal_rng.c **** 
 660              		.loc 1 745 7 is_stmt 1 view .LVU186
 745:stm32f4xx-hal-driver/Src/stm32f4xx_hal_rng.c **** 
 661              		.loc 1 745 7 view .LVU187
 662 0034 0023     		movs	r3, #0
 663 0036 0371     		strb	r3, [r0, #4]
 745:stm32f4xx-hal-driver/Src/stm32f4xx_hal_rng.c **** 
 664              		.loc 1 745 7 view .LVU188
 752:stm32f4xx-hal-driver/Src/stm32f4xx_hal_rng.c **** #endif /* USE_HAL_RNG_REGISTER_CALLBACKS */
 665              		.loc 1 752 7 view .LVU189
 666 0038 FFF7FEFF 		bl	HAL_RNG_ReadyDataCallback
 667              	.LVL44:
 752:stm32f4xx-hal-driver/Src/stm32f4xx_hal_rng.c **** #endif /* USE_HAL_RNG_REGISTER_CALLBACKS */
 668              		.loc 1 752 7 is_stmt 0 view .LVU190
 669 003c 0AE0     		b	.L44
 670              	.LVL45:
 671              	.L51:
 698:stm32f4xx-hal-driver/Src/stm32f4xx_hal_rng.c ****     rngclockerror = 1U;
 672              		.loc 1 698 5 is_stmt 1 view .LVU191
 698:stm32f4xx-hal-driver/Src/stm32f4xx_hal_rng.c ****     rngclockerror = 1U;
 673              		.loc 1 698 21 is_stmt 0 view .LVU192
 674 003e 1023     		movs	r3, #16
 675              	.LVL46:
 698:stm32f4xx-hal-driver/Src/stm32f4xx_hal_rng.c ****     rngclockerror = 1U;
 676              		.loc 1 698 21 view .LVU193
 677 0040 8360     		str	r3, [r0, #8]
 699:stm32f4xx-hal-driver/Src/stm32f4xx_hal_rng.c ****   }
 678              		.loc 1 699 5 is_stmt 1 view .LVU194
 679              	.LVL47:
 710:stm32f4xx-hal-driver/Src/stm32f4xx_hal_rng.c **** 
 680              		.loc 1 710 3 view .LVU195
 712:stm32f4xx-hal-driver/Src/stm32f4xx_hal_rng.c ****   {
 681              		.loc 1 712 3 view .LVU196
 682              	.L46:
 715:stm32f4xx-hal-driver/Src/stm32f4xx_hal_rng.c **** 
 683              		.loc 1 715 5 view .LVU197
 715:stm32f4xx-hal-driver/Src/stm32f4xx_hal_rng.c **** 
 684              		.loc 1 715 17 is_stmt 0 view .LVU198
 685 0042 0423     		movs	r3, #4
 686 0044 6371     		strb	r3, [r4, #5]
 722:stm32f4xx-hal-driver/Src/stm32f4xx_hal_rng.c **** #endif /* USE_HAL_RNG_REGISTER_CALLBACKS */
 687              		.loc 1 722 5 is_stmt 1 view .LVU199
 688 0046 2046     		mov	r0, r4
 689              	.LVL48:
 722:stm32f4xx-hal-driver/Src/stm32f4xx_hal_rng.c **** #endif /* USE_HAL_RNG_REGISTER_CALLBACKS */
 690              		.loc 1 722 5 is_stmt 0 view .LVU200
 691 0048 FFF7FEFF 		bl	HAL_RNG_ErrorCallback
 692              	.LVL49:
 726:stm32f4xx-hal-driver/Src/stm32f4xx_hal_rng.c **** 
 693              		.loc 1 726 5 is_stmt 1 view .LVU201
 694 004c 2368     		ldr	r3, [r4]
 695 004e 6FF06002 		mvn	r2, #96
 696 0052 5A60     		str	r2, [r3, #4]
ARM GAS  /tmp/ccrNs9nx.s 			page 29


 728:stm32f4xx-hal-driver/Src/stm32f4xx_hal_rng.c ****   }
 697              		.loc 1 728 5 view .LVU202
 698              	.LVL50:
 699              	.L44:
 756:stm32f4xx-hal-driver/Src/stm32f4xx_hal_rng.c **** 
 700              		.loc 1 756 1 is_stmt 0 view .LVU203
 701 0054 10BD     		pop	{r4, pc}
 702              	.LVL51:
 703              	.L52:
 704:stm32f4xx-hal-driver/Src/stm32f4xx_hal_rng.c ****     rngclockerror = 1U;
 704              		.loc 1 704 5 is_stmt 1 view .LVU204
 704:stm32f4xx-hal-driver/Src/stm32f4xx_hal_rng.c ****     rngclockerror = 1U;
 705              		.loc 1 704 21 is_stmt 0 view .LVU205
 706 0056 0823     		movs	r3, #8
 707              	.LVL52:
 704:stm32f4xx-hal-driver/Src/stm32f4xx_hal_rng.c ****     rngclockerror = 1U;
 708              		.loc 1 704 21 view .LVU206
 709 0058 8360     		str	r3, [r0, #8]
 705:stm32f4xx-hal-driver/Src/stm32f4xx_hal_rng.c ****   }
 710              		.loc 1 705 5 is_stmt 1 view .LVU207
 711              	.LVL53:
 710:stm32f4xx-hal-driver/Src/stm32f4xx_hal_rng.c **** 
 712              		.loc 1 710 3 view .LVU208
 712:stm32f4xx-hal-driver/Src/stm32f4xx_hal_rng.c ****   {
 713              		.loc 1 712 3 view .LVU209
 714 005a F2E7     		b	.L46
 715              		.cfi_endproc
 716              	.LFE247:
 718              		.section	.text.HAL_RNG_GetState,"ax",%progbits
 719              		.align	1
 720              		.global	HAL_RNG_GetState
 721              		.syntax unified
 722              		.thumb
 723              		.thumb_func
 724              		.fpu fpv4-sp-d16
 726              	HAL_RNG_GetState:
 727              	.LVL54:
 728              	.LFB251:
 800:stm32f4xx-hal-driver/Src/stm32f4xx_hal_rng.c **** /**
 801:stm32f4xx-hal-driver/Src/stm32f4xx_hal_rng.c ****   * @}
 802:stm32f4xx-hal-driver/Src/stm32f4xx_hal_rng.c ****   */
 803:stm32f4xx-hal-driver/Src/stm32f4xx_hal_rng.c **** 
 804:stm32f4xx-hal-driver/Src/stm32f4xx_hal_rng.c **** 
 805:stm32f4xx-hal-driver/Src/stm32f4xx_hal_rng.c **** /** @addtogroup RNG_Exported_Functions_Group3
 806:stm32f4xx-hal-driver/Src/stm32f4xx_hal_rng.c ****   *  @brief   Peripheral State functions
 807:stm32f4xx-hal-driver/Src/stm32f4xx_hal_rng.c ****   *
 808:stm32f4xx-hal-driver/Src/stm32f4xx_hal_rng.c **** @verbatim
 809:stm32f4xx-hal-driver/Src/stm32f4xx_hal_rng.c ****  ===============================================================================
 810:stm32f4xx-hal-driver/Src/stm32f4xx_hal_rng.c ****                       ##### Peripheral State functions #####
 811:stm32f4xx-hal-driver/Src/stm32f4xx_hal_rng.c ****  ===============================================================================
 812:stm32f4xx-hal-driver/Src/stm32f4xx_hal_rng.c ****     [..]
 813:stm32f4xx-hal-driver/Src/stm32f4xx_hal_rng.c ****     This subsection permits to get in run-time the status of the peripheral
 814:stm32f4xx-hal-driver/Src/stm32f4xx_hal_rng.c ****     and the data flow.
 815:stm32f4xx-hal-driver/Src/stm32f4xx_hal_rng.c **** 
 816:stm32f4xx-hal-driver/Src/stm32f4xx_hal_rng.c **** @endverbatim
 817:stm32f4xx-hal-driver/Src/stm32f4xx_hal_rng.c ****   * @{
 818:stm32f4xx-hal-driver/Src/stm32f4xx_hal_rng.c ****   */
ARM GAS  /tmp/ccrNs9nx.s 			page 30


 819:stm32f4xx-hal-driver/Src/stm32f4xx_hal_rng.c **** 
 820:stm32f4xx-hal-driver/Src/stm32f4xx_hal_rng.c **** /**
 821:stm32f4xx-hal-driver/Src/stm32f4xx_hal_rng.c ****   * @brief  Returns the RNG state.
 822:stm32f4xx-hal-driver/Src/stm32f4xx_hal_rng.c ****   * @param  hrng pointer to a RNG_HandleTypeDef structure that contains
 823:stm32f4xx-hal-driver/Src/stm32f4xx_hal_rng.c ****   *                the configuration information for RNG.
 824:stm32f4xx-hal-driver/Src/stm32f4xx_hal_rng.c ****   * @retval HAL state
 825:stm32f4xx-hal-driver/Src/stm32f4xx_hal_rng.c ****   */
 826:stm32f4xx-hal-driver/Src/stm32f4xx_hal_rng.c **** HAL_RNG_StateTypeDef HAL_RNG_GetState(const RNG_HandleTypeDef *hrng)
 827:stm32f4xx-hal-driver/Src/stm32f4xx_hal_rng.c **** {
 729              		.loc 1 827 1 view -0
 730              		.cfi_startproc
 731              		@ args = 0, pretend = 0, frame = 0
 732              		@ frame_needed = 0, uses_anonymous_args = 0
 733              		@ link register save eliminated.
 828:stm32f4xx-hal-driver/Src/stm32f4xx_hal_rng.c ****   return hrng->State;
 734              		.loc 1 828 3 view .LVU211
 735              		.loc 1 828 14 is_stmt 0 view .LVU212
 736 0000 4079     		ldrb	r0, [r0, #5]	@ zero_extendqisi2
 737              	.LVL55:
 829:stm32f4xx-hal-driver/Src/stm32f4xx_hal_rng.c **** }
 738              		.loc 1 829 1 view .LVU213
 739 0002 7047     		bx	lr
 740              		.cfi_endproc
 741              	.LFE251:
 743              		.section	.text.HAL_RNG_GetError,"ax",%progbits
 744              		.align	1
 745              		.global	HAL_RNG_GetError
 746              		.syntax unified
 747              		.thumb
 748              		.thumb_func
 749              		.fpu fpv4-sp-d16
 751              	HAL_RNG_GetError:
 752              	.LVL56:
 753              	.LFB252:
 830:stm32f4xx-hal-driver/Src/stm32f4xx_hal_rng.c **** 
 831:stm32f4xx-hal-driver/Src/stm32f4xx_hal_rng.c **** /**
 832:stm32f4xx-hal-driver/Src/stm32f4xx_hal_rng.c ****   * @brief  Return the RNG handle error code.
 833:stm32f4xx-hal-driver/Src/stm32f4xx_hal_rng.c ****   * @param  hrng: pointer to a RNG_HandleTypeDef structure.
 834:stm32f4xx-hal-driver/Src/stm32f4xx_hal_rng.c ****   * @retval RNG Error Code
 835:stm32f4xx-hal-driver/Src/stm32f4xx_hal_rng.c ****   */
 836:stm32f4xx-hal-driver/Src/stm32f4xx_hal_rng.c **** uint32_t HAL_RNG_GetError(const RNG_HandleTypeDef *hrng)
 837:stm32f4xx-hal-driver/Src/stm32f4xx_hal_rng.c **** {
 754              		.loc 1 837 1 is_stmt 1 view -0
 755              		.cfi_startproc
 756              		@ args = 0, pretend = 0, frame = 0
 757              		@ frame_needed = 0, uses_anonymous_args = 0
 758              		@ link register save eliminated.
 838:stm32f4xx-hal-driver/Src/stm32f4xx_hal_rng.c ****   /* Return RNG Error Code */
 839:stm32f4xx-hal-driver/Src/stm32f4xx_hal_rng.c ****   return hrng->ErrorCode;
 759              		.loc 1 839 3 view .LVU215
 760              		.loc 1 839 14 is_stmt 0 view .LVU216
 761 0000 8068     		ldr	r0, [r0, #8]
 762              	.LVL57:
 840:stm32f4xx-hal-driver/Src/stm32f4xx_hal_rng.c **** }
 763              		.loc 1 840 1 view .LVU217
 764 0002 7047     		bx	lr
 765              		.cfi_endproc
ARM GAS  /tmp/ccrNs9nx.s 			page 31


 766              	.LFE252:
 768              		.text
 769              	.Letext0:
 770              		.file 2 "/opt/gcc_arm/gcc-arm-none-eabi-9-2019-q4-major/arm-none-eabi/include/machine/_default_typ
 771              		.file 3 "/opt/gcc_arm/gcc-arm-none-eabi-9-2019-q4-major/arm-none-eabi/include/sys/_stdint.h"
 772              		.file 4 "CMSIS_5/CMSIS/Core/Include/core_cm4.h"
 773              		.file 5 "cmsis-device-f4/Include/system_stm32f4xx.h"
 774              		.file 6 "cmsis-device-f4/Include/stm32f407xx.h"
 775              		.file 7 "cmsis-device-f4/Include/stm32f4xx.h"
 776              		.file 8 "stm32f4xx-hal-driver/Inc/stm32f4xx_hal_def.h"
 777              		.file 9 "stm32f4xx-hal-driver/Inc/stm32f4xx_hal_rng.h"
 778              		.file 10 "stm32f4xx-hal-driver/Inc/stm32f4xx_hal.h"
ARM GAS  /tmp/ccrNs9nx.s 			page 32

