ARM GAS  /tmp/ccXMuxQe.s 			page 1


   1              		.cpu cortex-m4
   2              		.eabi_attribute 27, 1
   3              		.eabi_attribute 28, 1
   4              		.eabi_attribute 20, 1
   5              		.eabi_attribute 21, 1
   6              		.eabi_attribute 23, 3
   7              		.eabi_attribute 24, 1
   8              		.eabi_attribute 25, 1
   9              		.eabi_attribute 26, 1
  10              		.eabi_attribute 30, 1
  11              		.eabi_attribute 34, 1
  12              		.eabi_attribute 18, 4
  13              		.file	"stm32f4xx_ll_usb.c"
  14              		.text
  15              	.Ltext0:
  16              		.cfi_sections	.debug_frame
  17              		.section	.text.USB_CoreReset,"ax",%progbits
  18              		.align	1
  19              		.arch armv7e-m
  20              		.syntax unified
  21              		.thumb
  22              		.thumb_func
  23              		.fpu fpv4-sp-d16
  25              	USB_CoreReset:
  26              	.LVL0:
  27              	.LFB273:
  28              		.file 1 "stm32f4xx-hal-driver/Src/stm32f4xx_ll_usb.c"
   1:stm32f4xx-hal-driver/Src/stm32f4xx_ll_usb.c **** /**
   2:stm32f4xx-hal-driver/Src/stm32f4xx_ll_usb.c ****   ******************************************************************************
   3:stm32f4xx-hal-driver/Src/stm32f4xx_ll_usb.c ****   * @file    stm32f4xx_ll_usb.c
   4:stm32f4xx-hal-driver/Src/stm32f4xx_ll_usb.c ****   * @author  MCD Application Team
   5:stm32f4xx-hal-driver/Src/stm32f4xx_ll_usb.c ****   * @brief   USB Low Layer HAL module driver.
   6:stm32f4xx-hal-driver/Src/stm32f4xx_ll_usb.c ****   *
   7:stm32f4xx-hal-driver/Src/stm32f4xx_ll_usb.c ****   *          This file provides firmware functions to manage the following
   8:stm32f4xx-hal-driver/Src/stm32f4xx_ll_usb.c ****   *          functionalities of the USB Peripheral Controller:
   9:stm32f4xx-hal-driver/Src/stm32f4xx_ll_usb.c ****   *           + Initialization/de-initialization functions
  10:stm32f4xx-hal-driver/Src/stm32f4xx_ll_usb.c ****   *           + I/O operation functions
  11:stm32f4xx-hal-driver/Src/stm32f4xx_ll_usb.c ****   *           + Peripheral Control functions
  12:stm32f4xx-hal-driver/Src/stm32f4xx_ll_usb.c ****   *           + Peripheral State functions
  13:stm32f4xx-hal-driver/Src/stm32f4xx_ll_usb.c ****   *
  14:stm32f4xx-hal-driver/Src/stm32f4xx_ll_usb.c ****   ******************************************************************************
  15:stm32f4xx-hal-driver/Src/stm32f4xx_ll_usb.c ****   * @attention
  16:stm32f4xx-hal-driver/Src/stm32f4xx_ll_usb.c ****   *
  17:stm32f4xx-hal-driver/Src/stm32f4xx_ll_usb.c ****   * Copyright (c) 2016 STMicroelectronics.
  18:stm32f4xx-hal-driver/Src/stm32f4xx_ll_usb.c ****   * All rights reserved.
  19:stm32f4xx-hal-driver/Src/stm32f4xx_ll_usb.c ****   *
  20:stm32f4xx-hal-driver/Src/stm32f4xx_ll_usb.c ****   * This software is licensed under terms that can be found in the LICENSE file
  21:stm32f4xx-hal-driver/Src/stm32f4xx_ll_usb.c ****   * in the root directory of this software component.
  22:stm32f4xx-hal-driver/Src/stm32f4xx_ll_usb.c ****   * If no LICENSE file comes with this software, it is provided AS-IS.
  23:stm32f4xx-hal-driver/Src/stm32f4xx_ll_usb.c ****   *
  24:stm32f4xx-hal-driver/Src/stm32f4xx_ll_usb.c ****   ******************************************************************************
  25:stm32f4xx-hal-driver/Src/stm32f4xx_ll_usb.c ****   @verbatim
  26:stm32f4xx-hal-driver/Src/stm32f4xx_ll_usb.c ****   ==============================================================================
  27:stm32f4xx-hal-driver/Src/stm32f4xx_ll_usb.c ****                     ##### How to use this driver #####
  28:stm32f4xx-hal-driver/Src/stm32f4xx_ll_usb.c ****   ==============================================================================
  29:stm32f4xx-hal-driver/Src/stm32f4xx_ll_usb.c ****     [..]
  30:stm32f4xx-hal-driver/Src/stm32f4xx_ll_usb.c ****       (#) Fill parameters of Init structure in USB_CfgTypeDef structure.
ARM GAS  /tmp/ccXMuxQe.s 			page 2


  31:stm32f4xx-hal-driver/Src/stm32f4xx_ll_usb.c **** 
  32:stm32f4xx-hal-driver/Src/stm32f4xx_ll_usb.c ****       (#) Call USB_CoreInit() API to initialize the USB Core peripheral.
  33:stm32f4xx-hal-driver/Src/stm32f4xx_ll_usb.c **** 
  34:stm32f4xx-hal-driver/Src/stm32f4xx_ll_usb.c ****       (#) The upper HAL HCD/PCD driver will call the right routines for its internal processes.
  35:stm32f4xx-hal-driver/Src/stm32f4xx_ll_usb.c **** 
  36:stm32f4xx-hal-driver/Src/stm32f4xx_ll_usb.c ****   @endverbatim
  37:stm32f4xx-hal-driver/Src/stm32f4xx_ll_usb.c **** 
  38:stm32f4xx-hal-driver/Src/stm32f4xx_ll_usb.c ****   ******************************************************************************
  39:stm32f4xx-hal-driver/Src/stm32f4xx_ll_usb.c ****   */
  40:stm32f4xx-hal-driver/Src/stm32f4xx_ll_usb.c **** 
  41:stm32f4xx-hal-driver/Src/stm32f4xx_ll_usb.c **** /* Includes ------------------------------------------------------------------*/
  42:stm32f4xx-hal-driver/Src/stm32f4xx_ll_usb.c **** #include "stm32f4xx_hal.h"
  43:stm32f4xx-hal-driver/Src/stm32f4xx_ll_usb.c **** 
  44:stm32f4xx-hal-driver/Src/stm32f4xx_ll_usb.c **** /** @addtogroup STM32F4xx_LL_USB_DRIVER
  45:stm32f4xx-hal-driver/Src/stm32f4xx_ll_usb.c ****   * @{
  46:stm32f4xx-hal-driver/Src/stm32f4xx_ll_usb.c ****   */
  47:stm32f4xx-hal-driver/Src/stm32f4xx_ll_usb.c **** 
  48:stm32f4xx-hal-driver/Src/stm32f4xx_ll_usb.c **** #if defined (HAL_PCD_MODULE_ENABLED) || defined (HAL_HCD_MODULE_ENABLED)
  49:stm32f4xx-hal-driver/Src/stm32f4xx_ll_usb.c **** #if defined (USB_OTG_FS) || defined (USB_OTG_HS)
  50:stm32f4xx-hal-driver/Src/stm32f4xx_ll_usb.c **** /* Private typedef -----------------------------------------------------------*/
  51:stm32f4xx-hal-driver/Src/stm32f4xx_ll_usb.c **** /* Private define ------------------------------------------------------------*/
  52:stm32f4xx-hal-driver/Src/stm32f4xx_ll_usb.c **** /* Private macro -------------------------------------------------------------*/
  53:stm32f4xx-hal-driver/Src/stm32f4xx_ll_usb.c **** /* Private variables ---------------------------------------------------------*/
  54:stm32f4xx-hal-driver/Src/stm32f4xx_ll_usb.c **** /* Private function prototypes -----------------------------------------------*/
  55:stm32f4xx-hal-driver/Src/stm32f4xx_ll_usb.c **** /* Private functions ---------------------------------------------------------*/
  56:stm32f4xx-hal-driver/Src/stm32f4xx_ll_usb.c **** #if defined (USB_OTG_FS) || defined (USB_OTG_HS)
  57:stm32f4xx-hal-driver/Src/stm32f4xx_ll_usb.c **** static HAL_StatusTypeDef USB_CoreReset(USB_OTG_GlobalTypeDef *USBx);
  58:stm32f4xx-hal-driver/Src/stm32f4xx_ll_usb.c **** 
  59:stm32f4xx-hal-driver/Src/stm32f4xx_ll_usb.c **** /* Exported functions --------------------------------------------------------*/
  60:stm32f4xx-hal-driver/Src/stm32f4xx_ll_usb.c **** /** @defgroup USB_LL_Exported_Functions USB Low Layer Exported Functions
  61:stm32f4xx-hal-driver/Src/stm32f4xx_ll_usb.c ****   * @{
  62:stm32f4xx-hal-driver/Src/stm32f4xx_ll_usb.c ****   */
  63:stm32f4xx-hal-driver/Src/stm32f4xx_ll_usb.c **** 
  64:stm32f4xx-hal-driver/Src/stm32f4xx_ll_usb.c **** /** @defgroup USB_LL_Exported_Functions_Group1 Initialization/de-initialization functions
  65:stm32f4xx-hal-driver/Src/stm32f4xx_ll_usb.c ****   *  @brief    Initialization and Configuration functions
  66:stm32f4xx-hal-driver/Src/stm32f4xx_ll_usb.c ****   *
  67:stm32f4xx-hal-driver/Src/stm32f4xx_ll_usb.c **** @verbatim
  68:stm32f4xx-hal-driver/Src/stm32f4xx_ll_usb.c ****  ===============================================================================
  69:stm32f4xx-hal-driver/Src/stm32f4xx_ll_usb.c ****                       ##### Initialization/de-initialization functions #####
  70:stm32f4xx-hal-driver/Src/stm32f4xx_ll_usb.c ****  ===============================================================================
  71:stm32f4xx-hal-driver/Src/stm32f4xx_ll_usb.c **** 
  72:stm32f4xx-hal-driver/Src/stm32f4xx_ll_usb.c **** @endverbatim
  73:stm32f4xx-hal-driver/Src/stm32f4xx_ll_usb.c ****   * @{
  74:stm32f4xx-hal-driver/Src/stm32f4xx_ll_usb.c ****   */
  75:stm32f4xx-hal-driver/Src/stm32f4xx_ll_usb.c **** 
  76:stm32f4xx-hal-driver/Src/stm32f4xx_ll_usb.c **** /**
  77:stm32f4xx-hal-driver/Src/stm32f4xx_ll_usb.c ****   * @brief  Initializes the USB Core
  78:stm32f4xx-hal-driver/Src/stm32f4xx_ll_usb.c ****   * @param  USBx USB Instance
  79:stm32f4xx-hal-driver/Src/stm32f4xx_ll_usb.c ****   * @param  cfg pointer to a USB_OTG_CfgTypeDef structure that contains
  80:stm32f4xx-hal-driver/Src/stm32f4xx_ll_usb.c ****   *         the configuration information for the specified USBx peripheral.
  81:stm32f4xx-hal-driver/Src/stm32f4xx_ll_usb.c ****   * @retval HAL status
  82:stm32f4xx-hal-driver/Src/stm32f4xx_ll_usb.c ****   */
  83:stm32f4xx-hal-driver/Src/stm32f4xx_ll_usb.c **** HAL_StatusTypeDef USB_CoreInit(USB_OTG_GlobalTypeDef *USBx, USB_OTG_CfgTypeDef cfg)
  84:stm32f4xx-hal-driver/Src/stm32f4xx_ll_usb.c **** {
  85:stm32f4xx-hal-driver/Src/stm32f4xx_ll_usb.c ****   HAL_StatusTypeDef ret;
  86:stm32f4xx-hal-driver/Src/stm32f4xx_ll_usb.c ****   if (cfg.phy_itface == USB_OTG_ULPI_PHY)
  87:stm32f4xx-hal-driver/Src/stm32f4xx_ll_usb.c ****   {
ARM GAS  /tmp/ccXMuxQe.s 			page 3


  88:stm32f4xx-hal-driver/Src/stm32f4xx_ll_usb.c ****     USBx->GCCFG &= ~(USB_OTG_GCCFG_PWRDWN);
  89:stm32f4xx-hal-driver/Src/stm32f4xx_ll_usb.c **** 
  90:stm32f4xx-hal-driver/Src/stm32f4xx_ll_usb.c ****     /* Init The ULPI Interface */
  91:stm32f4xx-hal-driver/Src/stm32f4xx_ll_usb.c ****     USBx->GUSBCFG &= ~(USB_OTG_GUSBCFG_TSDPS | USB_OTG_GUSBCFG_ULPIFSLS | USB_OTG_GUSBCFG_PHYSEL);
  92:stm32f4xx-hal-driver/Src/stm32f4xx_ll_usb.c **** 
  93:stm32f4xx-hal-driver/Src/stm32f4xx_ll_usb.c ****     /* Select vbus source */
  94:stm32f4xx-hal-driver/Src/stm32f4xx_ll_usb.c ****     USBx->GUSBCFG &= ~(USB_OTG_GUSBCFG_ULPIEVBUSD | USB_OTG_GUSBCFG_ULPIEVBUSI);
  95:stm32f4xx-hal-driver/Src/stm32f4xx_ll_usb.c ****     if (cfg.use_external_vbus == 1U)
  96:stm32f4xx-hal-driver/Src/stm32f4xx_ll_usb.c ****     {
  97:stm32f4xx-hal-driver/Src/stm32f4xx_ll_usb.c ****       USBx->GUSBCFG |= USB_OTG_GUSBCFG_ULPIEVBUSD;
  98:stm32f4xx-hal-driver/Src/stm32f4xx_ll_usb.c ****     }
  99:stm32f4xx-hal-driver/Src/stm32f4xx_ll_usb.c **** 
 100:stm32f4xx-hal-driver/Src/stm32f4xx_ll_usb.c ****     /* Reset after a PHY select */
 101:stm32f4xx-hal-driver/Src/stm32f4xx_ll_usb.c ****     ret = USB_CoreReset(USBx);
 102:stm32f4xx-hal-driver/Src/stm32f4xx_ll_usb.c ****   }
 103:stm32f4xx-hal-driver/Src/stm32f4xx_ll_usb.c ****   else /* FS interface (embedded Phy) */
 104:stm32f4xx-hal-driver/Src/stm32f4xx_ll_usb.c ****   {
 105:stm32f4xx-hal-driver/Src/stm32f4xx_ll_usb.c ****     /* Select FS Embedded PHY */
 106:stm32f4xx-hal-driver/Src/stm32f4xx_ll_usb.c ****     USBx->GUSBCFG |= USB_OTG_GUSBCFG_PHYSEL;
 107:stm32f4xx-hal-driver/Src/stm32f4xx_ll_usb.c **** 
 108:stm32f4xx-hal-driver/Src/stm32f4xx_ll_usb.c ****     /* Reset after a PHY select */
 109:stm32f4xx-hal-driver/Src/stm32f4xx_ll_usb.c ****     ret = USB_CoreReset(USBx);
 110:stm32f4xx-hal-driver/Src/stm32f4xx_ll_usb.c **** 
 111:stm32f4xx-hal-driver/Src/stm32f4xx_ll_usb.c ****     if (cfg.battery_charging_enable == 0U)
 112:stm32f4xx-hal-driver/Src/stm32f4xx_ll_usb.c ****     {
 113:stm32f4xx-hal-driver/Src/stm32f4xx_ll_usb.c ****       /* Activate the USB Transceiver */
 114:stm32f4xx-hal-driver/Src/stm32f4xx_ll_usb.c ****       USBx->GCCFG |= USB_OTG_GCCFG_PWRDWN;
 115:stm32f4xx-hal-driver/Src/stm32f4xx_ll_usb.c ****     }
 116:stm32f4xx-hal-driver/Src/stm32f4xx_ll_usb.c ****     else
 117:stm32f4xx-hal-driver/Src/stm32f4xx_ll_usb.c ****     {
 118:stm32f4xx-hal-driver/Src/stm32f4xx_ll_usb.c ****       /* Deactivate the USB Transceiver */
 119:stm32f4xx-hal-driver/Src/stm32f4xx_ll_usb.c ****       USBx->GCCFG &= ~(USB_OTG_GCCFG_PWRDWN);
 120:stm32f4xx-hal-driver/Src/stm32f4xx_ll_usb.c ****     }
 121:stm32f4xx-hal-driver/Src/stm32f4xx_ll_usb.c ****   }
 122:stm32f4xx-hal-driver/Src/stm32f4xx_ll_usb.c **** 
 123:stm32f4xx-hal-driver/Src/stm32f4xx_ll_usb.c ****   if (cfg.dma_enable == 1U)
 124:stm32f4xx-hal-driver/Src/stm32f4xx_ll_usb.c ****   {
 125:stm32f4xx-hal-driver/Src/stm32f4xx_ll_usb.c ****     USBx->GAHBCFG |= USB_OTG_GAHBCFG_HBSTLEN_2;
 126:stm32f4xx-hal-driver/Src/stm32f4xx_ll_usb.c ****     USBx->GAHBCFG |= USB_OTG_GAHBCFG_DMAEN;
 127:stm32f4xx-hal-driver/Src/stm32f4xx_ll_usb.c ****   }
 128:stm32f4xx-hal-driver/Src/stm32f4xx_ll_usb.c **** 
 129:stm32f4xx-hal-driver/Src/stm32f4xx_ll_usb.c ****   return ret;
 130:stm32f4xx-hal-driver/Src/stm32f4xx_ll_usb.c **** }
 131:stm32f4xx-hal-driver/Src/stm32f4xx_ll_usb.c **** 
 132:stm32f4xx-hal-driver/Src/stm32f4xx_ll_usb.c **** 
 133:stm32f4xx-hal-driver/Src/stm32f4xx_ll_usb.c **** /**
 134:stm32f4xx-hal-driver/Src/stm32f4xx_ll_usb.c ****   * @brief  Set the USB turnaround time
 135:stm32f4xx-hal-driver/Src/stm32f4xx_ll_usb.c ****   * @param  USBx USB Instance
 136:stm32f4xx-hal-driver/Src/stm32f4xx_ll_usb.c ****   * @param  hclk: AHB clock frequency
 137:stm32f4xx-hal-driver/Src/stm32f4xx_ll_usb.c ****   * @retval USB turnaround time In PHY Clocks number
 138:stm32f4xx-hal-driver/Src/stm32f4xx_ll_usb.c ****   */
 139:stm32f4xx-hal-driver/Src/stm32f4xx_ll_usb.c **** HAL_StatusTypeDef USB_SetTurnaroundTime(USB_OTG_GlobalTypeDef *USBx,
 140:stm32f4xx-hal-driver/Src/stm32f4xx_ll_usb.c ****                                         uint32_t hclk, uint8_t speed)
 141:stm32f4xx-hal-driver/Src/stm32f4xx_ll_usb.c **** {
 142:stm32f4xx-hal-driver/Src/stm32f4xx_ll_usb.c ****   uint32_t UsbTrd;
 143:stm32f4xx-hal-driver/Src/stm32f4xx_ll_usb.c **** 
 144:stm32f4xx-hal-driver/Src/stm32f4xx_ll_usb.c ****   /* The USBTRD is configured according to the tables below, depending on AHB frequency
ARM GAS  /tmp/ccXMuxQe.s 			page 4


 145:stm32f4xx-hal-driver/Src/stm32f4xx_ll_usb.c ****   used by application. In the low AHB frequency range it is used to stretch enough the USB response
 146:stm32f4xx-hal-driver/Src/stm32f4xx_ll_usb.c ****   time to IN tokens, the USB turnaround time, so to compensate for the longer AHB read access
 147:stm32f4xx-hal-driver/Src/stm32f4xx_ll_usb.c ****   latency to the Data FIFO */
 148:stm32f4xx-hal-driver/Src/stm32f4xx_ll_usb.c ****   if (speed == USBD_FS_SPEED)
 149:stm32f4xx-hal-driver/Src/stm32f4xx_ll_usb.c ****   {
 150:stm32f4xx-hal-driver/Src/stm32f4xx_ll_usb.c ****     if ((hclk >= 14200000U) && (hclk < 15000000U))
 151:stm32f4xx-hal-driver/Src/stm32f4xx_ll_usb.c ****     {
 152:stm32f4xx-hal-driver/Src/stm32f4xx_ll_usb.c ****       /* hclk Clock Range between 14.2-15 MHz */
 153:stm32f4xx-hal-driver/Src/stm32f4xx_ll_usb.c ****       UsbTrd = 0xFU;
 154:stm32f4xx-hal-driver/Src/stm32f4xx_ll_usb.c ****     }
 155:stm32f4xx-hal-driver/Src/stm32f4xx_ll_usb.c ****     else if ((hclk >= 15000000U) && (hclk < 16000000U))
 156:stm32f4xx-hal-driver/Src/stm32f4xx_ll_usb.c ****     {
 157:stm32f4xx-hal-driver/Src/stm32f4xx_ll_usb.c ****       /* hclk Clock Range between 15-16 MHz */
 158:stm32f4xx-hal-driver/Src/stm32f4xx_ll_usb.c ****       UsbTrd = 0xEU;
 159:stm32f4xx-hal-driver/Src/stm32f4xx_ll_usb.c ****     }
 160:stm32f4xx-hal-driver/Src/stm32f4xx_ll_usb.c ****     else if ((hclk >= 16000000U) && (hclk < 17200000U))
 161:stm32f4xx-hal-driver/Src/stm32f4xx_ll_usb.c ****     {
 162:stm32f4xx-hal-driver/Src/stm32f4xx_ll_usb.c ****       /* hclk Clock Range between 16-17.2 MHz */
 163:stm32f4xx-hal-driver/Src/stm32f4xx_ll_usb.c ****       UsbTrd = 0xDU;
 164:stm32f4xx-hal-driver/Src/stm32f4xx_ll_usb.c ****     }
 165:stm32f4xx-hal-driver/Src/stm32f4xx_ll_usb.c ****     else if ((hclk >= 17200000U) && (hclk < 18500000U))
 166:stm32f4xx-hal-driver/Src/stm32f4xx_ll_usb.c ****     {
 167:stm32f4xx-hal-driver/Src/stm32f4xx_ll_usb.c ****       /* hclk Clock Range between 17.2-18.5 MHz */
 168:stm32f4xx-hal-driver/Src/stm32f4xx_ll_usb.c ****       UsbTrd = 0xCU;
 169:stm32f4xx-hal-driver/Src/stm32f4xx_ll_usb.c ****     }
 170:stm32f4xx-hal-driver/Src/stm32f4xx_ll_usb.c ****     else if ((hclk >= 18500000U) && (hclk < 20000000U))
 171:stm32f4xx-hal-driver/Src/stm32f4xx_ll_usb.c ****     {
 172:stm32f4xx-hal-driver/Src/stm32f4xx_ll_usb.c ****       /* hclk Clock Range between 18.5-20 MHz */
 173:stm32f4xx-hal-driver/Src/stm32f4xx_ll_usb.c ****       UsbTrd = 0xBU;
 174:stm32f4xx-hal-driver/Src/stm32f4xx_ll_usb.c ****     }
 175:stm32f4xx-hal-driver/Src/stm32f4xx_ll_usb.c ****     else if ((hclk >= 20000000U) && (hclk < 21800000U))
 176:stm32f4xx-hal-driver/Src/stm32f4xx_ll_usb.c ****     {
 177:stm32f4xx-hal-driver/Src/stm32f4xx_ll_usb.c ****       /* hclk Clock Range between 20-21.8 MHz */
 178:stm32f4xx-hal-driver/Src/stm32f4xx_ll_usb.c ****       UsbTrd = 0xAU;
 179:stm32f4xx-hal-driver/Src/stm32f4xx_ll_usb.c ****     }
 180:stm32f4xx-hal-driver/Src/stm32f4xx_ll_usb.c ****     else if ((hclk >= 21800000U) && (hclk < 24000000U))
 181:stm32f4xx-hal-driver/Src/stm32f4xx_ll_usb.c ****     {
 182:stm32f4xx-hal-driver/Src/stm32f4xx_ll_usb.c ****       /* hclk Clock Range between 21.8-24 MHz */
 183:stm32f4xx-hal-driver/Src/stm32f4xx_ll_usb.c ****       UsbTrd = 0x9U;
 184:stm32f4xx-hal-driver/Src/stm32f4xx_ll_usb.c ****     }
 185:stm32f4xx-hal-driver/Src/stm32f4xx_ll_usb.c ****     else if ((hclk >= 24000000U) && (hclk < 27700000U))
 186:stm32f4xx-hal-driver/Src/stm32f4xx_ll_usb.c ****     {
 187:stm32f4xx-hal-driver/Src/stm32f4xx_ll_usb.c ****       /* hclk Clock Range between 24-27.7 MHz */
 188:stm32f4xx-hal-driver/Src/stm32f4xx_ll_usb.c ****       UsbTrd = 0x8U;
 189:stm32f4xx-hal-driver/Src/stm32f4xx_ll_usb.c ****     }
 190:stm32f4xx-hal-driver/Src/stm32f4xx_ll_usb.c ****     else if ((hclk >= 27700000U) && (hclk < 32000000U))
 191:stm32f4xx-hal-driver/Src/stm32f4xx_ll_usb.c ****     {
 192:stm32f4xx-hal-driver/Src/stm32f4xx_ll_usb.c ****       /* hclk Clock Range between 27.7-32 MHz */
 193:stm32f4xx-hal-driver/Src/stm32f4xx_ll_usb.c ****       UsbTrd = 0x7U;
 194:stm32f4xx-hal-driver/Src/stm32f4xx_ll_usb.c ****     }
 195:stm32f4xx-hal-driver/Src/stm32f4xx_ll_usb.c ****     else /* if(hclk >= 32000000) */
 196:stm32f4xx-hal-driver/Src/stm32f4xx_ll_usb.c ****     {
 197:stm32f4xx-hal-driver/Src/stm32f4xx_ll_usb.c ****       /* hclk Clock Range between 32-200 MHz */
 198:stm32f4xx-hal-driver/Src/stm32f4xx_ll_usb.c ****       UsbTrd = 0x6U;
 199:stm32f4xx-hal-driver/Src/stm32f4xx_ll_usb.c ****     }
 200:stm32f4xx-hal-driver/Src/stm32f4xx_ll_usb.c ****   }
 201:stm32f4xx-hal-driver/Src/stm32f4xx_ll_usb.c ****   else if (speed == USBD_HS_SPEED)
ARM GAS  /tmp/ccXMuxQe.s 			page 5


 202:stm32f4xx-hal-driver/Src/stm32f4xx_ll_usb.c ****   {
 203:stm32f4xx-hal-driver/Src/stm32f4xx_ll_usb.c ****     UsbTrd = USBD_HS_TRDT_VALUE;
 204:stm32f4xx-hal-driver/Src/stm32f4xx_ll_usb.c ****   }
 205:stm32f4xx-hal-driver/Src/stm32f4xx_ll_usb.c ****   else
 206:stm32f4xx-hal-driver/Src/stm32f4xx_ll_usb.c ****   {
 207:stm32f4xx-hal-driver/Src/stm32f4xx_ll_usb.c ****     UsbTrd = USBD_DEFAULT_TRDT_VALUE;
 208:stm32f4xx-hal-driver/Src/stm32f4xx_ll_usb.c ****   }
 209:stm32f4xx-hal-driver/Src/stm32f4xx_ll_usb.c **** 
 210:stm32f4xx-hal-driver/Src/stm32f4xx_ll_usb.c ****   USBx->GUSBCFG &= ~USB_OTG_GUSBCFG_TRDT;
 211:stm32f4xx-hal-driver/Src/stm32f4xx_ll_usb.c ****   USBx->GUSBCFG |= (uint32_t)((UsbTrd << 10) & USB_OTG_GUSBCFG_TRDT);
 212:stm32f4xx-hal-driver/Src/stm32f4xx_ll_usb.c **** 
 213:stm32f4xx-hal-driver/Src/stm32f4xx_ll_usb.c ****   return HAL_OK;
 214:stm32f4xx-hal-driver/Src/stm32f4xx_ll_usb.c **** }
 215:stm32f4xx-hal-driver/Src/stm32f4xx_ll_usb.c **** 
 216:stm32f4xx-hal-driver/Src/stm32f4xx_ll_usb.c **** /**
 217:stm32f4xx-hal-driver/Src/stm32f4xx_ll_usb.c ****   * @brief  USB_EnableGlobalInt
 218:stm32f4xx-hal-driver/Src/stm32f4xx_ll_usb.c ****   *         Enables the controller's Global Int in the AHB Config reg
 219:stm32f4xx-hal-driver/Src/stm32f4xx_ll_usb.c ****   * @param  USBx  Selected device
 220:stm32f4xx-hal-driver/Src/stm32f4xx_ll_usb.c ****   * @retval HAL status
 221:stm32f4xx-hal-driver/Src/stm32f4xx_ll_usb.c ****   */
 222:stm32f4xx-hal-driver/Src/stm32f4xx_ll_usb.c **** HAL_StatusTypeDef USB_EnableGlobalInt(USB_OTG_GlobalTypeDef *USBx)
 223:stm32f4xx-hal-driver/Src/stm32f4xx_ll_usb.c **** {
 224:stm32f4xx-hal-driver/Src/stm32f4xx_ll_usb.c ****   USBx->GAHBCFG |= USB_OTG_GAHBCFG_GINT;
 225:stm32f4xx-hal-driver/Src/stm32f4xx_ll_usb.c ****   return HAL_OK;
 226:stm32f4xx-hal-driver/Src/stm32f4xx_ll_usb.c **** }
 227:stm32f4xx-hal-driver/Src/stm32f4xx_ll_usb.c **** 
 228:stm32f4xx-hal-driver/Src/stm32f4xx_ll_usb.c **** /**
 229:stm32f4xx-hal-driver/Src/stm32f4xx_ll_usb.c ****   * @brief  USB_DisableGlobalInt
 230:stm32f4xx-hal-driver/Src/stm32f4xx_ll_usb.c ****   *         Disable the controller's Global Int in the AHB Config reg
 231:stm32f4xx-hal-driver/Src/stm32f4xx_ll_usb.c ****   * @param  USBx  Selected device
 232:stm32f4xx-hal-driver/Src/stm32f4xx_ll_usb.c ****   * @retval HAL status
 233:stm32f4xx-hal-driver/Src/stm32f4xx_ll_usb.c ****   */
 234:stm32f4xx-hal-driver/Src/stm32f4xx_ll_usb.c **** HAL_StatusTypeDef USB_DisableGlobalInt(USB_OTG_GlobalTypeDef *USBx)
 235:stm32f4xx-hal-driver/Src/stm32f4xx_ll_usb.c **** {
 236:stm32f4xx-hal-driver/Src/stm32f4xx_ll_usb.c ****   USBx->GAHBCFG &= ~USB_OTG_GAHBCFG_GINT;
 237:stm32f4xx-hal-driver/Src/stm32f4xx_ll_usb.c ****   return HAL_OK;
 238:stm32f4xx-hal-driver/Src/stm32f4xx_ll_usb.c **** }
 239:stm32f4xx-hal-driver/Src/stm32f4xx_ll_usb.c **** 
 240:stm32f4xx-hal-driver/Src/stm32f4xx_ll_usb.c **** /**
 241:stm32f4xx-hal-driver/Src/stm32f4xx_ll_usb.c ****   * @brief  USB_SetCurrentMode Set functional mode
 242:stm32f4xx-hal-driver/Src/stm32f4xx_ll_usb.c ****   * @param  USBx  Selected device
 243:stm32f4xx-hal-driver/Src/stm32f4xx_ll_usb.c ****   * @param  mode  current core mode
 244:stm32f4xx-hal-driver/Src/stm32f4xx_ll_usb.c ****   *          This parameter can be one of these values:
 245:stm32f4xx-hal-driver/Src/stm32f4xx_ll_usb.c ****   *            @arg USB_DEVICE_MODE Peripheral mode
 246:stm32f4xx-hal-driver/Src/stm32f4xx_ll_usb.c ****   *            @arg USB_HOST_MODE Host mode
 247:stm32f4xx-hal-driver/Src/stm32f4xx_ll_usb.c ****   * @retval HAL status
 248:stm32f4xx-hal-driver/Src/stm32f4xx_ll_usb.c ****   */
 249:stm32f4xx-hal-driver/Src/stm32f4xx_ll_usb.c **** HAL_StatusTypeDef USB_SetCurrentMode(USB_OTG_GlobalTypeDef *USBx, USB_OTG_ModeTypeDef mode)
 250:stm32f4xx-hal-driver/Src/stm32f4xx_ll_usb.c **** {
 251:stm32f4xx-hal-driver/Src/stm32f4xx_ll_usb.c ****   uint32_t ms = 0U;
 252:stm32f4xx-hal-driver/Src/stm32f4xx_ll_usb.c **** 
 253:stm32f4xx-hal-driver/Src/stm32f4xx_ll_usb.c ****   USBx->GUSBCFG &= ~(USB_OTG_GUSBCFG_FHMOD | USB_OTG_GUSBCFG_FDMOD);
 254:stm32f4xx-hal-driver/Src/stm32f4xx_ll_usb.c **** 
 255:stm32f4xx-hal-driver/Src/stm32f4xx_ll_usb.c ****   if (mode == USB_HOST_MODE)
 256:stm32f4xx-hal-driver/Src/stm32f4xx_ll_usb.c ****   {
 257:stm32f4xx-hal-driver/Src/stm32f4xx_ll_usb.c ****     USBx->GUSBCFG |= USB_OTG_GUSBCFG_FHMOD;
 258:stm32f4xx-hal-driver/Src/stm32f4xx_ll_usb.c **** 
ARM GAS  /tmp/ccXMuxQe.s 			page 6


 259:stm32f4xx-hal-driver/Src/stm32f4xx_ll_usb.c ****     do
 260:stm32f4xx-hal-driver/Src/stm32f4xx_ll_usb.c ****     {
 261:stm32f4xx-hal-driver/Src/stm32f4xx_ll_usb.c ****       HAL_Delay(10U);
 262:stm32f4xx-hal-driver/Src/stm32f4xx_ll_usb.c ****       ms += 10U;
 263:stm32f4xx-hal-driver/Src/stm32f4xx_ll_usb.c ****     } while ((USB_GetMode(USBx) != (uint32_t)USB_HOST_MODE) && (ms < HAL_USB_CURRENT_MODE_MAX_DELAY
 264:stm32f4xx-hal-driver/Src/stm32f4xx_ll_usb.c ****   }
 265:stm32f4xx-hal-driver/Src/stm32f4xx_ll_usb.c ****   else if (mode == USB_DEVICE_MODE)
 266:stm32f4xx-hal-driver/Src/stm32f4xx_ll_usb.c ****   {
 267:stm32f4xx-hal-driver/Src/stm32f4xx_ll_usb.c ****     USBx->GUSBCFG |= USB_OTG_GUSBCFG_FDMOD;
 268:stm32f4xx-hal-driver/Src/stm32f4xx_ll_usb.c **** 
 269:stm32f4xx-hal-driver/Src/stm32f4xx_ll_usb.c ****     do
 270:stm32f4xx-hal-driver/Src/stm32f4xx_ll_usb.c ****     {
 271:stm32f4xx-hal-driver/Src/stm32f4xx_ll_usb.c ****       HAL_Delay(10U);
 272:stm32f4xx-hal-driver/Src/stm32f4xx_ll_usb.c ****       ms += 10U;
 273:stm32f4xx-hal-driver/Src/stm32f4xx_ll_usb.c ****     } while ((USB_GetMode(USBx) != (uint32_t)USB_DEVICE_MODE) && (ms < HAL_USB_CURRENT_MODE_MAX_DEL
 274:stm32f4xx-hal-driver/Src/stm32f4xx_ll_usb.c ****   }
 275:stm32f4xx-hal-driver/Src/stm32f4xx_ll_usb.c ****   else
 276:stm32f4xx-hal-driver/Src/stm32f4xx_ll_usb.c ****   {
 277:stm32f4xx-hal-driver/Src/stm32f4xx_ll_usb.c ****     return HAL_ERROR;
 278:stm32f4xx-hal-driver/Src/stm32f4xx_ll_usb.c ****   }
 279:stm32f4xx-hal-driver/Src/stm32f4xx_ll_usb.c **** 
 280:stm32f4xx-hal-driver/Src/stm32f4xx_ll_usb.c ****   if (ms == HAL_USB_CURRENT_MODE_MAX_DELAY_MS)
 281:stm32f4xx-hal-driver/Src/stm32f4xx_ll_usb.c ****   {
 282:stm32f4xx-hal-driver/Src/stm32f4xx_ll_usb.c ****     return HAL_ERROR;
 283:stm32f4xx-hal-driver/Src/stm32f4xx_ll_usb.c ****   }
 284:stm32f4xx-hal-driver/Src/stm32f4xx_ll_usb.c **** 
 285:stm32f4xx-hal-driver/Src/stm32f4xx_ll_usb.c ****   return HAL_OK;
 286:stm32f4xx-hal-driver/Src/stm32f4xx_ll_usb.c **** }
 287:stm32f4xx-hal-driver/Src/stm32f4xx_ll_usb.c **** 
 288:stm32f4xx-hal-driver/Src/stm32f4xx_ll_usb.c **** /**
 289:stm32f4xx-hal-driver/Src/stm32f4xx_ll_usb.c ****   * @brief  USB_DevInit Initializes the USB_OTG controller registers
 290:stm32f4xx-hal-driver/Src/stm32f4xx_ll_usb.c ****   *         for device mode
 291:stm32f4xx-hal-driver/Src/stm32f4xx_ll_usb.c ****   * @param  USBx  Selected device
 292:stm32f4xx-hal-driver/Src/stm32f4xx_ll_usb.c ****   * @param  cfg   pointer to a USB_OTG_CfgTypeDef structure that contains
 293:stm32f4xx-hal-driver/Src/stm32f4xx_ll_usb.c ****   *         the configuration information for the specified USBx peripheral.
 294:stm32f4xx-hal-driver/Src/stm32f4xx_ll_usb.c ****   * @retval HAL status
 295:stm32f4xx-hal-driver/Src/stm32f4xx_ll_usb.c ****   */
 296:stm32f4xx-hal-driver/Src/stm32f4xx_ll_usb.c **** HAL_StatusTypeDef USB_DevInit(USB_OTG_GlobalTypeDef *USBx, USB_OTG_CfgTypeDef cfg)
 297:stm32f4xx-hal-driver/Src/stm32f4xx_ll_usb.c **** {
 298:stm32f4xx-hal-driver/Src/stm32f4xx_ll_usb.c ****   HAL_StatusTypeDef ret = HAL_OK;
 299:stm32f4xx-hal-driver/Src/stm32f4xx_ll_usb.c ****   uint32_t USBx_BASE = (uint32_t)USBx;
 300:stm32f4xx-hal-driver/Src/stm32f4xx_ll_usb.c ****   uint32_t i;
 301:stm32f4xx-hal-driver/Src/stm32f4xx_ll_usb.c **** 
 302:stm32f4xx-hal-driver/Src/stm32f4xx_ll_usb.c ****   for (i = 0U; i < 15U; i++)
 303:stm32f4xx-hal-driver/Src/stm32f4xx_ll_usb.c ****   {
 304:stm32f4xx-hal-driver/Src/stm32f4xx_ll_usb.c ****     USBx->DIEPTXF[i] = 0U;
 305:stm32f4xx-hal-driver/Src/stm32f4xx_ll_usb.c ****   }
 306:stm32f4xx-hal-driver/Src/stm32f4xx_ll_usb.c **** 
 307:stm32f4xx-hal-driver/Src/stm32f4xx_ll_usb.c **** #if defined(STM32F446xx) || defined(STM32F469xx) || defined(STM32F479xx) || defined(STM32F412Zx) \
 308:stm32f4xx-hal-driver/Src/stm32f4xx_ll_usb.c ****  || defined(STM32F412Vx) || defined(STM32F412Rx) || defined(STM32F412Cx) || defined(STM32F413xx) \
 309:stm32f4xx-hal-driver/Src/stm32f4xx_ll_usb.c ****  || defined(STM32F423xx)
 310:stm32f4xx-hal-driver/Src/stm32f4xx_ll_usb.c ****   /* VBUS Sensing setup */
 311:stm32f4xx-hal-driver/Src/stm32f4xx_ll_usb.c ****   if (cfg.vbus_sensing_enable == 0U)
 312:stm32f4xx-hal-driver/Src/stm32f4xx_ll_usb.c ****   {
 313:stm32f4xx-hal-driver/Src/stm32f4xx_ll_usb.c ****     USBx_DEVICE->DCTL |= USB_OTG_DCTL_SDIS;
 314:stm32f4xx-hal-driver/Src/stm32f4xx_ll_usb.c **** 
 315:stm32f4xx-hal-driver/Src/stm32f4xx_ll_usb.c ****     /* Deactivate VBUS Sensing B */
ARM GAS  /tmp/ccXMuxQe.s 			page 7


 316:stm32f4xx-hal-driver/Src/stm32f4xx_ll_usb.c ****     USBx->GCCFG &= ~USB_OTG_GCCFG_VBDEN;
 317:stm32f4xx-hal-driver/Src/stm32f4xx_ll_usb.c **** 
 318:stm32f4xx-hal-driver/Src/stm32f4xx_ll_usb.c ****     /* B-peripheral session valid override enable */
 319:stm32f4xx-hal-driver/Src/stm32f4xx_ll_usb.c ****     USBx->GOTGCTL |= USB_OTG_GOTGCTL_BVALOEN;
 320:stm32f4xx-hal-driver/Src/stm32f4xx_ll_usb.c ****     USBx->GOTGCTL |= USB_OTG_GOTGCTL_BVALOVAL;
 321:stm32f4xx-hal-driver/Src/stm32f4xx_ll_usb.c ****   }
 322:stm32f4xx-hal-driver/Src/stm32f4xx_ll_usb.c ****   else
 323:stm32f4xx-hal-driver/Src/stm32f4xx_ll_usb.c ****   {
 324:stm32f4xx-hal-driver/Src/stm32f4xx_ll_usb.c ****     /* Enable HW VBUS sensing */
 325:stm32f4xx-hal-driver/Src/stm32f4xx_ll_usb.c ****     USBx->GCCFG |= USB_OTG_GCCFG_VBDEN;
 326:stm32f4xx-hal-driver/Src/stm32f4xx_ll_usb.c ****   }
 327:stm32f4xx-hal-driver/Src/stm32f4xx_ll_usb.c **** #else
 328:stm32f4xx-hal-driver/Src/stm32f4xx_ll_usb.c ****   /* VBUS Sensing setup */
 329:stm32f4xx-hal-driver/Src/stm32f4xx_ll_usb.c ****   if (cfg.vbus_sensing_enable == 0U)
 330:stm32f4xx-hal-driver/Src/stm32f4xx_ll_usb.c ****   {
 331:stm32f4xx-hal-driver/Src/stm32f4xx_ll_usb.c ****     /*
 332:stm32f4xx-hal-driver/Src/stm32f4xx_ll_usb.c ****      * Disable HW VBUS sensing. VBUS is internally considered to be always
 333:stm32f4xx-hal-driver/Src/stm32f4xx_ll_usb.c ****      * at VBUS-Valid level (5V).
 334:stm32f4xx-hal-driver/Src/stm32f4xx_ll_usb.c ****      */
 335:stm32f4xx-hal-driver/Src/stm32f4xx_ll_usb.c ****     USBx_DEVICE->DCTL |= USB_OTG_DCTL_SDIS;
 336:stm32f4xx-hal-driver/Src/stm32f4xx_ll_usb.c ****     USBx->GCCFG |= USB_OTG_GCCFG_NOVBUSSENS;
 337:stm32f4xx-hal-driver/Src/stm32f4xx_ll_usb.c ****     USBx->GCCFG &= ~USB_OTG_GCCFG_VBUSBSEN;
 338:stm32f4xx-hal-driver/Src/stm32f4xx_ll_usb.c ****     USBx->GCCFG &= ~USB_OTG_GCCFG_VBUSASEN;
 339:stm32f4xx-hal-driver/Src/stm32f4xx_ll_usb.c ****   }
 340:stm32f4xx-hal-driver/Src/stm32f4xx_ll_usb.c ****   else
 341:stm32f4xx-hal-driver/Src/stm32f4xx_ll_usb.c ****   {
 342:stm32f4xx-hal-driver/Src/stm32f4xx_ll_usb.c ****     /* Enable HW VBUS sensing */
 343:stm32f4xx-hal-driver/Src/stm32f4xx_ll_usb.c ****     USBx->GCCFG &= ~USB_OTG_GCCFG_NOVBUSSENS;
 344:stm32f4xx-hal-driver/Src/stm32f4xx_ll_usb.c ****     USBx->GCCFG |= USB_OTG_GCCFG_VBUSBSEN;
 345:stm32f4xx-hal-driver/Src/stm32f4xx_ll_usb.c ****   }
 346:stm32f4xx-hal-driver/Src/stm32f4xx_ll_usb.c **** #endif /* defined(STM32F446xx) || defined(STM32F469xx) || defined(STM32F479xx) || defined(STM32F412
 347:stm32f4xx-hal-driver/Src/stm32f4xx_ll_usb.c ****           defined(STM32F412Vx) || defined(STM32F412Rx) || defined(STM32F412Cx) || defined(STM32F413
 348:stm32f4xx-hal-driver/Src/stm32f4xx_ll_usb.c ****           defined(STM32F423xx) */
 349:stm32f4xx-hal-driver/Src/stm32f4xx_ll_usb.c **** 
 350:stm32f4xx-hal-driver/Src/stm32f4xx_ll_usb.c ****   /* Restart the Phy Clock */
 351:stm32f4xx-hal-driver/Src/stm32f4xx_ll_usb.c ****   USBx_PCGCCTL = 0U;
 352:stm32f4xx-hal-driver/Src/stm32f4xx_ll_usb.c **** 
 353:stm32f4xx-hal-driver/Src/stm32f4xx_ll_usb.c ****   if (cfg.phy_itface == USB_OTG_ULPI_PHY)
 354:stm32f4xx-hal-driver/Src/stm32f4xx_ll_usb.c ****   {
 355:stm32f4xx-hal-driver/Src/stm32f4xx_ll_usb.c ****     if (cfg.speed == USBD_HS_SPEED)
 356:stm32f4xx-hal-driver/Src/stm32f4xx_ll_usb.c ****     {
 357:stm32f4xx-hal-driver/Src/stm32f4xx_ll_usb.c ****       /* Set Core speed to High speed mode */
 358:stm32f4xx-hal-driver/Src/stm32f4xx_ll_usb.c ****       (void)USB_SetDevSpeed(USBx, USB_OTG_SPEED_HIGH);
 359:stm32f4xx-hal-driver/Src/stm32f4xx_ll_usb.c ****     }
 360:stm32f4xx-hal-driver/Src/stm32f4xx_ll_usb.c ****     else
 361:stm32f4xx-hal-driver/Src/stm32f4xx_ll_usb.c ****     {
 362:stm32f4xx-hal-driver/Src/stm32f4xx_ll_usb.c ****       /* Set Core speed to Full speed mode */
 363:stm32f4xx-hal-driver/Src/stm32f4xx_ll_usb.c ****       (void)USB_SetDevSpeed(USBx, USB_OTG_SPEED_HIGH_IN_FULL);
 364:stm32f4xx-hal-driver/Src/stm32f4xx_ll_usb.c ****     }
 365:stm32f4xx-hal-driver/Src/stm32f4xx_ll_usb.c ****   }
 366:stm32f4xx-hal-driver/Src/stm32f4xx_ll_usb.c ****   else
 367:stm32f4xx-hal-driver/Src/stm32f4xx_ll_usb.c ****   {
 368:stm32f4xx-hal-driver/Src/stm32f4xx_ll_usb.c ****     /* Set Core speed to Full speed mode */
 369:stm32f4xx-hal-driver/Src/stm32f4xx_ll_usb.c ****     (void)USB_SetDevSpeed(USBx, USB_OTG_SPEED_FULL);
 370:stm32f4xx-hal-driver/Src/stm32f4xx_ll_usb.c ****   }
 371:stm32f4xx-hal-driver/Src/stm32f4xx_ll_usb.c **** 
 372:stm32f4xx-hal-driver/Src/stm32f4xx_ll_usb.c ****   /* Flush the FIFOs */
ARM GAS  /tmp/ccXMuxQe.s 			page 8


 373:stm32f4xx-hal-driver/Src/stm32f4xx_ll_usb.c ****   if (USB_FlushTxFifo(USBx, 0x10U) != HAL_OK) /* all Tx FIFOs */
 374:stm32f4xx-hal-driver/Src/stm32f4xx_ll_usb.c ****   {
 375:stm32f4xx-hal-driver/Src/stm32f4xx_ll_usb.c ****     ret = HAL_ERROR;
 376:stm32f4xx-hal-driver/Src/stm32f4xx_ll_usb.c ****   }
 377:stm32f4xx-hal-driver/Src/stm32f4xx_ll_usb.c **** 
 378:stm32f4xx-hal-driver/Src/stm32f4xx_ll_usb.c ****   if (USB_FlushRxFifo(USBx) != HAL_OK)
 379:stm32f4xx-hal-driver/Src/stm32f4xx_ll_usb.c ****   {
 380:stm32f4xx-hal-driver/Src/stm32f4xx_ll_usb.c ****     ret = HAL_ERROR;
 381:stm32f4xx-hal-driver/Src/stm32f4xx_ll_usb.c ****   }
 382:stm32f4xx-hal-driver/Src/stm32f4xx_ll_usb.c **** 
 383:stm32f4xx-hal-driver/Src/stm32f4xx_ll_usb.c ****   /* Clear all pending Device Interrupts */
 384:stm32f4xx-hal-driver/Src/stm32f4xx_ll_usb.c ****   USBx_DEVICE->DIEPMSK = 0U;
 385:stm32f4xx-hal-driver/Src/stm32f4xx_ll_usb.c ****   USBx_DEVICE->DOEPMSK = 0U;
 386:stm32f4xx-hal-driver/Src/stm32f4xx_ll_usb.c ****   USBx_DEVICE->DAINTMSK = 0U;
 387:stm32f4xx-hal-driver/Src/stm32f4xx_ll_usb.c **** 
 388:stm32f4xx-hal-driver/Src/stm32f4xx_ll_usb.c ****   for (i = 0U; i < cfg.dev_endpoints; i++)
 389:stm32f4xx-hal-driver/Src/stm32f4xx_ll_usb.c ****   {
 390:stm32f4xx-hal-driver/Src/stm32f4xx_ll_usb.c ****     if ((USBx_INEP(i)->DIEPCTL & USB_OTG_DIEPCTL_EPENA) == USB_OTG_DIEPCTL_EPENA)
 391:stm32f4xx-hal-driver/Src/stm32f4xx_ll_usb.c ****     {
 392:stm32f4xx-hal-driver/Src/stm32f4xx_ll_usb.c ****       if (i == 0U)
 393:stm32f4xx-hal-driver/Src/stm32f4xx_ll_usb.c ****       {
 394:stm32f4xx-hal-driver/Src/stm32f4xx_ll_usb.c ****         USBx_INEP(i)->DIEPCTL = USB_OTG_DIEPCTL_SNAK;
 395:stm32f4xx-hal-driver/Src/stm32f4xx_ll_usb.c ****       }
 396:stm32f4xx-hal-driver/Src/stm32f4xx_ll_usb.c ****       else
 397:stm32f4xx-hal-driver/Src/stm32f4xx_ll_usb.c ****       {
 398:stm32f4xx-hal-driver/Src/stm32f4xx_ll_usb.c ****         USBx_INEP(i)->DIEPCTL = USB_OTG_DIEPCTL_EPDIS | USB_OTG_DIEPCTL_SNAK;
 399:stm32f4xx-hal-driver/Src/stm32f4xx_ll_usb.c ****       }
 400:stm32f4xx-hal-driver/Src/stm32f4xx_ll_usb.c ****     }
 401:stm32f4xx-hal-driver/Src/stm32f4xx_ll_usb.c ****     else
 402:stm32f4xx-hal-driver/Src/stm32f4xx_ll_usb.c ****     {
 403:stm32f4xx-hal-driver/Src/stm32f4xx_ll_usb.c ****       USBx_INEP(i)->DIEPCTL = 0U;
 404:stm32f4xx-hal-driver/Src/stm32f4xx_ll_usb.c ****     }
 405:stm32f4xx-hal-driver/Src/stm32f4xx_ll_usb.c **** 
 406:stm32f4xx-hal-driver/Src/stm32f4xx_ll_usb.c ****     USBx_INEP(i)->DIEPTSIZ = 0U;
 407:stm32f4xx-hal-driver/Src/stm32f4xx_ll_usb.c ****     USBx_INEP(i)->DIEPINT  = 0xFB7FU;
 408:stm32f4xx-hal-driver/Src/stm32f4xx_ll_usb.c ****   }
 409:stm32f4xx-hal-driver/Src/stm32f4xx_ll_usb.c **** 
 410:stm32f4xx-hal-driver/Src/stm32f4xx_ll_usb.c ****   for (i = 0U; i < cfg.dev_endpoints; i++)
 411:stm32f4xx-hal-driver/Src/stm32f4xx_ll_usb.c ****   {
 412:stm32f4xx-hal-driver/Src/stm32f4xx_ll_usb.c ****     if ((USBx_OUTEP(i)->DOEPCTL & USB_OTG_DOEPCTL_EPENA) == USB_OTG_DOEPCTL_EPENA)
 413:stm32f4xx-hal-driver/Src/stm32f4xx_ll_usb.c ****     {
 414:stm32f4xx-hal-driver/Src/stm32f4xx_ll_usb.c ****       if (i == 0U)
 415:stm32f4xx-hal-driver/Src/stm32f4xx_ll_usb.c ****       {
 416:stm32f4xx-hal-driver/Src/stm32f4xx_ll_usb.c ****         USBx_OUTEP(i)->DOEPCTL = USB_OTG_DOEPCTL_SNAK;
 417:stm32f4xx-hal-driver/Src/stm32f4xx_ll_usb.c ****       }
 418:stm32f4xx-hal-driver/Src/stm32f4xx_ll_usb.c ****       else
 419:stm32f4xx-hal-driver/Src/stm32f4xx_ll_usb.c ****       {
 420:stm32f4xx-hal-driver/Src/stm32f4xx_ll_usb.c ****         USBx_OUTEP(i)->DOEPCTL = USB_OTG_DOEPCTL_EPDIS | USB_OTG_DOEPCTL_SNAK;
 421:stm32f4xx-hal-driver/Src/stm32f4xx_ll_usb.c ****       }
 422:stm32f4xx-hal-driver/Src/stm32f4xx_ll_usb.c ****     }
 423:stm32f4xx-hal-driver/Src/stm32f4xx_ll_usb.c ****     else
 424:stm32f4xx-hal-driver/Src/stm32f4xx_ll_usb.c ****     {
 425:stm32f4xx-hal-driver/Src/stm32f4xx_ll_usb.c ****       USBx_OUTEP(i)->DOEPCTL = 0U;
 426:stm32f4xx-hal-driver/Src/stm32f4xx_ll_usb.c ****     }
 427:stm32f4xx-hal-driver/Src/stm32f4xx_ll_usb.c **** 
 428:stm32f4xx-hal-driver/Src/stm32f4xx_ll_usb.c ****     USBx_OUTEP(i)->DOEPTSIZ = 0U;
 429:stm32f4xx-hal-driver/Src/stm32f4xx_ll_usb.c ****     USBx_OUTEP(i)->DOEPINT  = 0xFB7FU;
ARM GAS  /tmp/ccXMuxQe.s 			page 9


 430:stm32f4xx-hal-driver/Src/stm32f4xx_ll_usb.c ****   }
 431:stm32f4xx-hal-driver/Src/stm32f4xx_ll_usb.c **** 
 432:stm32f4xx-hal-driver/Src/stm32f4xx_ll_usb.c ****   USBx_DEVICE->DIEPMSK &= ~(USB_OTG_DIEPMSK_TXFURM);
 433:stm32f4xx-hal-driver/Src/stm32f4xx_ll_usb.c **** 
 434:stm32f4xx-hal-driver/Src/stm32f4xx_ll_usb.c ****   /* Disable all interrupts. */
 435:stm32f4xx-hal-driver/Src/stm32f4xx_ll_usb.c ****   USBx->GINTMSK = 0U;
 436:stm32f4xx-hal-driver/Src/stm32f4xx_ll_usb.c **** 
 437:stm32f4xx-hal-driver/Src/stm32f4xx_ll_usb.c ****   /* Clear any pending interrupts */
 438:stm32f4xx-hal-driver/Src/stm32f4xx_ll_usb.c ****   USBx->GINTSTS = 0xBFFFFFFFU;
 439:stm32f4xx-hal-driver/Src/stm32f4xx_ll_usb.c **** 
 440:stm32f4xx-hal-driver/Src/stm32f4xx_ll_usb.c ****   /* Enable the common interrupts */
 441:stm32f4xx-hal-driver/Src/stm32f4xx_ll_usb.c ****   if (cfg.dma_enable == 0U)
 442:stm32f4xx-hal-driver/Src/stm32f4xx_ll_usb.c ****   {
 443:stm32f4xx-hal-driver/Src/stm32f4xx_ll_usb.c ****     USBx->GINTMSK |= USB_OTG_GINTMSK_RXFLVLM;
 444:stm32f4xx-hal-driver/Src/stm32f4xx_ll_usb.c ****   }
 445:stm32f4xx-hal-driver/Src/stm32f4xx_ll_usb.c **** 
 446:stm32f4xx-hal-driver/Src/stm32f4xx_ll_usb.c ****   /* Enable interrupts matching to the Device mode ONLY */
 447:stm32f4xx-hal-driver/Src/stm32f4xx_ll_usb.c ****   USBx->GINTMSK |= USB_OTG_GINTMSK_USBSUSPM | USB_OTG_GINTMSK_USBRST |
 448:stm32f4xx-hal-driver/Src/stm32f4xx_ll_usb.c ****                    USB_OTG_GINTMSK_ENUMDNEM | USB_OTG_GINTMSK_IEPINT |
 449:stm32f4xx-hal-driver/Src/stm32f4xx_ll_usb.c ****                    USB_OTG_GINTMSK_OEPINT   | USB_OTG_GINTMSK_IISOIXFRM |
 450:stm32f4xx-hal-driver/Src/stm32f4xx_ll_usb.c ****                    USB_OTG_GINTMSK_PXFRM_IISOOXFRM | USB_OTG_GINTMSK_WUIM;
 451:stm32f4xx-hal-driver/Src/stm32f4xx_ll_usb.c **** 
 452:stm32f4xx-hal-driver/Src/stm32f4xx_ll_usb.c ****   if (cfg.Sof_enable != 0U)
 453:stm32f4xx-hal-driver/Src/stm32f4xx_ll_usb.c ****   {
 454:stm32f4xx-hal-driver/Src/stm32f4xx_ll_usb.c ****     USBx->GINTMSK |= USB_OTG_GINTMSK_SOFM;
 455:stm32f4xx-hal-driver/Src/stm32f4xx_ll_usb.c ****   }
 456:stm32f4xx-hal-driver/Src/stm32f4xx_ll_usb.c **** 
 457:stm32f4xx-hal-driver/Src/stm32f4xx_ll_usb.c ****   if (cfg.vbus_sensing_enable == 1U)
 458:stm32f4xx-hal-driver/Src/stm32f4xx_ll_usb.c ****   {
 459:stm32f4xx-hal-driver/Src/stm32f4xx_ll_usb.c ****     USBx->GINTMSK |= (USB_OTG_GINTMSK_SRQIM | USB_OTG_GINTMSK_OTGINT);
 460:stm32f4xx-hal-driver/Src/stm32f4xx_ll_usb.c ****   }
 461:stm32f4xx-hal-driver/Src/stm32f4xx_ll_usb.c **** 
 462:stm32f4xx-hal-driver/Src/stm32f4xx_ll_usb.c ****   return ret;
 463:stm32f4xx-hal-driver/Src/stm32f4xx_ll_usb.c **** }
 464:stm32f4xx-hal-driver/Src/stm32f4xx_ll_usb.c **** 
 465:stm32f4xx-hal-driver/Src/stm32f4xx_ll_usb.c **** /**
 466:stm32f4xx-hal-driver/Src/stm32f4xx_ll_usb.c ****   * @brief  USB_FlushTxFifo Flush a Tx FIFO
 467:stm32f4xx-hal-driver/Src/stm32f4xx_ll_usb.c ****   * @param  USBx  Selected device
 468:stm32f4xx-hal-driver/Src/stm32f4xx_ll_usb.c ****   * @param  num  FIFO number
 469:stm32f4xx-hal-driver/Src/stm32f4xx_ll_usb.c ****   *         This parameter can be a value from 1 to 15
 470:stm32f4xx-hal-driver/Src/stm32f4xx_ll_usb.c ****             15 means Flush all Tx FIFOs
 471:stm32f4xx-hal-driver/Src/stm32f4xx_ll_usb.c ****   * @retval HAL status
 472:stm32f4xx-hal-driver/Src/stm32f4xx_ll_usb.c ****   */
 473:stm32f4xx-hal-driver/Src/stm32f4xx_ll_usb.c **** HAL_StatusTypeDef USB_FlushTxFifo(USB_OTG_GlobalTypeDef *USBx, uint32_t num)
 474:stm32f4xx-hal-driver/Src/stm32f4xx_ll_usb.c **** {
 475:stm32f4xx-hal-driver/Src/stm32f4xx_ll_usb.c ****   __IO uint32_t count = 0U;
 476:stm32f4xx-hal-driver/Src/stm32f4xx_ll_usb.c **** 
 477:stm32f4xx-hal-driver/Src/stm32f4xx_ll_usb.c ****   /* Wait for AHB master IDLE state. */
 478:stm32f4xx-hal-driver/Src/stm32f4xx_ll_usb.c ****   do
 479:stm32f4xx-hal-driver/Src/stm32f4xx_ll_usb.c ****   {
 480:stm32f4xx-hal-driver/Src/stm32f4xx_ll_usb.c ****     count++;
 481:stm32f4xx-hal-driver/Src/stm32f4xx_ll_usb.c **** 
 482:stm32f4xx-hal-driver/Src/stm32f4xx_ll_usb.c ****     if (count > HAL_USB_TIMEOUT)
 483:stm32f4xx-hal-driver/Src/stm32f4xx_ll_usb.c ****     {
 484:stm32f4xx-hal-driver/Src/stm32f4xx_ll_usb.c ****       return HAL_TIMEOUT;
 485:stm32f4xx-hal-driver/Src/stm32f4xx_ll_usb.c ****     }
 486:stm32f4xx-hal-driver/Src/stm32f4xx_ll_usb.c ****   } while ((USBx->GRSTCTL & USB_OTG_GRSTCTL_AHBIDL) == 0U);
ARM GAS  /tmp/ccXMuxQe.s 			page 10


 487:stm32f4xx-hal-driver/Src/stm32f4xx_ll_usb.c **** 
 488:stm32f4xx-hal-driver/Src/stm32f4xx_ll_usb.c ****   /* Flush TX Fifo */
 489:stm32f4xx-hal-driver/Src/stm32f4xx_ll_usb.c ****   count = 0U;
 490:stm32f4xx-hal-driver/Src/stm32f4xx_ll_usb.c ****   USBx->GRSTCTL = (USB_OTG_GRSTCTL_TXFFLSH | (num << 6));
 491:stm32f4xx-hal-driver/Src/stm32f4xx_ll_usb.c **** 
 492:stm32f4xx-hal-driver/Src/stm32f4xx_ll_usb.c ****   do
 493:stm32f4xx-hal-driver/Src/stm32f4xx_ll_usb.c ****   {
 494:stm32f4xx-hal-driver/Src/stm32f4xx_ll_usb.c ****     count++;
 495:stm32f4xx-hal-driver/Src/stm32f4xx_ll_usb.c **** 
 496:stm32f4xx-hal-driver/Src/stm32f4xx_ll_usb.c ****     if (count > HAL_USB_TIMEOUT)
 497:stm32f4xx-hal-driver/Src/stm32f4xx_ll_usb.c ****     {
 498:stm32f4xx-hal-driver/Src/stm32f4xx_ll_usb.c ****       return HAL_TIMEOUT;
 499:stm32f4xx-hal-driver/Src/stm32f4xx_ll_usb.c ****     }
 500:stm32f4xx-hal-driver/Src/stm32f4xx_ll_usb.c ****   } while ((USBx->GRSTCTL & USB_OTG_GRSTCTL_TXFFLSH) == USB_OTG_GRSTCTL_TXFFLSH);
 501:stm32f4xx-hal-driver/Src/stm32f4xx_ll_usb.c **** 
 502:stm32f4xx-hal-driver/Src/stm32f4xx_ll_usb.c ****   return HAL_OK;
 503:stm32f4xx-hal-driver/Src/stm32f4xx_ll_usb.c **** }
 504:stm32f4xx-hal-driver/Src/stm32f4xx_ll_usb.c **** 
 505:stm32f4xx-hal-driver/Src/stm32f4xx_ll_usb.c **** /**
 506:stm32f4xx-hal-driver/Src/stm32f4xx_ll_usb.c ****   * @brief  USB_FlushRxFifo  Flush Rx FIFO
 507:stm32f4xx-hal-driver/Src/stm32f4xx_ll_usb.c ****   * @param  USBx  Selected device
 508:stm32f4xx-hal-driver/Src/stm32f4xx_ll_usb.c ****   * @retval HAL status
 509:stm32f4xx-hal-driver/Src/stm32f4xx_ll_usb.c ****   */
 510:stm32f4xx-hal-driver/Src/stm32f4xx_ll_usb.c **** HAL_StatusTypeDef USB_FlushRxFifo(USB_OTG_GlobalTypeDef *USBx)
 511:stm32f4xx-hal-driver/Src/stm32f4xx_ll_usb.c **** {
 512:stm32f4xx-hal-driver/Src/stm32f4xx_ll_usb.c ****   __IO uint32_t count = 0U;
 513:stm32f4xx-hal-driver/Src/stm32f4xx_ll_usb.c **** 
 514:stm32f4xx-hal-driver/Src/stm32f4xx_ll_usb.c ****   /* Wait for AHB master IDLE state. */
 515:stm32f4xx-hal-driver/Src/stm32f4xx_ll_usb.c ****   do
 516:stm32f4xx-hal-driver/Src/stm32f4xx_ll_usb.c ****   {
 517:stm32f4xx-hal-driver/Src/stm32f4xx_ll_usb.c ****     count++;
 518:stm32f4xx-hal-driver/Src/stm32f4xx_ll_usb.c **** 
 519:stm32f4xx-hal-driver/Src/stm32f4xx_ll_usb.c ****     if (count > HAL_USB_TIMEOUT)
 520:stm32f4xx-hal-driver/Src/stm32f4xx_ll_usb.c ****     {
 521:stm32f4xx-hal-driver/Src/stm32f4xx_ll_usb.c ****       return HAL_TIMEOUT;
 522:stm32f4xx-hal-driver/Src/stm32f4xx_ll_usb.c ****     }
 523:stm32f4xx-hal-driver/Src/stm32f4xx_ll_usb.c ****   } while ((USBx->GRSTCTL & USB_OTG_GRSTCTL_AHBIDL) == 0U);
 524:stm32f4xx-hal-driver/Src/stm32f4xx_ll_usb.c **** 
 525:stm32f4xx-hal-driver/Src/stm32f4xx_ll_usb.c ****   /* Flush RX Fifo */
 526:stm32f4xx-hal-driver/Src/stm32f4xx_ll_usb.c ****   count = 0U;
 527:stm32f4xx-hal-driver/Src/stm32f4xx_ll_usb.c ****   USBx->GRSTCTL = USB_OTG_GRSTCTL_RXFFLSH;
 528:stm32f4xx-hal-driver/Src/stm32f4xx_ll_usb.c **** 
 529:stm32f4xx-hal-driver/Src/stm32f4xx_ll_usb.c ****   do
 530:stm32f4xx-hal-driver/Src/stm32f4xx_ll_usb.c ****   {
 531:stm32f4xx-hal-driver/Src/stm32f4xx_ll_usb.c ****     count++;
 532:stm32f4xx-hal-driver/Src/stm32f4xx_ll_usb.c **** 
 533:stm32f4xx-hal-driver/Src/stm32f4xx_ll_usb.c ****     if (count > HAL_USB_TIMEOUT)
 534:stm32f4xx-hal-driver/Src/stm32f4xx_ll_usb.c ****     {
 535:stm32f4xx-hal-driver/Src/stm32f4xx_ll_usb.c ****       return HAL_TIMEOUT;
 536:stm32f4xx-hal-driver/Src/stm32f4xx_ll_usb.c ****     }
 537:stm32f4xx-hal-driver/Src/stm32f4xx_ll_usb.c ****   } while ((USBx->GRSTCTL & USB_OTG_GRSTCTL_RXFFLSH) == USB_OTG_GRSTCTL_RXFFLSH);
 538:stm32f4xx-hal-driver/Src/stm32f4xx_ll_usb.c **** 
 539:stm32f4xx-hal-driver/Src/stm32f4xx_ll_usb.c ****   return HAL_OK;
 540:stm32f4xx-hal-driver/Src/stm32f4xx_ll_usb.c **** }
 541:stm32f4xx-hal-driver/Src/stm32f4xx_ll_usb.c **** 
 542:stm32f4xx-hal-driver/Src/stm32f4xx_ll_usb.c **** /**
 543:stm32f4xx-hal-driver/Src/stm32f4xx_ll_usb.c ****   * @brief  USB_SetDevSpeed  Initializes the DevSpd field of DCFG register
ARM GAS  /tmp/ccXMuxQe.s 			page 11


 544:stm32f4xx-hal-driver/Src/stm32f4xx_ll_usb.c ****   *         depending the PHY type and the enumeration speed of the device.
 545:stm32f4xx-hal-driver/Src/stm32f4xx_ll_usb.c ****   * @param  USBx  Selected device
 546:stm32f4xx-hal-driver/Src/stm32f4xx_ll_usb.c ****   * @param  speed  device speed
 547:stm32f4xx-hal-driver/Src/stm32f4xx_ll_usb.c ****   *          This parameter can be one of these values:
 548:stm32f4xx-hal-driver/Src/stm32f4xx_ll_usb.c ****   *            @arg USB_OTG_SPEED_HIGH: High speed mode
 549:stm32f4xx-hal-driver/Src/stm32f4xx_ll_usb.c ****   *            @arg USB_OTG_SPEED_HIGH_IN_FULL: High speed core in Full Speed mode
 550:stm32f4xx-hal-driver/Src/stm32f4xx_ll_usb.c ****   *            @arg USB_OTG_SPEED_FULL: Full speed mode
 551:stm32f4xx-hal-driver/Src/stm32f4xx_ll_usb.c ****   * @retval  Hal status
 552:stm32f4xx-hal-driver/Src/stm32f4xx_ll_usb.c ****   */
 553:stm32f4xx-hal-driver/Src/stm32f4xx_ll_usb.c **** HAL_StatusTypeDef USB_SetDevSpeed(const USB_OTG_GlobalTypeDef *USBx, uint8_t speed)
 554:stm32f4xx-hal-driver/Src/stm32f4xx_ll_usb.c **** {
 555:stm32f4xx-hal-driver/Src/stm32f4xx_ll_usb.c ****   uint32_t USBx_BASE = (uint32_t)USBx;
 556:stm32f4xx-hal-driver/Src/stm32f4xx_ll_usb.c **** 
 557:stm32f4xx-hal-driver/Src/stm32f4xx_ll_usb.c ****   USBx_DEVICE->DCFG |= speed;
 558:stm32f4xx-hal-driver/Src/stm32f4xx_ll_usb.c ****   return HAL_OK;
 559:stm32f4xx-hal-driver/Src/stm32f4xx_ll_usb.c **** }
 560:stm32f4xx-hal-driver/Src/stm32f4xx_ll_usb.c **** 
 561:stm32f4xx-hal-driver/Src/stm32f4xx_ll_usb.c **** /**
 562:stm32f4xx-hal-driver/Src/stm32f4xx_ll_usb.c ****   * @brief  USB_GetDevSpeed  Return the Dev Speed
 563:stm32f4xx-hal-driver/Src/stm32f4xx_ll_usb.c ****   * @param  USBx  Selected device
 564:stm32f4xx-hal-driver/Src/stm32f4xx_ll_usb.c ****   * @retval speed  device speed
 565:stm32f4xx-hal-driver/Src/stm32f4xx_ll_usb.c ****   *          This parameter can be one of these values:
 566:stm32f4xx-hal-driver/Src/stm32f4xx_ll_usb.c ****   *            @arg USBD_HS_SPEED: High speed mode
 567:stm32f4xx-hal-driver/Src/stm32f4xx_ll_usb.c ****   *            @arg USBD_FS_SPEED: Full speed mode
 568:stm32f4xx-hal-driver/Src/stm32f4xx_ll_usb.c ****   */
 569:stm32f4xx-hal-driver/Src/stm32f4xx_ll_usb.c **** uint8_t USB_GetDevSpeed(const USB_OTG_GlobalTypeDef *USBx)
 570:stm32f4xx-hal-driver/Src/stm32f4xx_ll_usb.c **** {
 571:stm32f4xx-hal-driver/Src/stm32f4xx_ll_usb.c ****   uint32_t USBx_BASE = (uint32_t)USBx;
 572:stm32f4xx-hal-driver/Src/stm32f4xx_ll_usb.c ****   uint8_t speed;
 573:stm32f4xx-hal-driver/Src/stm32f4xx_ll_usb.c ****   uint32_t DevEnumSpeed = USBx_DEVICE->DSTS & USB_OTG_DSTS_ENUMSPD;
 574:stm32f4xx-hal-driver/Src/stm32f4xx_ll_usb.c **** 
 575:stm32f4xx-hal-driver/Src/stm32f4xx_ll_usb.c ****   if (DevEnumSpeed == DSTS_ENUMSPD_HS_PHY_30MHZ_OR_60MHZ)
 576:stm32f4xx-hal-driver/Src/stm32f4xx_ll_usb.c ****   {
 577:stm32f4xx-hal-driver/Src/stm32f4xx_ll_usb.c ****     speed = USBD_HS_SPEED;
 578:stm32f4xx-hal-driver/Src/stm32f4xx_ll_usb.c ****   }
 579:stm32f4xx-hal-driver/Src/stm32f4xx_ll_usb.c ****   else if ((DevEnumSpeed == DSTS_ENUMSPD_FS_PHY_30MHZ_OR_60MHZ) ||
 580:stm32f4xx-hal-driver/Src/stm32f4xx_ll_usb.c ****            (DevEnumSpeed == DSTS_ENUMSPD_FS_PHY_48MHZ))
 581:stm32f4xx-hal-driver/Src/stm32f4xx_ll_usb.c ****   {
 582:stm32f4xx-hal-driver/Src/stm32f4xx_ll_usb.c ****     speed = USBD_FS_SPEED;
 583:stm32f4xx-hal-driver/Src/stm32f4xx_ll_usb.c ****   }
 584:stm32f4xx-hal-driver/Src/stm32f4xx_ll_usb.c ****   else
 585:stm32f4xx-hal-driver/Src/stm32f4xx_ll_usb.c ****   {
 586:stm32f4xx-hal-driver/Src/stm32f4xx_ll_usb.c ****     speed = 0xFU;
 587:stm32f4xx-hal-driver/Src/stm32f4xx_ll_usb.c ****   }
 588:stm32f4xx-hal-driver/Src/stm32f4xx_ll_usb.c **** 
 589:stm32f4xx-hal-driver/Src/stm32f4xx_ll_usb.c ****   return speed;
 590:stm32f4xx-hal-driver/Src/stm32f4xx_ll_usb.c **** }
 591:stm32f4xx-hal-driver/Src/stm32f4xx_ll_usb.c **** 
 592:stm32f4xx-hal-driver/Src/stm32f4xx_ll_usb.c **** /**
 593:stm32f4xx-hal-driver/Src/stm32f4xx_ll_usb.c ****   * @brief  Activate and configure an endpoint
 594:stm32f4xx-hal-driver/Src/stm32f4xx_ll_usb.c ****   * @param  USBx  Selected device
 595:stm32f4xx-hal-driver/Src/stm32f4xx_ll_usb.c ****   * @param  ep pointer to endpoint structure
 596:stm32f4xx-hal-driver/Src/stm32f4xx_ll_usb.c ****   * @retval HAL status
 597:stm32f4xx-hal-driver/Src/stm32f4xx_ll_usb.c ****   */
 598:stm32f4xx-hal-driver/Src/stm32f4xx_ll_usb.c **** HAL_StatusTypeDef USB_ActivateEndpoint(const USB_OTG_GlobalTypeDef *USBx, const USB_OTG_EPTypeDef *
 599:stm32f4xx-hal-driver/Src/stm32f4xx_ll_usb.c **** {
 600:stm32f4xx-hal-driver/Src/stm32f4xx_ll_usb.c ****   uint32_t USBx_BASE = (uint32_t)USBx;
ARM GAS  /tmp/ccXMuxQe.s 			page 12


 601:stm32f4xx-hal-driver/Src/stm32f4xx_ll_usb.c ****   uint32_t epnum = (uint32_t)ep->num;
 602:stm32f4xx-hal-driver/Src/stm32f4xx_ll_usb.c **** 
 603:stm32f4xx-hal-driver/Src/stm32f4xx_ll_usb.c ****   if (ep->is_in == 1U)
 604:stm32f4xx-hal-driver/Src/stm32f4xx_ll_usb.c ****   {
 605:stm32f4xx-hal-driver/Src/stm32f4xx_ll_usb.c ****     USBx_DEVICE->DAINTMSK |= USB_OTG_DAINTMSK_IEPM & (uint32_t)(1UL << (ep->num & EP_ADDR_MSK));
 606:stm32f4xx-hal-driver/Src/stm32f4xx_ll_usb.c **** 
 607:stm32f4xx-hal-driver/Src/stm32f4xx_ll_usb.c ****     if ((USBx_INEP(epnum)->DIEPCTL & USB_OTG_DIEPCTL_USBAEP) == 0U)
 608:stm32f4xx-hal-driver/Src/stm32f4xx_ll_usb.c ****     {
 609:stm32f4xx-hal-driver/Src/stm32f4xx_ll_usb.c ****       USBx_INEP(epnum)->DIEPCTL |= (ep->maxpacket & USB_OTG_DIEPCTL_MPSIZ) |
 610:stm32f4xx-hal-driver/Src/stm32f4xx_ll_usb.c ****                                    ((uint32_t)ep->type << 18) | (epnum << 22) |
 611:stm32f4xx-hal-driver/Src/stm32f4xx_ll_usb.c ****                                    USB_OTG_DIEPCTL_SD0PID_SEVNFRM |
 612:stm32f4xx-hal-driver/Src/stm32f4xx_ll_usb.c ****                                    USB_OTG_DIEPCTL_USBAEP;
 613:stm32f4xx-hal-driver/Src/stm32f4xx_ll_usb.c ****     }
 614:stm32f4xx-hal-driver/Src/stm32f4xx_ll_usb.c ****   }
 615:stm32f4xx-hal-driver/Src/stm32f4xx_ll_usb.c ****   else
 616:stm32f4xx-hal-driver/Src/stm32f4xx_ll_usb.c ****   {
 617:stm32f4xx-hal-driver/Src/stm32f4xx_ll_usb.c ****     USBx_DEVICE->DAINTMSK |= USB_OTG_DAINTMSK_OEPM & ((uint32_t)(1UL << (ep->num & EP_ADDR_MSK)) <<
 618:stm32f4xx-hal-driver/Src/stm32f4xx_ll_usb.c **** 
 619:stm32f4xx-hal-driver/Src/stm32f4xx_ll_usb.c ****     if (((USBx_OUTEP(epnum)->DOEPCTL) & USB_OTG_DOEPCTL_USBAEP) == 0U)
 620:stm32f4xx-hal-driver/Src/stm32f4xx_ll_usb.c ****     {
 621:stm32f4xx-hal-driver/Src/stm32f4xx_ll_usb.c ****       USBx_OUTEP(epnum)->DOEPCTL |= (ep->maxpacket & USB_OTG_DOEPCTL_MPSIZ) |
 622:stm32f4xx-hal-driver/Src/stm32f4xx_ll_usb.c ****                                     ((uint32_t)ep->type << 18) |
 623:stm32f4xx-hal-driver/Src/stm32f4xx_ll_usb.c ****                                     USB_OTG_DIEPCTL_SD0PID_SEVNFRM |
 624:stm32f4xx-hal-driver/Src/stm32f4xx_ll_usb.c ****                                     USB_OTG_DOEPCTL_USBAEP;
 625:stm32f4xx-hal-driver/Src/stm32f4xx_ll_usb.c ****     }
 626:stm32f4xx-hal-driver/Src/stm32f4xx_ll_usb.c ****   }
 627:stm32f4xx-hal-driver/Src/stm32f4xx_ll_usb.c ****   return HAL_OK;
 628:stm32f4xx-hal-driver/Src/stm32f4xx_ll_usb.c **** }
 629:stm32f4xx-hal-driver/Src/stm32f4xx_ll_usb.c **** 
 630:stm32f4xx-hal-driver/Src/stm32f4xx_ll_usb.c **** /**
 631:stm32f4xx-hal-driver/Src/stm32f4xx_ll_usb.c ****   * @brief  Activate and configure a dedicated endpoint
 632:stm32f4xx-hal-driver/Src/stm32f4xx_ll_usb.c ****   * @param  USBx  Selected device
 633:stm32f4xx-hal-driver/Src/stm32f4xx_ll_usb.c ****   * @param  ep pointer to endpoint structure
 634:stm32f4xx-hal-driver/Src/stm32f4xx_ll_usb.c ****   * @retval HAL status
 635:stm32f4xx-hal-driver/Src/stm32f4xx_ll_usb.c ****   */
 636:stm32f4xx-hal-driver/Src/stm32f4xx_ll_usb.c **** HAL_StatusTypeDef USB_ActivateDedicatedEndpoint(const USB_OTG_GlobalTypeDef *USBx, const USB_OTG_EP
 637:stm32f4xx-hal-driver/Src/stm32f4xx_ll_usb.c **** {
 638:stm32f4xx-hal-driver/Src/stm32f4xx_ll_usb.c ****   uint32_t USBx_BASE = (uint32_t)USBx;
 639:stm32f4xx-hal-driver/Src/stm32f4xx_ll_usb.c ****   uint32_t epnum = (uint32_t)ep->num;
 640:stm32f4xx-hal-driver/Src/stm32f4xx_ll_usb.c **** 
 641:stm32f4xx-hal-driver/Src/stm32f4xx_ll_usb.c ****   /* Read DEPCTLn register */
 642:stm32f4xx-hal-driver/Src/stm32f4xx_ll_usb.c ****   if (ep->is_in == 1U)
 643:stm32f4xx-hal-driver/Src/stm32f4xx_ll_usb.c ****   {
 644:stm32f4xx-hal-driver/Src/stm32f4xx_ll_usb.c ****     if (((USBx_INEP(epnum)->DIEPCTL) & USB_OTG_DIEPCTL_USBAEP) == 0U)
 645:stm32f4xx-hal-driver/Src/stm32f4xx_ll_usb.c ****     {
 646:stm32f4xx-hal-driver/Src/stm32f4xx_ll_usb.c ****       USBx_INEP(epnum)->DIEPCTL |= (ep->maxpacket & USB_OTG_DIEPCTL_MPSIZ) |
 647:stm32f4xx-hal-driver/Src/stm32f4xx_ll_usb.c ****                                    ((uint32_t)ep->type << 18) | (epnum << 22) |
 648:stm32f4xx-hal-driver/Src/stm32f4xx_ll_usb.c ****                                    USB_OTG_DIEPCTL_SD0PID_SEVNFRM |
 649:stm32f4xx-hal-driver/Src/stm32f4xx_ll_usb.c ****                                    USB_OTG_DIEPCTL_USBAEP;
 650:stm32f4xx-hal-driver/Src/stm32f4xx_ll_usb.c ****     }
 651:stm32f4xx-hal-driver/Src/stm32f4xx_ll_usb.c **** 
 652:stm32f4xx-hal-driver/Src/stm32f4xx_ll_usb.c ****     USBx_DEVICE->DEACHMSK |= USB_OTG_DAINTMSK_IEPM & (uint32_t)(1UL << (ep->num & EP_ADDR_MSK));
 653:stm32f4xx-hal-driver/Src/stm32f4xx_ll_usb.c ****   }
 654:stm32f4xx-hal-driver/Src/stm32f4xx_ll_usb.c ****   else
 655:stm32f4xx-hal-driver/Src/stm32f4xx_ll_usb.c ****   {
 656:stm32f4xx-hal-driver/Src/stm32f4xx_ll_usb.c ****     if (((USBx_OUTEP(epnum)->DOEPCTL) & USB_OTG_DOEPCTL_USBAEP) == 0U)
 657:stm32f4xx-hal-driver/Src/stm32f4xx_ll_usb.c ****     {
ARM GAS  /tmp/ccXMuxQe.s 			page 13


 658:stm32f4xx-hal-driver/Src/stm32f4xx_ll_usb.c ****       USBx_OUTEP(epnum)->DOEPCTL |= (ep->maxpacket & USB_OTG_DOEPCTL_MPSIZ) |
 659:stm32f4xx-hal-driver/Src/stm32f4xx_ll_usb.c ****                                     ((uint32_t)ep->type << 18) | (epnum << 22) |
 660:stm32f4xx-hal-driver/Src/stm32f4xx_ll_usb.c ****                                     USB_OTG_DOEPCTL_USBAEP;
 661:stm32f4xx-hal-driver/Src/stm32f4xx_ll_usb.c ****     }
 662:stm32f4xx-hal-driver/Src/stm32f4xx_ll_usb.c **** 
 663:stm32f4xx-hal-driver/Src/stm32f4xx_ll_usb.c ****     USBx_DEVICE->DEACHMSK |= USB_OTG_DAINTMSK_OEPM & ((uint32_t)(1UL << (ep->num & EP_ADDR_MSK)) <<
 664:stm32f4xx-hal-driver/Src/stm32f4xx_ll_usb.c ****   }
 665:stm32f4xx-hal-driver/Src/stm32f4xx_ll_usb.c **** 
 666:stm32f4xx-hal-driver/Src/stm32f4xx_ll_usb.c ****   return HAL_OK;
 667:stm32f4xx-hal-driver/Src/stm32f4xx_ll_usb.c **** }
 668:stm32f4xx-hal-driver/Src/stm32f4xx_ll_usb.c **** 
 669:stm32f4xx-hal-driver/Src/stm32f4xx_ll_usb.c **** /**
 670:stm32f4xx-hal-driver/Src/stm32f4xx_ll_usb.c ****   * @brief  De-activate and de-initialize an endpoint
 671:stm32f4xx-hal-driver/Src/stm32f4xx_ll_usb.c ****   * @param  USBx  Selected device
 672:stm32f4xx-hal-driver/Src/stm32f4xx_ll_usb.c ****   * @param  ep pointer to endpoint structure
 673:stm32f4xx-hal-driver/Src/stm32f4xx_ll_usb.c ****   * @retval HAL status
 674:stm32f4xx-hal-driver/Src/stm32f4xx_ll_usb.c ****   */
 675:stm32f4xx-hal-driver/Src/stm32f4xx_ll_usb.c **** HAL_StatusTypeDef USB_DeactivateEndpoint(const USB_OTG_GlobalTypeDef *USBx, const USB_OTG_EPTypeDef
 676:stm32f4xx-hal-driver/Src/stm32f4xx_ll_usb.c **** {
 677:stm32f4xx-hal-driver/Src/stm32f4xx_ll_usb.c ****   uint32_t USBx_BASE = (uint32_t)USBx;
 678:stm32f4xx-hal-driver/Src/stm32f4xx_ll_usb.c ****   uint32_t epnum = (uint32_t)ep->num;
 679:stm32f4xx-hal-driver/Src/stm32f4xx_ll_usb.c **** 
 680:stm32f4xx-hal-driver/Src/stm32f4xx_ll_usb.c ****   /* Read DEPCTLn register */
 681:stm32f4xx-hal-driver/Src/stm32f4xx_ll_usb.c ****   if (ep->is_in == 1U)
 682:stm32f4xx-hal-driver/Src/stm32f4xx_ll_usb.c ****   {
 683:stm32f4xx-hal-driver/Src/stm32f4xx_ll_usb.c ****     if ((USBx_INEP(epnum)->DIEPCTL & USB_OTG_DIEPCTL_EPENA) == USB_OTG_DIEPCTL_EPENA)
 684:stm32f4xx-hal-driver/Src/stm32f4xx_ll_usb.c ****     {
 685:stm32f4xx-hal-driver/Src/stm32f4xx_ll_usb.c ****       USBx_INEP(epnum)->DIEPCTL |= USB_OTG_DIEPCTL_SNAK;
 686:stm32f4xx-hal-driver/Src/stm32f4xx_ll_usb.c ****       USBx_INEP(epnum)->DIEPCTL |= USB_OTG_DIEPCTL_EPDIS;
 687:stm32f4xx-hal-driver/Src/stm32f4xx_ll_usb.c ****     }
 688:stm32f4xx-hal-driver/Src/stm32f4xx_ll_usb.c **** 
 689:stm32f4xx-hal-driver/Src/stm32f4xx_ll_usb.c ****     USBx_DEVICE->DEACHMSK &= ~(USB_OTG_DAINTMSK_IEPM & (uint32_t)(1UL << (ep->num & EP_ADDR_MSK)));
 690:stm32f4xx-hal-driver/Src/stm32f4xx_ll_usb.c ****     USBx_DEVICE->DAINTMSK &= ~(USB_OTG_DAINTMSK_IEPM & (uint32_t)(1UL << (ep->num & EP_ADDR_MSK)));
 691:stm32f4xx-hal-driver/Src/stm32f4xx_ll_usb.c ****     USBx_INEP(epnum)->DIEPCTL &= ~(USB_OTG_DIEPCTL_USBAEP |
 692:stm32f4xx-hal-driver/Src/stm32f4xx_ll_usb.c ****                                    USB_OTG_DIEPCTL_MPSIZ |
 693:stm32f4xx-hal-driver/Src/stm32f4xx_ll_usb.c ****                                    USB_OTG_DIEPCTL_TXFNUM |
 694:stm32f4xx-hal-driver/Src/stm32f4xx_ll_usb.c ****                                    USB_OTG_DIEPCTL_SD0PID_SEVNFRM |
 695:stm32f4xx-hal-driver/Src/stm32f4xx_ll_usb.c ****                                    USB_OTG_DIEPCTL_EPTYP);
 696:stm32f4xx-hal-driver/Src/stm32f4xx_ll_usb.c ****   }
 697:stm32f4xx-hal-driver/Src/stm32f4xx_ll_usb.c ****   else
 698:stm32f4xx-hal-driver/Src/stm32f4xx_ll_usb.c ****   {
 699:stm32f4xx-hal-driver/Src/stm32f4xx_ll_usb.c ****     if ((USBx_OUTEP(epnum)->DOEPCTL & USB_OTG_DOEPCTL_EPENA) == USB_OTG_DOEPCTL_EPENA)
 700:stm32f4xx-hal-driver/Src/stm32f4xx_ll_usb.c ****     {
 701:stm32f4xx-hal-driver/Src/stm32f4xx_ll_usb.c ****       USBx_OUTEP(epnum)->DOEPCTL |= USB_OTG_DOEPCTL_SNAK;
 702:stm32f4xx-hal-driver/Src/stm32f4xx_ll_usb.c ****       USBx_OUTEP(epnum)->DOEPCTL |= USB_OTG_DOEPCTL_EPDIS;
 703:stm32f4xx-hal-driver/Src/stm32f4xx_ll_usb.c ****     }
 704:stm32f4xx-hal-driver/Src/stm32f4xx_ll_usb.c **** 
 705:stm32f4xx-hal-driver/Src/stm32f4xx_ll_usb.c ****     USBx_DEVICE->DEACHMSK &= ~(USB_OTG_DAINTMSK_OEPM & ((uint32_t)(1UL << (ep->num & EP_ADDR_MSK)) 
 706:stm32f4xx-hal-driver/Src/stm32f4xx_ll_usb.c ****     USBx_DEVICE->DAINTMSK &= ~(USB_OTG_DAINTMSK_OEPM & ((uint32_t)(1UL << (ep->num & EP_ADDR_MSK)) 
 707:stm32f4xx-hal-driver/Src/stm32f4xx_ll_usb.c ****     USBx_OUTEP(epnum)->DOEPCTL &= ~(USB_OTG_DOEPCTL_USBAEP |
 708:stm32f4xx-hal-driver/Src/stm32f4xx_ll_usb.c ****                                     USB_OTG_DOEPCTL_MPSIZ |
 709:stm32f4xx-hal-driver/Src/stm32f4xx_ll_usb.c ****                                     USB_OTG_DOEPCTL_SD0PID_SEVNFRM |
 710:stm32f4xx-hal-driver/Src/stm32f4xx_ll_usb.c ****                                     USB_OTG_DOEPCTL_EPTYP);
 711:stm32f4xx-hal-driver/Src/stm32f4xx_ll_usb.c ****   }
 712:stm32f4xx-hal-driver/Src/stm32f4xx_ll_usb.c **** 
 713:stm32f4xx-hal-driver/Src/stm32f4xx_ll_usb.c ****   return HAL_OK;
 714:stm32f4xx-hal-driver/Src/stm32f4xx_ll_usb.c **** }
ARM GAS  /tmp/ccXMuxQe.s 			page 14


 715:stm32f4xx-hal-driver/Src/stm32f4xx_ll_usb.c **** 
 716:stm32f4xx-hal-driver/Src/stm32f4xx_ll_usb.c **** /**
 717:stm32f4xx-hal-driver/Src/stm32f4xx_ll_usb.c ****   * @brief  De-activate and de-initialize a dedicated endpoint
 718:stm32f4xx-hal-driver/Src/stm32f4xx_ll_usb.c ****   * @param  USBx  Selected device
 719:stm32f4xx-hal-driver/Src/stm32f4xx_ll_usb.c ****   * @param  ep pointer to endpoint structure
 720:stm32f4xx-hal-driver/Src/stm32f4xx_ll_usb.c ****   * @retval HAL status
 721:stm32f4xx-hal-driver/Src/stm32f4xx_ll_usb.c ****   */
 722:stm32f4xx-hal-driver/Src/stm32f4xx_ll_usb.c **** HAL_StatusTypeDef USB_DeactivateDedicatedEndpoint(const USB_OTG_GlobalTypeDef *USBx, const USB_OTG_
 723:stm32f4xx-hal-driver/Src/stm32f4xx_ll_usb.c **** {
 724:stm32f4xx-hal-driver/Src/stm32f4xx_ll_usb.c ****   uint32_t USBx_BASE = (uint32_t)USBx;
 725:stm32f4xx-hal-driver/Src/stm32f4xx_ll_usb.c ****   uint32_t epnum = (uint32_t)ep->num;
 726:stm32f4xx-hal-driver/Src/stm32f4xx_ll_usb.c **** 
 727:stm32f4xx-hal-driver/Src/stm32f4xx_ll_usb.c ****   /* Read DEPCTLn register */
 728:stm32f4xx-hal-driver/Src/stm32f4xx_ll_usb.c ****   if (ep->is_in == 1U)
 729:stm32f4xx-hal-driver/Src/stm32f4xx_ll_usb.c ****   {
 730:stm32f4xx-hal-driver/Src/stm32f4xx_ll_usb.c ****     if ((USBx_INEP(epnum)->DIEPCTL & USB_OTG_DIEPCTL_EPENA) == USB_OTG_DIEPCTL_EPENA)
 731:stm32f4xx-hal-driver/Src/stm32f4xx_ll_usb.c ****     {
 732:stm32f4xx-hal-driver/Src/stm32f4xx_ll_usb.c ****       USBx_INEP(epnum)->DIEPCTL  |= USB_OTG_DIEPCTL_SNAK;
 733:stm32f4xx-hal-driver/Src/stm32f4xx_ll_usb.c ****       USBx_INEP(epnum)->DIEPCTL  |= USB_OTG_DIEPCTL_EPDIS;
 734:stm32f4xx-hal-driver/Src/stm32f4xx_ll_usb.c ****     }
 735:stm32f4xx-hal-driver/Src/stm32f4xx_ll_usb.c **** 
 736:stm32f4xx-hal-driver/Src/stm32f4xx_ll_usb.c ****     USBx_INEP(epnum)->DIEPCTL &= ~ USB_OTG_DIEPCTL_USBAEP;
 737:stm32f4xx-hal-driver/Src/stm32f4xx_ll_usb.c ****     USBx_DEVICE->DAINTMSK &= ~(USB_OTG_DAINTMSK_IEPM & (uint32_t)(1UL << (ep->num & EP_ADDR_MSK)));
 738:stm32f4xx-hal-driver/Src/stm32f4xx_ll_usb.c ****   }
 739:stm32f4xx-hal-driver/Src/stm32f4xx_ll_usb.c ****   else
 740:stm32f4xx-hal-driver/Src/stm32f4xx_ll_usb.c ****   {
 741:stm32f4xx-hal-driver/Src/stm32f4xx_ll_usb.c ****     if ((USBx_OUTEP(epnum)->DOEPCTL & USB_OTG_DOEPCTL_EPENA) == USB_OTG_DOEPCTL_EPENA)
 742:stm32f4xx-hal-driver/Src/stm32f4xx_ll_usb.c ****     {
 743:stm32f4xx-hal-driver/Src/stm32f4xx_ll_usb.c ****       USBx_OUTEP(epnum)->DOEPCTL  |= USB_OTG_DOEPCTL_SNAK;
 744:stm32f4xx-hal-driver/Src/stm32f4xx_ll_usb.c ****       USBx_OUTEP(epnum)->DOEPCTL  |= USB_OTG_DOEPCTL_EPDIS;
 745:stm32f4xx-hal-driver/Src/stm32f4xx_ll_usb.c ****     }
 746:stm32f4xx-hal-driver/Src/stm32f4xx_ll_usb.c **** 
 747:stm32f4xx-hal-driver/Src/stm32f4xx_ll_usb.c ****     USBx_OUTEP(epnum)->DOEPCTL &= ~USB_OTG_DOEPCTL_USBAEP;
 748:stm32f4xx-hal-driver/Src/stm32f4xx_ll_usb.c ****     USBx_DEVICE->DAINTMSK &= ~(USB_OTG_DAINTMSK_OEPM & ((uint32_t)(1UL << (ep->num & EP_ADDR_MSK)) 
 749:stm32f4xx-hal-driver/Src/stm32f4xx_ll_usb.c ****   }
 750:stm32f4xx-hal-driver/Src/stm32f4xx_ll_usb.c **** 
 751:stm32f4xx-hal-driver/Src/stm32f4xx_ll_usb.c ****   return HAL_OK;
 752:stm32f4xx-hal-driver/Src/stm32f4xx_ll_usb.c **** }
 753:stm32f4xx-hal-driver/Src/stm32f4xx_ll_usb.c **** 
 754:stm32f4xx-hal-driver/Src/stm32f4xx_ll_usb.c **** /**
 755:stm32f4xx-hal-driver/Src/stm32f4xx_ll_usb.c ****   * @brief  USB_EPStartXfer : setup and starts a transfer over an EP
 756:stm32f4xx-hal-driver/Src/stm32f4xx_ll_usb.c ****   * @param  USBx  Selected device
 757:stm32f4xx-hal-driver/Src/stm32f4xx_ll_usb.c ****   * @param  ep pointer to endpoint structure
 758:stm32f4xx-hal-driver/Src/stm32f4xx_ll_usb.c ****   * @param  dma USB dma enabled or disabled
 759:stm32f4xx-hal-driver/Src/stm32f4xx_ll_usb.c ****   *          This parameter can be one of these values:
 760:stm32f4xx-hal-driver/Src/stm32f4xx_ll_usb.c ****   *           0 : DMA feature not used
 761:stm32f4xx-hal-driver/Src/stm32f4xx_ll_usb.c ****   *           1 : DMA feature used
 762:stm32f4xx-hal-driver/Src/stm32f4xx_ll_usb.c ****   * @retval HAL status
 763:stm32f4xx-hal-driver/Src/stm32f4xx_ll_usb.c ****   */
 764:stm32f4xx-hal-driver/Src/stm32f4xx_ll_usb.c **** HAL_StatusTypeDef USB_EPStartXfer(USB_OTG_GlobalTypeDef *USBx, USB_OTG_EPTypeDef *ep, uint8_t dma)
 765:stm32f4xx-hal-driver/Src/stm32f4xx_ll_usb.c **** {
 766:stm32f4xx-hal-driver/Src/stm32f4xx_ll_usb.c ****   uint32_t USBx_BASE = (uint32_t)USBx;
 767:stm32f4xx-hal-driver/Src/stm32f4xx_ll_usb.c ****   uint32_t epnum = (uint32_t)ep->num;
 768:stm32f4xx-hal-driver/Src/stm32f4xx_ll_usb.c ****   uint16_t pktcnt;
 769:stm32f4xx-hal-driver/Src/stm32f4xx_ll_usb.c **** 
 770:stm32f4xx-hal-driver/Src/stm32f4xx_ll_usb.c ****   /* IN endpoint */
 771:stm32f4xx-hal-driver/Src/stm32f4xx_ll_usb.c ****   if (ep->is_in == 1U)
ARM GAS  /tmp/ccXMuxQe.s 			page 15


 772:stm32f4xx-hal-driver/Src/stm32f4xx_ll_usb.c ****   {
 773:stm32f4xx-hal-driver/Src/stm32f4xx_ll_usb.c ****     /* Zero Length Packet? */
 774:stm32f4xx-hal-driver/Src/stm32f4xx_ll_usb.c ****     if (ep->xfer_len == 0U)
 775:stm32f4xx-hal-driver/Src/stm32f4xx_ll_usb.c ****     {
 776:stm32f4xx-hal-driver/Src/stm32f4xx_ll_usb.c ****       USBx_INEP(epnum)->DIEPTSIZ &= ~(USB_OTG_DIEPTSIZ_PKTCNT);
 777:stm32f4xx-hal-driver/Src/stm32f4xx_ll_usb.c ****       USBx_INEP(epnum)->DIEPTSIZ |= (USB_OTG_DIEPTSIZ_PKTCNT & (1U << 19));
 778:stm32f4xx-hal-driver/Src/stm32f4xx_ll_usb.c ****       USBx_INEP(epnum)->DIEPTSIZ &= ~(USB_OTG_DIEPTSIZ_XFRSIZ);
 779:stm32f4xx-hal-driver/Src/stm32f4xx_ll_usb.c ****     }
 780:stm32f4xx-hal-driver/Src/stm32f4xx_ll_usb.c ****     else
 781:stm32f4xx-hal-driver/Src/stm32f4xx_ll_usb.c ****     {
 782:stm32f4xx-hal-driver/Src/stm32f4xx_ll_usb.c ****       /* Program the transfer size and packet count
 783:stm32f4xx-hal-driver/Src/stm32f4xx_ll_usb.c ****       * as follows: xfersize = N * maxpacket +
 784:stm32f4xx-hal-driver/Src/stm32f4xx_ll_usb.c ****       * short_packet pktcnt = N + (short_packet
 785:stm32f4xx-hal-driver/Src/stm32f4xx_ll_usb.c ****       * exist ? 1 : 0)
 786:stm32f4xx-hal-driver/Src/stm32f4xx_ll_usb.c ****       */
 787:stm32f4xx-hal-driver/Src/stm32f4xx_ll_usb.c ****       USBx_INEP(epnum)->DIEPTSIZ &= ~(USB_OTG_DIEPTSIZ_XFRSIZ);
 788:stm32f4xx-hal-driver/Src/stm32f4xx_ll_usb.c ****       USBx_INEP(epnum)->DIEPTSIZ &= ~(USB_OTG_DIEPTSIZ_PKTCNT);
 789:stm32f4xx-hal-driver/Src/stm32f4xx_ll_usb.c **** 
 790:stm32f4xx-hal-driver/Src/stm32f4xx_ll_usb.c ****       if (epnum == 0U)
 791:stm32f4xx-hal-driver/Src/stm32f4xx_ll_usb.c ****       {
 792:stm32f4xx-hal-driver/Src/stm32f4xx_ll_usb.c ****         if (ep->xfer_len > ep->maxpacket)
 793:stm32f4xx-hal-driver/Src/stm32f4xx_ll_usb.c ****         {
 794:stm32f4xx-hal-driver/Src/stm32f4xx_ll_usb.c ****           ep->xfer_len = ep->maxpacket;
 795:stm32f4xx-hal-driver/Src/stm32f4xx_ll_usb.c ****         }
 796:stm32f4xx-hal-driver/Src/stm32f4xx_ll_usb.c **** 
 797:stm32f4xx-hal-driver/Src/stm32f4xx_ll_usb.c ****         USBx_INEP(epnum)->DIEPTSIZ |= (USB_OTG_DIEPTSIZ_PKTCNT & (1U << 19));
 798:stm32f4xx-hal-driver/Src/stm32f4xx_ll_usb.c ****       }
 799:stm32f4xx-hal-driver/Src/stm32f4xx_ll_usb.c ****       else
 800:stm32f4xx-hal-driver/Src/stm32f4xx_ll_usb.c ****       {
 801:stm32f4xx-hal-driver/Src/stm32f4xx_ll_usb.c ****         pktcnt = (uint16_t)((ep->xfer_len + ep->maxpacket - 1U) / ep->maxpacket);
 802:stm32f4xx-hal-driver/Src/stm32f4xx_ll_usb.c ****         USBx_INEP(epnum)->DIEPTSIZ |= (USB_OTG_DIEPTSIZ_PKTCNT & ((uint32_t)pktcnt << 19));
 803:stm32f4xx-hal-driver/Src/stm32f4xx_ll_usb.c **** 
 804:stm32f4xx-hal-driver/Src/stm32f4xx_ll_usb.c ****         if (ep->type == EP_TYPE_ISOC)
 805:stm32f4xx-hal-driver/Src/stm32f4xx_ll_usb.c ****         {
 806:stm32f4xx-hal-driver/Src/stm32f4xx_ll_usb.c ****           USBx_INEP(epnum)->DIEPTSIZ &= ~(USB_OTG_DIEPTSIZ_MULCNT);
 807:stm32f4xx-hal-driver/Src/stm32f4xx_ll_usb.c ****           USBx_INEP(epnum)->DIEPTSIZ |= (USB_OTG_DIEPTSIZ_MULCNT & ((uint32_t)pktcnt << 29));
 808:stm32f4xx-hal-driver/Src/stm32f4xx_ll_usb.c ****         }
 809:stm32f4xx-hal-driver/Src/stm32f4xx_ll_usb.c ****       }
 810:stm32f4xx-hal-driver/Src/stm32f4xx_ll_usb.c **** 
 811:stm32f4xx-hal-driver/Src/stm32f4xx_ll_usb.c ****       USBx_INEP(epnum)->DIEPTSIZ |= (USB_OTG_DIEPTSIZ_XFRSIZ & ep->xfer_len);
 812:stm32f4xx-hal-driver/Src/stm32f4xx_ll_usb.c ****     }
 813:stm32f4xx-hal-driver/Src/stm32f4xx_ll_usb.c **** 
 814:stm32f4xx-hal-driver/Src/stm32f4xx_ll_usb.c ****     if (dma == 1U)
 815:stm32f4xx-hal-driver/Src/stm32f4xx_ll_usb.c ****     {
 816:stm32f4xx-hal-driver/Src/stm32f4xx_ll_usb.c ****       if ((uint32_t)ep->dma_addr != 0U)
 817:stm32f4xx-hal-driver/Src/stm32f4xx_ll_usb.c ****       {
 818:stm32f4xx-hal-driver/Src/stm32f4xx_ll_usb.c ****         USBx_INEP(epnum)->DIEPDMA = (uint32_t)(ep->dma_addr);
 819:stm32f4xx-hal-driver/Src/stm32f4xx_ll_usb.c ****       }
 820:stm32f4xx-hal-driver/Src/stm32f4xx_ll_usb.c **** 
 821:stm32f4xx-hal-driver/Src/stm32f4xx_ll_usb.c ****       if (ep->type == EP_TYPE_ISOC)
 822:stm32f4xx-hal-driver/Src/stm32f4xx_ll_usb.c ****       {
 823:stm32f4xx-hal-driver/Src/stm32f4xx_ll_usb.c ****         if ((USBx_DEVICE->DSTS & (1U << 8)) == 0U)
 824:stm32f4xx-hal-driver/Src/stm32f4xx_ll_usb.c ****         {
 825:stm32f4xx-hal-driver/Src/stm32f4xx_ll_usb.c ****           USBx_INEP(epnum)->DIEPCTL |= USB_OTG_DIEPCTL_SODDFRM;
 826:stm32f4xx-hal-driver/Src/stm32f4xx_ll_usb.c ****         }
 827:stm32f4xx-hal-driver/Src/stm32f4xx_ll_usb.c ****         else
 828:stm32f4xx-hal-driver/Src/stm32f4xx_ll_usb.c ****         {
ARM GAS  /tmp/ccXMuxQe.s 			page 16


 829:stm32f4xx-hal-driver/Src/stm32f4xx_ll_usb.c ****           USBx_INEP(epnum)->DIEPCTL |= USB_OTG_DIEPCTL_SD0PID_SEVNFRM;
 830:stm32f4xx-hal-driver/Src/stm32f4xx_ll_usb.c ****         }
 831:stm32f4xx-hal-driver/Src/stm32f4xx_ll_usb.c ****       }
 832:stm32f4xx-hal-driver/Src/stm32f4xx_ll_usb.c **** 
 833:stm32f4xx-hal-driver/Src/stm32f4xx_ll_usb.c ****       /* EP enable, IN data in FIFO */
 834:stm32f4xx-hal-driver/Src/stm32f4xx_ll_usb.c ****       USBx_INEP(epnum)->DIEPCTL |= (USB_OTG_DIEPCTL_CNAK | USB_OTG_DIEPCTL_EPENA);
 835:stm32f4xx-hal-driver/Src/stm32f4xx_ll_usb.c ****     }
 836:stm32f4xx-hal-driver/Src/stm32f4xx_ll_usb.c ****     else
 837:stm32f4xx-hal-driver/Src/stm32f4xx_ll_usb.c ****     {
 838:stm32f4xx-hal-driver/Src/stm32f4xx_ll_usb.c ****       /* EP enable, IN data in FIFO */
 839:stm32f4xx-hal-driver/Src/stm32f4xx_ll_usb.c ****       USBx_INEP(epnum)->DIEPCTL |= (USB_OTG_DIEPCTL_CNAK | USB_OTG_DIEPCTL_EPENA);
 840:stm32f4xx-hal-driver/Src/stm32f4xx_ll_usb.c **** 
 841:stm32f4xx-hal-driver/Src/stm32f4xx_ll_usb.c ****       if (ep->type != EP_TYPE_ISOC)
 842:stm32f4xx-hal-driver/Src/stm32f4xx_ll_usb.c ****       {
 843:stm32f4xx-hal-driver/Src/stm32f4xx_ll_usb.c ****         /* Enable the Tx FIFO Empty Interrupt for this EP */
 844:stm32f4xx-hal-driver/Src/stm32f4xx_ll_usb.c ****         if (ep->xfer_len > 0U)
 845:stm32f4xx-hal-driver/Src/stm32f4xx_ll_usb.c ****         {
 846:stm32f4xx-hal-driver/Src/stm32f4xx_ll_usb.c ****           USBx_DEVICE->DIEPEMPMSK |= 1UL << (ep->num & EP_ADDR_MSK);
 847:stm32f4xx-hal-driver/Src/stm32f4xx_ll_usb.c ****         }
 848:stm32f4xx-hal-driver/Src/stm32f4xx_ll_usb.c ****       }
 849:stm32f4xx-hal-driver/Src/stm32f4xx_ll_usb.c ****       else
 850:stm32f4xx-hal-driver/Src/stm32f4xx_ll_usb.c ****       {
 851:stm32f4xx-hal-driver/Src/stm32f4xx_ll_usb.c ****         if ((USBx_DEVICE->DSTS & (1U << 8)) == 0U)
 852:stm32f4xx-hal-driver/Src/stm32f4xx_ll_usb.c ****         {
 853:stm32f4xx-hal-driver/Src/stm32f4xx_ll_usb.c ****           USBx_INEP(epnum)->DIEPCTL |= USB_OTG_DIEPCTL_SODDFRM;
 854:stm32f4xx-hal-driver/Src/stm32f4xx_ll_usb.c ****         }
 855:stm32f4xx-hal-driver/Src/stm32f4xx_ll_usb.c ****         else
 856:stm32f4xx-hal-driver/Src/stm32f4xx_ll_usb.c ****         {
 857:stm32f4xx-hal-driver/Src/stm32f4xx_ll_usb.c ****           USBx_INEP(epnum)->DIEPCTL |= USB_OTG_DIEPCTL_SD0PID_SEVNFRM;
 858:stm32f4xx-hal-driver/Src/stm32f4xx_ll_usb.c ****         }
 859:stm32f4xx-hal-driver/Src/stm32f4xx_ll_usb.c **** 
 860:stm32f4xx-hal-driver/Src/stm32f4xx_ll_usb.c ****         (void)USB_WritePacket(USBx, ep->xfer_buff, ep->num, (uint16_t)ep->xfer_len, dma);
 861:stm32f4xx-hal-driver/Src/stm32f4xx_ll_usb.c ****       }
 862:stm32f4xx-hal-driver/Src/stm32f4xx_ll_usb.c ****     }
 863:stm32f4xx-hal-driver/Src/stm32f4xx_ll_usb.c ****   }
 864:stm32f4xx-hal-driver/Src/stm32f4xx_ll_usb.c ****   else /* OUT endpoint */
 865:stm32f4xx-hal-driver/Src/stm32f4xx_ll_usb.c ****   {
 866:stm32f4xx-hal-driver/Src/stm32f4xx_ll_usb.c ****     /* Program the transfer size and packet count as follows:
 867:stm32f4xx-hal-driver/Src/stm32f4xx_ll_usb.c ****     * pktcnt = N
 868:stm32f4xx-hal-driver/Src/stm32f4xx_ll_usb.c ****     * xfersize = N * maxpacket
 869:stm32f4xx-hal-driver/Src/stm32f4xx_ll_usb.c ****     */
 870:stm32f4xx-hal-driver/Src/stm32f4xx_ll_usb.c ****     USBx_OUTEP(epnum)->DOEPTSIZ &= ~(USB_OTG_DOEPTSIZ_XFRSIZ);
 871:stm32f4xx-hal-driver/Src/stm32f4xx_ll_usb.c ****     USBx_OUTEP(epnum)->DOEPTSIZ &= ~(USB_OTG_DOEPTSIZ_PKTCNT);
 872:stm32f4xx-hal-driver/Src/stm32f4xx_ll_usb.c **** 
 873:stm32f4xx-hal-driver/Src/stm32f4xx_ll_usb.c ****     if (epnum == 0U)
 874:stm32f4xx-hal-driver/Src/stm32f4xx_ll_usb.c ****     {
 875:stm32f4xx-hal-driver/Src/stm32f4xx_ll_usb.c ****       if (ep->xfer_len > 0U)
 876:stm32f4xx-hal-driver/Src/stm32f4xx_ll_usb.c ****       {
 877:stm32f4xx-hal-driver/Src/stm32f4xx_ll_usb.c ****         ep->xfer_len = ep->maxpacket;
 878:stm32f4xx-hal-driver/Src/stm32f4xx_ll_usb.c ****       }
 879:stm32f4xx-hal-driver/Src/stm32f4xx_ll_usb.c **** 
 880:stm32f4xx-hal-driver/Src/stm32f4xx_ll_usb.c ****       /* Store transfer size, for EP0 this is equal to endpoint max packet size */
 881:stm32f4xx-hal-driver/Src/stm32f4xx_ll_usb.c ****       ep->xfer_size = ep->maxpacket;
 882:stm32f4xx-hal-driver/Src/stm32f4xx_ll_usb.c **** 
 883:stm32f4xx-hal-driver/Src/stm32f4xx_ll_usb.c ****       USBx_OUTEP(epnum)->DOEPTSIZ |= (USB_OTG_DOEPTSIZ_XFRSIZ & ep->xfer_size);
 884:stm32f4xx-hal-driver/Src/stm32f4xx_ll_usb.c ****       USBx_OUTEP(epnum)->DOEPTSIZ |= (USB_OTG_DOEPTSIZ_PKTCNT & (1U << 19));
 885:stm32f4xx-hal-driver/Src/stm32f4xx_ll_usb.c ****     }
ARM GAS  /tmp/ccXMuxQe.s 			page 17


 886:stm32f4xx-hal-driver/Src/stm32f4xx_ll_usb.c ****     else
 887:stm32f4xx-hal-driver/Src/stm32f4xx_ll_usb.c ****     {
 888:stm32f4xx-hal-driver/Src/stm32f4xx_ll_usb.c ****       if (ep->xfer_len == 0U)
 889:stm32f4xx-hal-driver/Src/stm32f4xx_ll_usb.c ****       {
 890:stm32f4xx-hal-driver/Src/stm32f4xx_ll_usb.c ****         USBx_OUTEP(epnum)->DOEPTSIZ |= (USB_OTG_DOEPTSIZ_XFRSIZ & ep->maxpacket);
 891:stm32f4xx-hal-driver/Src/stm32f4xx_ll_usb.c ****         USBx_OUTEP(epnum)->DOEPTSIZ |= (USB_OTG_DOEPTSIZ_PKTCNT & (1U << 19));
 892:stm32f4xx-hal-driver/Src/stm32f4xx_ll_usb.c ****       }
 893:stm32f4xx-hal-driver/Src/stm32f4xx_ll_usb.c ****       else
 894:stm32f4xx-hal-driver/Src/stm32f4xx_ll_usb.c ****       {
 895:stm32f4xx-hal-driver/Src/stm32f4xx_ll_usb.c ****         pktcnt = (uint16_t)((ep->xfer_len + ep->maxpacket - 1U) / ep->maxpacket);
 896:stm32f4xx-hal-driver/Src/stm32f4xx_ll_usb.c ****         ep->xfer_size = ep->maxpacket * pktcnt;
 897:stm32f4xx-hal-driver/Src/stm32f4xx_ll_usb.c **** 
 898:stm32f4xx-hal-driver/Src/stm32f4xx_ll_usb.c ****         USBx_OUTEP(epnum)->DOEPTSIZ |= USB_OTG_DOEPTSIZ_PKTCNT & ((uint32_t)pktcnt << 19);
 899:stm32f4xx-hal-driver/Src/stm32f4xx_ll_usb.c ****         USBx_OUTEP(epnum)->DOEPTSIZ |= USB_OTG_DOEPTSIZ_XFRSIZ & ep->xfer_size;
 900:stm32f4xx-hal-driver/Src/stm32f4xx_ll_usb.c ****       }
 901:stm32f4xx-hal-driver/Src/stm32f4xx_ll_usb.c ****     }
 902:stm32f4xx-hal-driver/Src/stm32f4xx_ll_usb.c **** 
 903:stm32f4xx-hal-driver/Src/stm32f4xx_ll_usb.c ****     if (dma == 1U)
 904:stm32f4xx-hal-driver/Src/stm32f4xx_ll_usb.c ****     {
 905:stm32f4xx-hal-driver/Src/stm32f4xx_ll_usb.c ****       if ((uint32_t)ep->xfer_buff != 0U)
 906:stm32f4xx-hal-driver/Src/stm32f4xx_ll_usb.c ****       {
 907:stm32f4xx-hal-driver/Src/stm32f4xx_ll_usb.c ****         USBx_OUTEP(epnum)->DOEPDMA = (uint32_t)(ep->xfer_buff);
 908:stm32f4xx-hal-driver/Src/stm32f4xx_ll_usb.c ****       }
 909:stm32f4xx-hal-driver/Src/stm32f4xx_ll_usb.c ****     }
 910:stm32f4xx-hal-driver/Src/stm32f4xx_ll_usb.c **** 
 911:stm32f4xx-hal-driver/Src/stm32f4xx_ll_usb.c ****     if (ep->type == EP_TYPE_ISOC)
 912:stm32f4xx-hal-driver/Src/stm32f4xx_ll_usb.c ****     {
 913:stm32f4xx-hal-driver/Src/stm32f4xx_ll_usb.c ****       if ((USBx_DEVICE->DSTS & (1U << 8)) == 0U)
 914:stm32f4xx-hal-driver/Src/stm32f4xx_ll_usb.c ****       {
 915:stm32f4xx-hal-driver/Src/stm32f4xx_ll_usb.c ****         USBx_OUTEP(epnum)->DOEPCTL |= USB_OTG_DOEPCTL_SODDFRM;
 916:stm32f4xx-hal-driver/Src/stm32f4xx_ll_usb.c ****       }
 917:stm32f4xx-hal-driver/Src/stm32f4xx_ll_usb.c ****       else
 918:stm32f4xx-hal-driver/Src/stm32f4xx_ll_usb.c ****       {
 919:stm32f4xx-hal-driver/Src/stm32f4xx_ll_usb.c ****         USBx_OUTEP(epnum)->DOEPCTL |= USB_OTG_DOEPCTL_SD0PID_SEVNFRM;
 920:stm32f4xx-hal-driver/Src/stm32f4xx_ll_usb.c ****       }
 921:stm32f4xx-hal-driver/Src/stm32f4xx_ll_usb.c ****     }
 922:stm32f4xx-hal-driver/Src/stm32f4xx_ll_usb.c ****     /* EP enable */
 923:stm32f4xx-hal-driver/Src/stm32f4xx_ll_usb.c ****     USBx_OUTEP(epnum)->DOEPCTL |= (USB_OTG_DOEPCTL_CNAK | USB_OTG_DOEPCTL_EPENA);
 924:stm32f4xx-hal-driver/Src/stm32f4xx_ll_usb.c ****   }
 925:stm32f4xx-hal-driver/Src/stm32f4xx_ll_usb.c **** 
 926:stm32f4xx-hal-driver/Src/stm32f4xx_ll_usb.c ****   return HAL_OK;
 927:stm32f4xx-hal-driver/Src/stm32f4xx_ll_usb.c **** }
 928:stm32f4xx-hal-driver/Src/stm32f4xx_ll_usb.c **** 
 929:stm32f4xx-hal-driver/Src/stm32f4xx_ll_usb.c **** 
 930:stm32f4xx-hal-driver/Src/stm32f4xx_ll_usb.c **** /**
 931:stm32f4xx-hal-driver/Src/stm32f4xx_ll_usb.c ****    * @brief  USB_EPStoptXfer  Stop transfer on an EP
 932:stm32f4xx-hal-driver/Src/stm32f4xx_ll_usb.c ****    * @param  USBx  usb device instance
 933:stm32f4xx-hal-driver/Src/stm32f4xx_ll_usb.c ****    * @param  ep pointer to endpoint structure
 934:stm32f4xx-hal-driver/Src/stm32f4xx_ll_usb.c ****    * @retval HAL status
 935:stm32f4xx-hal-driver/Src/stm32f4xx_ll_usb.c ****    */
 936:stm32f4xx-hal-driver/Src/stm32f4xx_ll_usb.c **** HAL_StatusTypeDef USB_EPStopXfer(const USB_OTG_GlobalTypeDef *USBx, USB_OTG_EPTypeDef *ep)
 937:stm32f4xx-hal-driver/Src/stm32f4xx_ll_usb.c **** {
 938:stm32f4xx-hal-driver/Src/stm32f4xx_ll_usb.c ****   __IO uint32_t count = 0U;
 939:stm32f4xx-hal-driver/Src/stm32f4xx_ll_usb.c ****   HAL_StatusTypeDef ret = HAL_OK;
 940:stm32f4xx-hal-driver/Src/stm32f4xx_ll_usb.c ****   uint32_t USBx_BASE = (uint32_t)USBx;
 941:stm32f4xx-hal-driver/Src/stm32f4xx_ll_usb.c **** 
 942:stm32f4xx-hal-driver/Src/stm32f4xx_ll_usb.c ****   /* IN endpoint */
ARM GAS  /tmp/ccXMuxQe.s 			page 18


 943:stm32f4xx-hal-driver/Src/stm32f4xx_ll_usb.c ****   if (ep->is_in == 1U)
 944:stm32f4xx-hal-driver/Src/stm32f4xx_ll_usb.c ****   {
 945:stm32f4xx-hal-driver/Src/stm32f4xx_ll_usb.c ****     /* EP enable, IN data in FIFO */
 946:stm32f4xx-hal-driver/Src/stm32f4xx_ll_usb.c ****     if (((USBx_INEP(ep->num)->DIEPCTL) & USB_OTG_DIEPCTL_EPENA) == USB_OTG_DIEPCTL_EPENA)
 947:stm32f4xx-hal-driver/Src/stm32f4xx_ll_usb.c ****     {
 948:stm32f4xx-hal-driver/Src/stm32f4xx_ll_usb.c ****       USBx_INEP(ep->num)->DIEPCTL |= (USB_OTG_DIEPCTL_SNAK);
 949:stm32f4xx-hal-driver/Src/stm32f4xx_ll_usb.c ****       USBx_INEP(ep->num)->DIEPCTL |= (USB_OTG_DIEPCTL_EPDIS);
 950:stm32f4xx-hal-driver/Src/stm32f4xx_ll_usb.c **** 
 951:stm32f4xx-hal-driver/Src/stm32f4xx_ll_usb.c ****       do
 952:stm32f4xx-hal-driver/Src/stm32f4xx_ll_usb.c ****       {
 953:stm32f4xx-hal-driver/Src/stm32f4xx_ll_usb.c ****         count++;
 954:stm32f4xx-hal-driver/Src/stm32f4xx_ll_usb.c **** 
 955:stm32f4xx-hal-driver/Src/stm32f4xx_ll_usb.c ****         if (count > 10000U)
 956:stm32f4xx-hal-driver/Src/stm32f4xx_ll_usb.c ****         {
 957:stm32f4xx-hal-driver/Src/stm32f4xx_ll_usb.c ****           ret = HAL_ERROR;
 958:stm32f4xx-hal-driver/Src/stm32f4xx_ll_usb.c ****           break;
 959:stm32f4xx-hal-driver/Src/stm32f4xx_ll_usb.c ****         }
 960:stm32f4xx-hal-driver/Src/stm32f4xx_ll_usb.c ****       } while (((USBx_INEP(ep->num)->DIEPCTL) & USB_OTG_DIEPCTL_EPENA) ==  USB_OTG_DIEPCTL_EPENA);
 961:stm32f4xx-hal-driver/Src/stm32f4xx_ll_usb.c ****     }
 962:stm32f4xx-hal-driver/Src/stm32f4xx_ll_usb.c ****   }
 963:stm32f4xx-hal-driver/Src/stm32f4xx_ll_usb.c ****   else /* OUT endpoint */
 964:stm32f4xx-hal-driver/Src/stm32f4xx_ll_usb.c ****   {
 965:stm32f4xx-hal-driver/Src/stm32f4xx_ll_usb.c ****     if (((USBx_OUTEP(ep->num)->DOEPCTL) & USB_OTG_DOEPCTL_EPENA) == USB_OTG_DOEPCTL_EPENA)
 966:stm32f4xx-hal-driver/Src/stm32f4xx_ll_usb.c ****     {
 967:stm32f4xx-hal-driver/Src/stm32f4xx_ll_usb.c ****       USBx_OUTEP(ep->num)->DOEPCTL |= (USB_OTG_DOEPCTL_SNAK);
 968:stm32f4xx-hal-driver/Src/stm32f4xx_ll_usb.c ****       USBx_OUTEP(ep->num)->DOEPCTL |= (USB_OTG_DOEPCTL_EPDIS);
 969:stm32f4xx-hal-driver/Src/stm32f4xx_ll_usb.c **** 
 970:stm32f4xx-hal-driver/Src/stm32f4xx_ll_usb.c ****       do
 971:stm32f4xx-hal-driver/Src/stm32f4xx_ll_usb.c ****       {
 972:stm32f4xx-hal-driver/Src/stm32f4xx_ll_usb.c ****         count++;
 973:stm32f4xx-hal-driver/Src/stm32f4xx_ll_usb.c **** 
 974:stm32f4xx-hal-driver/Src/stm32f4xx_ll_usb.c ****         if (count > 10000U)
 975:stm32f4xx-hal-driver/Src/stm32f4xx_ll_usb.c ****         {
 976:stm32f4xx-hal-driver/Src/stm32f4xx_ll_usb.c ****           ret = HAL_ERROR;
 977:stm32f4xx-hal-driver/Src/stm32f4xx_ll_usb.c ****           break;
 978:stm32f4xx-hal-driver/Src/stm32f4xx_ll_usb.c ****         }
 979:stm32f4xx-hal-driver/Src/stm32f4xx_ll_usb.c ****       } while (((USBx_OUTEP(ep->num)->DOEPCTL) & USB_OTG_DOEPCTL_EPENA) ==  USB_OTG_DOEPCTL_EPENA);
 980:stm32f4xx-hal-driver/Src/stm32f4xx_ll_usb.c ****     }
 981:stm32f4xx-hal-driver/Src/stm32f4xx_ll_usb.c ****   }
 982:stm32f4xx-hal-driver/Src/stm32f4xx_ll_usb.c **** 
 983:stm32f4xx-hal-driver/Src/stm32f4xx_ll_usb.c ****   return ret;
 984:stm32f4xx-hal-driver/Src/stm32f4xx_ll_usb.c **** }
 985:stm32f4xx-hal-driver/Src/stm32f4xx_ll_usb.c **** 
 986:stm32f4xx-hal-driver/Src/stm32f4xx_ll_usb.c **** 
 987:stm32f4xx-hal-driver/Src/stm32f4xx_ll_usb.c **** /**
 988:stm32f4xx-hal-driver/Src/stm32f4xx_ll_usb.c ****   * @brief  USB_WritePacket : Writes a packet into the Tx FIFO associated
 989:stm32f4xx-hal-driver/Src/stm32f4xx_ll_usb.c ****   *         with the EP/channel
 990:stm32f4xx-hal-driver/Src/stm32f4xx_ll_usb.c ****   * @param  USBx  Selected device
 991:stm32f4xx-hal-driver/Src/stm32f4xx_ll_usb.c ****   * @param  src   pointer to source buffer
 992:stm32f4xx-hal-driver/Src/stm32f4xx_ll_usb.c ****   * @param  ch_ep_num  endpoint or host channel number
 993:stm32f4xx-hal-driver/Src/stm32f4xx_ll_usb.c ****   * @param  len  Number of bytes to write
 994:stm32f4xx-hal-driver/Src/stm32f4xx_ll_usb.c ****   * @param  dma USB dma enabled or disabled
 995:stm32f4xx-hal-driver/Src/stm32f4xx_ll_usb.c ****   *          This parameter can be one of these values:
 996:stm32f4xx-hal-driver/Src/stm32f4xx_ll_usb.c ****   *           0 : DMA feature not used
 997:stm32f4xx-hal-driver/Src/stm32f4xx_ll_usb.c ****   *           1 : DMA feature used
 998:stm32f4xx-hal-driver/Src/stm32f4xx_ll_usb.c ****   * @retval HAL status
 999:stm32f4xx-hal-driver/Src/stm32f4xx_ll_usb.c ****   */
ARM GAS  /tmp/ccXMuxQe.s 			page 19


1000:stm32f4xx-hal-driver/Src/stm32f4xx_ll_usb.c **** HAL_StatusTypeDef USB_WritePacket(const USB_OTG_GlobalTypeDef *USBx, uint8_t *src,
1001:stm32f4xx-hal-driver/Src/stm32f4xx_ll_usb.c ****                                   uint8_t ch_ep_num, uint16_t len, uint8_t dma)
1002:stm32f4xx-hal-driver/Src/stm32f4xx_ll_usb.c **** {
1003:stm32f4xx-hal-driver/Src/stm32f4xx_ll_usb.c ****   uint32_t USBx_BASE = (uint32_t)USBx;
1004:stm32f4xx-hal-driver/Src/stm32f4xx_ll_usb.c ****   uint8_t *pSrc = src;
1005:stm32f4xx-hal-driver/Src/stm32f4xx_ll_usb.c ****   uint32_t count32b;
1006:stm32f4xx-hal-driver/Src/stm32f4xx_ll_usb.c ****   uint32_t i;
1007:stm32f4xx-hal-driver/Src/stm32f4xx_ll_usb.c **** 
1008:stm32f4xx-hal-driver/Src/stm32f4xx_ll_usb.c ****   if (dma == 0U)
1009:stm32f4xx-hal-driver/Src/stm32f4xx_ll_usb.c ****   {
1010:stm32f4xx-hal-driver/Src/stm32f4xx_ll_usb.c ****     count32b = ((uint32_t)len + 3U) / 4U;
1011:stm32f4xx-hal-driver/Src/stm32f4xx_ll_usb.c ****     for (i = 0U; i < count32b; i++)
1012:stm32f4xx-hal-driver/Src/stm32f4xx_ll_usb.c ****     {
1013:stm32f4xx-hal-driver/Src/stm32f4xx_ll_usb.c ****       USBx_DFIFO((uint32_t)ch_ep_num) = __UNALIGNED_UINT32_READ(pSrc);
1014:stm32f4xx-hal-driver/Src/stm32f4xx_ll_usb.c ****       pSrc++;
1015:stm32f4xx-hal-driver/Src/stm32f4xx_ll_usb.c ****       pSrc++;
1016:stm32f4xx-hal-driver/Src/stm32f4xx_ll_usb.c ****       pSrc++;
1017:stm32f4xx-hal-driver/Src/stm32f4xx_ll_usb.c ****       pSrc++;
1018:stm32f4xx-hal-driver/Src/stm32f4xx_ll_usb.c ****     }
1019:stm32f4xx-hal-driver/Src/stm32f4xx_ll_usb.c ****   }
1020:stm32f4xx-hal-driver/Src/stm32f4xx_ll_usb.c **** 
1021:stm32f4xx-hal-driver/Src/stm32f4xx_ll_usb.c ****   return HAL_OK;
1022:stm32f4xx-hal-driver/Src/stm32f4xx_ll_usb.c **** }
1023:stm32f4xx-hal-driver/Src/stm32f4xx_ll_usb.c **** 
1024:stm32f4xx-hal-driver/Src/stm32f4xx_ll_usb.c **** /**
1025:stm32f4xx-hal-driver/Src/stm32f4xx_ll_usb.c ****   * @brief  USB_ReadPacket : read a packet from the RX FIFO
1026:stm32f4xx-hal-driver/Src/stm32f4xx_ll_usb.c ****   * @param  USBx  Selected device
1027:stm32f4xx-hal-driver/Src/stm32f4xx_ll_usb.c ****   * @param  dest  source pointer
1028:stm32f4xx-hal-driver/Src/stm32f4xx_ll_usb.c ****   * @param  len  Number of bytes to read
1029:stm32f4xx-hal-driver/Src/stm32f4xx_ll_usb.c ****   * @retval pointer to destination buffer
1030:stm32f4xx-hal-driver/Src/stm32f4xx_ll_usb.c ****   */
1031:stm32f4xx-hal-driver/Src/stm32f4xx_ll_usb.c **** void *USB_ReadPacket(const USB_OTG_GlobalTypeDef *USBx, uint8_t *dest, uint16_t len)
1032:stm32f4xx-hal-driver/Src/stm32f4xx_ll_usb.c **** {
1033:stm32f4xx-hal-driver/Src/stm32f4xx_ll_usb.c ****   uint32_t USBx_BASE = (uint32_t)USBx;
1034:stm32f4xx-hal-driver/Src/stm32f4xx_ll_usb.c ****   uint8_t *pDest = dest;
1035:stm32f4xx-hal-driver/Src/stm32f4xx_ll_usb.c ****   uint32_t pData;
1036:stm32f4xx-hal-driver/Src/stm32f4xx_ll_usb.c ****   uint32_t i;
1037:stm32f4xx-hal-driver/Src/stm32f4xx_ll_usb.c ****   uint32_t count32b = (uint32_t)len >> 2U;
1038:stm32f4xx-hal-driver/Src/stm32f4xx_ll_usb.c ****   uint16_t remaining_bytes = len % 4U;
1039:stm32f4xx-hal-driver/Src/stm32f4xx_ll_usb.c **** 
1040:stm32f4xx-hal-driver/Src/stm32f4xx_ll_usb.c ****   for (i = 0U; i < count32b; i++)
1041:stm32f4xx-hal-driver/Src/stm32f4xx_ll_usb.c ****   {
1042:stm32f4xx-hal-driver/Src/stm32f4xx_ll_usb.c ****     __UNALIGNED_UINT32_WRITE(pDest, USBx_DFIFO(0U));
1043:stm32f4xx-hal-driver/Src/stm32f4xx_ll_usb.c ****     pDest++;
1044:stm32f4xx-hal-driver/Src/stm32f4xx_ll_usb.c ****     pDest++;
1045:stm32f4xx-hal-driver/Src/stm32f4xx_ll_usb.c ****     pDest++;
1046:stm32f4xx-hal-driver/Src/stm32f4xx_ll_usb.c ****     pDest++;
1047:stm32f4xx-hal-driver/Src/stm32f4xx_ll_usb.c ****   }
1048:stm32f4xx-hal-driver/Src/stm32f4xx_ll_usb.c **** 
1049:stm32f4xx-hal-driver/Src/stm32f4xx_ll_usb.c ****   /* When Number of data is not word aligned, read the remaining byte */
1050:stm32f4xx-hal-driver/Src/stm32f4xx_ll_usb.c ****   if (remaining_bytes != 0U)
1051:stm32f4xx-hal-driver/Src/stm32f4xx_ll_usb.c ****   {
1052:stm32f4xx-hal-driver/Src/stm32f4xx_ll_usb.c ****     i = 0U;
1053:stm32f4xx-hal-driver/Src/stm32f4xx_ll_usb.c ****     __UNALIGNED_UINT32_WRITE(&pData, USBx_DFIFO(0U));
1054:stm32f4xx-hal-driver/Src/stm32f4xx_ll_usb.c **** 
1055:stm32f4xx-hal-driver/Src/stm32f4xx_ll_usb.c ****     do
1056:stm32f4xx-hal-driver/Src/stm32f4xx_ll_usb.c ****     {
ARM GAS  /tmp/ccXMuxQe.s 			page 20


1057:stm32f4xx-hal-driver/Src/stm32f4xx_ll_usb.c ****       *(uint8_t *)pDest = (uint8_t)(pData >> (8U * (uint8_t)(i)));
1058:stm32f4xx-hal-driver/Src/stm32f4xx_ll_usb.c ****       i++;
1059:stm32f4xx-hal-driver/Src/stm32f4xx_ll_usb.c ****       pDest++;
1060:stm32f4xx-hal-driver/Src/stm32f4xx_ll_usb.c ****       remaining_bytes--;
1061:stm32f4xx-hal-driver/Src/stm32f4xx_ll_usb.c ****     } while (remaining_bytes != 0U);
1062:stm32f4xx-hal-driver/Src/stm32f4xx_ll_usb.c ****   }
1063:stm32f4xx-hal-driver/Src/stm32f4xx_ll_usb.c **** 
1064:stm32f4xx-hal-driver/Src/stm32f4xx_ll_usb.c ****   return ((void *)pDest);
1065:stm32f4xx-hal-driver/Src/stm32f4xx_ll_usb.c **** }
1066:stm32f4xx-hal-driver/Src/stm32f4xx_ll_usb.c **** 
1067:stm32f4xx-hal-driver/Src/stm32f4xx_ll_usb.c **** /**
1068:stm32f4xx-hal-driver/Src/stm32f4xx_ll_usb.c ****   * @brief  USB_EPSetStall : set a stall condition over an EP
1069:stm32f4xx-hal-driver/Src/stm32f4xx_ll_usb.c ****   * @param  USBx  Selected device
1070:stm32f4xx-hal-driver/Src/stm32f4xx_ll_usb.c ****   * @param  ep pointer to endpoint structure
1071:stm32f4xx-hal-driver/Src/stm32f4xx_ll_usb.c ****   * @retval HAL status
1072:stm32f4xx-hal-driver/Src/stm32f4xx_ll_usb.c ****   */
1073:stm32f4xx-hal-driver/Src/stm32f4xx_ll_usb.c **** HAL_StatusTypeDef USB_EPSetStall(const USB_OTG_GlobalTypeDef *USBx, const USB_OTG_EPTypeDef *ep)
1074:stm32f4xx-hal-driver/Src/stm32f4xx_ll_usb.c **** {
1075:stm32f4xx-hal-driver/Src/stm32f4xx_ll_usb.c ****   uint32_t USBx_BASE = (uint32_t)USBx;
1076:stm32f4xx-hal-driver/Src/stm32f4xx_ll_usb.c ****   uint32_t epnum = (uint32_t)ep->num;
1077:stm32f4xx-hal-driver/Src/stm32f4xx_ll_usb.c **** 
1078:stm32f4xx-hal-driver/Src/stm32f4xx_ll_usb.c ****   if (ep->is_in == 1U)
1079:stm32f4xx-hal-driver/Src/stm32f4xx_ll_usb.c ****   {
1080:stm32f4xx-hal-driver/Src/stm32f4xx_ll_usb.c ****     if (((USBx_INEP(epnum)->DIEPCTL & USB_OTG_DIEPCTL_EPENA) == 0U) && (epnum != 0U))
1081:stm32f4xx-hal-driver/Src/stm32f4xx_ll_usb.c ****     {
1082:stm32f4xx-hal-driver/Src/stm32f4xx_ll_usb.c ****       USBx_INEP(epnum)->DIEPCTL &= ~(USB_OTG_DIEPCTL_EPDIS);
1083:stm32f4xx-hal-driver/Src/stm32f4xx_ll_usb.c ****     }
1084:stm32f4xx-hal-driver/Src/stm32f4xx_ll_usb.c ****     USBx_INEP(epnum)->DIEPCTL |= USB_OTG_DIEPCTL_STALL;
1085:stm32f4xx-hal-driver/Src/stm32f4xx_ll_usb.c ****   }
1086:stm32f4xx-hal-driver/Src/stm32f4xx_ll_usb.c ****   else
1087:stm32f4xx-hal-driver/Src/stm32f4xx_ll_usb.c ****   {
1088:stm32f4xx-hal-driver/Src/stm32f4xx_ll_usb.c ****     if (((USBx_OUTEP(epnum)->DOEPCTL & USB_OTG_DOEPCTL_EPENA) == 0U) && (epnum != 0U))
1089:stm32f4xx-hal-driver/Src/stm32f4xx_ll_usb.c ****     {
1090:stm32f4xx-hal-driver/Src/stm32f4xx_ll_usb.c ****       USBx_OUTEP(epnum)->DOEPCTL &= ~(USB_OTG_DOEPCTL_EPDIS);
1091:stm32f4xx-hal-driver/Src/stm32f4xx_ll_usb.c ****     }
1092:stm32f4xx-hal-driver/Src/stm32f4xx_ll_usb.c ****     USBx_OUTEP(epnum)->DOEPCTL |= USB_OTG_DOEPCTL_STALL;
1093:stm32f4xx-hal-driver/Src/stm32f4xx_ll_usb.c ****   }
1094:stm32f4xx-hal-driver/Src/stm32f4xx_ll_usb.c **** 
1095:stm32f4xx-hal-driver/Src/stm32f4xx_ll_usb.c ****   return HAL_OK;
1096:stm32f4xx-hal-driver/Src/stm32f4xx_ll_usb.c **** }
1097:stm32f4xx-hal-driver/Src/stm32f4xx_ll_usb.c **** 
1098:stm32f4xx-hal-driver/Src/stm32f4xx_ll_usb.c **** /**
1099:stm32f4xx-hal-driver/Src/stm32f4xx_ll_usb.c ****   * @brief  USB_EPClearStall : Clear a stall condition over an EP
1100:stm32f4xx-hal-driver/Src/stm32f4xx_ll_usb.c ****   * @param  USBx  Selected device
1101:stm32f4xx-hal-driver/Src/stm32f4xx_ll_usb.c ****   * @param  ep pointer to endpoint structure
1102:stm32f4xx-hal-driver/Src/stm32f4xx_ll_usb.c ****   * @retval HAL status
1103:stm32f4xx-hal-driver/Src/stm32f4xx_ll_usb.c ****   */
1104:stm32f4xx-hal-driver/Src/stm32f4xx_ll_usb.c **** HAL_StatusTypeDef USB_EPClearStall(const USB_OTG_GlobalTypeDef *USBx, const USB_OTG_EPTypeDef *ep)
1105:stm32f4xx-hal-driver/Src/stm32f4xx_ll_usb.c **** {
1106:stm32f4xx-hal-driver/Src/stm32f4xx_ll_usb.c ****   uint32_t USBx_BASE = (uint32_t)USBx;
1107:stm32f4xx-hal-driver/Src/stm32f4xx_ll_usb.c ****   uint32_t epnum = (uint32_t)ep->num;
1108:stm32f4xx-hal-driver/Src/stm32f4xx_ll_usb.c **** 
1109:stm32f4xx-hal-driver/Src/stm32f4xx_ll_usb.c ****   if (ep->is_in == 1U)
1110:stm32f4xx-hal-driver/Src/stm32f4xx_ll_usb.c ****   {
1111:stm32f4xx-hal-driver/Src/stm32f4xx_ll_usb.c ****     USBx_INEP(epnum)->DIEPCTL &= ~USB_OTG_DIEPCTL_STALL;
1112:stm32f4xx-hal-driver/Src/stm32f4xx_ll_usb.c ****     if ((ep->type == EP_TYPE_INTR) || (ep->type == EP_TYPE_BULK))
1113:stm32f4xx-hal-driver/Src/stm32f4xx_ll_usb.c ****     {
ARM GAS  /tmp/ccXMuxQe.s 			page 21


1114:stm32f4xx-hal-driver/Src/stm32f4xx_ll_usb.c ****       USBx_INEP(epnum)->DIEPCTL |= USB_OTG_DIEPCTL_SD0PID_SEVNFRM; /* DATA0 */
1115:stm32f4xx-hal-driver/Src/stm32f4xx_ll_usb.c ****     }
1116:stm32f4xx-hal-driver/Src/stm32f4xx_ll_usb.c ****   }
1117:stm32f4xx-hal-driver/Src/stm32f4xx_ll_usb.c ****   else
1118:stm32f4xx-hal-driver/Src/stm32f4xx_ll_usb.c ****   {
1119:stm32f4xx-hal-driver/Src/stm32f4xx_ll_usb.c ****     USBx_OUTEP(epnum)->DOEPCTL &= ~USB_OTG_DOEPCTL_STALL;
1120:stm32f4xx-hal-driver/Src/stm32f4xx_ll_usb.c ****     if ((ep->type == EP_TYPE_INTR) || (ep->type == EP_TYPE_BULK))
1121:stm32f4xx-hal-driver/Src/stm32f4xx_ll_usb.c ****     {
1122:stm32f4xx-hal-driver/Src/stm32f4xx_ll_usb.c ****       USBx_OUTEP(epnum)->DOEPCTL |= USB_OTG_DOEPCTL_SD0PID_SEVNFRM; /* DATA0 */
1123:stm32f4xx-hal-driver/Src/stm32f4xx_ll_usb.c ****     }
1124:stm32f4xx-hal-driver/Src/stm32f4xx_ll_usb.c ****   }
1125:stm32f4xx-hal-driver/Src/stm32f4xx_ll_usb.c ****   return HAL_OK;
1126:stm32f4xx-hal-driver/Src/stm32f4xx_ll_usb.c **** }
1127:stm32f4xx-hal-driver/Src/stm32f4xx_ll_usb.c **** 
1128:stm32f4xx-hal-driver/Src/stm32f4xx_ll_usb.c **** /**
1129:stm32f4xx-hal-driver/Src/stm32f4xx_ll_usb.c ****   * @brief  USB_StopDevice : Stop the usb device mode
1130:stm32f4xx-hal-driver/Src/stm32f4xx_ll_usb.c ****   * @param  USBx  Selected device
1131:stm32f4xx-hal-driver/Src/stm32f4xx_ll_usb.c ****   * @retval HAL status
1132:stm32f4xx-hal-driver/Src/stm32f4xx_ll_usb.c ****   */
1133:stm32f4xx-hal-driver/Src/stm32f4xx_ll_usb.c **** HAL_StatusTypeDef USB_StopDevice(USB_OTG_GlobalTypeDef *USBx)
1134:stm32f4xx-hal-driver/Src/stm32f4xx_ll_usb.c **** {
1135:stm32f4xx-hal-driver/Src/stm32f4xx_ll_usb.c ****   HAL_StatusTypeDef ret;
1136:stm32f4xx-hal-driver/Src/stm32f4xx_ll_usb.c ****   uint32_t USBx_BASE = (uint32_t)USBx;
1137:stm32f4xx-hal-driver/Src/stm32f4xx_ll_usb.c ****   uint32_t i;
1138:stm32f4xx-hal-driver/Src/stm32f4xx_ll_usb.c **** 
1139:stm32f4xx-hal-driver/Src/stm32f4xx_ll_usb.c ****   /* Clear Pending interrupt */
1140:stm32f4xx-hal-driver/Src/stm32f4xx_ll_usb.c ****   for (i = 0U; i < 15U; i++)
1141:stm32f4xx-hal-driver/Src/stm32f4xx_ll_usb.c ****   {
1142:stm32f4xx-hal-driver/Src/stm32f4xx_ll_usb.c ****     USBx_INEP(i)->DIEPINT = 0xFB7FU;
1143:stm32f4xx-hal-driver/Src/stm32f4xx_ll_usb.c ****     USBx_OUTEP(i)->DOEPINT = 0xFB7FU;
1144:stm32f4xx-hal-driver/Src/stm32f4xx_ll_usb.c ****   }
1145:stm32f4xx-hal-driver/Src/stm32f4xx_ll_usb.c **** 
1146:stm32f4xx-hal-driver/Src/stm32f4xx_ll_usb.c ****   /* Clear interrupt masks */
1147:stm32f4xx-hal-driver/Src/stm32f4xx_ll_usb.c ****   USBx_DEVICE->DIEPMSK  = 0U;
1148:stm32f4xx-hal-driver/Src/stm32f4xx_ll_usb.c ****   USBx_DEVICE->DOEPMSK  = 0U;
1149:stm32f4xx-hal-driver/Src/stm32f4xx_ll_usb.c ****   USBx_DEVICE->DAINTMSK = 0U;
1150:stm32f4xx-hal-driver/Src/stm32f4xx_ll_usb.c **** 
1151:stm32f4xx-hal-driver/Src/stm32f4xx_ll_usb.c ****   /* Flush the FIFO */
1152:stm32f4xx-hal-driver/Src/stm32f4xx_ll_usb.c ****   ret = USB_FlushRxFifo(USBx);
1153:stm32f4xx-hal-driver/Src/stm32f4xx_ll_usb.c ****   if (ret != HAL_OK)
1154:stm32f4xx-hal-driver/Src/stm32f4xx_ll_usb.c ****   {
1155:stm32f4xx-hal-driver/Src/stm32f4xx_ll_usb.c ****     return ret;
1156:stm32f4xx-hal-driver/Src/stm32f4xx_ll_usb.c ****   }
1157:stm32f4xx-hal-driver/Src/stm32f4xx_ll_usb.c **** 
1158:stm32f4xx-hal-driver/Src/stm32f4xx_ll_usb.c ****   ret = USB_FlushTxFifo(USBx,  0x10U);
1159:stm32f4xx-hal-driver/Src/stm32f4xx_ll_usb.c ****   if (ret != HAL_OK)
1160:stm32f4xx-hal-driver/Src/stm32f4xx_ll_usb.c ****   {
1161:stm32f4xx-hal-driver/Src/stm32f4xx_ll_usb.c ****     return ret;
1162:stm32f4xx-hal-driver/Src/stm32f4xx_ll_usb.c ****   }
1163:stm32f4xx-hal-driver/Src/stm32f4xx_ll_usb.c **** 
1164:stm32f4xx-hal-driver/Src/stm32f4xx_ll_usb.c ****   return ret;
1165:stm32f4xx-hal-driver/Src/stm32f4xx_ll_usb.c **** }
1166:stm32f4xx-hal-driver/Src/stm32f4xx_ll_usb.c **** 
1167:stm32f4xx-hal-driver/Src/stm32f4xx_ll_usb.c **** /**
1168:stm32f4xx-hal-driver/Src/stm32f4xx_ll_usb.c ****   * @brief  USB_SetDevAddress : Stop the usb device mode
1169:stm32f4xx-hal-driver/Src/stm32f4xx_ll_usb.c ****   * @param  USBx  Selected device
1170:stm32f4xx-hal-driver/Src/stm32f4xx_ll_usb.c ****   * @param  address  new device address to be assigned
ARM GAS  /tmp/ccXMuxQe.s 			page 22


1171:stm32f4xx-hal-driver/Src/stm32f4xx_ll_usb.c ****   *          This parameter can be a value from 0 to 255
1172:stm32f4xx-hal-driver/Src/stm32f4xx_ll_usb.c ****   * @retval HAL status
1173:stm32f4xx-hal-driver/Src/stm32f4xx_ll_usb.c ****   */
1174:stm32f4xx-hal-driver/Src/stm32f4xx_ll_usb.c **** HAL_StatusTypeDef USB_SetDevAddress(const USB_OTG_GlobalTypeDef *USBx, uint8_t address)
1175:stm32f4xx-hal-driver/Src/stm32f4xx_ll_usb.c **** {
1176:stm32f4xx-hal-driver/Src/stm32f4xx_ll_usb.c ****   uint32_t USBx_BASE = (uint32_t)USBx;
1177:stm32f4xx-hal-driver/Src/stm32f4xx_ll_usb.c **** 
1178:stm32f4xx-hal-driver/Src/stm32f4xx_ll_usb.c ****   USBx_DEVICE->DCFG &= ~(USB_OTG_DCFG_DAD);
1179:stm32f4xx-hal-driver/Src/stm32f4xx_ll_usb.c ****   USBx_DEVICE->DCFG |= ((uint32_t)address << 4) & USB_OTG_DCFG_DAD;
1180:stm32f4xx-hal-driver/Src/stm32f4xx_ll_usb.c **** 
1181:stm32f4xx-hal-driver/Src/stm32f4xx_ll_usb.c ****   return HAL_OK;
1182:stm32f4xx-hal-driver/Src/stm32f4xx_ll_usb.c **** }
1183:stm32f4xx-hal-driver/Src/stm32f4xx_ll_usb.c **** 
1184:stm32f4xx-hal-driver/Src/stm32f4xx_ll_usb.c **** /**
1185:stm32f4xx-hal-driver/Src/stm32f4xx_ll_usb.c ****   * @brief  USB_DevConnect : Connect the USB device by enabling Rpu
1186:stm32f4xx-hal-driver/Src/stm32f4xx_ll_usb.c ****   * @param  USBx  Selected device
1187:stm32f4xx-hal-driver/Src/stm32f4xx_ll_usb.c ****   * @retval HAL status
1188:stm32f4xx-hal-driver/Src/stm32f4xx_ll_usb.c ****   */
1189:stm32f4xx-hal-driver/Src/stm32f4xx_ll_usb.c **** HAL_StatusTypeDef USB_DevConnect(const USB_OTG_GlobalTypeDef *USBx)
1190:stm32f4xx-hal-driver/Src/stm32f4xx_ll_usb.c **** {
1191:stm32f4xx-hal-driver/Src/stm32f4xx_ll_usb.c ****   uint32_t USBx_BASE = (uint32_t)USBx;
1192:stm32f4xx-hal-driver/Src/stm32f4xx_ll_usb.c **** 
1193:stm32f4xx-hal-driver/Src/stm32f4xx_ll_usb.c ****   /* In case phy is stopped, ensure to ungate and restore the phy CLK */
1194:stm32f4xx-hal-driver/Src/stm32f4xx_ll_usb.c ****   USBx_PCGCCTL &= ~(USB_OTG_PCGCCTL_STOPCLK | USB_OTG_PCGCCTL_GATECLK);
1195:stm32f4xx-hal-driver/Src/stm32f4xx_ll_usb.c **** 
1196:stm32f4xx-hal-driver/Src/stm32f4xx_ll_usb.c ****   USBx_DEVICE->DCTL &= ~USB_OTG_DCTL_SDIS;
1197:stm32f4xx-hal-driver/Src/stm32f4xx_ll_usb.c **** 
1198:stm32f4xx-hal-driver/Src/stm32f4xx_ll_usb.c ****   return HAL_OK;
1199:stm32f4xx-hal-driver/Src/stm32f4xx_ll_usb.c **** }
1200:stm32f4xx-hal-driver/Src/stm32f4xx_ll_usb.c **** 
1201:stm32f4xx-hal-driver/Src/stm32f4xx_ll_usb.c **** /**
1202:stm32f4xx-hal-driver/Src/stm32f4xx_ll_usb.c ****   * @brief  USB_DevDisconnect : Disconnect the USB device by disabling Rpu
1203:stm32f4xx-hal-driver/Src/stm32f4xx_ll_usb.c ****   * @param  USBx  Selected device
1204:stm32f4xx-hal-driver/Src/stm32f4xx_ll_usb.c ****   * @retval HAL status
1205:stm32f4xx-hal-driver/Src/stm32f4xx_ll_usb.c ****   */
1206:stm32f4xx-hal-driver/Src/stm32f4xx_ll_usb.c **** HAL_StatusTypeDef USB_DevDisconnect(const USB_OTG_GlobalTypeDef *USBx)
1207:stm32f4xx-hal-driver/Src/stm32f4xx_ll_usb.c **** {
1208:stm32f4xx-hal-driver/Src/stm32f4xx_ll_usb.c ****   uint32_t USBx_BASE = (uint32_t)USBx;
1209:stm32f4xx-hal-driver/Src/stm32f4xx_ll_usb.c **** 
1210:stm32f4xx-hal-driver/Src/stm32f4xx_ll_usb.c ****   /* In case phy is stopped, ensure to ungate and restore the phy CLK */
1211:stm32f4xx-hal-driver/Src/stm32f4xx_ll_usb.c ****   USBx_PCGCCTL &= ~(USB_OTG_PCGCCTL_STOPCLK | USB_OTG_PCGCCTL_GATECLK);
1212:stm32f4xx-hal-driver/Src/stm32f4xx_ll_usb.c **** 
1213:stm32f4xx-hal-driver/Src/stm32f4xx_ll_usb.c ****   USBx_DEVICE->DCTL |= USB_OTG_DCTL_SDIS;
1214:stm32f4xx-hal-driver/Src/stm32f4xx_ll_usb.c **** 
1215:stm32f4xx-hal-driver/Src/stm32f4xx_ll_usb.c ****   return HAL_OK;
1216:stm32f4xx-hal-driver/Src/stm32f4xx_ll_usb.c **** }
1217:stm32f4xx-hal-driver/Src/stm32f4xx_ll_usb.c **** 
1218:stm32f4xx-hal-driver/Src/stm32f4xx_ll_usb.c **** /**
1219:stm32f4xx-hal-driver/Src/stm32f4xx_ll_usb.c ****   * @brief  USB_ReadInterrupts: return the global USB interrupt status
1220:stm32f4xx-hal-driver/Src/stm32f4xx_ll_usb.c ****   * @param  USBx  Selected device
1221:stm32f4xx-hal-driver/Src/stm32f4xx_ll_usb.c ****   * @retval USB Global Interrupt status
1222:stm32f4xx-hal-driver/Src/stm32f4xx_ll_usb.c ****   */
1223:stm32f4xx-hal-driver/Src/stm32f4xx_ll_usb.c **** uint32_t USB_ReadInterrupts(USB_OTG_GlobalTypeDef const *USBx)
1224:stm32f4xx-hal-driver/Src/stm32f4xx_ll_usb.c **** {
1225:stm32f4xx-hal-driver/Src/stm32f4xx_ll_usb.c ****   uint32_t tmpreg;
1226:stm32f4xx-hal-driver/Src/stm32f4xx_ll_usb.c **** 
1227:stm32f4xx-hal-driver/Src/stm32f4xx_ll_usb.c ****   tmpreg = USBx->GINTSTS;
ARM GAS  /tmp/ccXMuxQe.s 			page 23


1228:stm32f4xx-hal-driver/Src/stm32f4xx_ll_usb.c ****   tmpreg &= USBx->GINTMSK;
1229:stm32f4xx-hal-driver/Src/stm32f4xx_ll_usb.c **** 
1230:stm32f4xx-hal-driver/Src/stm32f4xx_ll_usb.c ****   return tmpreg;
1231:stm32f4xx-hal-driver/Src/stm32f4xx_ll_usb.c **** }
1232:stm32f4xx-hal-driver/Src/stm32f4xx_ll_usb.c **** 
1233:stm32f4xx-hal-driver/Src/stm32f4xx_ll_usb.c **** /**
1234:stm32f4xx-hal-driver/Src/stm32f4xx_ll_usb.c ****   * @brief  USB_ReadChInterrupts: return USB channel interrupt status
1235:stm32f4xx-hal-driver/Src/stm32f4xx_ll_usb.c ****   * @param  USBx  Selected device
1236:stm32f4xx-hal-driver/Src/stm32f4xx_ll_usb.c ****   * @param  chnum Channel number
1237:stm32f4xx-hal-driver/Src/stm32f4xx_ll_usb.c ****   * @retval USB Channel Interrupt status
1238:stm32f4xx-hal-driver/Src/stm32f4xx_ll_usb.c ****   */
1239:stm32f4xx-hal-driver/Src/stm32f4xx_ll_usb.c **** uint32_t USB_ReadChInterrupts(const USB_OTG_GlobalTypeDef *USBx, uint8_t chnum)
1240:stm32f4xx-hal-driver/Src/stm32f4xx_ll_usb.c **** {
1241:stm32f4xx-hal-driver/Src/stm32f4xx_ll_usb.c ****   uint32_t USBx_BASE = (uint32_t)USBx;
1242:stm32f4xx-hal-driver/Src/stm32f4xx_ll_usb.c ****   uint32_t tmpreg;
1243:stm32f4xx-hal-driver/Src/stm32f4xx_ll_usb.c **** 
1244:stm32f4xx-hal-driver/Src/stm32f4xx_ll_usb.c ****   tmpreg = USBx_HC(chnum)->HCINT;
1245:stm32f4xx-hal-driver/Src/stm32f4xx_ll_usb.c ****   tmpreg &= USBx_HC(chnum)->HCINTMSK;
1246:stm32f4xx-hal-driver/Src/stm32f4xx_ll_usb.c **** 
1247:stm32f4xx-hal-driver/Src/stm32f4xx_ll_usb.c ****   return tmpreg;
1248:stm32f4xx-hal-driver/Src/stm32f4xx_ll_usb.c **** }
1249:stm32f4xx-hal-driver/Src/stm32f4xx_ll_usb.c **** 
1250:stm32f4xx-hal-driver/Src/stm32f4xx_ll_usb.c **** /**
1251:stm32f4xx-hal-driver/Src/stm32f4xx_ll_usb.c ****   * @brief  USB_ReadDevAllOutEpInterrupt: return the USB device OUT endpoints interrupt status
1252:stm32f4xx-hal-driver/Src/stm32f4xx_ll_usb.c ****   * @param  USBx  Selected device
1253:stm32f4xx-hal-driver/Src/stm32f4xx_ll_usb.c ****   * @retval USB Device OUT EP interrupt status
1254:stm32f4xx-hal-driver/Src/stm32f4xx_ll_usb.c ****   */
1255:stm32f4xx-hal-driver/Src/stm32f4xx_ll_usb.c **** uint32_t USB_ReadDevAllOutEpInterrupt(const USB_OTG_GlobalTypeDef *USBx)
1256:stm32f4xx-hal-driver/Src/stm32f4xx_ll_usb.c **** {
1257:stm32f4xx-hal-driver/Src/stm32f4xx_ll_usb.c ****   uint32_t USBx_BASE = (uint32_t)USBx;
1258:stm32f4xx-hal-driver/Src/stm32f4xx_ll_usb.c ****   uint32_t tmpreg;
1259:stm32f4xx-hal-driver/Src/stm32f4xx_ll_usb.c **** 
1260:stm32f4xx-hal-driver/Src/stm32f4xx_ll_usb.c ****   tmpreg  = USBx_DEVICE->DAINT;
1261:stm32f4xx-hal-driver/Src/stm32f4xx_ll_usb.c ****   tmpreg &= USBx_DEVICE->DAINTMSK;
1262:stm32f4xx-hal-driver/Src/stm32f4xx_ll_usb.c **** 
1263:stm32f4xx-hal-driver/Src/stm32f4xx_ll_usb.c ****   return ((tmpreg & 0xffff0000U) >> 16);
1264:stm32f4xx-hal-driver/Src/stm32f4xx_ll_usb.c **** }
1265:stm32f4xx-hal-driver/Src/stm32f4xx_ll_usb.c **** 
1266:stm32f4xx-hal-driver/Src/stm32f4xx_ll_usb.c **** /**
1267:stm32f4xx-hal-driver/Src/stm32f4xx_ll_usb.c ****   * @brief  USB_ReadDevAllInEpInterrupt: return the USB device IN endpoints interrupt status
1268:stm32f4xx-hal-driver/Src/stm32f4xx_ll_usb.c ****   * @param  USBx  Selected device
1269:stm32f4xx-hal-driver/Src/stm32f4xx_ll_usb.c ****   * @retval USB Device IN EP interrupt status
1270:stm32f4xx-hal-driver/Src/stm32f4xx_ll_usb.c ****   */
1271:stm32f4xx-hal-driver/Src/stm32f4xx_ll_usb.c **** uint32_t USB_ReadDevAllInEpInterrupt(const USB_OTG_GlobalTypeDef *USBx)
1272:stm32f4xx-hal-driver/Src/stm32f4xx_ll_usb.c **** {
1273:stm32f4xx-hal-driver/Src/stm32f4xx_ll_usb.c ****   uint32_t USBx_BASE = (uint32_t)USBx;
1274:stm32f4xx-hal-driver/Src/stm32f4xx_ll_usb.c ****   uint32_t tmpreg;
1275:stm32f4xx-hal-driver/Src/stm32f4xx_ll_usb.c **** 
1276:stm32f4xx-hal-driver/Src/stm32f4xx_ll_usb.c ****   tmpreg  = USBx_DEVICE->DAINT;
1277:stm32f4xx-hal-driver/Src/stm32f4xx_ll_usb.c ****   tmpreg &= USBx_DEVICE->DAINTMSK;
1278:stm32f4xx-hal-driver/Src/stm32f4xx_ll_usb.c **** 
1279:stm32f4xx-hal-driver/Src/stm32f4xx_ll_usb.c ****   return ((tmpreg & 0xFFFFU));
1280:stm32f4xx-hal-driver/Src/stm32f4xx_ll_usb.c **** }
1281:stm32f4xx-hal-driver/Src/stm32f4xx_ll_usb.c **** 
1282:stm32f4xx-hal-driver/Src/stm32f4xx_ll_usb.c **** /**
1283:stm32f4xx-hal-driver/Src/stm32f4xx_ll_usb.c ****   * @brief  Returns Device OUT EP Interrupt register
1284:stm32f4xx-hal-driver/Src/stm32f4xx_ll_usb.c ****   * @param  USBx  Selected device
ARM GAS  /tmp/ccXMuxQe.s 			page 24


1285:stm32f4xx-hal-driver/Src/stm32f4xx_ll_usb.c ****   * @param  epnum  endpoint number
1286:stm32f4xx-hal-driver/Src/stm32f4xx_ll_usb.c ****   *          This parameter can be a value from 0 to 15
1287:stm32f4xx-hal-driver/Src/stm32f4xx_ll_usb.c ****   * @retval Device OUT EP Interrupt register
1288:stm32f4xx-hal-driver/Src/stm32f4xx_ll_usb.c ****   */
1289:stm32f4xx-hal-driver/Src/stm32f4xx_ll_usb.c **** uint32_t USB_ReadDevOutEPInterrupt(const USB_OTG_GlobalTypeDef *USBx, uint8_t epnum)
1290:stm32f4xx-hal-driver/Src/stm32f4xx_ll_usb.c **** {
1291:stm32f4xx-hal-driver/Src/stm32f4xx_ll_usb.c ****   uint32_t USBx_BASE = (uint32_t)USBx;
1292:stm32f4xx-hal-driver/Src/stm32f4xx_ll_usb.c ****   uint32_t tmpreg;
1293:stm32f4xx-hal-driver/Src/stm32f4xx_ll_usb.c **** 
1294:stm32f4xx-hal-driver/Src/stm32f4xx_ll_usb.c ****   tmpreg  = USBx_OUTEP((uint32_t)epnum)->DOEPINT;
1295:stm32f4xx-hal-driver/Src/stm32f4xx_ll_usb.c ****   tmpreg &= USBx_DEVICE->DOEPMSK;
1296:stm32f4xx-hal-driver/Src/stm32f4xx_ll_usb.c **** 
1297:stm32f4xx-hal-driver/Src/stm32f4xx_ll_usb.c ****   return tmpreg;
1298:stm32f4xx-hal-driver/Src/stm32f4xx_ll_usb.c **** }
1299:stm32f4xx-hal-driver/Src/stm32f4xx_ll_usb.c **** 
1300:stm32f4xx-hal-driver/Src/stm32f4xx_ll_usb.c **** /**
1301:stm32f4xx-hal-driver/Src/stm32f4xx_ll_usb.c ****   * @brief  Returns Device IN EP Interrupt register
1302:stm32f4xx-hal-driver/Src/stm32f4xx_ll_usb.c ****   * @param  USBx  Selected device
1303:stm32f4xx-hal-driver/Src/stm32f4xx_ll_usb.c ****   * @param  epnum  endpoint number
1304:stm32f4xx-hal-driver/Src/stm32f4xx_ll_usb.c ****   *          This parameter can be a value from 0 to 15
1305:stm32f4xx-hal-driver/Src/stm32f4xx_ll_usb.c ****   * @retval Device IN EP Interrupt register
1306:stm32f4xx-hal-driver/Src/stm32f4xx_ll_usb.c ****   */
1307:stm32f4xx-hal-driver/Src/stm32f4xx_ll_usb.c **** uint32_t USB_ReadDevInEPInterrupt(const USB_OTG_GlobalTypeDef *USBx, uint8_t epnum)
1308:stm32f4xx-hal-driver/Src/stm32f4xx_ll_usb.c **** {
1309:stm32f4xx-hal-driver/Src/stm32f4xx_ll_usb.c ****   uint32_t USBx_BASE = (uint32_t)USBx;
1310:stm32f4xx-hal-driver/Src/stm32f4xx_ll_usb.c ****   uint32_t tmpreg;
1311:stm32f4xx-hal-driver/Src/stm32f4xx_ll_usb.c ****   uint32_t msk;
1312:stm32f4xx-hal-driver/Src/stm32f4xx_ll_usb.c ****   uint32_t emp;
1313:stm32f4xx-hal-driver/Src/stm32f4xx_ll_usb.c **** 
1314:stm32f4xx-hal-driver/Src/stm32f4xx_ll_usb.c ****   msk = USBx_DEVICE->DIEPMSK;
1315:stm32f4xx-hal-driver/Src/stm32f4xx_ll_usb.c ****   emp = USBx_DEVICE->DIEPEMPMSK;
1316:stm32f4xx-hal-driver/Src/stm32f4xx_ll_usb.c ****   msk |= ((emp >> (epnum & EP_ADDR_MSK)) & 0x1U) << 7;
1317:stm32f4xx-hal-driver/Src/stm32f4xx_ll_usb.c ****   tmpreg = USBx_INEP((uint32_t)epnum)->DIEPINT & msk;
1318:stm32f4xx-hal-driver/Src/stm32f4xx_ll_usb.c **** 
1319:stm32f4xx-hal-driver/Src/stm32f4xx_ll_usb.c ****   return tmpreg;
1320:stm32f4xx-hal-driver/Src/stm32f4xx_ll_usb.c **** }
1321:stm32f4xx-hal-driver/Src/stm32f4xx_ll_usb.c **** 
1322:stm32f4xx-hal-driver/Src/stm32f4xx_ll_usb.c **** /**
1323:stm32f4xx-hal-driver/Src/stm32f4xx_ll_usb.c ****   * @brief  USB_ClearInterrupts: clear a USB interrupt
1324:stm32f4xx-hal-driver/Src/stm32f4xx_ll_usb.c ****   * @param  USBx  Selected device
1325:stm32f4xx-hal-driver/Src/stm32f4xx_ll_usb.c ****   * @param  interrupt  flag
1326:stm32f4xx-hal-driver/Src/stm32f4xx_ll_usb.c ****   * @retval None
1327:stm32f4xx-hal-driver/Src/stm32f4xx_ll_usb.c ****   */
1328:stm32f4xx-hal-driver/Src/stm32f4xx_ll_usb.c **** void  USB_ClearInterrupts(USB_OTG_GlobalTypeDef *USBx, uint32_t interrupt)
1329:stm32f4xx-hal-driver/Src/stm32f4xx_ll_usb.c **** {
1330:stm32f4xx-hal-driver/Src/stm32f4xx_ll_usb.c ****   USBx->GINTSTS &= interrupt;
1331:stm32f4xx-hal-driver/Src/stm32f4xx_ll_usb.c **** }
1332:stm32f4xx-hal-driver/Src/stm32f4xx_ll_usb.c **** 
1333:stm32f4xx-hal-driver/Src/stm32f4xx_ll_usb.c **** /**
1334:stm32f4xx-hal-driver/Src/stm32f4xx_ll_usb.c ****   * @brief  Returns USB core mode
1335:stm32f4xx-hal-driver/Src/stm32f4xx_ll_usb.c ****   * @param  USBx  Selected device
1336:stm32f4xx-hal-driver/Src/stm32f4xx_ll_usb.c ****   * @retval return core mode : Host or Device
1337:stm32f4xx-hal-driver/Src/stm32f4xx_ll_usb.c ****   *          This parameter can be one of these values:
1338:stm32f4xx-hal-driver/Src/stm32f4xx_ll_usb.c ****   *           1 : Host
1339:stm32f4xx-hal-driver/Src/stm32f4xx_ll_usb.c ****   *           0 : Device
1340:stm32f4xx-hal-driver/Src/stm32f4xx_ll_usb.c ****   */
1341:stm32f4xx-hal-driver/Src/stm32f4xx_ll_usb.c **** uint32_t USB_GetMode(const USB_OTG_GlobalTypeDef *USBx)
ARM GAS  /tmp/ccXMuxQe.s 			page 25


1342:stm32f4xx-hal-driver/Src/stm32f4xx_ll_usb.c **** {
1343:stm32f4xx-hal-driver/Src/stm32f4xx_ll_usb.c ****   return ((USBx->GINTSTS) & 0x1U);
1344:stm32f4xx-hal-driver/Src/stm32f4xx_ll_usb.c **** }
1345:stm32f4xx-hal-driver/Src/stm32f4xx_ll_usb.c **** 
1346:stm32f4xx-hal-driver/Src/stm32f4xx_ll_usb.c **** /**
1347:stm32f4xx-hal-driver/Src/stm32f4xx_ll_usb.c ****   * @brief  Activate EP0 for Setup transactions
1348:stm32f4xx-hal-driver/Src/stm32f4xx_ll_usb.c ****   * @param  USBx  Selected device
1349:stm32f4xx-hal-driver/Src/stm32f4xx_ll_usb.c ****   * @retval HAL status
1350:stm32f4xx-hal-driver/Src/stm32f4xx_ll_usb.c ****   */
1351:stm32f4xx-hal-driver/Src/stm32f4xx_ll_usb.c **** HAL_StatusTypeDef USB_ActivateSetup(const USB_OTG_GlobalTypeDef *USBx)
1352:stm32f4xx-hal-driver/Src/stm32f4xx_ll_usb.c **** {
1353:stm32f4xx-hal-driver/Src/stm32f4xx_ll_usb.c ****   uint32_t USBx_BASE = (uint32_t)USBx;
1354:stm32f4xx-hal-driver/Src/stm32f4xx_ll_usb.c **** 
1355:stm32f4xx-hal-driver/Src/stm32f4xx_ll_usb.c ****   /* Set the MPS of the IN EP0 to 64 bytes */
1356:stm32f4xx-hal-driver/Src/stm32f4xx_ll_usb.c ****   USBx_INEP(0U)->DIEPCTL &= ~USB_OTG_DIEPCTL_MPSIZ;
1357:stm32f4xx-hal-driver/Src/stm32f4xx_ll_usb.c **** 
1358:stm32f4xx-hal-driver/Src/stm32f4xx_ll_usb.c ****   USBx_DEVICE->DCTL |= USB_OTG_DCTL_CGINAK;
1359:stm32f4xx-hal-driver/Src/stm32f4xx_ll_usb.c **** 
1360:stm32f4xx-hal-driver/Src/stm32f4xx_ll_usb.c ****   return HAL_OK;
1361:stm32f4xx-hal-driver/Src/stm32f4xx_ll_usb.c **** }
1362:stm32f4xx-hal-driver/Src/stm32f4xx_ll_usb.c **** 
1363:stm32f4xx-hal-driver/Src/stm32f4xx_ll_usb.c **** /**
1364:stm32f4xx-hal-driver/Src/stm32f4xx_ll_usb.c ****   * @brief  Prepare the EP0 to start the first control setup
1365:stm32f4xx-hal-driver/Src/stm32f4xx_ll_usb.c ****   * @param  USBx  Selected device
1366:stm32f4xx-hal-driver/Src/stm32f4xx_ll_usb.c ****   * @param  dma USB dma enabled or disabled
1367:stm32f4xx-hal-driver/Src/stm32f4xx_ll_usb.c ****   *          This parameter can be one of these values:
1368:stm32f4xx-hal-driver/Src/stm32f4xx_ll_usb.c ****   *           0 : DMA feature not used
1369:stm32f4xx-hal-driver/Src/stm32f4xx_ll_usb.c ****   *           1 : DMA feature used
1370:stm32f4xx-hal-driver/Src/stm32f4xx_ll_usb.c ****   * @param  psetup  pointer to setup packet
1371:stm32f4xx-hal-driver/Src/stm32f4xx_ll_usb.c ****   * @retval HAL status
1372:stm32f4xx-hal-driver/Src/stm32f4xx_ll_usb.c ****   */
1373:stm32f4xx-hal-driver/Src/stm32f4xx_ll_usb.c **** HAL_StatusTypeDef USB_EP0_OutStart(const USB_OTG_GlobalTypeDef *USBx, uint8_t dma, const uint8_t *p
1374:stm32f4xx-hal-driver/Src/stm32f4xx_ll_usb.c **** {
1375:stm32f4xx-hal-driver/Src/stm32f4xx_ll_usb.c ****   uint32_t USBx_BASE = (uint32_t)USBx;
1376:stm32f4xx-hal-driver/Src/stm32f4xx_ll_usb.c ****   uint32_t gSNPSiD = *(__IO const uint32_t *)(&USBx->CID + 0x1U);
1377:stm32f4xx-hal-driver/Src/stm32f4xx_ll_usb.c **** 
1378:stm32f4xx-hal-driver/Src/stm32f4xx_ll_usb.c ****   if (gSNPSiD > USB_OTG_CORE_ID_300A)
1379:stm32f4xx-hal-driver/Src/stm32f4xx_ll_usb.c ****   {
1380:stm32f4xx-hal-driver/Src/stm32f4xx_ll_usb.c ****     if ((USBx_OUTEP(0U)->DOEPCTL & USB_OTG_DOEPCTL_EPENA) == USB_OTG_DOEPCTL_EPENA)
1381:stm32f4xx-hal-driver/Src/stm32f4xx_ll_usb.c ****     {
1382:stm32f4xx-hal-driver/Src/stm32f4xx_ll_usb.c ****       return HAL_OK;
1383:stm32f4xx-hal-driver/Src/stm32f4xx_ll_usb.c ****     }
1384:stm32f4xx-hal-driver/Src/stm32f4xx_ll_usb.c ****   }
1385:stm32f4xx-hal-driver/Src/stm32f4xx_ll_usb.c **** 
1386:stm32f4xx-hal-driver/Src/stm32f4xx_ll_usb.c ****   USBx_OUTEP(0U)->DOEPTSIZ = 0U;
1387:stm32f4xx-hal-driver/Src/stm32f4xx_ll_usb.c ****   USBx_OUTEP(0U)->DOEPTSIZ |= (USB_OTG_DOEPTSIZ_PKTCNT & (1U << 19));
1388:stm32f4xx-hal-driver/Src/stm32f4xx_ll_usb.c ****   USBx_OUTEP(0U)->DOEPTSIZ |= (3U * 8U);
1389:stm32f4xx-hal-driver/Src/stm32f4xx_ll_usb.c ****   USBx_OUTEP(0U)->DOEPTSIZ |=  USB_OTG_DOEPTSIZ_STUPCNT;
1390:stm32f4xx-hal-driver/Src/stm32f4xx_ll_usb.c **** 
1391:stm32f4xx-hal-driver/Src/stm32f4xx_ll_usb.c ****   if (dma == 1U)
1392:stm32f4xx-hal-driver/Src/stm32f4xx_ll_usb.c ****   {
1393:stm32f4xx-hal-driver/Src/stm32f4xx_ll_usb.c ****     USBx_OUTEP(0U)->DOEPDMA = (uint32_t)psetup;
1394:stm32f4xx-hal-driver/Src/stm32f4xx_ll_usb.c ****     /* EP enable */
1395:stm32f4xx-hal-driver/Src/stm32f4xx_ll_usb.c ****     USBx_OUTEP(0U)->DOEPCTL |= USB_OTG_DOEPCTL_EPENA | USB_OTG_DOEPCTL_USBAEP;
1396:stm32f4xx-hal-driver/Src/stm32f4xx_ll_usb.c ****   }
1397:stm32f4xx-hal-driver/Src/stm32f4xx_ll_usb.c **** 
1398:stm32f4xx-hal-driver/Src/stm32f4xx_ll_usb.c ****   return HAL_OK;
ARM GAS  /tmp/ccXMuxQe.s 			page 26


1399:stm32f4xx-hal-driver/Src/stm32f4xx_ll_usb.c **** }
1400:stm32f4xx-hal-driver/Src/stm32f4xx_ll_usb.c **** 
1401:stm32f4xx-hal-driver/Src/stm32f4xx_ll_usb.c **** /**
1402:stm32f4xx-hal-driver/Src/stm32f4xx_ll_usb.c ****   * @brief  Reset the USB Core (needed after USB clock settings change)
1403:stm32f4xx-hal-driver/Src/stm32f4xx_ll_usb.c ****   * @param  USBx  Selected device
1404:stm32f4xx-hal-driver/Src/stm32f4xx_ll_usb.c ****   * @retval HAL status
1405:stm32f4xx-hal-driver/Src/stm32f4xx_ll_usb.c ****   */
1406:stm32f4xx-hal-driver/Src/stm32f4xx_ll_usb.c **** static HAL_StatusTypeDef USB_CoreReset(USB_OTG_GlobalTypeDef *USBx)
1407:stm32f4xx-hal-driver/Src/stm32f4xx_ll_usb.c **** {
  29              		.loc 1 1407 1 view -0
  30              		.cfi_startproc
  31              		@ args = 0, pretend = 0, frame = 8
  32              		@ frame_needed = 0, uses_anonymous_args = 0
  33              		@ link register save eliminated.
  34              		.loc 1 1407 1 is_stmt 0 view .LVU1
  35 0000 82B0     		sub	sp, sp, #8
  36              	.LCFI0:
  37              		.cfi_def_cfa_offset 8
1408:stm32f4xx-hal-driver/Src/stm32f4xx_ll_usb.c ****   __IO uint32_t count = 0U;
  38              		.loc 1 1408 3 is_stmt 1 view .LVU2
  39              		.loc 1 1408 17 is_stmt 0 view .LVU3
  40 0002 0023     		movs	r3, #0
  41 0004 0193     		str	r3, [sp, #4]
  42              	.L3:
1409:stm32f4xx-hal-driver/Src/stm32f4xx_ll_usb.c **** 
1410:stm32f4xx-hal-driver/Src/stm32f4xx_ll_usb.c ****   /* Wait for AHB master IDLE state. */
1411:stm32f4xx-hal-driver/Src/stm32f4xx_ll_usb.c ****   do
  43              		.loc 1 1411 3 is_stmt 1 view .LVU4
1412:stm32f4xx-hal-driver/Src/stm32f4xx_ll_usb.c ****   {
1413:stm32f4xx-hal-driver/Src/stm32f4xx_ll_usb.c ****     count++;
  44              		.loc 1 1413 5 view .LVU5
  45              		.loc 1 1413 10 is_stmt 0 view .LVU6
  46 0006 019B     		ldr	r3, [sp, #4]
  47 0008 0133     		adds	r3, r3, #1
  48 000a 0193     		str	r3, [sp, #4]
1414:stm32f4xx-hal-driver/Src/stm32f4xx_ll_usb.c **** 
1415:stm32f4xx-hal-driver/Src/stm32f4xx_ll_usb.c ****     if (count > HAL_USB_TIMEOUT)
  49              		.loc 1 1415 5 is_stmt 1 view .LVU7
  50              		.loc 1 1415 15 is_stmt 0 view .LVU8
  51 000c 019B     		ldr	r3, [sp, #4]
  52              		.loc 1 1415 8 view .LVU9
  53 000e B3F1706F 		cmp	r3, #251658240
  54 0012 1BD8     		bhi	.L7
1416:stm32f4xx-hal-driver/Src/stm32f4xx_ll_usb.c ****     {
1417:stm32f4xx-hal-driver/Src/stm32f4xx_ll_usb.c ****       return HAL_TIMEOUT;
1418:stm32f4xx-hal-driver/Src/stm32f4xx_ll_usb.c ****     }
1419:stm32f4xx-hal-driver/Src/stm32f4xx_ll_usb.c ****   } while ((USBx->GRSTCTL & USB_OTG_GRSTCTL_AHBIDL) == 0U);
  55              		.loc 1 1419 11 is_stmt 1 view .LVU10
  56              		.loc 1 1419 17 is_stmt 0 view .LVU11
  57 0014 0369     		ldr	r3, [r0, #16]
  58              		.loc 1 1419 3 view .LVU12
  59 0016 002B     		cmp	r3, #0
  60 0018 F5DA     		bge	.L3
1420:stm32f4xx-hal-driver/Src/stm32f4xx_ll_usb.c **** 
1421:stm32f4xx-hal-driver/Src/stm32f4xx_ll_usb.c ****   count = 10U;
  61              		.loc 1 1421 3 is_stmt 1 view .LVU13
  62              		.loc 1 1421 9 is_stmt 0 view .LVU14
ARM GAS  /tmp/ccXMuxQe.s 			page 27


  63 001a 0A23     		movs	r3, #10
  64 001c 0193     		str	r3, [sp, #4]
1422:stm32f4xx-hal-driver/Src/stm32f4xx_ll_usb.c **** 
1423:stm32f4xx-hal-driver/Src/stm32f4xx_ll_usb.c ****   /* few cycles before setting core reset */
1424:stm32f4xx-hal-driver/Src/stm32f4xx_ll_usb.c ****   while (count > 0U)
  65              		.loc 1 1424 3 is_stmt 1 view .LVU15
  66              	.L4:
  67              		.loc 1 1424 9 view .LVU16
  68              		.loc 1 1424 16 is_stmt 0 view .LVU17
  69 001e 019B     		ldr	r3, [sp, #4]
  70              		.loc 1 1424 9 view .LVU18
  71 0020 1BB1     		cbz	r3, .L10
1425:stm32f4xx-hal-driver/Src/stm32f4xx_ll_usb.c ****   {
1426:stm32f4xx-hal-driver/Src/stm32f4xx_ll_usb.c ****     count--;
  72              		.loc 1 1426 5 is_stmt 1 view .LVU19
  73              		.loc 1 1426 10 is_stmt 0 view .LVU20
  74 0022 019B     		ldr	r3, [sp, #4]
  75 0024 013B     		subs	r3, r3, #1
  76 0026 0193     		str	r3, [sp, #4]
  77 0028 F9E7     		b	.L4
  78              	.L10:
1427:stm32f4xx-hal-driver/Src/stm32f4xx_ll_usb.c ****   }
1428:stm32f4xx-hal-driver/Src/stm32f4xx_ll_usb.c **** 
1429:stm32f4xx-hal-driver/Src/stm32f4xx_ll_usb.c ****   /* Core Soft Reset */
1430:stm32f4xx-hal-driver/Src/stm32f4xx_ll_usb.c ****   USBx->GRSTCTL |= USB_OTG_GRSTCTL_CSRST;
  79              		.loc 1 1430 3 is_stmt 1 view .LVU21
  80              		.loc 1 1430 17 is_stmt 0 view .LVU22
  81 002a 0369     		ldr	r3, [r0, #16]
  82 002c 43F00103 		orr	r3, r3, #1
  83 0030 0361     		str	r3, [r0, #16]
  84              	.L6:
1431:stm32f4xx-hal-driver/Src/stm32f4xx_ll_usb.c **** 
1432:stm32f4xx-hal-driver/Src/stm32f4xx_ll_usb.c ****   do
  85              		.loc 1 1432 3 is_stmt 1 view .LVU23
1433:stm32f4xx-hal-driver/Src/stm32f4xx_ll_usb.c ****   {
1434:stm32f4xx-hal-driver/Src/stm32f4xx_ll_usb.c ****     count++;
  86              		.loc 1 1434 5 view .LVU24
  87              		.loc 1 1434 10 is_stmt 0 view .LVU25
  88 0032 019B     		ldr	r3, [sp, #4]
  89 0034 0133     		adds	r3, r3, #1
  90 0036 0193     		str	r3, [sp, #4]
1435:stm32f4xx-hal-driver/Src/stm32f4xx_ll_usb.c **** 
1436:stm32f4xx-hal-driver/Src/stm32f4xx_ll_usb.c ****     if (count > HAL_USB_TIMEOUT)
  91              		.loc 1 1436 5 is_stmt 1 view .LVU26
  92              		.loc 1 1436 15 is_stmt 0 view .LVU27
  93 0038 019B     		ldr	r3, [sp, #4]
  94              		.loc 1 1436 8 view .LVU28
  95 003a B3F1706F 		cmp	r3, #251658240
  96 003e 08D8     		bhi	.L8
1437:stm32f4xx-hal-driver/Src/stm32f4xx_ll_usb.c ****     {
1438:stm32f4xx-hal-driver/Src/stm32f4xx_ll_usb.c ****       return HAL_TIMEOUT;
1439:stm32f4xx-hal-driver/Src/stm32f4xx_ll_usb.c ****     }
1440:stm32f4xx-hal-driver/Src/stm32f4xx_ll_usb.c ****   } while ((USBx->GRSTCTL & USB_OTG_GRSTCTL_CSRST) == USB_OTG_GRSTCTL_CSRST);
  97              		.loc 1 1440 11 is_stmt 1 view .LVU29
  98              		.loc 1 1440 17 is_stmt 0 view .LVU30
  99 0040 0369     		ldr	r3, [r0, #16]
 100              		.loc 1 1440 3 view .LVU31
ARM GAS  /tmp/ccXMuxQe.s 			page 28


 101 0042 13F0010F 		tst	r3, #1
 102 0046 F4D1     		bne	.L6
1441:stm32f4xx-hal-driver/Src/stm32f4xx_ll_usb.c **** 
1442:stm32f4xx-hal-driver/Src/stm32f4xx_ll_usb.c ****   return HAL_OK;
 103              		.loc 1 1442 10 view .LVU32
 104 0048 0020     		movs	r0, #0
 105              	.LVL1:
 106              		.loc 1 1442 10 view .LVU33
 107 004a 00E0     		b	.L2
 108              	.LVL2:
 109              	.L7:
1417:stm32f4xx-hal-driver/Src/stm32f4xx_ll_usb.c ****     }
 110              		.loc 1 1417 14 view .LVU34
 111 004c 0320     		movs	r0, #3
 112              	.LVL3:
 113              	.L2:
1443:stm32f4xx-hal-driver/Src/stm32f4xx_ll_usb.c **** }
 114              		.loc 1 1443 1 view .LVU35
 115 004e 02B0     		add	sp, sp, #8
 116              	.LCFI1:
 117              		.cfi_remember_state
 118              		.cfi_def_cfa_offset 0
 119              		@ sp needed
 120 0050 7047     		bx	lr
 121              	.LVL4:
 122              	.L8:
 123              	.LCFI2:
 124              		.cfi_restore_state
1438:stm32f4xx-hal-driver/Src/stm32f4xx_ll_usb.c ****     }
 125              		.loc 1 1438 14 view .LVU36
 126 0052 0320     		movs	r0, #3
 127              	.LVL5:
1438:stm32f4xx-hal-driver/Src/stm32f4xx_ll_usb.c ****     }
 128              		.loc 1 1438 14 view .LVU37
 129 0054 FBE7     		b	.L2
 130              		.cfi_endproc
 131              	.LFE273:
 133              		.section	.text.USB_CoreInit,"ax",%progbits
 134              		.align	1
 135              		.global	USB_CoreInit
 136              		.syntax unified
 137              		.thumb
 138              		.thumb_func
 139              		.fpu fpv4-sp-d16
 141              	USB_CoreInit:
 142              	.LVL6:
 143              	.LFB239:
  84:stm32f4xx-hal-driver/Src/stm32f4xx_ll_usb.c ****   HAL_StatusTypeDef ret;
 144              		.loc 1 84 1 is_stmt 1 view -0
 145              		.cfi_startproc
 146              		@ args = 20, pretend = 16, frame = 0
 147              		@ frame_needed = 0, uses_anonymous_args = 0
  84:stm32f4xx-hal-driver/Src/stm32f4xx_ll_usb.c ****   HAL_StatusTypeDef ret;
 148              		.loc 1 84 1 is_stmt 0 view .LVU39
 149 0000 84B0     		sub	sp, sp, #16
 150              	.LCFI3:
 151              		.cfi_def_cfa_offset 16
ARM GAS  /tmp/ccXMuxQe.s 			page 29


 152 0002 10B5     		push	{r4, lr}
 153              	.LCFI4:
 154              		.cfi_def_cfa_offset 24
 155              		.cfi_offset 4, -24
 156              		.cfi_offset 14, -20
 157 0004 0446     		mov	r4, r0
 158 0006 03A8     		add	r0, sp, #12
 159              	.LVL7:
  84:stm32f4xx-hal-driver/Src/stm32f4xx_ll_usb.c ****   HAL_StatusTypeDef ret;
 160              		.loc 1 84 1 view .LVU40
 161 0008 80E80E00 		stm	r0, {r1, r2, r3}
  85:stm32f4xx-hal-driver/Src/stm32f4xx_ll_usb.c ****   if (cfg.phy_itface == USB_OTG_ULPI_PHY)
 162              		.loc 1 85 3 is_stmt 1 view .LVU41
  86:stm32f4xx-hal-driver/Src/stm32f4xx_ll_usb.c ****   {
 163              		.loc 1 86 3 view .LVU42
  86:stm32f4xx-hal-driver/Src/stm32f4xx_ll_usb.c ****   {
 164              		.loc 1 86 10 is_stmt 0 view .LVU43
 165 000c 9DF81130 		ldrb	r3, [sp, #17]	@ zero_extendqisi2
  86:stm32f4xx-hal-driver/Src/stm32f4xx_ll_usb.c ****   {
 166              		.loc 1 86 6 view .LVU44
 167 0010 012B     		cmp	r3, #1
 168 0012 21D1     		bne	.L12
  88:stm32f4xx-hal-driver/Src/stm32f4xx_ll_usb.c **** 
 169              		.loc 1 88 5 is_stmt 1 view .LVU45
  88:stm32f4xx-hal-driver/Src/stm32f4xx_ll_usb.c **** 
 170              		.loc 1 88 17 is_stmt 0 view .LVU46
 171 0014 A36B     		ldr	r3, [r4, #56]
 172 0016 23F48033 		bic	r3, r3, #65536
 173 001a A363     		str	r3, [r4, #56]
  91:stm32f4xx-hal-driver/Src/stm32f4xx_ll_usb.c **** 
 174              		.loc 1 91 5 is_stmt 1 view .LVU47
  91:stm32f4xx-hal-driver/Src/stm32f4xx_ll_usb.c **** 
 175              		.loc 1 91 19 is_stmt 0 view .LVU48
 176 001c E368     		ldr	r3, [r4, #12]
 177 001e 23F48403 		bic	r3, r3, #4325376
 178 0022 23F04003 		bic	r3, r3, #64
 179 0026 E360     		str	r3, [r4, #12]
  94:stm32f4xx-hal-driver/Src/stm32f4xx_ll_usb.c ****     if (cfg.use_external_vbus == 1U)
 180              		.loc 1 94 5 is_stmt 1 view .LVU49
  94:stm32f4xx-hal-driver/Src/stm32f4xx_ll_usb.c ****     if (cfg.use_external_vbus == 1U)
 181              		.loc 1 94 19 is_stmt 0 view .LVU50
 182 0028 E368     		ldr	r3, [r4, #12]
 183 002a 23F44013 		bic	r3, r3, #3145728
 184 002e E360     		str	r3, [r4, #12]
  95:stm32f4xx-hal-driver/Src/stm32f4xx_ll_usb.c ****     {
 185              		.loc 1 95 5 is_stmt 1 view .LVU51
  95:stm32f4xx-hal-driver/Src/stm32f4xx_ll_usb.c ****     {
 186              		.loc 1 95 12 is_stmt 0 view .LVU52
 187 0030 9DF81830 		ldrb	r3, [sp, #24]	@ zero_extendqisi2
  95:stm32f4xx-hal-driver/Src/stm32f4xx_ll_usb.c ****     {
 188              		.loc 1 95 8 view .LVU53
 189 0034 012B     		cmp	r3, #1
 190 0036 0AD0     		beq	.L18
 191              	.L13:
 101:stm32f4xx-hal-driver/Src/stm32f4xx_ll_usb.c ****   }
 192              		.loc 1 101 5 is_stmt 1 view .LVU54
 101:stm32f4xx-hal-driver/Src/stm32f4xx_ll_usb.c ****   }
ARM GAS  /tmp/ccXMuxQe.s 			page 30


 193              		.loc 1 101 11 is_stmt 0 view .LVU55
 194 0038 2046     		mov	r0, r4
 195 003a FFF7FEFF 		bl	USB_CoreReset
 196              	.LVL8:
 197              	.L14:
 123:stm32f4xx-hal-driver/Src/stm32f4xx_ll_usb.c ****   {
 198              		.loc 1 123 3 is_stmt 1 view .LVU56
 123:stm32f4xx-hal-driver/Src/stm32f4xx_ll_usb.c ****   {
 199              		.loc 1 123 10 is_stmt 0 view .LVU57
 200 003e 9DF80E30 		ldrb	r3, [sp, #14]	@ zero_extendqisi2
 123:stm32f4xx-hal-driver/Src/stm32f4xx_ll_usb.c ****   {
 201              		.loc 1 123 6 view .LVU58
 202 0042 012B     		cmp	r3, #1
 203 0044 1CD0     		beq	.L19
 204              	.L16:
 129:stm32f4xx-hal-driver/Src/stm32f4xx_ll_usb.c **** }
 205              		.loc 1 129 3 is_stmt 1 view .LVU59
 130:stm32f4xx-hal-driver/Src/stm32f4xx_ll_usb.c **** 
 206              		.loc 1 130 1 is_stmt 0 view .LVU60
 207 0046 BDE81040 		pop	{r4, lr}
 208              	.LCFI5:
 209              		.cfi_remember_state
 210              		.cfi_restore 14
 211              		.cfi_restore 4
 212              		.cfi_def_cfa_offset 16
 213              	.LVL9:
 130:stm32f4xx-hal-driver/Src/stm32f4xx_ll_usb.c **** 
 214              		.loc 1 130 1 view .LVU61
 215 004a 04B0     		add	sp, sp, #16
 216              	.LCFI6:
 217              		.cfi_def_cfa_offset 0
 218 004c 7047     		bx	lr
 219              	.LVL10:
 220              	.L18:
 221              	.LCFI7:
 222              		.cfi_restore_state
  97:stm32f4xx-hal-driver/Src/stm32f4xx_ll_usb.c ****     }
 223              		.loc 1 97 7 is_stmt 1 view .LVU62
  97:stm32f4xx-hal-driver/Src/stm32f4xx_ll_usb.c ****     }
 224              		.loc 1 97 21 is_stmt 0 view .LVU63
 225 004e E368     		ldr	r3, [r4, #12]
 226 0050 43F48013 		orr	r3, r3, #1048576
 227 0054 E360     		str	r3, [r4, #12]
 228 0056 EFE7     		b	.L13
 229              	.L12:
 106:stm32f4xx-hal-driver/Src/stm32f4xx_ll_usb.c **** 
 230              		.loc 1 106 5 is_stmt 1 view .LVU64
 106:stm32f4xx-hal-driver/Src/stm32f4xx_ll_usb.c **** 
 231              		.loc 1 106 19 is_stmt 0 view .LVU65
 232 0058 E368     		ldr	r3, [r4, #12]
 233 005a 43F04003 		orr	r3, r3, #64
 234 005e E360     		str	r3, [r4, #12]
 109:stm32f4xx-hal-driver/Src/stm32f4xx_ll_usb.c **** 
 235              		.loc 1 109 5 is_stmt 1 view .LVU66
 109:stm32f4xx-hal-driver/Src/stm32f4xx_ll_usb.c **** 
 236              		.loc 1 109 11 is_stmt 0 view .LVU67
 237 0060 2046     		mov	r0, r4
ARM GAS  /tmp/ccXMuxQe.s 			page 31


 238 0062 FFF7FEFF 		bl	USB_CoreReset
 239              	.LVL11:
 111:stm32f4xx-hal-driver/Src/stm32f4xx_ll_usb.c ****     {
 240              		.loc 1 111 5 is_stmt 1 view .LVU68
 111:stm32f4xx-hal-driver/Src/stm32f4xx_ll_usb.c ****     {
 241              		.loc 1 111 12 is_stmt 0 view .LVU69
 242 0066 9DF81530 		ldrb	r3, [sp, #21]	@ zero_extendqisi2
 111:stm32f4xx-hal-driver/Src/stm32f4xx_ll_usb.c ****     {
 243              		.loc 1 111 8 view .LVU70
 244 006a 23B9     		cbnz	r3, .L15
 114:stm32f4xx-hal-driver/Src/stm32f4xx_ll_usb.c ****     }
 245              		.loc 1 114 7 is_stmt 1 view .LVU71
 114:stm32f4xx-hal-driver/Src/stm32f4xx_ll_usb.c ****     }
 246              		.loc 1 114 19 is_stmt 0 view .LVU72
 247 006c A36B     		ldr	r3, [r4, #56]
 248 006e 43F48033 		orr	r3, r3, #65536
 249 0072 A363     		str	r3, [r4, #56]
 250 0074 E3E7     		b	.L14
 251              	.L15:
 119:stm32f4xx-hal-driver/Src/stm32f4xx_ll_usb.c ****     }
 252              		.loc 1 119 7 is_stmt 1 view .LVU73
 119:stm32f4xx-hal-driver/Src/stm32f4xx_ll_usb.c ****     }
 253              		.loc 1 119 19 is_stmt 0 view .LVU74
 254 0076 A36B     		ldr	r3, [r4, #56]
 255 0078 23F48033 		bic	r3, r3, #65536
 256 007c A363     		str	r3, [r4, #56]
 257 007e DEE7     		b	.L14
 258              	.L19:
 125:stm32f4xx-hal-driver/Src/stm32f4xx_ll_usb.c ****     USBx->GAHBCFG |= USB_OTG_GAHBCFG_DMAEN;
 259              		.loc 1 125 5 is_stmt 1 view .LVU75
 125:stm32f4xx-hal-driver/Src/stm32f4xx_ll_usb.c ****     USBx->GAHBCFG |= USB_OTG_GAHBCFG_DMAEN;
 260              		.loc 1 125 19 is_stmt 0 view .LVU76
 261 0080 A368     		ldr	r3, [r4, #8]
 262 0082 43F00603 		orr	r3, r3, #6
 263 0086 A360     		str	r3, [r4, #8]
 126:stm32f4xx-hal-driver/Src/stm32f4xx_ll_usb.c ****   }
 264              		.loc 1 126 5 is_stmt 1 view .LVU77
 126:stm32f4xx-hal-driver/Src/stm32f4xx_ll_usb.c ****   }
 265              		.loc 1 126 19 is_stmt 0 view .LVU78
 266 0088 A368     		ldr	r3, [r4, #8]
 267 008a 43F02003 		orr	r3, r3, #32
 268 008e A360     		str	r3, [r4, #8]
 269 0090 D9E7     		b	.L16
 270              		.cfi_endproc
 271              	.LFE239:
 273              		.section	.text.USB_SetTurnaroundTime,"ax",%progbits
 274              		.align	1
 275              		.global	USB_SetTurnaroundTime
 276              		.syntax unified
 277              		.thumb
 278              		.thumb_func
 279              		.fpu fpv4-sp-d16
 281              	USB_SetTurnaroundTime:
 282              	.LVL12:
 283              	.LFB240:
 141:stm32f4xx-hal-driver/Src/stm32f4xx_ll_usb.c ****   uint32_t UsbTrd;
 284              		.loc 1 141 1 is_stmt 1 view -0
ARM GAS  /tmp/ccXMuxQe.s 			page 32


 285              		.cfi_startproc
 286              		@ args = 0, pretend = 0, frame = 0
 287              		@ frame_needed = 0, uses_anonymous_args = 0
 288              		@ link register save eliminated.
 142:stm32f4xx-hal-driver/Src/stm32f4xx_ll_usb.c **** 
 289              		.loc 1 142 3 view .LVU80
 148:stm32f4xx-hal-driver/Src/stm32f4xx_ll_usb.c ****   {
 290              		.loc 1 148 3 view .LVU81
 148:stm32f4xx-hal-driver/Src/stm32f4xx_ll_usb.c ****   {
 291              		.loc 1 148 6 is_stmt 0 view .LVU82
 292 0000 022A     		cmp	r2, #2
 293 0002 0AD0     		beq	.L32
 203:stm32f4xx-hal-driver/Src/stm32f4xx_ll_usb.c ****   }
 294              		.loc 1 203 12 view .LVU83
 295 0004 0921     		movs	r1, #9
 296              	.LVL13:
 297              	.L21:
 210:stm32f4xx-hal-driver/Src/stm32f4xx_ll_usb.c ****   USBx->GUSBCFG |= (uint32_t)((UsbTrd << 10) & USB_OTG_GUSBCFG_TRDT);
 298              		.loc 1 210 3 is_stmt 1 view .LVU84
 210:stm32f4xx-hal-driver/Src/stm32f4xx_ll_usb.c ****   USBx->GUSBCFG |= (uint32_t)((UsbTrd << 10) & USB_OTG_GUSBCFG_TRDT);
 299              		.loc 1 210 17 is_stmt 0 view .LVU85
 300 0006 C268     		ldr	r2, [r0, #12]
 301 0008 22F47052 		bic	r2, r2, #15360
 302 000c C260     		str	r2, [r0, #12]
 211:stm32f4xx-hal-driver/Src/stm32f4xx_ll_usb.c **** 
 303              		.loc 1 211 3 is_stmt 1 view .LVU86
 211:stm32f4xx-hal-driver/Src/stm32f4xx_ll_usb.c **** 
 304              		.loc 1 211 17 is_stmt 0 view .LVU87
 305 000e C368     		ldr	r3, [r0, #12]
 306 0010 43EA8123 		orr	r3, r3, r1, lsl #10
 307 0014 C360     		str	r3, [r0, #12]
 213:stm32f4xx-hal-driver/Src/stm32f4xx_ll_usb.c **** }
 308              		.loc 1 213 3 is_stmt 1 view .LVU88
 214:stm32f4xx-hal-driver/Src/stm32f4xx_ll_usb.c **** 
 309              		.loc 1 214 1 is_stmt 0 view .LVU89
 310 0016 0020     		movs	r0, #0
 311              	.LVL14:
 214:stm32f4xx-hal-driver/Src/stm32f4xx_ll_usb.c **** 
 312              		.loc 1 214 1 view .LVU90
 313 0018 7047     		bx	lr
 314              	.LVL15:
 315              	.L32:
 150:stm32f4xx-hal-driver/Src/stm32f4xx_ll_usb.c ****     {
 316              		.loc 1 150 5 is_stmt 1 view .LVU91
 150:stm32f4xx-hal-driver/Src/stm32f4xx_ll_usb.c ****     {
 317              		.loc 1 150 29 is_stmt 0 view .LVU92
 318 001a 234B     		ldr	r3, .L33
 319 001c 0B44     		add	r3, r3, r1
 150:stm32f4xx-hal-driver/Src/stm32f4xx_ll_usb.c ****     {
 320              		.loc 1 150 8 view .LVU93
 321 001e 234A     		ldr	r2, .L33+4
 322              	.LVL16:
 150:stm32f4xx-hal-driver/Src/stm32f4xx_ll_usb.c ****     {
 323              		.loc 1 150 8 view .LVU94
 324 0020 9342     		cmp	r3, r2
 325 0022 2FD9     		bls	.L23
 155:stm32f4xx-hal-driver/Src/stm32f4xx_ll_usb.c ****     {
ARM GAS  /tmp/ccXMuxQe.s 			page 33


 326              		.loc 1 155 10 is_stmt 1 view .LVU95
 155:stm32f4xx-hal-driver/Src/stm32f4xx_ll_usb.c ****     {
 327              		.loc 1 155 34 is_stmt 0 view .LVU96
 328 0024 224B     		ldr	r3, .L33+8
 329 0026 0B44     		add	r3, r3, r1
 155:stm32f4xx-hal-driver/Src/stm32f4xx_ll_usb.c ****     {
 330              		.loc 1 155 13 view .LVU97
 331 0028 224A     		ldr	r2, .L33+12
 332 002a 9342     		cmp	r3, r2
 333 002c 2CD9     		bls	.L24
 160:stm32f4xx-hal-driver/Src/stm32f4xx_ll_usb.c ****     {
 334              		.loc 1 160 10 is_stmt 1 view .LVU98
 160:stm32f4xx-hal-driver/Src/stm32f4xx_ll_usb.c ****     {
 335              		.loc 1 160 34 is_stmt 0 view .LVU99
 336 002e A1F57403 		sub	r3, r1, #15990784
 337 0032 A3F51053 		sub	r3, r3, #9216
 160:stm32f4xx-hal-driver/Src/stm32f4xx_ll_usb.c ****     {
 338              		.loc 1 160 13 view .LVU100
 339 0036 204A     		ldr	r2, .L33+16
 340 0038 9342     		cmp	r3, r2
 341 003a 27D9     		bls	.L25
 165:stm32f4xx-hal-driver/Src/stm32f4xx_ll_usb.c ****     {
 342              		.loc 1 165 10 is_stmt 1 view .LVU101
 165:stm32f4xx-hal-driver/Src/stm32f4xx_ll_usb.c ****     {
 343              		.loc 1 165 34 is_stmt 0 view .LVU102
 344 003c A1F18373 		sub	r3, r1, #17170432
 345 0040 A3F5E743 		sub	r3, r3, #29568
 165:stm32f4xx-hal-driver/Src/stm32f4xx_ll_usb.c ****     {
 346              		.loc 1 165 13 view .LVU103
 347 0044 1D4A     		ldr	r2, .L33+20
 348 0046 9342     		cmp	r3, r2
 349 0048 22D3     		bcc	.L26
 170:stm32f4xx-hal-driver/Src/stm32f4xx_ll_usb.c ****     {
 350              		.loc 1 170 10 is_stmt 1 view .LVU104
 170:stm32f4xx-hal-driver/Src/stm32f4xx_ll_usb.c ****     {
 351              		.loc 1 170 34 is_stmt 0 view .LVU105
 352 004a 1D4B     		ldr	r3, .L33+24
 353 004c 0B44     		add	r3, r3, r1
 170:stm32f4xx-hal-driver/Src/stm32f4xx_ll_usb.c ****     {
 354              		.loc 1 170 13 view .LVU106
 355 004e 1D4A     		ldr	r2, .L33+28
 356 0050 9342     		cmp	r3, r2
 357 0052 1FD9     		bls	.L27
 175:stm32f4xx-hal-driver/Src/stm32f4xx_ll_usb.c ****     {
 358              		.loc 1 175 10 is_stmt 1 view .LVU107
 175:stm32f4xx-hal-driver/Src/stm32f4xx_ll_usb.c ****     {
 359              		.loc 1 175 34 is_stmt 0 view .LVU108
 360 0054 1C4B     		ldr	r3, .L33+32
 361 0056 0B44     		add	r3, r3, r1
 175:stm32f4xx-hal-driver/Src/stm32f4xx_ll_usb.c ****     {
 362              		.loc 1 175 13 view .LVU109
 363 0058 1C4A     		ldr	r2, .L33+36
 364 005a 9342     		cmp	r3, r2
 365 005c 1CD3     		bcc	.L28
 180:stm32f4xx-hal-driver/Src/stm32f4xx_ll_usb.c ****     {
 366              		.loc 1 180 10 is_stmt 1 view .LVU110
 180:stm32f4xx-hal-driver/Src/stm32f4xx_ll_usb.c ****     {
ARM GAS  /tmp/ccXMuxQe.s 			page 34


 367              		.loc 1 180 34 is_stmt 0 view .LVU111
 368 005e 1C4B     		ldr	r3, .L33+40
 369 0060 0B44     		add	r3, r3, r1
 180:stm32f4xx-hal-driver/Src/stm32f4xx_ll_usb.c ****     {
 370              		.loc 1 180 13 view .LVU112
 371 0062 1C4A     		ldr	r2, .L33+44
 372 0064 9342     		cmp	r3, r2
 373 0066 19D3     		bcc	.L29
 185:stm32f4xx-hal-driver/Src/stm32f4xx_ll_usb.c ****     {
 374              		.loc 1 185 10 is_stmt 1 view .LVU113
 185:stm32f4xx-hal-driver/Src/stm32f4xx_ll_usb.c ****     {
 375              		.loc 1 185 34 is_stmt 0 view .LVU114
 376 0068 A1F1B773 		sub	r3, r1, #23986176
 377 006c A3F55853 		sub	r3, r3, #13824
 185:stm32f4xx-hal-driver/Src/stm32f4xx_ll_usb.c ****     {
 378              		.loc 1 185 13 view .LVU115
 379 0070 194A     		ldr	r2, .L33+48
 380 0072 9342     		cmp	r3, r2
 381 0074 14D3     		bcc	.L30
 190:stm32f4xx-hal-driver/Src/stm32f4xx_ll_usb.c ****     {
 382              		.loc 1 190 10 is_stmt 1 view .LVU116
 190:stm32f4xx-hal-driver/Src/stm32f4xx_ll_usb.c ****     {
 383              		.loc 1 190 34 is_stmt 0 view .LVU117
 384 0076 194B     		ldr	r3, .L33+52
 385 0078 0B44     		add	r3, r3, r1
 190:stm32f4xx-hal-driver/Src/stm32f4xx_ll_usb.c ****     {
 386              		.loc 1 190 13 view .LVU118
 387 007a 194A     		ldr	r2, .L33+56
 388 007c 9342     		cmp	r3, r2
 389 007e 11D2     		bcs	.L31
 193:stm32f4xx-hal-driver/Src/stm32f4xx_ll_usb.c ****     }
 390              		.loc 1 193 14 view .LVU119
 391 0080 0721     		movs	r1, #7
 392              	.LVL17:
 193:stm32f4xx-hal-driver/Src/stm32f4xx_ll_usb.c ****     }
 393              		.loc 1 193 14 view .LVU120
 394 0082 C0E7     		b	.L21
 395              	.LVL18:
 396              	.L23:
 153:stm32f4xx-hal-driver/Src/stm32f4xx_ll_usb.c ****     }
 397              		.loc 1 153 14 view .LVU121
 398 0084 0F21     		movs	r1, #15
 399              	.LVL19:
 153:stm32f4xx-hal-driver/Src/stm32f4xx_ll_usb.c ****     }
 400              		.loc 1 153 14 view .LVU122
 401 0086 BEE7     		b	.L21
 402              	.LVL20:
 403              	.L24:
 158:stm32f4xx-hal-driver/Src/stm32f4xx_ll_usb.c ****     }
 404              		.loc 1 158 14 view .LVU123
 405 0088 0E21     		movs	r1, #14
 406              	.LVL21:
 158:stm32f4xx-hal-driver/Src/stm32f4xx_ll_usb.c ****     }
 407              		.loc 1 158 14 view .LVU124
 408 008a BCE7     		b	.L21
 409              	.LVL22:
 410              	.L25:
ARM GAS  /tmp/ccXMuxQe.s 			page 35


 163:stm32f4xx-hal-driver/Src/stm32f4xx_ll_usb.c ****     }
 411              		.loc 1 163 14 view .LVU125
 412 008c 0D21     		movs	r1, #13
 413              	.LVL23:
 163:stm32f4xx-hal-driver/Src/stm32f4xx_ll_usb.c ****     }
 414              		.loc 1 163 14 view .LVU126
 415 008e BAE7     		b	.L21
 416              	.LVL24:
 417              	.L26:
 168:stm32f4xx-hal-driver/Src/stm32f4xx_ll_usb.c ****     }
 418              		.loc 1 168 14 view .LVU127
 419 0090 0C21     		movs	r1, #12
 420              	.LVL25:
 168:stm32f4xx-hal-driver/Src/stm32f4xx_ll_usb.c ****     }
 421              		.loc 1 168 14 view .LVU128
 422 0092 B8E7     		b	.L21
 423              	.LVL26:
 424              	.L27:
 173:stm32f4xx-hal-driver/Src/stm32f4xx_ll_usb.c ****     }
 425              		.loc 1 173 14 view .LVU129
 426 0094 0B21     		movs	r1, #11
 427              	.LVL27:
 173:stm32f4xx-hal-driver/Src/stm32f4xx_ll_usb.c ****     }
 428              		.loc 1 173 14 view .LVU130
 429 0096 B6E7     		b	.L21
 430              	.LVL28:
 431              	.L28:
 178:stm32f4xx-hal-driver/Src/stm32f4xx_ll_usb.c ****     }
 432              		.loc 1 178 14 view .LVU131
 433 0098 0A21     		movs	r1, #10
 434              	.LVL29:
 178:stm32f4xx-hal-driver/Src/stm32f4xx_ll_usb.c ****     }
 435              		.loc 1 178 14 view .LVU132
 436 009a B4E7     		b	.L21
 437              	.LVL30:
 438              	.L29:
 183:stm32f4xx-hal-driver/Src/stm32f4xx_ll_usb.c ****     }
 439              		.loc 1 183 14 view .LVU133
 440 009c 0921     		movs	r1, #9
 441              	.LVL31:
 183:stm32f4xx-hal-driver/Src/stm32f4xx_ll_usb.c ****     }
 442              		.loc 1 183 14 view .LVU134
 443 009e B2E7     		b	.L21
 444              	.LVL32:
 445              	.L30:
 188:stm32f4xx-hal-driver/Src/stm32f4xx_ll_usb.c ****     }
 446              		.loc 1 188 14 view .LVU135
 447 00a0 0821     		movs	r1, #8
 448              	.LVL33:
 188:stm32f4xx-hal-driver/Src/stm32f4xx_ll_usb.c ****     }
 449              		.loc 1 188 14 view .LVU136
 450 00a2 B0E7     		b	.L21
 451              	.LVL34:
 452              	.L31:
 198:stm32f4xx-hal-driver/Src/stm32f4xx_ll_usb.c ****     }
 453              		.loc 1 198 14 view .LVU137
 454 00a4 0621     		movs	r1, #6
ARM GAS  /tmp/ccXMuxQe.s 			page 36


 455              	.LVL35:
 198:stm32f4xx-hal-driver/Src/stm32f4xx_ll_usb.c ****     }
 456              		.loc 1 198 14 view .LVU138
 457 00a6 AEE7     		b	.L21
 458              	.L34:
 459              		.align	2
 460              	.L33:
 461 00a8 405327FF 		.word	-14200000
 462 00ac FF340C00 		.word	799999
 463 00b0 401E1BFF 		.word	-15000000
 464 00b4 3F420F00 		.word	999999
 465 00b8 7F4F1200 		.word	1199999
 466 00bc 20D61300 		.word	1300000
 467 00c0 60B6E5FE 		.word	-18500000
 468 00c4 5FE31600 		.word	1499999
 469 00c8 00D3CEFE 		.word	-20000000
 470 00cc 40771B00 		.word	1800000
 471 00d0 C05BB3FE 		.word	-21800000
 472 00d4 C0912100 		.word	2200000
 473 00d8 20753800 		.word	3700000
 474 00dc E05459FE 		.word	-27700000
 475 00e0 E09C4100 		.word	4300000
 476              		.cfi_endproc
 477              	.LFE240:
 479              		.section	.text.USB_EnableGlobalInt,"ax",%progbits
 480              		.align	1
 481              		.global	USB_EnableGlobalInt
 482              		.syntax unified
 483              		.thumb
 484              		.thumb_func
 485              		.fpu fpv4-sp-d16
 487              	USB_EnableGlobalInt:
 488              	.LVL36:
 489              	.LFB241:
 223:stm32f4xx-hal-driver/Src/stm32f4xx_ll_usb.c ****   USBx->GAHBCFG |= USB_OTG_GAHBCFG_GINT;
 490              		.loc 1 223 1 is_stmt 1 view -0
 491              		.cfi_startproc
 492              		@ args = 0, pretend = 0, frame = 0
 493              		@ frame_needed = 0, uses_anonymous_args = 0
 494              		@ link register save eliminated.
 224:stm32f4xx-hal-driver/Src/stm32f4xx_ll_usb.c ****   return HAL_OK;
 495              		.loc 1 224 3 view .LVU140
 224:stm32f4xx-hal-driver/Src/stm32f4xx_ll_usb.c ****   return HAL_OK;
 496              		.loc 1 224 17 is_stmt 0 view .LVU141
 497 0000 8368     		ldr	r3, [r0, #8]
 498 0002 43F00103 		orr	r3, r3, #1
 499 0006 8360     		str	r3, [r0, #8]
 225:stm32f4xx-hal-driver/Src/stm32f4xx_ll_usb.c **** }
 500              		.loc 1 225 3 is_stmt 1 view .LVU142
 226:stm32f4xx-hal-driver/Src/stm32f4xx_ll_usb.c **** 
 501              		.loc 1 226 1 is_stmt 0 view .LVU143
 502 0008 0020     		movs	r0, #0
 503              	.LVL37:
 226:stm32f4xx-hal-driver/Src/stm32f4xx_ll_usb.c **** 
 504              		.loc 1 226 1 view .LVU144
 505 000a 7047     		bx	lr
 506              		.cfi_endproc
ARM GAS  /tmp/ccXMuxQe.s 			page 37


 507              	.LFE241:
 509              		.section	.text.USB_DisableGlobalInt,"ax",%progbits
 510              		.align	1
 511              		.global	USB_DisableGlobalInt
 512              		.syntax unified
 513              		.thumb
 514              		.thumb_func
 515              		.fpu fpv4-sp-d16
 517              	USB_DisableGlobalInt:
 518              	.LVL38:
 519              	.LFB242:
 235:stm32f4xx-hal-driver/Src/stm32f4xx_ll_usb.c ****   USBx->GAHBCFG &= ~USB_OTG_GAHBCFG_GINT;
 520              		.loc 1 235 1 is_stmt 1 view -0
 521              		.cfi_startproc
 522              		@ args = 0, pretend = 0, frame = 0
 523              		@ frame_needed = 0, uses_anonymous_args = 0
 524              		@ link register save eliminated.
 236:stm32f4xx-hal-driver/Src/stm32f4xx_ll_usb.c ****   return HAL_OK;
 525              		.loc 1 236 3 view .LVU146
 236:stm32f4xx-hal-driver/Src/stm32f4xx_ll_usb.c ****   return HAL_OK;
 526              		.loc 1 236 17 is_stmt 0 view .LVU147
 527 0000 8368     		ldr	r3, [r0, #8]
 528 0002 23F00103 		bic	r3, r3, #1
 529 0006 8360     		str	r3, [r0, #8]
 237:stm32f4xx-hal-driver/Src/stm32f4xx_ll_usb.c **** }
 530              		.loc 1 237 3 is_stmt 1 view .LVU148
 238:stm32f4xx-hal-driver/Src/stm32f4xx_ll_usb.c **** 
 531              		.loc 1 238 1 is_stmt 0 view .LVU149
 532 0008 0020     		movs	r0, #0
 533              	.LVL39:
 238:stm32f4xx-hal-driver/Src/stm32f4xx_ll_usb.c **** 
 534              		.loc 1 238 1 view .LVU150
 535 000a 7047     		bx	lr
 536              		.cfi_endproc
 537              	.LFE242:
 539              		.section	.text.USB_FlushTxFifo,"ax",%progbits
 540              		.align	1
 541              		.global	USB_FlushTxFifo
 542              		.syntax unified
 543              		.thumb
 544              		.thumb_func
 545              		.fpu fpv4-sp-d16
 547              	USB_FlushTxFifo:
 548              	.LVL40:
 549              	.LFB245:
 474:stm32f4xx-hal-driver/Src/stm32f4xx_ll_usb.c ****   __IO uint32_t count = 0U;
 550              		.loc 1 474 1 is_stmt 1 view -0
 551              		.cfi_startproc
 552              		@ args = 0, pretend = 0, frame = 8
 553              		@ frame_needed = 0, uses_anonymous_args = 0
 554              		@ link register save eliminated.
 474:stm32f4xx-hal-driver/Src/stm32f4xx_ll_usb.c ****   __IO uint32_t count = 0U;
 555              		.loc 1 474 1 is_stmt 0 view .LVU152
 556 0000 82B0     		sub	sp, sp, #8
 557              	.LCFI8:
 558              		.cfi_def_cfa_offset 8
 475:stm32f4xx-hal-driver/Src/stm32f4xx_ll_usb.c **** 
ARM GAS  /tmp/ccXMuxQe.s 			page 38


 559              		.loc 1 475 3 is_stmt 1 view .LVU153
 475:stm32f4xx-hal-driver/Src/stm32f4xx_ll_usb.c **** 
 560              		.loc 1 475 17 is_stmt 0 view .LVU154
 561 0002 0023     		movs	r3, #0
 562 0004 0193     		str	r3, [sp, #4]
 563              	.L39:
 478:stm32f4xx-hal-driver/Src/stm32f4xx_ll_usb.c ****   {
 564              		.loc 1 478 3 is_stmt 1 view .LVU155
 480:stm32f4xx-hal-driver/Src/stm32f4xx_ll_usb.c **** 
 565              		.loc 1 480 5 view .LVU156
 480:stm32f4xx-hal-driver/Src/stm32f4xx_ll_usb.c **** 
 566              		.loc 1 480 10 is_stmt 0 view .LVU157
 567 0006 019B     		ldr	r3, [sp, #4]
 568 0008 0133     		adds	r3, r3, #1
 569 000a 0193     		str	r3, [sp, #4]
 482:stm32f4xx-hal-driver/Src/stm32f4xx_ll_usb.c ****     {
 570              		.loc 1 482 5 is_stmt 1 view .LVU158
 482:stm32f4xx-hal-driver/Src/stm32f4xx_ll_usb.c ****     {
 571              		.loc 1 482 15 is_stmt 0 view .LVU159
 572 000c 019B     		ldr	r3, [sp, #4]
 482:stm32f4xx-hal-driver/Src/stm32f4xx_ll_usb.c ****     {
 573              		.loc 1 482 8 view .LVU160
 574 000e B3F1706F 		cmp	r3, #251658240
 575 0012 15D8     		bhi	.L41
 486:stm32f4xx-hal-driver/Src/stm32f4xx_ll_usb.c **** 
 576              		.loc 1 486 11 is_stmt 1 view .LVU161
 486:stm32f4xx-hal-driver/Src/stm32f4xx_ll_usb.c **** 
 577              		.loc 1 486 17 is_stmt 0 view .LVU162
 578 0014 0369     		ldr	r3, [r0, #16]
 486:stm32f4xx-hal-driver/Src/stm32f4xx_ll_usb.c **** 
 579              		.loc 1 486 3 view .LVU163
 580 0016 002B     		cmp	r3, #0
 581 0018 F5DA     		bge	.L39
 489:stm32f4xx-hal-driver/Src/stm32f4xx_ll_usb.c ****   USBx->GRSTCTL = (USB_OTG_GRSTCTL_TXFFLSH | (num << 6));
 582              		.loc 1 489 3 is_stmt 1 view .LVU164
 489:stm32f4xx-hal-driver/Src/stm32f4xx_ll_usb.c ****   USBx->GRSTCTL = (USB_OTG_GRSTCTL_TXFFLSH | (num << 6));
 583              		.loc 1 489 9 is_stmt 0 view .LVU165
 584 001a 0023     		movs	r3, #0
 585 001c 0193     		str	r3, [sp, #4]
 490:stm32f4xx-hal-driver/Src/stm32f4xx_ll_usb.c **** 
 586              		.loc 1 490 3 is_stmt 1 view .LVU166
 490:stm32f4xx-hal-driver/Src/stm32f4xx_ll_usb.c **** 
 587              		.loc 1 490 51 is_stmt 0 view .LVU167
 588 001e 8901     		lsls	r1, r1, #6
 589              	.LVL41:
 490:stm32f4xx-hal-driver/Src/stm32f4xx_ll_usb.c **** 
 590              		.loc 1 490 44 view .LVU168
 591 0020 41F02001 		orr	r1, r1, #32
 490:stm32f4xx-hal-driver/Src/stm32f4xx_ll_usb.c **** 
 592              		.loc 1 490 17 view .LVU169
 593 0024 0161     		str	r1, [r0, #16]
 594              	.L40:
 492:stm32f4xx-hal-driver/Src/stm32f4xx_ll_usb.c ****   {
 595              		.loc 1 492 3 is_stmt 1 view .LVU170
 494:stm32f4xx-hal-driver/Src/stm32f4xx_ll_usb.c **** 
 596              		.loc 1 494 5 view .LVU171
 494:stm32f4xx-hal-driver/Src/stm32f4xx_ll_usb.c **** 
ARM GAS  /tmp/ccXMuxQe.s 			page 39


 597              		.loc 1 494 10 is_stmt 0 view .LVU172
 598 0026 019B     		ldr	r3, [sp, #4]
 599 0028 0133     		adds	r3, r3, #1
 600 002a 0193     		str	r3, [sp, #4]
 496:stm32f4xx-hal-driver/Src/stm32f4xx_ll_usb.c ****     {
 601              		.loc 1 496 5 is_stmt 1 view .LVU173
 496:stm32f4xx-hal-driver/Src/stm32f4xx_ll_usb.c ****     {
 602              		.loc 1 496 15 is_stmt 0 view .LVU174
 603 002c 019B     		ldr	r3, [sp, #4]
 496:stm32f4xx-hal-driver/Src/stm32f4xx_ll_usb.c ****     {
 604              		.loc 1 496 8 view .LVU175
 605 002e B3F1706F 		cmp	r3, #251658240
 606 0032 08D8     		bhi	.L42
 500:stm32f4xx-hal-driver/Src/stm32f4xx_ll_usb.c **** 
 607              		.loc 1 500 11 is_stmt 1 view .LVU176
 500:stm32f4xx-hal-driver/Src/stm32f4xx_ll_usb.c **** 
 608              		.loc 1 500 17 is_stmt 0 view .LVU177
 609 0034 0369     		ldr	r3, [r0, #16]
 500:stm32f4xx-hal-driver/Src/stm32f4xx_ll_usb.c **** 
 610              		.loc 1 500 3 view .LVU178
 611 0036 13F0200F 		tst	r3, #32
 612 003a F4D1     		bne	.L40
 502:stm32f4xx-hal-driver/Src/stm32f4xx_ll_usb.c **** }
 613              		.loc 1 502 10 view .LVU179
 614 003c 0020     		movs	r0, #0
 615              	.LVL42:
 502:stm32f4xx-hal-driver/Src/stm32f4xx_ll_usb.c **** }
 616              		.loc 1 502 10 view .LVU180
 617 003e 00E0     		b	.L38
 618              	.LVL43:
 619              	.L41:
 484:stm32f4xx-hal-driver/Src/stm32f4xx_ll_usb.c ****     }
 620              		.loc 1 484 14 view .LVU181
 621 0040 0320     		movs	r0, #3
 622              	.LVL44:
 623              	.L38:
 503:stm32f4xx-hal-driver/Src/stm32f4xx_ll_usb.c **** 
 624              		.loc 1 503 1 view .LVU182
 625 0042 02B0     		add	sp, sp, #8
 626              	.LCFI9:
 627              		.cfi_remember_state
 628              		.cfi_def_cfa_offset 0
 629              		@ sp needed
 630 0044 7047     		bx	lr
 631              	.LVL45:
 632              	.L42:
 633              	.LCFI10:
 634              		.cfi_restore_state
 498:stm32f4xx-hal-driver/Src/stm32f4xx_ll_usb.c ****     }
 635              		.loc 1 498 14 view .LVU183
 636 0046 0320     		movs	r0, #3
 637              	.LVL46:
 498:stm32f4xx-hal-driver/Src/stm32f4xx_ll_usb.c ****     }
 638              		.loc 1 498 14 view .LVU184
 639 0048 FBE7     		b	.L38
 640              		.cfi_endproc
 641              	.LFE245:
ARM GAS  /tmp/ccXMuxQe.s 			page 40


 643              		.section	.text.USB_FlushRxFifo,"ax",%progbits
 644              		.align	1
 645              		.global	USB_FlushRxFifo
 646              		.syntax unified
 647              		.thumb
 648              		.thumb_func
 649              		.fpu fpv4-sp-d16
 651              	USB_FlushRxFifo:
 652              	.LVL47:
 653              	.LFB246:
 511:stm32f4xx-hal-driver/Src/stm32f4xx_ll_usb.c ****   __IO uint32_t count = 0U;
 654              		.loc 1 511 1 is_stmt 1 view -0
 655              		.cfi_startproc
 656              		@ args = 0, pretend = 0, frame = 8
 657              		@ frame_needed = 0, uses_anonymous_args = 0
 658              		@ link register save eliminated.
 511:stm32f4xx-hal-driver/Src/stm32f4xx_ll_usb.c ****   __IO uint32_t count = 0U;
 659              		.loc 1 511 1 is_stmt 0 view .LVU186
 660 0000 82B0     		sub	sp, sp, #8
 661              	.LCFI11:
 662              		.cfi_def_cfa_offset 8
 512:stm32f4xx-hal-driver/Src/stm32f4xx_ll_usb.c **** 
 663              		.loc 1 512 3 is_stmt 1 view .LVU187
 512:stm32f4xx-hal-driver/Src/stm32f4xx_ll_usb.c **** 
 664              		.loc 1 512 17 is_stmt 0 view .LVU188
 665 0002 0023     		movs	r3, #0
 666 0004 0193     		str	r3, [sp, #4]
 667              	.L46:
 515:stm32f4xx-hal-driver/Src/stm32f4xx_ll_usb.c ****   {
 668              		.loc 1 515 3 is_stmt 1 view .LVU189
 517:stm32f4xx-hal-driver/Src/stm32f4xx_ll_usb.c **** 
 669              		.loc 1 517 5 view .LVU190
 517:stm32f4xx-hal-driver/Src/stm32f4xx_ll_usb.c **** 
 670              		.loc 1 517 10 is_stmt 0 view .LVU191
 671 0006 019B     		ldr	r3, [sp, #4]
 672 0008 0133     		adds	r3, r3, #1
 673 000a 0193     		str	r3, [sp, #4]
 519:stm32f4xx-hal-driver/Src/stm32f4xx_ll_usb.c ****     {
 674              		.loc 1 519 5 is_stmt 1 view .LVU192
 519:stm32f4xx-hal-driver/Src/stm32f4xx_ll_usb.c ****     {
 675              		.loc 1 519 15 is_stmt 0 view .LVU193
 676 000c 019B     		ldr	r3, [sp, #4]
 519:stm32f4xx-hal-driver/Src/stm32f4xx_ll_usb.c ****     {
 677              		.loc 1 519 8 view .LVU194
 678 000e B3F1706F 		cmp	r3, #251658240
 679 0012 13D8     		bhi	.L48
 523:stm32f4xx-hal-driver/Src/stm32f4xx_ll_usb.c **** 
 680              		.loc 1 523 11 is_stmt 1 view .LVU195
 523:stm32f4xx-hal-driver/Src/stm32f4xx_ll_usb.c **** 
 681              		.loc 1 523 17 is_stmt 0 view .LVU196
 682 0014 0369     		ldr	r3, [r0, #16]
 523:stm32f4xx-hal-driver/Src/stm32f4xx_ll_usb.c **** 
 683              		.loc 1 523 3 view .LVU197
 684 0016 002B     		cmp	r3, #0
 685 0018 F5DA     		bge	.L46
 526:stm32f4xx-hal-driver/Src/stm32f4xx_ll_usb.c ****   USBx->GRSTCTL = USB_OTG_GRSTCTL_RXFFLSH;
 686              		.loc 1 526 3 is_stmt 1 view .LVU198
ARM GAS  /tmp/ccXMuxQe.s 			page 41


 526:stm32f4xx-hal-driver/Src/stm32f4xx_ll_usb.c ****   USBx->GRSTCTL = USB_OTG_GRSTCTL_RXFFLSH;
 687              		.loc 1 526 9 is_stmt 0 view .LVU199
 688 001a 0023     		movs	r3, #0
 689 001c 0193     		str	r3, [sp, #4]
 527:stm32f4xx-hal-driver/Src/stm32f4xx_ll_usb.c **** 
 690              		.loc 1 527 3 is_stmt 1 view .LVU200
 527:stm32f4xx-hal-driver/Src/stm32f4xx_ll_usb.c **** 
 691              		.loc 1 527 17 is_stmt 0 view .LVU201
 692 001e 1023     		movs	r3, #16
 693 0020 0361     		str	r3, [r0, #16]
 694              	.L47:
 529:stm32f4xx-hal-driver/Src/stm32f4xx_ll_usb.c ****   {
 695              		.loc 1 529 3 is_stmt 1 view .LVU202
 531:stm32f4xx-hal-driver/Src/stm32f4xx_ll_usb.c **** 
 696              		.loc 1 531 5 view .LVU203
 531:stm32f4xx-hal-driver/Src/stm32f4xx_ll_usb.c **** 
 697              		.loc 1 531 10 is_stmt 0 view .LVU204
 698 0022 019B     		ldr	r3, [sp, #4]
 699 0024 0133     		adds	r3, r3, #1
 700 0026 0193     		str	r3, [sp, #4]
 533:stm32f4xx-hal-driver/Src/stm32f4xx_ll_usb.c ****     {
 701              		.loc 1 533 5 is_stmt 1 view .LVU205
 533:stm32f4xx-hal-driver/Src/stm32f4xx_ll_usb.c ****     {
 702              		.loc 1 533 15 is_stmt 0 view .LVU206
 703 0028 019B     		ldr	r3, [sp, #4]
 533:stm32f4xx-hal-driver/Src/stm32f4xx_ll_usb.c ****     {
 704              		.loc 1 533 8 view .LVU207
 705 002a B3F1706F 		cmp	r3, #251658240
 706 002e 08D8     		bhi	.L49
 537:stm32f4xx-hal-driver/Src/stm32f4xx_ll_usb.c **** 
 707              		.loc 1 537 11 is_stmt 1 view .LVU208
 537:stm32f4xx-hal-driver/Src/stm32f4xx_ll_usb.c **** 
 708              		.loc 1 537 17 is_stmt 0 view .LVU209
 709 0030 0369     		ldr	r3, [r0, #16]
 537:stm32f4xx-hal-driver/Src/stm32f4xx_ll_usb.c **** 
 710              		.loc 1 537 3 view .LVU210
 711 0032 13F0100F 		tst	r3, #16
 712 0036 F4D1     		bne	.L47
 539:stm32f4xx-hal-driver/Src/stm32f4xx_ll_usb.c **** }
 713              		.loc 1 539 10 view .LVU211
 714 0038 0020     		movs	r0, #0
 715              	.LVL48:
 539:stm32f4xx-hal-driver/Src/stm32f4xx_ll_usb.c **** }
 716              		.loc 1 539 10 view .LVU212
 717 003a 00E0     		b	.L45
 718              	.LVL49:
 719              	.L48:
 521:stm32f4xx-hal-driver/Src/stm32f4xx_ll_usb.c ****     }
 720              		.loc 1 521 14 view .LVU213
 721 003c 0320     		movs	r0, #3
 722              	.LVL50:
 723              	.L45:
 540:stm32f4xx-hal-driver/Src/stm32f4xx_ll_usb.c **** 
 724              		.loc 1 540 1 view .LVU214
 725 003e 02B0     		add	sp, sp, #8
 726              	.LCFI12:
 727              		.cfi_remember_state
ARM GAS  /tmp/ccXMuxQe.s 			page 42


 728              		.cfi_def_cfa_offset 0
 729              		@ sp needed
 730 0040 7047     		bx	lr
 731              	.LVL51:
 732              	.L49:
 733              	.LCFI13:
 734              		.cfi_restore_state
 535:stm32f4xx-hal-driver/Src/stm32f4xx_ll_usb.c ****     }
 735              		.loc 1 535 14 view .LVU215
 736 0042 0320     		movs	r0, #3
 737              	.LVL52:
 535:stm32f4xx-hal-driver/Src/stm32f4xx_ll_usb.c ****     }
 738              		.loc 1 535 14 view .LVU216
 739 0044 FBE7     		b	.L45
 740              		.cfi_endproc
 741              	.LFE246:
 743              		.section	.text.USB_SetDevSpeed,"ax",%progbits
 744              		.align	1
 745              		.global	USB_SetDevSpeed
 746              		.syntax unified
 747              		.thumb
 748              		.thumb_func
 749              		.fpu fpv4-sp-d16
 751              	USB_SetDevSpeed:
 752              	.LVL53:
 753              	.LFB247:
 554:stm32f4xx-hal-driver/Src/stm32f4xx_ll_usb.c ****   uint32_t USBx_BASE = (uint32_t)USBx;
 754              		.loc 1 554 1 is_stmt 1 view -0
 755              		.cfi_startproc
 756              		@ args = 0, pretend = 0, frame = 0
 757              		@ frame_needed = 0, uses_anonymous_args = 0
 758              		@ link register save eliminated.
 555:stm32f4xx-hal-driver/Src/stm32f4xx_ll_usb.c **** 
 759              		.loc 1 555 3 view .LVU218
 557:stm32f4xx-hal-driver/Src/stm32f4xx_ll_usb.c ****   return HAL_OK;
 760              		.loc 1 557 3 view .LVU219
 557:stm32f4xx-hal-driver/Src/stm32f4xx_ll_usb.c ****   return HAL_OK;
 761              		.loc 1 557 21 is_stmt 0 view .LVU220
 762 0000 D0F80038 		ldr	r3, [r0, #2048]
 763 0004 1943     		orrs	r1, r1, r3
 764              	.LVL54:
 557:stm32f4xx-hal-driver/Src/stm32f4xx_ll_usb.c ****   return HAL_OK;
 765              		.loc 1 557 21 view .LVU221
 766 0006 C0F80018 		str	r1, [r0, #2048]
 558:stm32f4xx-hal-driver/Src/stm32f4xx_ll_usb.c **** }
 767              		.loc 1 558 3 is_stmt 1 view .LVU222
 559:stm32f4xx-hal-driver/Src/stm32f4xx_ll_usb.c **** 
 768              		.loc 1 559 1 is_stmt 0 view .LVU223
 769 000a 0020     		movs	r0, #0
 770              	.LVL55:
 559:stm32f4xx-hal-driver/Src/stm32f4xx_ll_usb.c **** 
 771              		.loc 1 559 1 view .LVU224
 772 000c 7047     		bx	lr
 773              		.cfi_endproc
 774              	.LFE247:
 776              		.section	.text.USB_DevInit,"ax",%progbits
 777              		.align	1
ARM GAS  /tmp/ccXMuxQe.s 			page 43


 778              		.global	USB_DevInit
 779              		.syntax unified
 780              		.thumb
 781              		.thumb_func
 782              		.fpu fpv4-sp-d16
 784              	USB_DevInit:
 785              	.LVL56:
 786              	.LFB244:
 297:stm32f4xx-hal-driver/Src/stm32f4xx_ll_usb.c ****   HAL_StatusTypeDef ret = HAL_OK;
 787              		.loc 1 297 1 is_stmt 1 view -0
 788              		.cfi_startproc
 789              		@ args = 20, pretend = 16, frame = 0
 790              		@ frame_needed = 0, uses_anonymous_args = 0
 297:stm32f4xx-hal-driver/Src/stm32f4xx_ll_usb.c ****   HAL_StatusTypeDef ret = HAL_OK;
 791              		.loc 1 297 1 is_stmt 0 view .LVU226
 792 0000 84B0     		sub	sp, sp, #16
 793              	.LCFI14:
 794              		.cfi_def_cfa_offset 16
 795 0002 F8B5     		push	{r3, r4, r5, r6, r7, lr}
 796              	.LCFI15:
 797              		.cfi_def_cfa_offset 40
 798              		.cfi_offset 3, -40
 799              		.cfi_offset 4, -36
 800              		.cfi_offset 5, -32
 801              		.cfi_offset 6, -28
 802              		.cfi_offset 7, -24
 803              		.cfi_offset 14, -20
 804 0004 0446     		mov	r4, r0
 805 0006 07A8     		add	r0, sp, #28
 806              	.LVL57:
 297:stm32f4xx-hal-driver/Src/stm32f4xx_ll_usb.c ****   HAL_StatusTypeDef ret = HAL_OK;
 807              		.loc 1 297 1 view .LVU227
 808 0008 80E80E00 		stm	r0, {r1, r2, r3}
 298:stm32f4xx-hal-driver/Src/stm32f4xx_ll_usb.c ****   uint32_t USBx_BASE = (uint32_t)USBx;
 809              		.loc 1 298 3 is_stmt 1 view .LVU228
 810              	.LVL58:
 299:stm32f4xx-hal-driver/Src/stm32f4xx_ll_usb.c ****   uint32_t i;
 811              		.loc 1 299 3 view .LVU229
 299:stm32f4xx-hal-driver/Src/stm32f4xx_ll_usb.c ****   uint32_t i;
 812              		.loc 1 299 12 is_stmt 0 view .LVU230
 813 000c 2546     		mov	r5, r4
 814              	.LVL59:
 300:stm32f4xx-hal-driver/Src/stm32f4xx_ll_usb.c **** 
 815              		.loc 1 300 3 is_stmt 1 view .LVU231
 302:stm32f4xx-hal-driver/Src/stm32f4xx_ll_usb.c ****   {
 816              		.loc 1 302 3 view .LVU232
 302:stm32f4xx-hal-driver/Src/stm32f4xx_ll_usb.c ****   {
 817              		.loc 1 302 10 is_stmt 0 view .LVU233
 818 000e 0023     		movs	r3, #0
 302:stm32f4xx-hal-driver/Src/stm32f4xx_ll_usb.c ****   {
 819              		.loc 1 302 3 view .LVU234
 820 0010 06E0     		b	.L53
 821              	.LVL60:
 822              	.L54:
 304:stm32f4xx-hal-driver/Src/stm32f4xx_ll_usb.c ****   }
 823              		.loc 1 304 5 is_stmt 1 discriminator 3 view .LVU235
 304:stm32f4xx-hal-driver/Src/stm32f4xx_ll_usb.c ****   }
ARM GAS  /tmp/ccXMuxQe.s 			page 44


 824              		.loc 1 304 22 is_stmt 0 discriminator 3 view .LVU236
 825 0012 03F14002 		add	r2, r3, #64
 826 0016 04EB8202 		add	r2, r4, r2, lsl #2
 827 001a 0021     		movs	r1, #0
 828 001c 5160     		str	r1, [r2, #4]
 302:stm32f4xx-hal-driver/Src/stm32f4xx_ll_usb.c ****   {
 829              		.loc 1 302 25 is_stmt 1 discriminator 3 view .LVU237
 302:stm32f4xx-hal-driver/Src/stm32f4xx_ll_usb.c ****   {
 830              		.loc 1 302 26 is_stmt 0 discriminator 3 view .LVU238
 831 001e 0133     		adds	r3, r3, #1
 832              	.LVL61:
 833              	.L53:
 302:stm32f4xx-hal-driver/Src/stm32f4xx_ll_usb.c ****   {
 834              		.loc 1 302 16 is_stmt 1 discriminator 1 view .LVU239
 302:stm32f4xx-hal-driver/Src/stm32f4xx_ll_usb.c ****   {
 835              		.loc 1 302 3 is_stmt 0 discriminator 1 view .LVU240
 836 0020 0E2B     		cmp	r3, #14
 837 0022 F6D9     		bls	.L54
 329:stm32f4xx-hal-driver/Src/stm32f4xx_ll_usb.c ****   {
 838              		.loc 1 329 3 is_stmt 1 view .LVU241
 329:stm32f4xx-hal-driver/Src/stm32f4xx_ll_usb.c ****   {
 839              		.loc 1 329 10 is_stmt 0 view .LVU242
 840 0024 9DF82670 		ldrb	r7, [sp, #38]	@ zero_extendqisi2
 329:stm32f4xx-hal-driver/Src/stm32f4xx_ll_usb.c ****   {
 841              		.loc 1 329 6 view .LVU243
 842 0028 07BB     		cbnz	r7, .L55
 335:stm32f4xx-hal-driver/Src/stm32f4xx_ll_usb.c ****     USBx->GCCFG |= USB_OTG_GCCFG_NOVBUSSENS;
 843              		.loc 1 335 5 is_stmt 1 view .LVU244
 335:stm32f4xx-hal-driver/Src/stm32f4xx_ll_usb.c ****     USBx->GCCFG |= USB_OTG_GCCFG_NOVBUSSENS;
 844              		.loc 1 335 23 is_stmt 0 view .LVU245
 845 002a D4F80438 		ldr	r3, [r4, #2052]
 846              	.LVL62:
 335:stm32f4xx-hal-driver/Src/stm32f4xx_ll_usb.c ****     USBx->GCCFG |= USB_OTG_GCCFG_NOVBUSSENS;
 847              		.loc 1 335 23 view .LVU246
 848 002e 43F00203 		orr	r3, r3, #2
 849 0032 C4F80438 		str	r3, [r4, #2052]
 336:stm32f4xx-hal-driver/Src/stm32f4xx_ll_usb.c ****     USBx->GCCFG &= ~USB_OTG_GCCFG_VBUSBSEN;
 850              		.loc 1 336 5 is_stmt 1 view .LVU247
 336:stm32f4xx-hal-driver/Src/stm32f4xx_ll_usb.c ****     USBx->GCCFG &= ~USB_OTG_GCCFG_VBUSBSEN;
 851              		.loc 1 336 17 is_stmt 0 view .LVU248
 852 0036 A36B     		ldr	r3, [r4, #56]
 853 0038 43F40013 		orr	r3, r3, #2097152
 854 003c A363     		str	r3, [r4, #56]
 337:stm32f4xx-hal-driver/Src/stm32f4xx_ll_usb.c ****     USBx->GCCFG &= ~USB_OTG_GCCFG_VBUSASEN;
 855              		.loc 1 337 5 is_stmt 1 view .LVU249
 337:stm32f4xx-hal-driver/Src/stm32f4xx_ll_usb.c ****     USBx->GCCFG &= ~USB_OTG_GCCFG_VBUSASEN;
 856              		.loc 1 337 17 is_stmt 0 view .LVU250
 857 003e A36B     		ldr	r3, [r4, #56]
 858 0040 23F40023 		bic	r3, r3, #524288
 859 0044 A363     		str	r3, [r4, #56]
 338:stm32f4xx-hal-driver/Src/stm32f4xx_ll_usb.c ****   }
 860              		.loc 1 338 5 is_stmt 1 view .LVU251
 338:stm32f4xx-hal-driver/Src/stm32f4xx_ll_usb.c ****   }
 861              		.loc 1 338 17 is_stmt 0 view .LVU252
 862 0046 A36B     		ldr	r3, [r4, #56]
 863 0048 23F48023 		bic	r3, r3, #262144
 864 004c A363     		str	r3, [r4, #56]
ARM GAS  /tmp/ccXMuxQe.s 			page 45


 865              	.L56:
 351:stm32f4xx-hal-driver/Src/stm32f4xx_ll_usb.c **** 
 866              		.loc 1 351 3 is_stmt 1 view .LVU253
 351:stm32f4xx-hal-driver/Src/stm32f4xx_ll_usb.c **** 
 867              		.loc 1 351 16 is_stmt 0 view .LVU254
 868 004e 0023     		movs	r3, #0
 869 0050 C4F8003E 		str	r3, [r4, #3584]
 353:stm32f4xx-hal-driver/Src/stm32f4xx_ll_usb.c ****   {
 870              		.loc 1 353 3 is_stmt 1 view .LVU255
 353:stm32f4xx-hal-driver/Src/stm32f4xx_ll_usb.c ****   {
 871              		.loc 1 353 10 is_stmt 0 view .LVU256
 872 0054 9DF82130 		ldrb	r3, [sp, #33]	@ zero_extendqisi2
 353:stm32f4xx-hal-driver/Src/stm32f4xx_ll_usb.c ****   {
 873              		.loc 1 353 6 view .LVU257
 874 0058 012B     		cmp	r3, #1
 875 005a 15D1     		bne	.L57
 355:stm32f4xx-hal-driver/Src/stm32f4xx_ll_usb.c ****     {
 876              		.loc 1 355 5 is_stmt 1 view .LVU258
 355:stm32f4xx-hal-driver/Src/stm32f4xx_ll_usb.c ****     {
 877              		.loc 1 355 12 is_stmt 0 view .LVU259
 878 005c 9DF81F30 		ldrb	r3, [sp, #31]	@ zero_extendqisi2
 355:stm32f4xx-hal-driver/Src/stm32f4xx_ll_usb.c ****     {
 879              		.loc 1 355 8 view .LVU260
 880 0060 6BB9     		cbnz	r3, .L58
 358:stm32f4xx-hal-driver/Src/stm32f4xx_ll_usb.c ****     }
 881              		.loc 1 358 7 is_stmt 1 view .LVU261
 358:stm32f4xx-hal-driver/Src/stm32f4xx_ll_usb.c ****     }
 882              		.loc 1 358 13 is_stmt 0 view .LVU262
 883 0062 0021     		movs	r1, #0
 884 0064 2046     		mov	r0, r4
 885 0066 FFF7FEFF 		bl	USB_SetDevSpeed
 886              	.LVL63:
 887 006a 11E0     		b	.L59
 888              	.LVL64:
 889              	.L55:
 343:stm32f4xx-hal-driver/Src/stm32f4xx_ll_usb.c ****     USBx->GCCFG |= USB_OTG_GCCFG_VBUSBSEN;
 890              		.loc 1 343 5 is_stmt 1 view .LVU263
 343:stm32f4xx-hal-driver/Src/stm32f4xx_ll_usb.c ****     USBx->GCCFG |= USB_OTG_GCCFG_VBUSBSEN;
 891              		.loc 1 343 17 is_stmt 0 view .LVU264
 892 006c A36B     		ldr	r3, [r4, #56]
 893              	.LVL65:
 343:stm32f4xx-hal-driver/Src/stm32f4xx_ll_usb.c ****     USBx->GCCFG |= USB_OTG_GCCFG_VBUSBSEN;
 894              		.loc 1 343 17 view .LVU265
 895 006e 23F40013 		bic	r3, r3, #2097152
 896 0072 A363     		str	r3, [r4, #56]
 344:stm32f4xx-hal-driver/Src/stm32f4xx_ll_usb.c ****   }
 897              		.loc 1 344 5 is_stmt 1 view .LVU266
 344:stm32f4xx-hal-driver/Src/stm32f4xx_ll_usb.c ****   }
 898              		.loc 1 344 17 is_stmt 0 view .LVU267
 899 0074 A36B     		ldr	r3, [r4, #56]
 900 0076 43F40023 		orr	r3, r3, #524288
 901 007a A363     		str	r3, [r4, #56]
 902 007c E7E7     		b	.L56
 903              	.L58:
 363:stm32f4xx-hal-driver/Src/stm32f4xx_ll_usb.c ****     }
 904              		.loc 1 363 7 is_stmt 1 view .LVU268
 363:stm32f4xx-hal-driver/Src/stm32f4xx_ll_usb.c ****     }
ARM GAS  /tmp/ccXMuxQe.s 			page 46


 905              		.loc 1 363 13 is_stmt 0 view .LVU269
 906 007e 0121     		movs	r1, #1
 907 0080 2046     		mov	r0, r4
 908 0082 FFF7FEFF 		bl	USB_SetDevSpeed
 909              	.LVL66:
 910 0086 03E0     		b	.L59
 911              	.L57:
 369:stm32f4xx-hal-driver/Src/stm32f4xx_ll_usb.c ****   }
 912              		.loc 1 369 5 is_stmt 1 view .LVU270
 369:stm32f4xx-hal-driver/Src/stm32f4xx_ll_usb.c ****   }
 913              		.loc 1 369 11 is_stmt 0 view .LVU271
 914 0088 0321     		movs	r1, #3
 915 008a 2046     		mov	r0, r4
 916 008c FFF7FEFF 		bl	USB_SetDevSpeed
 917              	.LVL67:
 918              	.L59:
 373:stm32f4xx-hal-driver/Src/stm32f4xx_ll_usb.c ****   {
 919              		.loc 1 373 3 is_stmt 1 view .LVU272
 373:stm32f4xx-hal-driver/Src/stm32f4xx_ll_usb.c ****   {
 920              		.loc 1 373 7 is_stmt 0 view .LVU273
 921 0090 1021     		movs	r1, #16
 922 0092 2046     		mov	r0, r4
 923 0094 FFF7FEFF 		bl	USB_FlushTxFifo
 924              	.LVL68:
 373:stm32f4xx-hal-driver/Src/stm32f4xx_ll_usb.c ****   {
 925              		.loc 1 373 6 view .LVU274
 926 0098 0646     		mov	r6, r0
 927 009a 00B1     		cbz	r0, .L60
 375:stm32f4xx-hal-driver/Src/stm32f4xx_ll_usb.c ****   }
 928              		.loc 1 375 9 view .LVU275
 929 009c 0126     		movs	r6, #1
 930              	.L60:
 931              	.LVL69:
 378:stm32f4xx-hal-driver/Src/stm32f4xx_ll_usb.c ****   {
 932              		.loc 1 378 3 is_stmt 1 view .LVU276
 378:stm32f4xx-hal-driver/Src/stm32f4xx_ll_usb.c ****   {
 933              		.loc 1 378 7 is_stmt 0 view .LVU277
 934 009e 2046     		mov	r0, r4
 935 00a0 FFF7FEFF 		bl	USB_FlushRxFifo
 936              	.LVL70:
 378:stm32f4xx-hal-driver/Src/stm32f4xx_ll_usb.c ****   {
 937              		.loc 1 378 6 view .LVU278
 938 00a4 00B1     		cbz	r0, .L61
 380:stm32f4xx-hal-driver/Src/stm32f4xx_ll_usb.c ****   }
 939              		.loc 1 380 9 view .LVU279
 940 00a6 0126     		movs	r6, #1
 941              	.LVL71:
 942              	.L61:
 384:stm32f4xx-hal-driver/Src/stm32f4xx_ll_usb.c ****   USBx_DEVICE->DOEPMSK = 0U;
 943              		.loc 1 384 3 is_stmt 1 view .LVU280
 944 00a8 04F5006C 		add	ip, r4, #2048
 384:stm32f4xx-hal-driver/Src/stm32f4xx_ll_usb.c ****   USBx_DEVICE->DOEPMSK = 0U;
 945              		.loc 1 384 24 is_stmt 0 view .LVU281
 946 00ac 0023     		movs	r3, #0
 947 00ae CCF81030 		str	r3, [ip, #16]
 385:stm32f4xx-hal-driver/Src/stm32f4xx_ll_usb.c ****   USBx_DEVICE->DAINTMSK = 0U;
 948              		.loc 1 385 3 is_stmt 1 view .LVU282
ARM GAS  /tmp/ccXMuxQe.s 			page 47


 385:stm32f4xx-hal-driver/Src/stm32f4xx_ll_usb.c ****   USBx_DEVICE->DAINTMSK = 0U;
 949              		.loc 1 385 24 is_stmt 0 view .LVU283
 950 00b2 CCF81430 		str	r3, [ip, #20]
 386:stm32f4xx-hal-driver/Src/stm32f4xx_ll_usb.c **** 
 951              		.loc 1 386 3 is_stmt 1 view .LVU284
 386:stm32f4xx-hal-driver/Src/stm32f4xx_ll_usb.c **** 
 952              		.loc 1 386 25 is_stmt 0 view .LVU285
 953 00b6 CCF81C30 		str	r3, [ip, #28]
 388:stm32f4xx-hal-driver/Src/stm32f4xx_ll_usb.c ****   {
 954              		.loc 1 388 3 is_stmt 1 view .LVU286
 955              	.LVL72:
 388:stm32f4xx-hal-driver/Src/stm32f4xx_ll_usb.c ****   {
 956              		.loc 1 388 3 is_stmt 0 view .LVU287
 957 00ba 0AE0     		b	.L62
 958              	.LVL73:
 959              	.L79:
 392:stm32f4xx-hal-driver/Src/stm32f4xx_ll_usb.c ****       {
 960              		.loc 1 392 7 is_stmt 1 view .LVU288
 392:stm32f4xx-hal-driver/Src/stm32f4xx_ll_usb.c ****       {
 961              		.loc 1 392 10 is_stmt 0 view .LVU289
 962 00bc CBB9     		cbnz	r3, .L64
 394:stm32f4xx-hal-driver/Src/stm32f4xx_ll_usb.c ****       }
 963              		.loc 1 394 9 is_stmt 1 view .LVU290
 394:stm32f4xx-hal-driver/Src/stm32f4xx_ll_usb.c ****       }
 964              		.loc 1 394 31 is_stmt 0 view .LVU291
 965 00be 4FF00060 		mov	r0, #134217728
 966 00c2 C2F80009 		str	r0, [r2, #2304]
 967              	.L65:
 406:stm32f4xx-hal-driver/Src/stm32f4xx_ll_usb.c ****     USBx_INEP(i)->DIEPINT  = 0xFB7FU;
 968              		.loc 1 406 5 is_stmt 1 discriminator 2 view .LVU292
 406:stm32f4xx-hal-driver/Src/stm32f4xx_ll_usb.c ****     USBx_INEP(i)->DIEPINT  = 0xFB7FU;
 969              		.loc 1 406 28 is_stmt 0 discriminator 2 view .LVU293
 970 00c6 0022     		movs	r2, #0
 971 00c8 0A61     		str	r2, [r1, #16]
 407:stm32f4xx-hal-driver/Src/stm32f4xx_ll_usb.c ****   }
 972              		.loc 1 407 5 is_stmt 1 discriminator 2 view .LVU294
 407:stm32f4xx-hal-driver/Src/stm32f4xx_ll_usb.c ****   }
 973              		.loc 1 407 28 is_stmt 0 discriminator 2 view .LVU295
 974 00ca 4FF67F32 		movw	r2, #64383
 975 00ce 8A60     		str	r2, [r1, #8]
 388:stm32f4xx-hal-driver/Src/stm32f4xx_ll_usb.c ****   {
 976              		.loc 1 388 39 is_stmt 1 discriminator 2 view .LVU296
 388:stm32f4xx-hal-driver/Src/stm32f4xx_ll_usb.c ****   {
 977              		.loc 1 388 40 is_stmt 0 discriminator 2 view .LVU297
 978 00d0 0133     		adds	r3, r3, #1
 979              	.LVL74:
 980              	.L62:
 388:stm32f4xx-hal-driver/Src/stm32f4xx_ll_usb.c ****   {
 981              		.loc 1 388 16 is_stmt 1 discriminator 1 view .LVU298
 388:stm32f4xx-hal-driver/Src/stm32f4xx_ll_usb.c ****   {
 982              		.loc 1 388 23 is_stmt 0 discriminator 1 view .LVU299
 983 00d2 9DF81CE0 		ldrb	lr, [sp, #28]	@ zero_extendqisi2
 388:stm32f4xx-hal-driver/Src/stm32f4xx_ll_usb.c ****   {
 984              		.loc 1 388 3 discriminator 1 view .LVU300
 985 00d6 9E45     		cmp	lr, r3
 986 00d8 10D9     		bls	.L78
 390:stm32f4xx-hal-driver/Src/stm32f4xx_ll_usb.c ****     {
ARM GAS  /tmp/ccXMuxQe.s 			page 48


 987              		.loc 1 390 5 is_stmt 1 view .LVU301
 390:stm32f4xx-hal-driver/Src/stm32f4xx_ll_usb.c ****     {
 988              		.loc 1 390 10 is_stmt 0 view .LVU302
 989 00da 05EB4312 		add	r2, r5, r3, lsl #5
 990 00de 02F51061 		add	r1, r2, #2304
 390:stm32f4xx-hal-driver/Src/stm32f4xx_ll_usb.c ****     {
 991              		.loc 1 390 22 view .LVU303
 992 00e2 D2F80009 		ldr	r0, [r2, #2304]
 390:stm32f4xx-hal-driver/Src/stm32f4xx_ll_usb.c ****     {
 993              		.loc 1 390 8 view .LVU304
 994 00e6 0028     		cmp	r0, #0
 995 00e8 E8DB     		blt	.L79
 403:stm32f4xx-hal-driver/Src/stm32f4xx_ll_usb.c ****     }
 996              		.loc 1 403 7 is_stmt 1 view .LVU305
 403:stm32f4xx-hal-driver/Src/stm32f4xx_ll_usb.c ****     }
 997              		.loc 1 403 29 is_stmt 0 view .LVU306
 998 00ea 0020     		movs	r0, #0
 999 00ec C2F80009 		str	r0, [r2, #2304]
 1000 00f0 E9E7     		b	.L65
 1001              	.L64:
 398:stm32f4xx-hal-driver/Src/stm32f4xx_ll_usb.c ****       }
 1002              		.loc 1 398 9 is_stmt 1 view .LVU307
 398:stm32f4xx-hal-driver/Src/stm32f4xx_ll_usb.c ****       }
 1003              		.loc 1 398 31 is_stmt 0 view .LVU308
 1004 00f2 4FF09040 		mov	r0, #1207959552
 1005 00f6 C2F80009 		str	r0, [r2, #2304]
 1006 00fa E4E7     		b	.L65
 1007              	.L78:
 410:stm32f4xx-hal-driver/Src/stm32f4xx_ll_usb.c ****   {
 1008              		.loc 1 410 10 view .LVU309
 1009 00fc 0023     		movs	r3, #0
 1010              	.LVL75:
 410:stm32f4xx-hal-driver/Src/stm32f4xx_ll_usb.c ****   {
 1011              		.loc 1 410 10 view .LVU310
 1012 00fe 0AE0     		b	.L67
 1013              	.LVL76:
 1014              	.L82:
 414:stm32f4xx-hal-driver/Src/stm32f4xx_ll_usb.c ****       {
 1015              		.loc 1 414 7 is_stmt 1 view .LVU311
 414:stm32f4xx-hal-driver/Src/stm32f4xx_ll_usb.c ****       {
 1016              		.loc 1 414 10 is_stmt 0 view .LVU312
 1017 0100 BBB1     		cbz	r3, .L80
 420:stm32f4xx-hal-driver/Src/stm32f4xx_ll_usb.c ****       }
 1018              		.loc 1 420 9 is_stmt 1 view .LVU313
 420:stm32f4xx-hal-driver/Src/stm32f4xx_ll_usb.c ****       }
 1019              		.loc 1 420 32 is_stmt 0 view .LVU314
 1020 0102 4FF09040 		mov	r0, #1207959552
 1021 0106 C2F8000B 		str	r0, [r2, #2816]
 1022              	.L70:
 428:stm32f4xx-hal-driver/Src/stm32f4xx_ll_usb.c ****     USBx_OUTEP(i)->DOEPINT  = 0xFB7FU;
 1023              		.loc 1 428 5 is_stmt 1 discriminator 2 view .LVU315
 428:stm32f4xx-hal-driver/Src/stm32f4xx_ll_usb.c ****     USBx_OUTEP(i)->DOEPINT  = 0xFB7FU;
 1024              		.loc 1 428 29 is_stmt 0 discriminator 2 view .LVU316
 1025 010a 0022     		movs	r2, #0
 1026 010c 0A61     		str	r2, [r1, #16]
 429:stm32f4xx-hal-driver/Src/stm32f4xx_ll_usb.c ****   }
 1027              		.loc 1 429 5 is_stmt 1 discriminator 2 view .LVU317
ARM GAS  /tmp/ccXMuxQe.s 			page 49


 429:stm32f4xx-hal-driver/Src/stm32f4xx_ll_usb.c ****   }
 1028              		.loc 1 429 29 is_stmt 0 discriminator 2 view .LVU318
 1029 010e 4FF67F32 		movw	r2, #64383
 1030 0112 8A60     		str	r2, [r1, #8]
 410:stm32f4xx-hal-driver/Src/stm32f4xx_ll_usb.c ****   {
 1031              		.loc 1 410 39 is_stmt 1 discriminator 2 view .LVU319
 410:stm32f4xx-hal-driver/Src/stm32f4xx_ll_usb.c ****   {
 1032              		.loc 1 410 40 is_stmt 0 discriminator 2 view .LVU320
 1033 0114 0133     		adds	r3, r3, #1
 1034              	.LVL77:
 1035              	.L67:
 410:stm32f4xx-hal-driver/Src/stm32f4xx_ll_usb.c ****   {
 1036              		.loc 1 410 16 is_stmt 1 discriminator 1 view .LVU321
 410:stm32f4xx-hal-driver/Src/stm32f4xx_ll_usb.c ****   {
 1037              		.loc 1 410 3 is_stmt 0 discriminator 1 view .LVU322
 1038 0116 9E45     		cmp	lr, r3
 1039 0118 10D9     		bls	.L81
 412:stm32f4xx-hal-driver/Src/stm32f4xx_ll_usb.c ****     {
 1040              		.loc 1 412 5 is_stmt 1 view .LVU323
 412:stm32f4xx-hal-driver/Src/stm32f4xx_ll_usb.c ****     {
 1041              		.loc 1 412 10 is_stmt 0 view .LVU324
 1042 011a 05EB4312 		add	r2, r5, r3, lsl #5
 1043 011e 02F53061 		add	r1, r2, #2816
 412:stm32f4xx-hal-driver/Src/stm32f4xx_ll_usb.c ****     {
 1044              		.loc 1 412 23 view .LVU325
 1045 0122 D2F8000B 		ldr	r0, [r2, #2816]
 412:stm32f4xx-hal-driver/Src/stm32f4xx_ll_usb.c ****     {
 1046              		.loc 1 412 8 view .LVU326
 1047 0126 0028     		cmp	r0, #0
 1048 0128 EADB     		blt	.L82
 425:stm32f4xx-hal-driver/Src/stm32f4xx_ll_usb.c ****     }
 1049              		.loc 1 425 7 is_stmt 1 view .LVU327
 425:stm32f4xx-hal-driver/Src/stm32f4xx_ll_usb.c ****     }
 1050              		.loc 1 425 30 is_stmt 0 view .LVU328
 1051 012a 0020     		movs	r0, #0
 1052 012c C2F8000B 		str	r0, [r2, #2816]
 1053 0130 EBE7     		b	.L70
 1054              	.L80:
 416:stm32f4xx-hal-driver/Src/stm32f4xx_ll_usb.c ****       }
 1055              		.loc 1 416 9 is_stmt 1 view .LVU329
 416:stm32f4xx-hal-driver/Src/stm32f4xx_ll_usb.c ****       }
 1056              		.loc 1 416 32 is_stmt 0 view .LVU330
 1057 0132 4FF00060 		mov	r0, #134217728
 1058 0136 C2F8000B 		str	r0, [r2, #2816]
 1059 013a E6E7     		b	.L70
 1060              	.L81:
 432:stm32f4xx-hal-driver/Src/stm32f4xx_ll_usb.c **** 
 1061              		.loc 1 432 3 is_stmt 1 view .LVU331
 432:stm32f4xx-hal-driver/Src/stm32f4xx_ll_usb.c **** 
 1062              		.loc 1 432 24 is_stmt 0 view .LVU332
 1063 013c DCF81030 		ldr	r3, [ip, #16]
 1064              	.LVL78:
 432:stm32f4xx-hal-driver/Src/stm32f4xx_ll_usb.c **** 
 1065              		.loc 1 432 24 view .LVU333
 1066 0140 23F48073 		bic	r3, r3, #256
 1067 0144 CCF81030 		str	r3, [ip, #16]
 435:stm32f4xx-hal-driver/Src/stm32f4xx_ll_usb.c **** 
ARM GAS  /tmp/ccXMuxQe.s 			page 50


 1068              		.loc 1 435 3 is_stmt 1 view .LVU334
 435:stm32f4xx-hal-driver/Src/stm32f4xx_ll_usb.c **** 
 1069              		.loc 1 435 17 is_stmt 0 view .LVU335
 1070 0148 0023     		movs	r3, #0
 1071 014a A361     		str	r3, [r4, #24]
 438:stm32f4xx-hal-driver/Src/stm32f4xx_ll_usb.c **** 
 1072              		.loc 1 438 3 is_stmt 1 view .LVU336
 438:stm32f4xx-hal-driver/Src/stm32f4xx_ll_usb.c **** 
 1073              		.loc 1 438 17 is_stmt 0 view .LVU337
 1074 014c 6FF08043 		mvn	r3, #1073741824
 1075 0150 6361     		str	r3, [r4, #20]
 441:stm32f4xx-hal-driver/Src/stm32f4xx_ll_usb.c ****   {
 1076              		.loc 1 441 3 is_stmt 1 view .LVU338
 441:stm32f4xx-hal-driver/Src/stm32f4xx_ll_usb.c ****   {
 1077              		.loc 1 441 10 is_stmt 0 view .LVU339
 1078 0152 9DF81E30 		ldrb	r3, [sp, #30]	@ zero_extendqisi2
 441:stm32f4xx-hal-driver/Src/stm32f4xx_ll_usb.c ****   {
 1079              		.loc 1 441 6 view .LVU340
 1080 0156 1BB9     		cbnz	r3, .L72
 443:stm32f4xx-hal-driver/Src/stm32f4xx_ll_usb.c ****   }
 1081              		.loc 1 443 5 is_stmt 1 view .LVU341
 443:stm32f4xx-hal-driver/Src/stm32f4xx_ll_usb.c ****   }
 1082              		.loc 1 443 19 is_stmt 0 view .LVU342
 1083 0158 A369     		ldr	r3, [r4, #24]
 1084 015a 43F01003 		orr	r3, r3, #16
 1085 015e A361     		str	r3, [r4, #24]
 1086              	.L72:
 447:stm32f4xx-hal-driver/Src/stm32f4xx_ll_usb.c ****                    USB_OTG_GINTMSK_ENUMDNEM | USB_OTG_GINTMSK_IEPINT |
 1087              		.loc 1 447 3 is_stmt 1 view .LVU343
 447:stm32f4xx-hal-driver/Src/stm32f4xx_ll_usb.c ****                    USB_OTG_GINTMSK_ENUMDNEM | USB_OTG_GINTMSK_IEPINT |
 1088              		.loc 1 447 17 is_stmt 0 view .LVU344
 1089 0160 A269     		ldr	r2, [r4, #24]
 1090 0162 0C4B     		ldr	r3, .L84
 1091 0164 1343     		orrs	r3, r3, r2
 1092 0166 A361     		str	r3, [r4, #24]
 452:stm32f4xx-hal-driver/Src/stm32f4xx_ll_usb.c ****   {
 1093              		.loc 1 452 3 is_stmt 1 view .LVU345
 452:stm32f4xx-hal-driver/Src/stm32f4xx_ll_usb.c ****   {
 1094              		.loc 1 452 10 is_stmt 0 view .LVU346
 1095 0168 9DF82230 		ldrb	r3, [sp, #34]	@ zero_extendqisi2
 452:stm32f4xx-hal-driver/Src/stm32f4xx_ll_usb.c ****   {
 1096              		.loc 1 452 6 view .LVU347
 1097 016c 1BB1     		cbz	r3, .L73
 454:stm32f4xx-hal-driver/Src/stm32f4xx_ll_usb.c ****   }
 1098              		.loc 1 454 5 is_stmt 1 view .LVU348
 454:stm32f4xx-hal-driver/Src/stm32f4xx_ll_usb.c ****   }
 1099              		.loc 1 454 19 is_stmt 0 view .LVU349
 1100 016e A369     		ldr	r3, [r4, #24]
 1101 0170 43F00803 		orr	r3, r3, #8
 1102 0174 A361     		str	r3, [r4, #24]
 1103              	.L73:
 457:stm32f4xx-hal-driver/Src/stm32f4xx_ll_usb.c ****   {
 1104              		.loc 1 457 3 is_stmt 1 view .LVU350
 457:stm32f4xx-hal-driver/Src/stm32f4xx_ll_usb.c ****   {
 1105              		.loc 1 457 6 is_stmt 0 view .LVU351
 1106 0176 012F     		cmp	r7, #1
 1107 0178 04D0     		beq	.L83
ARM GAS  /tmp/ccXMuxQe.s 			page 51


 1108              	.L74:
 462:stm32f4xx-hal-driver/Src/stm32f4xx_ll_usb.c **** }
 1109              		.loc 1 462 3 is_stmt 1 view .LVU352
 463:stm32f4xx-hal-driver/Src/stm32f4xx_ll_usb.c **** 
 1110              		.loc 1 463 1 is_stmt 0 view .LVU353
 1111 017a 3046     		mov	r0, r6
 1112 017c BDE8F840 		pop	{r3, r4, r5, r6, r7, lr}
 1113              	.LCFI16:
 1114              		.cfi_remember_state
 1115              		.cfi_restore 14
 1116              		.cfi_restore 7
 1117              		.cfi_restore 6
 1118              		.cfi_restore 5
 1119              		.cfi_restore 4
 1120              		.cfi_restore 3
 1121              		.cfi_def_cfa_offset 16
 1122              	.LVL79:
 463:stm32f4xx-hal-driver/Src/stm32f4xx_ll_usb.c **** 
 1123              		.loc 1 463 1 view .LVU354
 1124 0180 04B0     		add	sp, sp, #16
 1125              	.LCFI17:
 1126              		.cfi_def_cfa_offset 0
 1127 0182 7047     		bx	lr
 1128              	.LVL80:
 1129              	.L83:
 1130              	.LCFI18:
 1131              		.cfi_restore_state
 459:stm32f4xx-hal-driver/Src/stm32f4xx_ll_usb.c ****   }
 1132              		.loc 1 459 5 is_stmt 1 view .LVU355
 459:stm32f4xx-hal-driver/Src/stm32f4xx_ll_usb.c ****   }
 1133              		.loc 1 459 19 is_stmt 0 view .LVU356
 1134 0184 A369     		ldr	r3, [r4, #24]
 1135 0186 43F08043 		orr	r3, r3, #1073741824
 1136 018a 43F00403 		orr	r3, r3, #4
 1137 018e A361     		str	r3, [r4, #24]
 1138 0190 F3E7     		b	.L74
 1139              	.L85:
 1140 0192 00BF     		.align	2
 1141              	.L84:
 1142 0194 00383C80 		.word	-2143537152
 1143              		.cfi_endproc
 1144              	.LFE244:
 1146              		.section	.text.USB_GetDevSpeed,"ax",%progbits
 1147              		.align	1
 1148              		.global	USB_GetDevSpeed
 1149              		.syntax unified
 1150              		.thumb
 1151              		.thumb_func
 1152              		.fpu fpv4-sp-d16
 1154              	USB_GetDevSpeed:
 1155              	.LVL81:
 1156              	.LFB248:
 570:stm32f4xx-hal-driver/Src/stm32f4xx_ll_usb.c ****   uint32_t USBx_BASE = (uint32_t)USBx;
 1157              		.loc 1 570 1 is_stmt 1 view -0
 1158              		.cfi_startproc
 1159              		@ args = 0, pretend = 0, frame = 0
 1160              		@ frame_needed = 0, uses_anonymous_args = 0
ARM GAS  /tmp/ccXMuxQe.s 			page 52


 1161              		@ link register save eliminated.
 571:stm32f4xx-hal-driver/Src/stm32f4xx_ll_usb.c ****   uint8_t speed;
 1162              		.loc 1 571 3 view .LVU358
 572:stm32f4xx-hal-driver/Src/stm32f4xx_ll_usb.c ****   uint32_t DevEnumSpeed = USBx_DEVICE->DSTS & USB_OTG_DSTS_ENUMSPD;
 1163              		.loc 1 572 3 view .LVU359
 573:stm32f4xx-hal-driver/Src/stm32f4xx_ll_usb.c **** 
 1164              		.loc 1 573 3 view .LVU360
 573:stm32f4xx-hal-driver/Src/stm32f4xx_ll_usb.c **** 
 1165              		.loc 1 573 38 is_stmt 0 view .LVU361
 1166 0000 D0F80838 		ldr	r3, [r0, #2056]
 1167              	.LVL82:
 575:stm32f4xx-hal-driver/Src/stm32f4xx_ll_usb.c ****   {
 1168              		.loc 1 575 3 is_stmt 1 view .LVU362
 575:stm32f4xx-hal-driver/Src/stm32f4xx_ll_usb.c ****   {
 1169              		.loc 1 575 6 is_stmt 0 view .LVU363
 1170 0004 13F00603 		ands	r3, r3, #6
 1171              	.LVL83:
 575:stm32f4xx-hal-driver/Src/stm32f4xx_ll_usb.c ****   {
 1172              		.loc 1 575 6 view .LVU364
 1173 0008 07D0     		beq	.L88
 579:stm32f4xx-hal-driver/Src/stm32f4xx_ll_usb.c ****            (DevEnumSpeed == DSTS_ENUMSPD_FS_PHY_48MHZ))
 1174              		.loc 1 579 8 is_stmt 1 view .LVU365
 579:stm32f4xx-hal-driver/Src/stm32f4xx_ll_usb.c ****            (DevEnumSpeed == DSTS_ENUMSPD_FS_PHY_48MHZ))
 1175              		.loc 1 579 11 is_stmt 0 view .LVU366
 1176 000a 022B     		cmp	r3, #2
 1177 000c 07D0     		beq	.L89
 579:stm32f4xx-hal-driver/Src/stm32f4xx_ll_usb.c ****            (DevEnumSpeed == DSTS_ENUMSPD_FS_PHY_48MHZ))
 1178              		.loc 1 579 65 discriminator 1 view .LVU367
 1179 000e 062B     		cmp	r3, #6
 1180 0010 01D0     		beq	.L91
 586:stm32f4xx-hal-driver/Src/stm32f4xx_ll_usb.c ****   }
 1181              		.loc 1 586 11 view .LVU368
 1182 0012 0F20     		movs	r0, #15
 1183              	.LVL84:
 589:stm32f4xx-hal-driver/Src/stm32f4xx_ll_usb.c **** }
 1184              		.loc 1 589 3 is_stmt 1 view .LVU369
 590:stm32f4xx-hal-driver/Src/stm32f4xx_ll_usb.c **** 
 1185              		.loc 1 590 1 is_stmt 0 view .LVU370
 1186 0014 7047     		bx	lr
 1187              	.LVL85:
 1188              	.L91:
 582:stm32f4xx-hal-driver/Src/stm32f4xx_ll_usb.c ****   }
 1189              		.loc 1 582 11 view .LVU371
 1190 0016 0220     		movs	r0, #2
 1191              	.LVL86:
 582:stm32f4xx-hal-driver/Src/stm32f4xx_ll_usb.c ****   }
 1192              		.loc 1 582 11 view .LVU372
 1193 0018 7047     		bx	lr
 1194              	.LVL87:
 1195              	.L88:
 577:stm32f4xx-hal-driver/Src/stm32f4xx_ll_usb.c ****   }
 1196              		.loc 1 577 11 view .LVU373
 1197 001a 0020     		movs	r0, #0
 1198              	.LVL88:
 577:stm32f4xx-hal-driver/Src/stm32f4xx_ll_usb.c ****   }
 1199              		.loc 1 577 11 view .LVU374
 1200 001c 7047     		bx	lr
ARM GAS  /tmp/ccXMuxQe.s 			page 53


 1201              	.LVL89:
 1202              	.L89:
 582:stm32f4xx-hal-driver/Src/stm32f4xx_ll_usb.c ****   }
 1203              		.loc 1 582 11 view .LVU375
 1204 001e 0220     		movs	r0, #2
 1205              	.LVL90:
 582:stm32f4xx-hal-driver/Src/stm32f4xx_ll_usb.c ****   }
 1206              		.loc 1 582 11 view .LVU376
 1207 0020 7047     		bx	lr
 1208              		.cfi_endproc
 1209              	.LFE248:
 1211              		.section	.text.USB_ActivateEndpoint,"ax",%progbits
 1212              		.align	1
 1213              		.global	USB_ActivateEndpoint
 1214              		.syntax unified
 1215              		.thumb
 1216              		.thumb_func
 1217              		.fpu fpv4-sp-d16
 1219              	USB_ActivateEndpoint:
 1220              	.LVL91:
 1221              	.LFB249:
 599:stm32f4xx-hal-driver/Src/stm32f4xx_ll_usb.c ****   uint32_t USBx_BASE = (uint32_t)USBx;
 1222              		.loc 1 599 1 is_stmt 1 view -0
 1223              		.cfi_startproc
 1224              		@ args = 0, pretend = 0, frame = 0
 1225              		@ frame_needed = 0, uses_anonymous_args = 0
 1226              		@ link register save eliminated.
 599:stm32f4xx-hal-driver/Src/stm32f4xx_ll_usb.c ****   uint32_t USBx_BASE = (uint32_t)USBx;
 1227              		.loc 1 599 1 is_stmt 0 view .LVU378
 1228 0000 70B4     		push	{r4, r5, r6}
 1229              	.LCFI19:
 1230              		.cfi_def_cfa_offset 12
 1231              		.cfi_offset 4, -12
 1232              		.cfi_offset 5, -8
 1233              		.cfi_offset 6, -4
 600:stm32f4xx-hal-driver/Src/stm32f4xx_ll_usb.c ****   uint32_t epnum = (uint32_t)ep->num;
 1234              		.loc 1 600 3 is_stmt 1 view .LVU379
 1235              	.LVL92:
 601:stm32f4xx-hal-driver/Src/stm32f4xx_ll_usb.c **** 
 1236              		.loc 1 601 3 view .LVU380
 601:stm32f4xx-hal-driver/Src/stm32f4xx_ll_usb.c **** 
 1237              		.loc 1 601 32 is_stmt 0 view .LVU381
 1238 0002 0C78     		ldrb	r4, [r1]	@ zero_extendqisi2
 1239              	.LVL93:
 603:stm32f4xx-hal-driver/Src/stm32f4xx_ll_usb.c ****   {
 1240              		.loc 1 603 3 is_stmt 1 view .LVU382
 603:stm32f4xx-hal-driver/Src/stm32f4xx_ll_usb.c ****   {
 1241              		.loc 1 603 9 is_stmt 0 view .LVU383
 1242 0004 4B78     		ldrb	r3, [r1, #1]	@ zero_extendqisi2
 603:stm32f4xx-hal-driver/Src/stm32f4xx_ll_usb.c ****   {
 1243              		.loc 1 603 6 view .LVU384
 1244 0006 012B     		cmp	r3, #1
 1245 0008 22D0     		beq	.L96
 617:stm32f4xx-hal-driver/Src/stm32f4xx_ll_usb.c **** 
 1246              		.loc 1 617 5 is_stmt 1 view .LVU385
 617:stm32f4xx-hal-driver/Src/stm32f4xx_ll_usb.c **** 
 1247              		.loc 1 617 27 is_stmt 0 view .LVU386
ARM GAS  /tmp/ccXMuxQe.s 			page 54


 1248 000a D0F81C38 		ldr	r3, [r0, #2076]
 617:stm32f4xx-hal-driver/Src/stm32f4xx_ll_usb.c **** 
 1249              		.loc 1 617 82 view .LVU387
 1250 000e 04F00F06 		and	r6, r4, #15
 617:stm32f4xx-hal-driver/Src/stm32f4xx_ll_usb.c **** 
 1251              		.loc 1 617 55 view .LVU388
 1252 0012 0122     		movs	r2, #1
 1253 0014 B240     		lsls	r2, r2, r6
 617:stm32f4xx-hal-driver/Src/stm32f4xx_ll_usb.c **** 
 1254              		.loc 1 617 27 view .LVU389
 1255 0016 43EA0243 		orr	r3, r3, r2, lsl #16
 1256 001a C0F81C38 		str	r3, [r0, #2076]
 619:stm32f4xx-hal-driver/Src/stm32f4xx_ll_usb.c ****     {
 1257              		.loc 1 619 5 is_stmt 1 view .LVU390
 619:stm32f4xx-hal-driver/Src/stm32f4xx_ll_usb.c ****     {
 1258              		.loc 1 619 11 is_stmt 0 view .LVU391
 1259 001e 00EB4410 		add	r0, r0, r4, lsl #5
 1260              	.LVL94:
 619:stm32f4xx-hal-driver/Src/stm32f4xx_ll_usb.c ****     {
 1261              		.loc 1 619 28 view .LVU392
 1262 0022 D0F8003B 		ldr	r3, [r0, #2816]
 619:stm32f4xx-hal-driver/Src/stm32f4xx_ll_usb.c ****     {
 1263              		.loc 1 619 8 view .LVU393
 1264 0026 13F4004F 		tst	r3, #32768
 1265 002a 0ED1     		bne	.L94
 621:stm32f4xx-hal-driver/Src/stm32f4xx_ll_usb.c ****                                     ((uint32_t)ep->type << 18) |
 1266              		.loc 1 621 7 is_stmt 1 view .LVU394
 621:stm32f4xx-hal-driver/Src/stm32f4xx_ll_usb.c ****                                     ((uint32_t)ep->type << 18) |
 1267              		.loc 1 621 34 is_stmt 0 view .LVU395
 1268 002c D0F8003B 		ldr	r3, [r0, #2816]
 621:stm32f4xx-hal-driver/Src/stm32f4xx_ll_usb.c ****                                     ((uint32_t)ep->type << 18) |
 1269              		.loc 1 621 40 view .LVU396
 1270 0030 8A68     		ldr	r2, [r1, #8]
 621:stm32f4xx-hal-driver/Src/stm32f4xx_ll_usb.c ****                                     ((uint32_t)ep->type << 18) |
 1271              		.loc 1 621 52 view .LVU397
 1272 0032 C2F30A02 		ubfx	r2, r2, #0, #11
 622:stm32f4xx-hal-driver/Src/stm32f4xx_ll_usb.c ****                                     USB_OTG_DIEPCTL_SD0PID_SEVNFRM |
 1273              		.loc 1 622 50 view .LVU398
 1274 0036 0979     		ldrb	r1, [r1, #4]	@ zero_extendqisi2
 1275              	.LVL95:
 621:stm32f4xx-hal-driver/Src/stm32f4xx_ll_usb.c ****                                     ((uint32_t)ep->type << 18) |
 1276              		.loc 1 621 77 view .LVU399
 1277 0038 42EA8142 		orr	r2, r2, r1, lsl #18
 621:stm32f4xx-hal-driver/Src/stm32f4xx_ll_usb.c ****                                     ((uint32_t)ep->type << 18) |
 1278              		.loc 1 621 34 view .LVU400
 1279 003c 1343     		orrs	r3, r3, r2
 1280 003e 43F08053 		orr	r3, r3, #268435456
 1281 0042 43F40043 		orr	r3, r3, #32768
 1282 0046 C0F8003B 		str	r3, [r0, #2816]
 1283              	.LVL96:
 1284              	.L94:
 627:stm32f4xx-hal-driver/Src/stm32f4xx_ll_usb.c **** }
 1285              		.loc 1 627 3 is_stmt 1 view .LVU401
 628:stm32f4xx-hal-driver/Src/stm32f4xx_ll_usb.c **** 
 1286              		.loc 1 628 1 is_stmt 0 view .LVU402
 1287 004a 0020     		movs	r0, #0
 1288 004c 70BC     		pop	{r4, r5, r6}
ARM GAS  /tmp/ccXMuxQe.s 			page 55


 1289              	.LCFI20:
 1290              		.cfi_remember_state
 1291              		.cfi_restore 6
 1292              		.cfi_restore 5
 1293              		.cfi_restore 4
 1294              		.cfi_def_cfa_offset 0
 1295 004e 7047     		bx	lr
 1296              	.LVL97:
 1297              	.L96:
 1298              	.LCFI21:
 1299              		.cfi_restore_state
 605:stm32f4xx-hal-driver/Src/stm32f4xx_ll_usb.c **** 
 1300              		.loc 1 605 5 is_stmt 1 view .LVU403
 605:stm32f4xx-hal-driver/Src/stm32f4xx_ll_usb.c **** 
 1301              		.loc 1 605 27 is_stmt 0 view .LVU404
 1302 0050 D0F81C28 		ldr	r2, [r0, #2076]
 605:stm32f4xx-hal-driver/Src/stm32f4xx_ll_usb.c **** 
 1303              		.loc 1 605 81 view .LVU405
 1304 0054 04F00F06 		and	r6, r4, #15
 605:stm32f4xx-hal-driver/Src/stm32f4xx_ll_usb.c **** 
 1305              		.loc 1 605 54 view .LVU406
 1306 0058 B340     		lsls	r3, r3, r6
 605:stm32f4xx-hal-driver/Src/stm32f4xx_ll_usb.c **** 
 1307              		.loc 1 605 52 view .LVU407
 1308 005a 9BB2     		uxth	r3, r3
 605:stm32f4xx-hal-driver/Src/stm32f4xx_ll_usb.c **** 
 1309              		.loc 1 605 27 view .LVU408
 1310 005c 1343     		orrs	r3, r3, r2
 1311 005e C0F81C38 		str	r3, [r0, #2076]
 607:stm32f4xx-hal-driver/Src/stm32f4xx_ll_usb.c ****     {
 1312              		.loc 1 607 5 is_stmt 1 view .LVU409
 607:stm32f4xx-hal-driver/Src/stm32f4xx_ll_usb.c ****     {
 1313              		.loc 1 607 10 is_stmt 0 view .LVU410
 1314 0062 00EB4410 		add	r0, r0, r4, lsl #5
 1315              	.LVL98:
 607:stm32f4xx-hal-driver/Src/stm32f4xx_ll_usb.c ****     {
 1316              		.loc 1 607 26 view .LVU411
 1317 0066 D0F80039 		ldr	r3, [r0, #2304]
 607:stm32f4xx-hal-driver/Src/stm32f4xx_ll_usb.c ****     {
 1318              		.loc 1 607 8 view .LVU412
 1319 006a 13F4004F 		tst	r3, #32768
 1320 006e ECD1     		bne	.L94
 609:stm32f4xx-hal-driver/Src/stm32f4xx_ll_usb.c ****                                    ((uint32_t)ep->type << 18) | (epnum << 22) |
 1321              		.loc 1 609 7 is_stmt 1 view .LVU413
 609:stm32f4xx-hal-driver/Src/stm32f4xx_ll_usb.c ****                                    ((uint32_t)ep->type << 18) | (epnum << 22) |
 1322              		.loc 1 609 33 is_stmt 0 view .LVU414
 1323 0070 D0F80039 		ldr	r3, [r0, #2304]
 609:stm32f4xx-hal-driver/Src/stm32f4xx_ll_usb.c ****                                    ((uint32_t)ep->type << 18) | (epnum << 22) |
 1324              		.loc 1 609 39 view .LVU415
 1325 0074 8A68     		ldr	r2, [r1, #8]
 609:stm32f4xx-hal-driver/Src/stm32f4xx_ll_usb.c ****                                    ((uint32_t)ep->type << 18) | (epnum << 22) |
 1326              		.loc 1 609 51 view .LVU416
 1327 0076 C2F30A02 		ubfx	r2, r2, #0, #11
 610:stm32f4xx-hal-driver/Src/stm32f4xx_ll_usb.c ****                                    USB_OTG_DIEPCTL_SD0PID_SEVNFRM |
 1328              		.loc 1 610 49 view .LVU417
 1329 007a 0979     		ldrb	r1, [r1, #4]	@ zero_extendqisi2
 1330              	.LVL99:
ARM GAS  /tmp/ccXMuxQe.s 			page 56


 609:stm32f4xx-hal-driver/Src/stm32f4xx_ll_usb.c ****                                    ((uint32_t)ep->type << 18) | (epnum << 22) |
 1331              		.loc 1 609 76 view .LVU418
 1332 007c 42EA8142 		orr	r2, r2, r1, lsl #18
 610:stm32f4xx-hal-driver/Src/stm32f4xx_ll_usb.c ****                                    USB_OTG_DIEPCTL_SD0PID_SEVNFRM |
 1333              		.loc 1 610 63 view .LVU419
 1334 0080 42EA8454 		orr	r4, r2, r4, lsl #22
 1335              	.LVL100:
 609:stm32f4xx-hal-driver/Src/stm32f4xx_ll_usb.c ****                                    ((uint32_t)ep->type << 18) | (epnum << 22) |
 1336              		.loc 1 609 33 view .LVU420
 1337 0084 1C43     		orrs	r4, r4, r3
 1338 0086 44F08054 		orr	r4, r4, #268435456
 1339 008a 44F40044 		orr	r4, r4, #32768
 1340 008e C0F80049 		str	r4, [r0, #2304]
 1341 0092 DAE7     		b	.L94
 1342              		.cfi_endproc
 1343              	.LFE249:
 1345              		.section	.text.USB_ActivateDedicatedEndpoint,"ax",%progbits
 1346              		.align	1
 1347              		.global	USB_ActivateDedicatedEndpoint
 1348              		.syntax unified
 1349              		.thumb
 1350              		.thumb_func
 1351              		.fpu fpv4-sp-d16
 1353              	USB_ActivateDedicatedEndpoint:
 1354              	.LVL101:
 1355              	.LFB250:
 637:stm32f4xx-hal-driver/Src/stm32f4xx_ll_usb.c ****   uint32_t USBx_BASE = (uint32_t)USBx;
 1356              		.loc 1 637 1 is_stmt 1 view -0
 1357              		.cfi_startproc
 1358              		@ args = 0, pretend = 0, frame = 0
 1359              		@ frame_needed = 0, uses_anonymous_args = 0
 1360              		@ link register save eliminated.
 637:stm32f4xx-hal-driver/Src/stm32f4xx_ll_usb.c ****   uint32_t USBx_BASE = (uint32_t)USBx;
 1361              		.loc 1 637 1 is_stmt 0 view .LVU422
 1362 0000 70B4     		push	{r4, r5, r6}
 1363              	.LCFI22:
 1364              		.cfi_def_cfa_offset 12
 1365              		.cfi_offset 4, -12
 1366              		.cfi_offset 5, -8
 1367              		.cfi_offset 6, -4
 638:stm32f4xx-hal-driver/Src/stm32f4xx_ll_usb.c ****   uint32_t epnum = (uint32_t)ep->num;
 1368              		.loc 1 638 3 is_stmt 1 view .LVU423
 1369              	.LVL102:
 639:stm32f4xx-hal-driver/Src/stm32f4xx_ll_usb.c **** 
 1370              		.loc 1 639 3 view .LVU424
 639:stm32f4xx-hal-driver/Src/stm32f4xx_ll_usb.c **** 
 1371              		.loc 1 639 32 is_stmt 0 view .LVU425
 1372 0002 0A78     		ldrb	r2, [r1]	@ zero_extendqisi2
 1373              	.LVL103:
 642:stm32f4xx-hal-driver/Src/stm32f4xx_ll_usb.c ****   {
 1374              		.loc 1 642 3 is_stmt 1 view .LVU426
 642:stm32f4xx-hal-driver/Src/stm32f4xx_ll_usb.c ****   {
 1375              		.loc 1 642 9 is_stmt 0 view .LVU427
 1376 0004 4B78     		ldrb	r3, [r1, #1]	@ zero_extendqisi2
 642:stm32f4xx-hal-driver/Src/stm32f4xx_ll_usb.c ****   {
 1377              		.loc 1 642 6 view .LVU428
 1378 0006 012B     		cmp	r3, #1
ARM GAS  /tmp/ccXMuxQe.s 			page 57


 1379 0008 23D0     		beq	.L103
 656:stm32f4xx-hal-driver/Src/stm32f4xx_ll_usb.c ****     {
 1380              		.loc 1 656 5 is_stmt 1 view .LVU429
 656:stm32f4xx-hal-driver/Src/stm32f4xx_ll_usb.c ****     {
 1381              		.loc 1 656 11 is_stmt 0 view .LVU430
 1382 000a 00EB4214 		add	r4, r0, r2, lsl #5
 656:stm32f4xx-hal-driver/Src/stm32f4xx_ll_usb.c ****     {
 1383              		.loc 1 656 28 view .LVU431
 1384 000e D4F8003B 		ldr	r3, [r4, #2816]
 656:stm32f4xx-hal-driver/Src/stm32f4xx_ll_usb.c ****     {
 1385              		.loc 1 656 8 view .LVU432
 1386 0012 13F4004F 		tst	r3, #32768
 1387 0016 0ED1     		bne	.L101
 658:stm32f4xx-hal-driver/Src/stm32f4xx_ll_usb.c ****                                     ((uint32_t)ep->type << 18) | (epnum << 22) |
 1388              		.loc 1 658 7 is_stmt 1 view .LVU433
 658:stm32f4xx-hal-driver/Src/stm32f4xx_ll_usb.c ****                                     ((uint32_t)ep->type << 18) | (epnum << 22) |
 1389              		.loc 1 658 34 is_stmt 0 view .LVU434
 1390 0018 D4F8005B 		ldr	r5, [r4, #2816]
 658:stm32f4xx-hal-driver/Src/stm32f4xx_ll_usb.c ****                                     ((uint32_t)ep->type << 18) | (epnum << 22) |
 1391              		.loc 1 658 40 view .LVU435
 1392 001c 8B68     		ldr	r3, [r1, #8]
 658:stm32f4xx-hal-driver/Src/stm32f4xx_ll_usb.c ****                                     ((uint32_t)ep->type << 18) | (epnum << 22) |
 1393              		.loc 1 658 52 view .LVU436
 1394 001e C3F30A03 		ubfx	r3, r3, #0, #11
 659:stm32f4xx-hal-driver/Src/stm32f4xx_ll_usb.c ****                                     USB_OTG_DOEPCTL_USBAEP;
 1395              		.loc 1 659 50 view .LVU437
 1396 0022 0E79     		ldrb	r6, [r1, #4]	@ zero_extendqisi2
 658:stm32f4xx-hal-driver/Src/stm32f4xx_ll_usb.c ****                                     ((uint32_t)ep->type << 18) | (epnum << 22) |
 1397              		.loc 1 658 77 view .LVU438
 1398 0024 43EA8643 		orr	r3, r3, r6, lsl #18
 659:stm32f4xx-hal-driver/Src/stm32f4xx_ll_usb.c ****                                     USB_OTG_DOEPCTL_USBAEP;
 1399              		.loc 1 659 64 view .LVU439
 1400 0028 43EA8253 		orr	r3, r3, r2, lsl #22
 658:stm32f4xx-hal-driver/Src/stm32f4xx_ll_usb.c ****                                     ((uint32_t)ep->type << 18) | (epnum << 22) |
 1401              		.loc 1 658 34 view .LVU440
 1402 002c 2B43     		orrs	r3, r3, r5
 1403 002e 43F40043 		orr	r3, r3, #32768
 1404 0032 C4F8003B 		str	r3, [r4, #2816]
 1405              	.L101:
 663:stm32f4xx-hal-driver/Src/stm32f4xx_ll_usb.c ****   }
 1406              		.loc 1 663 5 is_stmt 1 view .LVU441
 663:stm32f4xx-hal-driver/Src/stm32f4xx_ll_usb.c ****   }
 1407              		.loc 1 663 27 is_stmt 0 view .LVU442
 1408 0036 D0F83C38 		ldr	r3, [r0, #2108]
 663:stm32f4xx-hal-driver/Src/stm32f4xx_ll_usb.c ****   }
 1409              		.loc 1 663 76 view .LVU443
 1410 003a 0A78     		ldrb	r2, [r1]	@ zero_extendqisi2
 1411              	.LVL104:
 663:stm32f4xx-hal-driver/Src/stm32f4xx_ll_usb.c ****   }
 1412              		.loc 1 663 82 view .LVU444
 1413 003c 02F00F01 		and	r1, r2, #15
 1414              	.LVL105:
 663:stm32f4xx-hal-driver/Src/stm32f4xx_ll_usb.c ****   }
 1415              		.loc 1 663 55 view .LVU445
 1416 0040 0122     		movs	r2, #1
 1417 0042 8A40     		lsls	r2, r2, r1
 663:stm32f4xx-hal-driver/Src/stm32f4xx_ll_usb.c ****   }
ARM GAS  /tmp/ccXMuxQe.s 			page 58


 1418              		.loc 1 663 27 view .LVU446
 1419 0044 43EA0243 		orr	r3, r3, r2, lsl #16
 1420 0048 C0F83C38 		str	r3, [r0, #2108]
 1421              	.L100:
 666:stm32f4xx-hal-driver/Src/stm32f4xx_ll_usb.c **** }
 1422              		.loc 1 666 3 is_stmt 1 view .LVU447
 667:stm32f4xx-hal-driver/Src/stm32f4xx_ll_usb.c **** 
 1423              		.loc 1 667 1 is_stmt 0 view .LVU448
 1424 004c 0020     		movs	r0, #0
 1425              	.LVL106:
 667:stm32f4xx-hal-driver/Src/stm32f4xx_ll_usb.c **** 
 1426              		.loc 1 667 1 view .LVU449
 1427 004e 70BC     		pop	{r4, r5, r6}
 1428              	.LCFI23:
 1429              		.cfi_remember_state
 1430              		.cfi_restore 6
 1431              		.cfi_restore 5
 1432              		.cfi_restore 4
 1433              		.cfi_def_cfa_offset 0
 1434 0050 7047     		bx	lr
 1435              	.LVL107:
 1436              	.L103:
 1437              	.LCFI24:
 1438              		.cfi_restore_state
 644:stm32f4xx-hal-driver/Src/stm32f4xx_ll_usb.c ****     {
 1439              		.loc 1 644 5 is_stmt 1 view .LVU450
 644:stm32f4xx-hal-driver/Src/stm32f4xx_ll_usb.c ****     {
 1440              		.loc 1 644 11 is_stmt 0 view .LVU451
 1441 0052 00EB4215 		add	r5, r0, r2, lsl #5
 644:stm32f4xx-hal-driver/Src/stm32f4xx_ll_usb.c ****     {
 1442              		.loc 1 644 27 view .LVU452
 1443 0056 D5F80039 		ldr	r3, [r5, #2304]
 644:stm32f4xx-hal-driver/Src/stm32f4xx_ll_usb.c ****     {
 1444              		.loc 1 644 8 view .LVU453
 1445 005a 13F4004F 		tst	r3, #32768
 1446 005e 10D1     		bne	.L99
 646:stm32f4xx-hal-driver/Src/stm32f4xx_ll_usb.c ****                                    ((uint32_t)ep->type << 18) | (epnum << 22) |
 1447              		.loc 1 646 7 is_stmt 1 view .LVU454
 646:stm32f4xx-hal-driver/Src/stm32f4xx_ll_usb.c ****                                    ((uint32_t)ep->type << 18) | (epnum << 22) |
 1448              		.loc 1 646 33 is_stmt 0 view .LVU455
 1449 0060 D5F80039 		ldr	r3, [r5, #2304]
 646:stm32f4xx-hal-driver/Src/stm32f4xx_ll_usb.c ****                                    ((uint32_t)ep->type << 18) | (epnum << 22) |
 1450              		.loc 1 646 39 view .LVU456
 1451 0064 8C68     		ldr	r4, [r1, #8]
 646:stm32f4xx-hal-driver/Src/stm32f4xx_ll_usb.c ****                                    ((uint32_t)ep->type << 18) | (epnum << 22) |
 1452              		.loc 1 646 51 view .LVU457
 1453 0066 C4F30A04 		ubfx	r4, r4, #0, #11
 647:stm32f4xx-hal-driver/Src/stm32f4xx_ll_usb.c ****                                    USB_OTG_DIEPCTL_SD0PID_SEVNFRM |
 1454              		.loc 1 647 49 view .LVU458
 1455 006a 0E79     		ldrb	r6, [r1, #4]	@ zero_extendqisi2
 646:stm32f4xx-hal-driver/Src/stm32f4xx_ll_usb.c ****                                    ((uint32_t)ep->type << 18) | (epnum << 22) |
 1456              		.loc 1 646 76 view .LVU459
 1457 006c 44EA8644 		orr	r4, r4, r6, lsl #18
 647:stm32f4xx-hal-driver/Src/stm32f4xx_ll_usb.c ****                                    USB_OTG_DIEPCTL_SD0PID_SEVNFRM |
 1458              		.loc 1 647 63 view .LVU460
 1459 0070 44EA8252 		orr	r2, r4, r2, lsl #22
 1460              	.LVL108:
ARM GAS  /tmp/ccXMuxQe.s 			page 59


 646:stm32f4xx-hal-driver/Src/stm32f4xx_ll_usb.c ****                                    ((uint32_t)ep->type << 18) | (epnum << 22) |
 1461              		.loc 1 646 33 view .LVU461
 1462 0074 1343     		orrs	r3, r3, r2
 1463 0076 43F08053 		orr	r3, r3, #268435456
 1464 007a 43F40043 		orr	r3, r3, #32768
 1465 007e C5F80039 		str	r3, [r5, #2304]
 1466              	.LVL109:
 1467              	.L99:
 652:stm32f4xx-hal-driver/Src/stm32f4xx_ll_usb.c ****   }
 1468              		.loc 1 652 5 is_stmt 1 view .LVU462
 652:stm32f4xx-hal-driver/Src/stm32f4xx_ll_usb.c ****   }
 1469              		.loc 1 652 27 is_stmt 0 view .LVU463
 1470 0082 D0F83C28 		ldr	r2, [r0, #2108]
 652:stm32f4xx-hal-driver/Src/stm32f4xx_ll_usb.c ****   }
 1471              		.loc 1 652 75 view .LVU464
 1472 0086 0B78     		ldrb	r3, [r1]	@ zero_extendqisi2
 652:stm32f4xx-hal-driver/Src/stm32f4xx_ll_usb.c ****   }
 1473              		.loc 1 652 81 view .LVU465
 1474 0088 03F00F01 		and	r1, r3, #15
 1475              	.LVL110:
 652:stm32f4xx-hal-driver/Src/stm32f4xx_ll_usb.c ****   }
 1476              		.loc 1 652 54 view .LVU466
 1477 008c 0123     		movs	r3, #1
 1478 008e 8B40     		lsls	r3, r3, r1
 652:stm32f4xx-hal-driver/Src/stm32f4xx_ll_usb.c ****   }
 1479              		.loc 1 652 52 view .LVU467
 1480 0090 9BB2     		uxth	r3, r3
 652:stm32f4xx-hal-driver/Src/stm32f4xx_ll_usb.c ****   }
 1481              		.loc 1 652 27 view .LVU468
 1482 0092 1343     		orrs	r3, r3, r2
 1483 0094 C0F83C38 		str	r3, [r0, #2108]
 1484 0098 D8E7     		b	.L100
 1485              		.cfi_endproc
 1486              	.LFE250:
 1488              		.section	.text.USB_DeactivateEndpoint,"ax",%progbits
 1489              		.align	1
 1490              		.global	USB_DeactivateEndpoint
 1491              		.syntax unified
 1492              		.thumb
 1493              		.thumb_func
 1494              		.fpu fpv4-sp-d16
 1496              	USB_DeactivateEndpoint:
 1497              	.LVL111:
 1498              	.LFB251:
 676:stm32f4xx-hal-driver/Src/stm32f4xx_ll_usb.c ****   uint32_t USBx_BASE = (uint32_t)USBx;
 1499              		.loc 1 676 1 is_stmt 1 view -0
 1500              		.cfi_startproc
 1501              		@ args = 0, pretend = 0, frame = 0
 1502              		@ frame_needed = 0, uses_anonymous_args = 0
 1503              		@ link register save eliminated.
 676:stm32f4xx-hal-driver/Src/stm32f4xx_ll_usb.c ****   uint32_t USBx_BASE = (uint32_t)USBx;
 1504              		.loc 1 676 1 is_stmt 0 view .LVU470
 1505 0000 30B4     		push	{r4, r5}
 1506              	.LCFI25:
 1507              		.cfi_def_cfa_offset 8
 1508              		.cfi_offset 4, -8
 1509              		.cfi_offset 5, -4
ARM GAS  /tmp/ccXMuxQe.s 			page 60


 677:stm32f4xx-hal-driver/Src/stm32f4xx_ll_usb.c ****   uint32_t epnum = (uint32_t)ep->num;
 1510              		.loc 1 677 3 is_stmt 1 view .LVU471
 1511              	.LVL112:
 678:stm32f4xx-hal-driver/Src/stm32f4xx_ll_usb.c **** 
 1512              		.loc 1 678 3 view .LVU472
 678:stm32f4xx-hal-driver/Src/stm32f4xx_ll_usb.c **** 
 1513              		.loc 1 678 32 is_stmt 0 view .LVU473
 1514 0002 0B78     		ldrb	r3, [r1]	@ zero_extendqisi2
 1515              	.LVL113:
 681:stm32f4xx-hal-driver/Src/stm32f4xx_ll_usb.c ****   {
 1516              		.loc 1 681 3 is_stmt 1 view .LVU474
 681:stm32f4xx-hal-driver/Src/stm32f4xx_ll_usb.c ****   {
 1517              		.loc 1 681 9 is_stmt 0 view .LVU475
 1518 0004 4A78     		ldrb	r2, [r1, #1]	@ zero_extendqisi2
 681:stm32f4xx-hal-driver/Src/stm32f4xx_ll_usb.c ****   {
 1519              		.loc 1 681 6 view .LVU476
 1520 0006 012A     		cmp	r2, #1
 1521 0008 24D0     		beq	.L110
 699:stm32f4xx-hal-driver/Src/stm32f4xx_ll_usb.c ****     {
 1522              		.loc 1 699 5 is_stmt 1 view .LVU477
 699:stm32f4xx-hal-driver/Src/stm32f4xx_ll_usb.c ****     {
 1523              		.loc 1 699 10 is_stmt 0 view .LVU478
 1524 000a 00EB4313 		add	r3, r0, r3, lsl #5
 1525              	.LVL114:
 699:stm32f4xx-hal-driver/Src/stm32f4xx_ll_usb.c ****     {
 1526              		.loc 1 699 27 view .LVU479
 1527 000e D3F8002B 		ldr	r2, [r3, #2816]
 699:stm32f4xx-hal-driver/Src/stm32f4xx_ll_usb.c ****     {
 1528              		.loc 1 699 8 view .LVU480
 1529 0012 002A     		cmp	r2, #0
 1530 0014 50DB     		blt	.L111
 1531              	.LVL115:
 1532              	.L108:
 705:stm32f4xx-hal-driver/Src/stm32f4xx_ll_usb.c ****     USBx_DEVICE->DAINTMSK &= ~(USB_OTG_DAINTMSK_OEPM & ((uint32_t)(1UL << (ep->num & EP_ADDR_MSK)) 
 1533              		.loc 1 705 5 is_stmt 1 view .LVU481
 705:stm32f4xx-hal-driver/Src/stm32f4xx_ll_usb.c ****     USBx_DEVICE->DAINTMSK &= ~(USB_OTG_DAINTMSK_OEPM & ((uint32_t)(1UL << (ep->num & EP_ADDR_MSK)) 
 1534              		.loc 1 705 27 is_stmt 0 view .LVU482
 1535 0016 D0F83C58 		ldr	r5, [r0, #2108]
 705:stm32f4xx-hal-driver/Src/stm32f4xx_ll_usb.c ****     USBx_DEVICE->DAINTMSK &= ~(USB_OTG_DAINTMSK_OEPM & ((uint32_t)(1UL << (ep->num & EP_ADDR_MSK)) 
 1536              		.loc 1 705 78 view .LVU483
 1537 001a 0A78     		ldrb	r2, [r1]	@ zero_extendqisi2
 705:stm32f4xx-hal-driver/Src/stm32f4xx_ll_usb.c ****     USBx_DEVICE->DAINTMSK &= ~(USB_OTG_DAINTMSK_OEPM & ((uint32_t)(1UL << (ep->num & EP_ADDR_MSK)) 
 1538              		.loc 1 705 84 view .LVU484
 1539 001c 02F00F02 		and	r2, r2, #15
 705:stm32f4xx-hal-driver/Src/stm32f4xx_ll_usb.c ****     USBx_DEVICE->DAINTMSK &= ~(USB_OTG_DAINTMSK_OEPM & ((uint32_t)(1UL << (ep->num & EP_ADDR_MSK)) 
 1540              		.loc 1 705 57 view .LVU485
 1541 0020 0124     		movs	r4, #1
 1542 0022 04FA02F2 		lsl	r2, r4, r2
 705:stm32f4xx-hal-driver/Src/stm32f4xx_ll_usb.c ****     USBx_DEVICE->DAINTMSK &= ~(USB_OTG_DAINTMSK_OEPM & ((uint32_t)(1UL << (ep->num & EP_ADDR_MSK)) 
 1543              		.loc 1 705 27 view .LVU486
 1544 0026 25EA0242 		bic	r2, r5, r2, lsl #16
 1545 002a C0F83C28 		str	r2, [r0, #2108]
 706:stm32f4xx-hal-driver/Src/stm32f4xx_ll_usb.c ****     USBx_OUTEP(epnum)->DOEPCTL &= ~(USB_OTG_DOEPCTL_USBAEP |
 1546              		.loc 1 706 5 is_stmt 1 view .LVU487
 706:stm32f4xx-hal-driver/Src/stm32f4xx_ll_usb.c ****     USBx_OUTEP(epnum)->DOEPCTL &= ~(USB_OTG_DOEPCTL_USBAEP |
 1547              		.loc 1 706 27 is_stmt 0 view .LVU488
 1548 002e D0F81C28 		ldr	r2, [r0, #2076]
ARM GAS  /tmp/ccXMuxQe.s 			page 61


 706:stm32f4xx-hal-driver/Src/stm32f4xx_ll_usb.c ****     USBx_OUTEP(epnum)->DOEPCTL &= ~(USB_OTG_DOEPCTL_USBAEP |
 1549              		.loc 1 706 78 view .LVU489
 1550 0032 0978     		ldrb	r1, [r1]	@ zero_extendqisi2
 1551              	.LVL116:
 706:stm32f4xx-hal-driver/Src/stm32f4xx_ll_usb.c ****     USBx_OUTEP(epnum)->DOEPCTL &= ~(USB_OTG_DOEPCTL_USBAEP |
 1552              		.loc 1 706 84 view .LVU490
 1553 0034 01F00F01 		and	r1, r1, #15
 706:stm32f4xx-hal-driver/Src/stm32f4xx_ll_usb.c ****     USBx_OUTEP(epnum)->DOEPCTL &= ~(USB_OTG_DOEPCTL_USBAEP |
 1554              		.loc 1 706 57 view .LVU491
 1555 0038 8C40     		lsls	r4, r4, r1
 706:stm32f4xx-hal-driver/Src/stm32f4xx_ll_usb.c ****     USBx_OUTEP(epnum)->DOEPCTL &= ~(USB_OTG_DOEPCTL_USBAEP |
 1556              		.loc 1 706 27 view .LVU492
 1557 003a 22EA0444 		bic	r4, r2, r4, lsl #16
 1558 003e C0F81C48 		str	r4, [r0, #2076]
 707:stm32f4xx-hal-driver/Src/stm32f4xx_ll_usb.c ****                                     USB_OTG_DOEPCTL_MPSIZ |
 1559              		.loc 1 707 5 is_stmt 1 view .LVU493
 707:stm32f4xx-hal-driver/Src/stm32f4xx_ll_usb.c ****                                     USB_OTG_DOEPCTL_MPSIZ |
 1560              		.loc 1 707 32 is_stmt 0 view .LVU494
 1561 0042 D3F8001B 		ldr	r1, [r3, #2816]
 1562 0046 234A     		ldr	r2, .L113
 1563 0048 0A40     		ands	r2, r2, r1
 1564 004a C3F8002B 		str	r2, [r3, #2816]
 1565              	.L107:
 713:stm32f4xx-hal-driver/Src/stm32f4xx_ll_usb.c **** }
 1566              		.loc 1 713 3 is_stmt 1 view .LVU495
 714:stm32f4xx-hal-driver/Src/stm32f4xx_ll_usb.c **** 
 1567              		.loc 1 714 1 is_stmt 0 view .LVU496
 1568 004e 0020     		movs	r0, #0
 1569              	.LVL117:
 714:stm32f4xx-hal-driver/Src/stm32f4xx_ll_usb.c **** 
 1570              		.loc 1 714 1 view .LVU497
 1571 0050 30BC     		pop	{r4, r5}
 1572              	.LCFI26:
 1573              		.cfi_remember_state
 1574              		.cfi_restore 5
 1575              		.cfi_restore 4
 1576              		.cfi_def_cfa_offset 0
 1577 0052 7047     		bx	lr
 1578              	.LVL118:
 1579              	.L110:
 1580              	.LCFI27:
 1581              		.cfi_restore_state
 683:stm32f4xx-hal-driver/Src/stm32f4xx_ll_usb.c ****     {
 1582              		.loc 1 683 5 is_stmt 1 view .LVU498
 683:stm32f4xx-hal-driver/Src/stm32f4xx_ll_usb.c ****     {
 1583              		.loc 1 683 10 is_stmt 0 view .LVU499
 1584 0054 00EB4313 		add	r3, r0, r3, lsl #5
 1585              	.LVL119:
 683:stm32f4xx-hal-driver/Src/stm32f4xx_ll_usb.c ****     {
 1586              		.loc 1 683 26 view .LVU500
 1587 0058 D3F80029 		ldr	r2, [r3, #2304]
 683:stm32f4xx-hal-driver/Src/stm32f4xx_ll_usb.c ****     {
 1588              		.loc 1 683 8 view .LVU501
 1589 005c 002A     		cmp	r2, #0
 1590 005e 1EDB     		blt	.L112
 1591              	.LVL120:
 1592              	.L106:
ARM GAS  /tmp/ccXMuxQe.s 			page 62


 689:stm32f4xx-hal-driver/Src/stm32f4xx_ll_usb.c ****     USBx_DEVICE->DAINTMSK &= ~(USB_OTG_DAINTMSK_IEPM & (uint32_t)(1UL << (ep->num & EP_ADDR_MSK)));
 1593              		.loc 1 689 5 is_stmt 1 view .LVU502
 689:stm32f4xx-hal-driver/Src/stm32f4xx_ll_usb.c ****     USBx_DEVICE->DAINTMSK &= ~(USB_OTG_DAINTMSK_IEPM & (uint32_t)(1UL << (ep->num & EP_ADDR_MSK)));
 1594              		.loc 1 689 27 is_stmt 0 view .LVU503
 1595 0060 D0F83C58 		ldr	r5, [r0, #2108]
 689:stm32f4xx-hal-driver/Src/stm32f4xx_ll_usb.c ****     USBx_DEVICE->DAINTMSK &= ~(USB_OTG_DAINTMSK_IEPM & (uint32_t)(1UL << (ep->num & EP_ADDR_MSK)));
 1596              		.loc 1 689 77 view .LVU504
 1597 0064 0A78     		ldrb	r2, [r1]	@ zero_extendqisi2
 689:stm32f4xx-hal-driver/Src/stm32f4xx_ll_usb.c ****     USBx_DEVICE->DAINTMSK &= ~(USB_OTG_DAINTMSK_IEPM & (uint32_t)(1UL << (ep->num & EP_ADDR_MSK)));
 1598              		.loc 1 689 83 view .LVU505
 1599 0066 02F00F02 		and	r2, r2, #15
 689:stm32f4xx-hal-driver/Src/stm32f4xx_ll_usb.c ****     USBx_DEVICE->DAINTMSK &= ~(USB_OTG_DAINTMSK_IEPM & (uint32_t)(1UL << (ep->num & EP_ADDR_MSK)));
 1600              		.loc 1 689 56 view .LVU506
 1601 006a 0124     		movs	r4, #1
 1602 006c 04FA02F2 		lsl	r2, r4, r2
 689:stm32f4xx-hal-driver/Src/stm32f4xx_ll_usb.c ****     USBx_DEVICE->DAINTMSK &= ~(USB_OTG_DAINTMSK_IEPM & (uint32_t)(1UL << (ep->num & EP_ADDR_MSK)));
 1603              		.loc 1 689 54 view .LVU507
 1604 0070 92B2     		uxth	r2, r2
 689:stm32f4xx-hal-driver/Src/stm32f4xx_ll_usb.c ****     USBx_DEVICE->DAINTMSK &= ~(USB_OTG_DAINTMSK_IEPM & (uint32_t)(1UL << (ep->num & EP_ADDR_MSK)));
 1605              		.loc 1 689 27 view .LVU508
 1606 0072 25EA0202 		bic	r2, r5, r2
 1607 0076 C0F83C28 		str	r2, [r0, #2108]
 690:stm32f4xx-hal-driver/Src/stm32f4xx_ll_usb.c ****     USBx_INEP(epnum)->DIEPCTL &= ~(USB_OTG_DIEPCTL_USBAEP |
 1608              		.loc 1 690 5 is_stmt 1 view .LVU509
 690:stm32f4xx-hal-driver/Src/stm32f4xx_ll_usb.c ****     USBx_INEP(epnum)->DIEPCTL &= ~(USB_OTG_DIEPCTL_USBAEP |
 1609              		.loc 1 690 27 is_stmt 0 view .LVU510
 1610 007a D0F81C28 		ldr	r2, [r0, #2076]
 690:stm32f4xx-hal-driver/Src/stm32f4xx_ll_usb.c ****     USBx_INEP(epnum)->DIEPCTL &= ~(USB_OTG_DIEPCTL_USBAEP |
 1611              		.loc 1 690 77 view .LVU511
 1612 007e 0978     		ldrb	r1, [r1]	@ zero_extendqisi2
 1613              	.LVL121:
 690:stm32f4xx-hal-driver/Src/stm32f4xx_ll_usb.c ****     USBx_INEP(epnum)->DIEPCTL &= ~(USB_OTG_DIEPCTL_USBAEP |
 1614              		.loc 1 690 83 view .LVU512
 1615 0080 01F00F01 		and	r1, r1, #15
 690:stm32f4xx-hal-driver/Src/stm32f4xx_ll_usb.c ****     USBx_INEP(epnum)->DIEPCTL &= ~(USB_OTG_DIEPCTL_USBAEP |
 1616              		.loc 1 690 56 view .LVU513
 1617 0084 8C40     		lsls	r4, r4, r1
 690:stm32f4xx-hal-driver/Src/stm32f4xx_ll_usb.c ****     USBx_INEP(epnum)->DIEPCTL &= ~(USB_OTG_DIEPCTL_USBAEP |
 1618              		.loc 1 690 54 view .LVU514
 1619 0086 A4B2     		uxth	r4, r4
 690:stm32f4xx-hal-driver/Src/stm32f4xx_ll_usb.c ****     USBx_INEP(epnum)->DIEPCTL &= ~(USB_OTG_DIEPCTL_USBAEP |
 1620              		.loc 1 690 27 view .LVU515
 1621 0088 22EA0404 		bic	r4, r2, r4
 1622 008c C0F81C48 		str	r4, [r0, #2076]
 691:stm32f4xx-hal-driver/Src/stm32f4xx_ll_usb.c ****                                    USB_OTG_DIEPCTL_MPSIZ |
 1623              		.loc 1 691 5 is_stmt 1 view .LVU516
 691:stm32f4xx-hal-driver/Src/stm32f4xx_ll_usb.c ****                                    USB_OTG_DIEPCTL_MPSIZ |
 1624              		.loc 1 691 31 is_stmt 0 view .LVU517
 1625 0090 D3F80019 		ldr	r1, [r3, #2304]
 1626 0094 104A     		ldr	r2, .L113+4
 1627 0096 0A40     		ands	r2, r2, r1
 1628 0098 C3F80029 		str	r2, [r3, #2304]
 1629 009c D7E7     		b	.L107
 1630              	.LVL122:
 1631              	.L112:
 685:stm32f4xx-hal-driver/Src/stm32f4xx_ll_usb.c ****       USBx_INEP(epnum)->DIEPCTL |= USB_OTG_DIEPCTL_EPDIS;
 1632              		.loc 1 685 7 is_stmt 1 view .LVU518
ARM GAS  /tmp/ccXMuxQe.s 			page 63


 685:stm32f4xx-hal-driver/Src/stm32f4xx_ll_usb.c ****       USBx_INEP(epnum)->DIEPCTL |= USB_OTG_DIEPCTL_EPDIS;
 1633              		.loc 1 685 33 is_stmt 0 view .LVU519
 1634 009e D3F80029 		ldr	r2, [r3, #2304]
 1635 00a2 42F00062 		orr	r2, r2, #134217728
 1636 00a6 C3F80029 		str	r2, [r3, #2304]
 1637              	.LVL123:
 686:stm32f4xx-hal-driver/Src/stm32f4xx_ll_usb.c ****     }
 1638              		.loc 1 686 7 is_stmt 1 view .LVU520
 686:stm32f4xx-hal-driver/Src/stm32f4xx_ll_usb.c ****     }
 1639              		.loc 1 686 33 is_stmt 0 view .LVU521
 1640 00aa D3F80029 		ldr	r2, [r3, #2304]
 1641 00ae 42F08042 		orr	r2, r2, #1073741824
 1642 00b2 C3F80029 		str	r2, [r3, #2304]
 1643 00b6 D3E7     		b	.L106
 1644              	.LVL124:
 1645              	.L111:
 701:stm32f4xx-hal-driver/Src/stm32f4xx_ll_usb.c ****       USBx_OUTEP(epnum)->DOEPCTL |= USB_OTG_DOEPCTL_EPDIS;
 1646              		.loc 1 701 7 is_stmt 1 view .LVU522
 701:stm32f4xx-hal-driver/Src/stm32f4xx_ll_usb.c ****       USBx_OUTEP(epnum)->DOEPCTL |= USB_OTG_DOEPCTL_EPDIS;
 1647              		.loc 1 701 34 is_stmt 0 view .LVU523
 1648 00b8 D3F8002B 		ldr	r2, [r3, #2816]
 1649 00bc 42F00062 		orr	r2, r2, #134217728
 1650 00c0 C3F8002B 		str	r2, [r3, #2816]
 1651              	.LVL125:
 702:stm32f4xx-hal-driver/Src/stm32f4xx_ll_usb.c ****     }
 1652              		.loc 1 702 7 is_stmt 1 view .LVU524
 702:stm32f4xx-hal-driver/Src/stm32f4xx_ll_usb.c ****     }
 1653              		.loc 1 702 34 is_stmt 0 view .LVU525
 1654 00c4 D3F8002B 		ldr	r2, [r3, #2816]
 1655 00c8 42F08042 		orr	r2, r2, #1073741824
 1656 00cc C3F8002B 		str	r2, [r3, #2816]
 1657 00d0 A1E7     		b	.L108
 1658              	.L114:
 1659 00d2 00BF     		.align	2
 1660              	.L113:
 1661 00d4 0078F3EF 		.word	-269256704
 1662 00d8 007833EC 		.word	-332171264
 1663              		.cfi_endproc
 1664              	.LFE251:
 1666              		.section	.text.USB_DeactivateDedicatedEndpoint,"ax",%progbits
 1667              		.align	1
 1668              		.global	USB_DeactivateDedicatedEndpoint
 1669              		.syntax unified
 1670              		.thumb
 1671              		.thumb_func
 1672              		.fpu fpv4-sp-d16
 1674              	USB_DeactivateDedicatedEndpoint:
 1675              	.LVL126:
 1676              	.LFB252:
 723:stm32f4xx-hal-driver/Src/stm32f4xx_ll_usb.c ****   uint32_t USBx_BASE = (uint32_t)USBx;
 1677              		.loc 1 723 1 is_stmt 1 view -0
 1678              		.cfi_startproc
 1679              		@ args = 0, pretend = 0, frame = 0
 1680              		@ frame_needed = 0, uses_anonymous_args = 0
 1681              		@ link register save eliminated.
 724:stm32f4xx-hal-driver/Src/stm32f4xx_ll_usb.c ****   uint32_t epnum = (uint32_t)ep->num;
 1682              		.loc 1 724 3 view .LVU527
ARM GAS  /tmp/ccXMuxQe.s 			page 64


 725:stm32f4xx-hal-driver/Src/stm32f4xx_ll_usb.c **** 
 1683              		.loc 1 725 3 view .LVU528
 725:stm32f4xx-hal-driver/Src/stm32f4xx_ll_usb.c **** 
 1684              		.loc 1 725 32 is_stmt 0 view .LVU529
 1685 0000 0B78     		ldrb	r3, [r1]	@ zero_extendqisi2
 1686              	.LVL127:
 728:stm32f4xx-hal-driver/Src/stm32f4xx_ll_usb.c ****   {
 1687              		.loc 1 728 3 is_stmt 1 view .LVU530
 728:stm32f4xx-hal-driver/Src/stm32f4xx_ll_usb.c ****   {
 1688              		.loc 1 728 9 is_stmt 0 view .LVU531
 1689 0002 4A78     		ldrb	r2, [r1, #1]	@ zero_extendqisi2
 728:stm32f4xx-hal-driver/Src/stm32f4xx_ll_usb.c ****   {
 1690              		.loc 1 728 6 view .LVU532
 1691 0004 012A     		cmp	r2, #1
 1692 0006 18D0     		beq	.L120
 741:stm32f4xx-hal-driver/Src/stm32f4xx_ll_usb.c ****     {
 1693              		.loc 1 741 5 is_stmt 1 view .LVU533
 741:stm32f4xx-hal-driver/Src/stm32f4xx_ll_usb.c ****     {
 1694              		.loc 1 741 10 is_stmt 0 view .LVU534
 1695 0008 00EB4313 		add	r3, r0, r3, lsl #5
 1696              	.LVL128:
 741:stm32f4xx-hal-driver/Src/stm32f4xx_ll_usb.c ****     {
 1697              		.loc 1 741 27 view .LVU535
 1698 000c D3F8002B 		ldr	r2, [r3, #2816]
 741:stm32f4xx-hal-driver/Src/stm32f4xx_ll_usb.c ****     {
 1699              		.loc 1 741 8 view .LVU536
 1700 0010 002A     		cmp	r2, #0
 1701 0012 38DB     		blt	.L121
 1702              	.LVL129:
 1703              	.L119:
 747:stm32f4xx-hal-driver/Src/stm32f4xx_ll_usb.c ****     USBx_DEVICE->DAINTMSK &= ~(USB_OTG_DAINTMSK_OEPM & ((uint32_t)(1UL << (ep->num & EP_ADDR_MSK)) 
 1704              		.loc 1 747 5 is_stmt 1 view .LVU537
 747:stm32f4xx-hal-driver/Src/stm32f4xx_ll_usb.c ****     USBx_DEVICE->DAINTMSK &= ~(USB_OTG_DAINTMSK_OEPM & ((uint32_t)(1UL << (ep->num & EP_ADDR_MSK)) 
 1705              		.loc 1 747 32 is_stmt 0 view .LVU538
 1706 0014 D3F8002B 		ldr	r2, [r3, #2816]
 1707 0018 22F40042 		bic	r2, r2, #32768
 1708 001c C3F8002B 		str	r2, [r3, #2816]
 748:stm32f4xx-hal-driver/Src/stm32f4xx_ll_usb.c ****   }
 1709              		.loc 1 748 5 is_stmt 1 view .LVU539
 748:stm32f4xx-hal-driver/Src/stm32f4xx_ll_usb.c ****   }
 1710              		.loc 1 748 27 is_stmt 0 view .LVU540
 1711 0020 D0F81C38 		ldr	r3, [r0, #2076]
 748:stm32f4xx-hal-driver/Src/stm32f4xx_ll_usb.c ****   }
 1712              		.loc 1 748 78 view .LVU541
 1713 0024 0A78     		ldrb	r2, [r1]	@ zero_extendqisi2
 748:stm32f4xx-hal-driver/Src/stm32f4xx_ll_usb.c ****   }
 1714              		.loc 1 748 84 view .LVU542
 1715 0026 02F00F01 		and	r1, r2, #15
 1716              	.LVL130:
 748:stm32f4xx-hal-driver/Src/stm32f4xx_ll_usb.c ****   }
 1717              		.loc 1 748 57 view .LVU543
 1718 002a 0122     		movs	r2, #1
 1719 002c 8A40     		lsls	r2, r2, r1
 748:stm32f4xx-hal-driver/Src/stm32f4xx_ll_usb.c ****   }
 1720              		.loc 1 748 27 view .LVU544
 1721 002e 23EA0243 		bic	r3, r3, r2, lsl #16
 1722 0032 C0F81C38 		str	r3, [r0, #2076]
ARM GAS  /tmp/ccXMuxQe.s 			page 65


 1723              	.L118:
 751:stm32f4xx-hal-driver/Src/stm32f4xx_ll_usb.c **** }
 1724              		.loc 1 751 3 is_stmt 1 view .LVU545
 752:stm32f4xx-hal-driver/Src/stm32f4xx_ll_usb.c **** 
 1725              		.loc 1 752 1 is_stmt 0 view .LVU546
 1726 0036 0020     		movs	r0, #0
 1727              	.LVL131:
 752:stm32f4xx-hal-driver/Src/stm32f4xx_ll_usb.c **** 
 1728              		.loc 1 752 1 view .LVU547
 1729 0038 7047     		bx	lr
 1730              	.LVL132:
 1731              	.L120:
 730:stm32f4xx-hal-driver/Src/stm32f4xx_ll_usb.c ****     {
 1732              		.loc 1 730 5 is_stmt 1 view .LVU548
 730:stm32f4xx-hal-driver/Src/stm32f4xx_ll_usb.c ****     {
 1733              		.loc 1 730 10 is_stmt 0 view .LVU549
 1734 003a 00EB4313 		add	r3, r0, r3, lsl #5
 1735              	.LVL133:
 730:stm32f4xx-hal-driver/Src/stm32f4xx_ll_usb.c ****     {
 1736              		.loc 1 730 26 view .LVU550
 1737 003e D3F80029 		ldr	r2, [r3, #2304]
 730:stm32f4xx-hal-driver/Src/stm32f4xx_ll_usb.c ****     {
 1738              		.loc 1 730 8 view .LVU551
 1739 0042 002A     		cmp	r2, #0
 1740 0044 12DB     		blt	.L122
 1741              	.LVL134:
 1742              	.L117:
 736:stm32f4xx-hal-driver/Src/stm32f4xx_ll_usb.c ****     USBx_DEVICE->DAINTMSK &= ~(USB_OTG_DAINTMSK_IEPM & (uint32_t)(1UL << (ep->num & EP_ADDR_MSK)));
 1743              		.loc 1 736 5 is_stmt 1 view .LVU552
 736:stm32f4xx-hal-driver/Src/stm32f4xx_ll_usb.c ****     USBx_DEVICE->DAINTMSK &= ~(USB_OTG_DAINTMSK_IEPM & (uint32_t)(1UL << (ep->num & EP_ADDR_MSK)));
 1744              		.loc 1 736 31 is_stmt 0 view .LVU553
 1745 0046 D3F80029 		ldr	r2, [r3, #2304]
 1746 004a 22F40042 		bic	r2, r2, #32768
 1747 004e C3F80029 		str	r2, [r3, #2304]
 737:stm32f4xx-hal-driver/Src/stm32f4xx_ll_usb.c ****   }
 1748              		.loc 1 737 5 is_stmt 1 view .LVU554
 737:stm32f4xx-hal-driver/Src/stm32f4xx_ll_usb.c ****   }
 1749              		.loc 1 737 27 is_stmt 0 view .LVU555
 1750 0052 D0F81C28 		ldr	r2, [r0, #2076]
 737:stm32f4xx-hal-driver/Src/stm32f4xx_ll_usb.c ****   }
 1751              		.loc 1 737 77 view .LVU556
 1752 0056 0B78     		ldrb	r3, [r1]	@ zero_extendqisi2
 737:stm32f4xx-hal-driver/Src/stm32f4xx_ll_usb.c ****   }
 1753              		.loc 1 737 83 view .LVU557
 1754 0058 03F00F01 		and	r1, r3, #15
 1755              	.LVL135:
 737:stm32f4xx-hal-driver/Src/stm32f4xx_ll_usb.c ****   }
 1756              		.loc 1 737 56 view .LVU558
 1757 005c 0123     		movs	r3, #1
 1758 005e 8B40     		lsls	r3, r3, r1
 737:stm32f4xx-hal-driver/Src/stm32f4xx_ll_usb.c ****   }
 1759              		.loc 1 737 54 view .LVU559
 1760 0060 9BB2     		uxth	r3, r3
 737:stm32f4xx-hal-driver/Src/stm32f4xx_ll_usb.c ****   }
 1761              		.loc 1 737 27 view .LVU560
 1762 0062 22EA0303 		bic	r3, r2, r3
 1763 0066 C0F81C38 		str	r3, [r0, #2076]
ARM GAS  /tmp/ccXMuxQe.s 			page 66


 1764 006a E4E7     		b	.L118
 1765              	.LVL136:
 1766              	.L122:
 732:stm32f4xx-hal-driver/Src/stm32f4xx_ll_usb.c ****       USBx_INEP(epnum)->DIEPCTL  |= USB_OTG_DIEPCTL_EPDIS;
 1767              		.loc 1 732 7 is_stmt 1 view .LVU561
 732:stm32f4xx-hal-driver/Src/stm32f4xx_ll_usb.c ****       USBx_INEP(epnum)->DIEPCTL  |= USB_OTG_DIEPCTL_EPDIS;
 1768              		.loc 1 732 34 is_stmt 0 view .LVU562
 1769 006c D3F80029 		ldr	r2, [r3, #2304]
 1770 0070 42F00062 		orr	r2, r2, #134217728
 1771 0074 C3F80029 		str	r2, [r3, #2304]
 1772              	.LVL137:
 733:stm32f4xx-hal-driver/Src/stm32f4xx_ll_usb.c ****     }
 1773              		.loc 1 733 7 is_stmt 1 view .LVU563
 733:stm32f4xx-hal-driver/Src/stm32f4xx_ll_usb.c ****     }
 1774              		.loc 1 733 34 is_stmt 0 view .LVU564
 1775 0078 D3F80029 		ldr	r2, [r3, #2304]
 1776 007c 42F08042 		orr	r2, r2, #1073741824
 1777 0080 C3F80029 		str	r2, [r3, #2304]
 1778 0084 DFE7     		b	.L117
 1779              	.LVL138:
 1780              	.L121:
 743:stm32f4xx-hal-driver/Src/stm32f4xx_ll_usb.c ****       USBx_OUTEP(epnum)->DOEPCTL  |= USB_OTG_DOEPCTL_EPDIS;
 1781              		.loc 1 743 7 is_stmt 1 view .LVU565
 743:stm32f4xx-hal-driver/Src/stm32f4xx_ll_usb.c ****       USBx_OUTEP(epnum)->DOEPCTL  |= USB_OTG_DOEPCTL_EPDIS;
 1782              		.loc 1 743 35 is_stmt 0 view .LVU566
 1783 0086 D3F8002B 		ldr	r2, [r3, #2816]
 1784 008a 42F00062 		orr	r2, r2, #134217728
 1785 008e C3F8002B 		str	r2, [r3, #2816]
 1786              	.LVL139:
 744:stm32f4xx-hal-driver/Src/stm32f4xx_ll_usb.c ****     }
 1787              		.loc 1 744 7 is_stmt 1 view .LVU567
 744:stm32f4xx-hal-driver/Src/stm32f4xx_ll_usb.c ****     }
 1788              		.loc 1 744 35 is_stmt 0 view .LVU568
 1789 0092 D3F8002B 		ldr	r2, [r3, #2816]
 1790 0096 42F08042 		orr	r2, r2, #1073741824
 1791 009a C3F8002B 		str	r2, [r3, #2816]
 1792 009e B9E7     		b	.L119
 1793              		.cfi_endproc
 1794              	.LFE252:
 1796              		.section	.text.USB_EPStopXfer,"ax",%progbits
 1797              		.align	1
 1798              		.global	USB_EPStopXfer
 1799              		.syntax unified
 1800              		.thumb
 1801              		.thumb_func
 1802              		.fpu fpv4-sp-d16
 1804              	USB_EPStopXfer:
 1805              	.LVL140:
 1806              	.LFB254:
 937:stm32f4xx-hal-driver/Src/stm32f4xx_ll_usb.c ****   __IO uint32_t count = 0U;
 1807              		.loc 1 937 1 is_stmt 1 view -0
 1808              		.cfi_startproc
 1809              		@ args = 0, pretend = 0, frame = 8
 1810              		@ frame_needed = 0, uses_anonymous_args = 0
 1811              		@ link register save eliminated.
 937:stm32f4xx-hal-driver/Src/stm32f4xx_ll_usb.c ****   __IO uint32_t count = 0U;
 1812              		.loc 1 937 1 is_stmt 0 view .LVU570
ARM GAS  /tmp/ccXMuxQe.s 			page 67


 1813 0000 30B4     		push	{r4, r5}
 1814              	.LCFI28:
 1815              		.cfi_def_cfa_offset 8
 1816              		.cfi_offset 4, -8
 1817              		.cfi_offset 5, -4
 1818 0002 82B0     		sub	sp, sp, #8
 1819              	.LCFI29:
 1820              		.cfi_def_cfa_offset 16
 1821 0004 0346     		mov	r3, r0
 938:stm32f4xx-hal-driver/Src/stm32f4xx_ll_usb.c ****   HAL_StatusTypeDef ret = HAL_OK;
 1822              		.loc 1 938 3 is_stmt 1 view .LVU571
 938:stm32f4xx-hal-driver/Src/stm32f4xx_ll_usb.c ****   HAL_StatusTypeDef ret = HAL_OK;
 1823              		.loc 1 938 17 is_stmt 0 view .LVU572
 1824 0006 0022     		movs	r2, #0
 1825 0008 0192     		str	r2, [sp, #4]
 939:stm32f4xx-hal-driver/Src/stm32f4xx_ll_usb.c ****   uint32_t USBx_BASE = (uint32_t)USBx;
 1826              		.loc 1 939 3 is_stmt 1 view .LVU573
 1827              	.LVL141:
 940:stm32f4xx-hal-driver/Src/stm32f4xx_ll_usb.c **** 
 1828              		.loc 1 940 3 view .LVU574
 940:stm32f4xx-hal-driver/Src/stm32f4xx_ll_usb.c **** 
 1829              		.loc 1 940 12 is_stmt 0 view .LVU575
 1830 000a 0446     		mov	r4, r0
 1831              	.LVL142:
 943:stm32f4xx-hal-driver/Src/stm32f4xx_ll_usb.c ****   {
 1832              		.loc 1 943 3 is_stmt 1 view .LVU576
 943:stm32f4xx-hal-driver/Src/stm32f4xx_ll_usb.c ****   {
 1833              		.loc 1 943 9 is_stmt 0 view .LVU577
 1834 000c 4878     		ldrb	r0, [r1, #1]	@ zero_extendqisi2
 1835              	.LVL143:
 943:stm32f4xx-hal-driver/Src/stm32f4xx_ll_usb.c ****   {
 1836              		.loc 1 943 6 view .LVU578
 1837 000e 0128     		cmp	r0, #1
 1838 0010 0AD0     		beq	.L132
 965:stm32f4xx-hal-driver/Src/stm32f4xx_ll_usb.c ****     {
 1839              		.loc 1 965 5 is_stmt 1 view .LVU579
 965:stm32f4xx-hal-driver/Src/stm32f4xx_ll_usb.c ****     {
 1840              		.loc 1 965 11 is_stmt 0 view .LVU580
 1841 0012 0A78     		ldrb	r2, [r1]	@ zero_extendqisi2
 1842 0014 03EB4212 		add	r2, r3, r2, lsl #5
 965:stm32f4xx-hal-driver/Src/stm32f4xx_ll_usb.c ****     {
 1843              		.loc 1 965 30 view .LVU581
 1844 0018 D2F8000B 		ldr	r0, [r2, #2816]
 965:stm32f4xx-hal-driver/Src/stm32f4xx_ll_usb.c ****     {
 1845              		.loc 1 965 8 view .LVU582
 1846 001c 0028     		cmp	r0, #0
 1847 001e 2CDB     		blt	.L133
 939:stm32f4xx-hal-driver/Src/stm32f4xx_ll_usb.c ****   uint32_t USBx_BASE = (uint32_t)USBx;
 1848              		.loc 1 939 21 view .LVU583
 1849 0020 0020     		movs	r0, #0
 1850              	.LVL144:
 1851              	.L125:
 983:stm32f4xx-hal-driver/Src/stm32f4xx_ll_usb.c **** }
 1852              		.loc 1 983 3 is_stmt 1 view .LVU584
 984:stm32f4xx-hal-driver/Src/stm32f4xx_ll_usb.c **** 
 1853              		.loc 1 984 1 is_stmt 0 view .LVU585
 1854 0022 02B0     		add	sp, sp, #8
ARM GAS  /tmp/ccXMuxQe.s 			page 68


 1855              	.LCFI30:
 1856              		.cfi_remember_state
 1857              		.cfi_def_cfa_offset 8
 1858              		@ sp needed
 1859 0024 30BC     		pop	{r4, r5}
 1860              	.LCFI31:
 1861              		.cfi_restore 5
 1862              		.cfi_restore 4
 1863              		.cfi_def_cfa_offset 0
 1864              	.LVL145:
 984:stm32f4xx-hal-driver/Src/stm32f4xx_ll_usb.c **** 
 1865              		.loc 1 984 1 view .LVU586
 1866 0026 7047     		bx	lr
 1867              	.LVL146:
 1868              	.L132:
 1869              	.LCFI32:
 1870              		.cfi_restore_state
 946:stm32f4xx-hal-driver/Src/stm32f4xx_ll_usb.c ****     {
 1871              		.loc 1 946 5 is_stmt 1 view .LVU587
 946:stm32f4xx-hal-driver/Src/stm32f4xx_ll_usb.c ****     {
 1872              		.loc 1 946 11 is_stmt 0 view .LVU588
 1873 0028 0A78     		ldrb	r2, [r1]	@ zero_extendqisi2
 1874 002a 03EB4212 		add	r2, r3, r2, lsl #5
 946:stm32f4xx-hal-driver/Src/stm32f4xx_ll_usb.c ****     {
 1875              		.loc 1 946 29 view .LVU589
 1876 002e D2F80059 		ldr	r5, [r2, #2304]
 946:stm32f4xx-hal-driver/Src/stm32f4xx_ll_usb.c ****     {
 1877              		.loc 1 946 8 view .LVU590
 1878 0032 002D     		cmp	r5, #0
 1879 0034 01DB     		blt	.L134
 939:stm32f4xx-hal-driver/Src/stm32f4xx_ll_usb.c ****   uint32_t USBx_BASE = (uint32_t)USBx;
 1880              		.loc 1 939 21 view .LVU591
 1881 0036 0020     		movs	r0, #0
 1882 0038 F3E7     		b	.L125
 1883              	.L134:
 948:stm32f4xx-hal-driver/Src/stm32f4xx_ll_usb.c ****       USBx_INEP(ep->num)->DIEPCTL |= (USB_OTG_DIEPCTL_EPDIS);
 1884              		.loc 1 948 7 is_stmt 1 view .LVU592
 948:stm32f4xx-hal-driver/Src/stm32f4xx_ll_usb.c ****       USBx_INEP(ep->num)->DIEPCTL |= (USB_OTG_DIEPCTL_EPDIS);
 1885              		.loc 1 948 35 is_stmt 0 view .LVU593
 1886 003a D2F80059 		ldr	r5, [r2, #2304]
 1887 003e 45F00065 		orr	r5, r5, #134217728
 1888 0042 C2F80059 		str	r5, [r2, #2304]
 949:stm32f4xx-hal-driver/Src/stm32f4xx_ll_usb.c **** 
 1889              		.loc 1 949 7 is_stmt 1 view .LVU594
 1890 0046 0A78     		ldrb	r2, [r1]	@ zero_extendqisi2
 949:stm32f4xx-hal-driver/Src/stm32f4xx_ll_usb.c **** 
 1891              		.loc 1 949 35 is_stmt 0 view .LVU595
 1892 0048 03EB4213 		add	r3, r3, r2, lsl #5
 1893              	.LVL147:
 949:stm32f4xx-hal-driver/Src/stm32f4xx_ll_usb.c **** 
 1894              		.loc 1 949 35 view .LVU596
 1895 004c D3F80029 		ldr	r2, [r3, #2304]
 1896 0050 42F08042 		orr	r2, r2, #1073741824
 1897 0054 C3F80029 		str	r2, [r3, #2304]
 1898              	.L126:
 951:stm32f4xx-hal-driver/Src/stm32f4xx_ll_usb.c ****       {
 1899              		.loc 1 951 7 is_stmt 1 view .LVU597
ARM GAS  /tmp/ccXMuxQe.s 			page 69


 953:stm32f4xx-hal-driver/Src/stm32f4xx_ll_usb.c **** 
 1900              		.loc 1 953 9 view .LVU598
 953:stm32f4xx-hal-driver/Src/stm32f4xx_ll_usb.c **** 
 1901              		.loc 1 953 14 is_stmt 0 view .LVU599
 1902 0058 019B     		ldr	r3, [sp, #4]
 1903 005a 0133     		adds	r3, r3, #1
 1904 005c 0193     		str	r3, [sp, #4]
 955:stm32f4xx-hal-driver/Src/stm32f4xx_ll_usb.c ****         {
 1905              		.loc 1 955 9 is_stmt 1 view .LVU600
 955:stm32f4xx-hal-driver/Src/stm32f4xx_ll_usb.c ****         {
 1906              		.loc 1 955 19 is_stmt 0 view .LVU601
 1907 005e 019A     		ldr	r2, [sp, #4]
 955:stm32f4xx-hal-driver/Src/stm32f4xx_ll_usb.c ****         {
 1908              		.loc 1 955 12 view .LVU602
 1909 0060 42F21073 		movw	r3, #10000
 1910 0064 9A42     		cmp	r2, r3
 1911 0066 DCD8     		bhi	.L125
 960:stm32f4xx-hal-driver/Src/stm32f4xx_ll_usb.c ****     }
 1912              		.loc 1 960 15 is_stmt 1 view .LVU603
 960:stm32f4xx-hal-driver/Src/stm32f4xx_ll_usb.c ****     }
 1913              		.loc 1 960 18 is_stmt 0 view .LVU604
 1914 0068 0B78     		ldrb	r3, [r1]	@ zero_extendqisi2
 1915 006a 04EB4313 		add	r3, r4, r3, lsl #5
 960:stm32f4xx-hal-driver/Src/stm32f4xx_ll_usb.c ****     }
 1916              		.loc 1 960 36 view .LVU605
 1917 006e D3F80039 		ldr	r3, [r3, #2304]
 960:stm32f4xx-hal-driver/Src/stm32f4xx_ll_usb.c ****     }
 1918              		.loc 1 960 7 view .LVU606
 1919 0072 002B     		cmp	r3, #0
 1920 0074 F0DB     		blt	.L126
 939:stm32f4xx-hal-driver/Src/stm32f4xx_ll_usb.c ****   uint32_t USBx_BASE = (uint32_t)USBx;
 1921              		.loc 1 939 21 view .LVU607
 1922 0076 0020     		movs	r0, #0
 1923 0078 D3E7     		b	.L125
 1924              	.LVL148:
 1925              	.L133:
 967:stm32f4xx-hal-driver/Src/stm32f4xx_ll_usb.c ****       USBx_OUTEP(ep->num)->DOEPCTL |= (USB_OTG_DOEPCTL_EPDIS);
 1926              		.loc 1 967 7 is_stmt 1 view .LVU608
 967:stm32f4xx-hal-driver/Src/stm32f4xx_ll_usb.c ****       USBx_OUTEP(ep->num)->DOEPCTL |= (USB_OTG_DOEPCTL_EPDIS);
 1927              		.loc 1 967 36 is_stmt 0 view .LVU609
 1928 007a D2F8000B 		ldr	r0, [r2, #2816]
 1929 007e 40F00060 		orr	r0, r0, #134217728
 1930 0082 C2F8000B 		str	r0, [r2, #2816]
 968:stm32f4xx-hal-driver/Src/stm32f4xx_ll_usb.c **** 
 1931              		.loc 1 968 7 is_stmt 1 view .LVU610
 1932 0086 0878     		ldrb	r0, [r1]	@ zero_extendqisi2
 968:stm32f4xx-hal-driver/Src/stm32f4xx_ll_usb.c **** 
 1933              		.loc 1 968 36 is_stmt 0 view .LVU611
 1934 0088 03EB4013 		add	r3, r3, r0, lsl #5
 1935              	.LVL149:
 968:stm32f4xx-hal-driver/Src/stm32f4xx_ll_usb.c **** 
 1936              		.loc 1 968 36 view .LVU612
 1937 008c D3F8002B 		ldr	r2, [r3, #2816]
 1938 0090 42F08042 		orr	r2, r2, #1073741824
 1939 0094 C3F8002B 		str	r2, [r3, #2816]
 1940              	.L127:
 970:stm32f4xx-hal-driver/Src/stm32f4xx_ll_usb.c ****       {
ARM GAS  /tmp/ccXMuxQe.s 			page 70


 1941              		.loc 1 970 7 is_stmt 1 view .LVU613
 972:stm32f4xx-hal-driver/Src/stm32f4xx_ll_usb.c **** 
 1942              		.loc 1 972 9 view .LVU614
 972:stm32f4xx-hal-driver/Src/stm32f4xx_ll_usb.c **** 
 1943              		.loc 1 972 14 is_stmt 0 view .LVU615
 1944 0098 019B     		ldr	r3, [sp, #4]
 1945 009a 0133     		adds	r3, r3, #1
 1946 009c 0193     		str	r3, [sp, #4]
 974:stm32f4xx-hal-driver/Src/stm32f4xx_ll_usb.c ****         {
 1947              		.loc 1 974 9 is_stmt 1 view .LVU616
 974:stm32f4xx-hal-driver/Src/stm32f4xx_ll_usb.c ****         {
 1948              		.loc 1 974 19 is_stmt 0 view .LVU617
 1949 009e 019A     		ldr	r2, [sp, #4]
 974:stm32f4xx-hal-driver/Src/stm32f4xx_ll_usb.c ****         {
 1950              		.loc 1 974 12 view .LVU618
 1951 00a0 42F21073 		movw	r3, #10000
 1952 00a4 9A42     		cmp	r2, r3
 1953 00a6 08D8     		bhi	.L130
 979:stm32f4xx-hal-driver/Src/stm32f4xx_ll_usb.c ****     }
 1954              		.loc 1 979 15 is_stmt 1 view .LVU619
 979:stm32f4xx-hal-driver/Src/stm32f4xx_ll_usb.c ****     }
 1955              		.loc 1 979 18 is_stmt 0 view .LVU620
 1956 00a8 0B78     		ldrb	r3, [r1]	@ zero_extendqisi2
 1957 00aa 04EB4313 		add	r3, r4, r3, lsl #5
 979:stm32f4xx-hal-driver/Src/stm32f4xx_ll_usb.c ****     }
 1958              		.loc 1 979 37 view .LVU621
 1959 00ae D3F8003B 		ldr	r3, [r3, #2816]
 979:stm32f4xx-hal-driver/Src/stm32f4xx_ll_usb.c ****     }
 1960              		.loc 1 979 7 view .LVU622
 1961 00b2 002B     		cmp	r3, #0
 1962 00b4 F0DB     		blt	.L127
 939:stm32f4xx-hal-driver/Src/stm32f4xx_ll_usb.c ****   uint32_t USBx_BASE = (uint32_t)USBx;
 1963              		.loc 1 939 21 view .LVU623
 1964 00b6 0020     		movs	r0, #0
 1965 00b8 B3E7     		b	.L125
 1966              	.L130:
 976:stm32f4xx-hal-driver/Src/stm32f4xx_ll_usb.c ****           break;
 1967              		.loc 1 976 15 view .LVU624
 1968 00ba 0120     		movs	r0, #1
 1969 00bc B1E7     		b	.L125
 1970              		.cfi_endproc
 1971              	.LFE254:
 1973              		.section	.text.USB_WritePacket,"ax",%progbits
 1974              		.align	1
 1975              		.global	USB_WritePacket
 1976              		.syntax unified
 1977              		.thumb
 1978              		.thumb_func
 1979              		.fpu fpv4-sp-d16
 1981              	USB_WritePacket:
 1982              	.LVL150:
 1983              	.LFB255:
1002:stm32f4xx-hal-driver/Src/stm32f4xx_ll_usb.c ****   uint32_t USBx_BASE = (uint32_t)USBx;
 1984              		.loc 1 1002 1 is_stmt 1 view -0
 1985              		.cfi_startproc
 1986              		@ args = 4, pretend = 0, frame = 0
 1987              		@ frame_needed = 0, uses_anonymous_args = 0
ARM GAS  /tmp/ccXMuxQe.s 			page 71


 1988              		@ link register save eliminated.
1002:stm32f4xx-hal-driver/Src/stm32f4xx_ll_usb.c ****   uint32_t USBx_BASE = (uint32_t)USBx;
 1989              		.loc 1 1002 1 is_stmt 0 view .LVU626
 1990 0000 70B4     		push	{r4, r5, r6}
 1991              	.LCFI33:
 1992              		.cfi_def_cfa_offset 12
 1993              		.cfi_offset 4, -12
 1994              		.cfi_offset 5, -8
 1995              		.cfi_offset 6, -4
 1996 0002 9DF80C40 		ldrb	r4, [sp, #12]	@ zero_extendqisi2
1003:stm32f4xx-hal-driver/Src/stm32f4xx_ll_usb.c ****   uint8_t *pSrc = src;
 1997              		.loc 1 1003 3 is_stmt 1 view .LVU627
 1998              	.LVL151:
1004:stm32f4xx-hal-driver/Src/stm32f4xx_ll_usb.c ****   uint32_t count32b;
 1999              		.loc 1 1004 3 view .LVU628
1005:stm32f4xx-hal-driver/Src/stm32f4xx_ll_usb.c ****   uint32_t i;
 2000              		.loc 1 1005 3 view .LVU629
1006:stm32f4xx-hal-driver/Src/stm32f4xx_ll_usb.c **** 
 2001              		.loc 1 1006 3 view .LVU630
1008:stm32f4xx-hal-driver/Src/stm32f4xx_ll_usb.c ****   {
 2002              		.loc 1 1008 3 view .LVU631
1008:stm32f4xx-hal-driver/Src/stm32f4xx_ll_usb.c ****   {
 2003              		.loc 1 1008 6 is_stmt 0 view .LVU632
 2004 0006 64B9     		cbnz	r4, .L136
1010:stm32f4xx-hal-driver/Src/stm32f4xx_ll_usb.c ****     for (i = 0U; i < count32b; i++)
 2005              		.loc 1 1010 5 is_stmt 1 view .LVU633
1010:stm32f4xx-hal-driver/Src/stm32f4xx_ll_usb.c ****     for (i = 0U; i < count32b; i++)
 2006              		.loc 1 1010 31 is_stmt 0 view .LVU634
 2007 0008 0333     		adds	r3, r3, #3
 2008              	.LVL152:
1010:stm32f4xx-hal-driver/Src/stm32f4xx_ll_usb.c ****     for (i = 0U; i < count32b; i++)
 2009              		.loc 1 1010 14 view .LVU635
 2010 000a 9D08     		lsrs	r5, r3, #2
 2011              	.LVL153:
1011:stm32f4xx-hal-driver/Src/stm32f4xx_ll_usb.c ****     {
 2012              		.loc 1 1011 5 is_stmt 1 view .LVU636
 2013              	.L137:
1011:stm32f4xx-hal-driver/Src/stm32f4xx_ll_usb.c ****     {
 2014              		.loc 1 1011 18 discriminator 1 view .LVU637
1011:stm32f4xx-hal-driver/Src/stm32f4xx_ll_usb.c ****     {
 2015              		.loc 1 1011 5 is_stmt 0 discriminator 1 view .LVU638
 2016 000c AC42     		cmp	r4, r5
 2017 000e 08D2     		bcs	.L136
1013:stm32f4xx-hal-driver/Src/stm32f4xx_ll_usb.c ****       pSrc++;
 2018              		.loc 1 1013 7 is_stmt 1 discriminator 3 view .LVU639
 2019 0010 00EB0233 		add	r3, r0, r2, lsl #12
 2020 0014 03F58053 		add	r3, r3, #4096
1013:stm32f4xx-hal-driver/Src/stm32f4xx_ll_usb.c ****       pSrc++;
 2021              		.loc 1 1013 41 is_stmt 0 discriminator 3 view .LVU640
 2022 0018 51F8046B 		ldr	r6, [r1], #4	@ unaligned
 2023              	.LVL154:
1013:stm32f4xx-hal-driver/Src/stm32f4xx_ll_usb.c ****       pSrc++;
 2024              		.loc 1 1013 39 discriminator 3 view .LVU641
 2025 001c 1E60     		str	r6, [r3]
1014:stm32f4xx-hal-driver/Src/stm32f4xx_ll_usb.c ****       pSrc++;
 2026              		.loc 1 1014 7 is_stmt 1 discriminator 3 view .LVU642
 2027              	.LVL155:
ARM GAS  /tmp/ccXMuxQe.s 			page 72


1015:stm32f4xx-hal-driver/Src/stm32f4xx_ll_usb.c ****       pSrc++;
 2028              		.loc 1 1015 7 discriminator 3 view .LVU643
1016:stm32f4xx-hal-driver/Src/stm32f4xx_ll_usb.c ****       pSrc++;
 2029              		.loc 1 1016 7 discriminator 3 view .LVU644
1017:stm32f4xx-hal-driver/Src/stm32f4xx_ll_usb.c ****     }
 2030              		.loc 1 1017 7 discriminator 3 view .LVU645
1011:stm32f4xx-hal-driver/Src/stm32f4xx_ll_usb.c ****     {
 2031              		.loc 1 1011 32 discriminator 3 view .LVU646
1011:stm32f4xx-hal-driver/Src/stm32f4xx_ll_usb.c ****     {
 2032              		.loc 1 1011 33 is_stmt 0 discriminator 3 view .LVU647
 2033 001e 0134     		adds	r4, r4, #1
 2034              	.LVL156:
1011:stm32f4xx-hal-driver/Src/stm32f4xx_ll_usb.c ****     {
 2035              		.loc 1 1011 33 discriminator 3 view .LVU648
 2036 0020 F4E7     		b	.L137
 2037              	.LVL157:
 2038              	.L136:
1021:stm32f4xx-hal-driver/Src/stm32f4xx_ll_usb.c **** }
 2039              		.loc 1 1021 3 is_stmt 1 view .LVU649
1022:stm32f4xx-hal-driver/Src/stm32f4xx_ll_usb.c **** 
 2040              		.loc 1 1022 1 is_stmt 0 view .LVU650
 2041 0022 0020     		movs	r0, #0
 2042              	.LVL158:
1022:stm32f4xx-hal-driver/Src/stm32f4xx_ll_usb.c **** 
 2043              		.loc 1 1022 1 view .LVU651
 2044 0024 70BC     		pop	{r4, r5, r6}
 2045              	.LCFI34:
 2046              		.cfi_restore 6
 2047              		.cfi_restore 5
 2048              		.cfi_restore 4
 2049              		.cfi_def_cfa_offset 0
 2050              	.LVL159:
1022:stm32f4xx-hal-driver/Src/stm32f4xx_ll_usb.c **** 
 2051              		.loc 1 1022 1 view .LVU652
 2052 0026 7047     		bx	lr
 2053              		.cfi_endproc
 2054              	.LFE255:
 2056              		.section	.text.USB_EPStartXfer,"ax",%progbits
 2057              		.align	1
 2058              		.global	USB_EPStartXfer
 2059              		.syntax unified
 2060              		.thumb
 2061              		.thumb_func
 2062              		.fpu fpv4-sp-d16
 2064              	USB_EPStartXfer:
 2065              	.LVL160:
 2066              	.LFB253:
 765:stm32f4xx-hal-driver/Src/stm32f4xx_ll_usb.c ****   uint32_t USBx_BASE = (uint32_t)USBx;
 2067              		.loc 1 765 1 is_stmt 1 view -0
 2068              		.cfi_startproc
 2069              		@ args = 0, pretend = 0, frame = 0
 2070              		@ frame_needed = 0, uses_anonymous_args = 0
 765:stm32f4xx-hal-driver/Src/stm32f4xx_ll_usb.c ****   uint32_t USBx_BASE = (uint32_t)USBx;
 2071              		.loc 1 765 1 is_stmt 0 view .LVU654
 2072 0000 F0B5     		push	{r4, r5, r6, r7, lr}
 2073              	.LCFI35:
 2074              		.cfi_def_cfa_offset 20
ARM GAS  /tmp/ccXMuxQe.s 			page 73


 2075              		.cfi_offset 4, -20
 2076              		.cfi_offset 5, -16
 2077              		.cfi_offset 6, -12
 2078              		.cfi_offset 7, -8
 2079              		.cfi_offset 14, -4
 2080 0002 83B0     		sub	sp, sp, #12
 2081              	.LCFI36:
 2082              		.cfi_def_cfa_offset 32
 766:stm32f4xx-hal-driver/Src/stm32f4xx_ll_usb.c ****   uint32_t epnum = (uint32_t)ep->num;
 2083              		.loc 1 766 3 is_stmt 1 view .LVU655
 2084              	.LVL161:
 767:stm32f4xx-hal-driver/Src/stm32f4xx_ll_usb.c ****   uint16_t pktcnt;
 2085              		.loc 1 767 3 view .LVU656
 767:stm32f4xx-hal-driver/Src/stm32f4xx_ll_usb.c ****   uint16_t pktcnt;
 2086              		.loc 1 767 32 is_stmt 0 view .LVU657
 2087 0004 0C78     		ldrb	r4, [r1]	@ zero_extendqisi2
 2088              	.LVL162:
 768:stm32f4xx-hal-driver/Src/stm32f4xx_ll_usb.c **** 
 2089              		.loc 1 768 3 is_stmt 1 view .LVU658
 771:stm32f4xx-hal-driver/Src/stm32f4xx_ll_usb.c ****   {
 2090              		.loc 1 771 3 view .LVU659
 771:stm32f4xx-hal-driver/Src/stm32f4xx_ll_usb.c ****   {
 2091              		.loc 1 771 9 is_stmt 0 view .LVU660
 2092 0006 4B78     		ldrb	r3, [r1, #1]	@ zero_extendqisi2
 771:stm32f4xx-hal-driver/Src/stm32f4xx_ll_usb.c ****   {
 2093              		.loc 1 771 6 view .LVU661
 2094 0008 012B     		cmp	r3, #1
 2095 000a 2FD0     		beq	.L163
 870:stm32f4xx-hal-driver/Src/stm32f4xx_ll_usb.c ****     USBx_OUTEP(epnum)->DOEPTSIZ &= ~(USB_OTG_DOEPTSIZ_PKTCNT);
 2096              		.loc 1 870 5 is_stmt 1 view .LVU662
 870:stm32f4xx-hal-driver/Src/stm32f4xx_ll_usb.c ****     USBx_OUTEP(epnum)->DOEPTSIZ &= ~(USB_OTG_DOEPTSIZ_PKTCNT);
 2097              		.loc 1 870 33 is_stmt 0 view .LVU663
 2098 000c 00EB4416 		add	r6, r0, r4, lsl #5
 2099 0010 06F53063 		add	r3, r6, #2816
 2100 0014 1D69     		ldr	r5, [r3, #16]
 2101 0016 ED0C     		lsrs	r5, r5, #19
 2102 0018 ED04     		lsls	r5, r5, #19
 2103 001a 1D61     		str	r5, [r3, #16]
 871:stm32f4xx-hal-driver/Src/stm32f4xx_ll_usb.c **** 
 2104              		.loc 1 871 5 is_stmt 1 view .LVU664
 871:stm32f4xx-hal-driver/Src/stm32f4xx_ll_usb.c **** 
 2105              		.loc 1 871 33 is_stmt 0 view .LVU665
 2106 001c 1D69     		ldr	r5, [r3, #16]
 2107 001e 25F0FF55 		bic	r5, r5, #534773760
 2108 0022 25F4C015 		bic	r5, r5, #1572864
 2109 0026 1D61     		str	r5, [r3, #16]
 873:stm32f4xx-hal-driver/Src/stm32f4xx_ll_usb.c ****     {
 2110              		.loc 1 873 5 is_stmt 1 view .LVU666
 873:stm32f4xx-hal-driver/Src/stm32f4xx_ll_usb.c ****     {
 2111              		.loc 1 873 8 is_stmt 0 view .LVU667
 2112 0028 002C     		cmp	r4, #0
 2113 002a 40F0CD80 		bne	.L155
 875:stm32f4xx-hal-driver/Src/stm32f4xx_ll_usb.c ****       {
 2114              		.loc 1 875 7 is_stmt 1 view .LVU668
 875:stm32f4xx-hal-driver/Src/stm32f4xx_ll_usb.c ****       {
 2115              		.loc 1 875 13 is_stmt 0 view .LVU669
 2116 002e 0C69     		ldr	r4, [r1, #16]
ARM GAS  /tmp/ccXMuxQe.s 			page 74


 2117              	.LVL163:
 875:stm32f4xx-hal-driver/Src/stm32f4xx_ll_usb.c ****       {
 2118              		.loc 1 875 10 view .LVU670
 2119 0030 0CB1     		cbz	r4, .L156
 877:stm32f4xx-hal-driver/Src/stm32f4xx_ll_usb.c ****       }
 2120              		.loc 1 877 9 is_stmt 1 view .LVU671
 877:stm32f4xx-hal-driver/Src/stm32f4xx_ll_usb.c ****       }
 2121              		.loc 1 877 26 is_stmt 0 view .LVU672
 2122 0032 8C68     		ldr	r4, [r1, #8]
 877:stm32f4xx-hal-driver/Src/stm32f4xx_ll_usb.c ****       }
 2123              		.loc 1 877 22 view .LVU673
 2124 0034 0C61     		str	r4, [r1, #16]
 2125              	.L156:
 881:stm32f4xx-hal-driver/Src/stm32f4xx_ll_usb.c **** 
 2126              		.loc 1 881 7 is_stmt 1 view .LVU674
 881:stm32f4xx-hal-driver/Src/stm32f4xx_ll_usb.c **** 
 2127              		.loc 1 881 25 is_stmt 0 view .LVU675
 2128 0036 8C68     		ldr	r4, [r1, #8]
 881:stm32f4xx-hal-driver/Src/stm32f4xx_ll_usb.c **** 
 2129              		.loc 1 881 21 view .LVU676
 2130 0038 0C62     		str	r4, [r1, #32]
 883:stm32f4xx-hal-driver/Src/stm32f4xx_ll_usb.c ****       USBx_OUTEP(epnum)->DOEPTSIZ |= (USB_OTG_DOEPTSIZ_PKTCNT & (1U << 19));
 2131              		.loc 1 883 7 is_stmt 1 view .LVU677
 883:stm32f4xx-hal-driver/Src/stm32f4xx_ll_usb.c ****       USBx_OUTEP(epnum)->DOEPTSIZ |= (USB_OTG_DOEPTSIZ_PKTCNT & (1U << 19));
 2132              		.loc 1 883 35 is_stmt 0 view .LVU678
 2133 003a 1D69     		ldr	r5, [r3, #16]
 883:stm32f4xx-hal-driver/Src/stm32f4xx_ll_usb.c ****       USBx_OUTEP(epnum)->DOEPTSIZ |= (USB_OTG_DOEPTSIZ_PKTCNT & (1U << 19));
 2134              		.loc 1 883 63 view .LVU679
 2135 003c C4F31204 		ubfx	r4, r4, #0, #19
 883:stm32f4xx-hal-driver/Src/stm32f4xx_ll_usb.c ****       USBx_OUTEP(epnum)->DOEPTSIZ |= (USB_OTG_DOEPTSIZ_PKTCNT & (1U << 19));
 2136              		.loc 1 883 35 view .LVU680
 2137 0040 2C43     		orrs	r4, r4, r5
 2138 0042 1C61     		str	r4, [r3, #16]
 884:stm32f4xx-hal-driver/Src/stm32f4xx_ll_usb.c ****     }
 2139              		.loc 1 884 7 is_stmt 1 view .LVU681
 884:stm32f4xx-hal-driver/Src/stm32f4xx_ll_usb.c ****     }
 2140              		.loc 1 884 35 is_stmt 0 view .LVU682
 2141 0044 1C69     		ldr	r4, [r3, #16]
 2142 0046 44F40024 		orr	r4, r4, #524288
 2143 004a 1C61     		str	r4, [r3, #16]
 2144              	.L157:
 903:stm32f4xx-hal-driver/Src/stm32f4xx_ll_usb.c ****     {
 2145              		.loc 1 903 5 is_stmt 1 view .LVU683
 903:stm32f4xx-hal-driver/Src/stm32f4xx_ll_usb.c ****     {
 2146              		.loc 1 903 8 is_stmt 0 view .LVU684
 2147 004c 012A     		cmp	r2, #1
 2148 004e 00F0DE80 		beq	.L164
 2149              	.LVL164:
 2150              	.L159:
 911:stm32f4xx-hal-driver/Src/stm32f4xx_ll_usb.c ****     {
 2151              		.loc 1 911 5 is_stmt 1 view .LVU685
 911:stm32f4xx-hal-driver/Src/stm32f4xx_ll_usb.c ****     {
 2152              		.loc 1 911 11 is_stmt 0 view .LVU686
 2153 0052 0B79     		ldrb	r3, [r1, #4]	@ zero_extendqisi2
 911:stm32f4xx-hal-driver/Src/stm32f4xx_ll_usb.c ****     {
 2154              		.loc 1 911 8 view .LVU687
 2155 0054 012B     		cmp	r3, #1
ARM GAS  /tmp/ccXMuxQe.s 			page 75


 2156 0056 00F0E080 		beq	.L165
 2157              	.L160:
 923:stm32f4xx-hal-driver/Src/stm32f4xx_ll_usb.c ****   }
 2158              		.loc 1 923 5 is_stmt 1 view .LVU688
 923:stm32f4xx-hal-driver/Src/stm32f4xx_ll_usb.c ****   }
 2159              		.loc 1 923 32 is_stmt 0 view .LVU689
 2160 005a D6F8003B 		ldr	r3, [r6, #2816]
 2161 005e 43F00443 		orr	r3, r3, #-2080374784
 2162 0062 C6F8003B 		str	r3, [r6, #2816]
 2163              	.LVL165:
 2164              	.L151:
 926:stm32f4xx-hal-driver/Src/stm32f4xx_ll_usb.c **** }
 2165              		.loc 1 926 3 is_stmt 1 view .LVU690
 927:stm32f4xx-hal-driver/Src/stm32f4xx_ll_usb.c **** 
 2166              		.loc 1 927 1 is_stmt 0 view .LVU691
 2167 0066 0020     		movs	r0, #0
 2168 0068 03B0     		add	sp, sp, #12
 2169              	.LCFI37:
 2170              		.cfi_remember_state
 2171              		.cfi_def_cfa_offset 20
 2172              		@ sp needed
 2173 006a F0BD     		pop	{r4, r5, r6, r7, pc}
 2174              	.LVL166:
 2175              	.L163:
 2176              	.LCFI38:
 2177              		.cfi_restore_state
 774:stm32f4xx-hal-driver/Src/stm32f4xx_ll_usb.c ****     {
 2178              		.loc 1 774 5 is_stmt 1 view .LVU692
 774:stm32f4xx-hal-driver/Src/stm32f4xx_ll_usb.c ****     {
 2179              		.loc 1 774 11 is_stmt 0 view .LVU693
 2180 006c 0B69     		ldr	r3, [r1, #16]
 774:stm32f4xx-hal-driver/Src/stm32f4xx_ll_usb.c ****     {
 2181              		.loc 1 774 8 view .LVU694
 2182 006e 83BB     		cbnz	r3, .L142
 776:stm32f4xx-hal-driver/Src/stm32f4xx_ll_usb.c ****       USBx_INEP(epnum)->DIEPTSIZ |= (USB_OTG_DIEPTSIZ_PKTCNT & (1U << 19));
 2183              		.loc 1 776 7 is_stmt 1 view .LVU695
 776:stm32f4xx-hal-driver/Src/stm32f4xx_ll_usb.c ****       USBx_INEP(epnum)->DIEPTSIZ |= (USB_OTG_DIEPTSIZ_PKTCNT & (1U << 19));
 2184              		.loc 1 776 34 is_stmt 0 view .LVU696
 2185 0070 00EB4413 		add	r3, r0, r4, lsl #5
 2186 0074 D3F81059 		ldr	r5, [r3, #2320]
 2187 0078 25F0FF55 		bic	r5, r5, #534773760
 2188 007c 25F4C015 		bic	r5, r5, #1572864
 2189 0080 C3F81059 		str	r5, [r3, #2320]
 777:stm32f4xx-hal-driver/Src/stm32f4xx_ll_usb.c ****       USBx_INEP(epnum)->DIEPTSIZ &= ~(USB_OTG_DIEPTSIZ_XFRSIZ);
 2190              		.loc 1 777 7 is_stmt 1 view .LVU697
 777:stm32f4xx-hal-driver/Src/stm32f4xx_ll_usb.c ****       USBx_INEP(epnum)->DIEPTSIZ &= ~(USB_OTG_DIEPTSIZ_XFRSIZ);
 2191              		.loc 1 777 34 is_stmt 0 view .LVU698
 2192 0084 D3F81059 		ldr	r5, [r3, #2320]
 2193 0088 45F40025 		orr	r5, r5, #524288
 2194 008c C3F81059 		str	r5, [r3, #2320]
 778:stm32f4xx-hal-driver/Src/stm32f4xx_ll_usb.c ****     }
 2195              		.loc 1 778 7 is_stmt 1 view .LVU699
 778:stm32f4xx-hal-driver/Src/stm32f4xx_ll_usb.c ****     }
 2196              		.loc 1 778 34 is_stmt 0 view .LVU700
 2197 0090 D3F81059 		ldr	r5, [r3, #2320]
 2198 0094 ED0C     		lsrs	r5, r5, #19
 2199 0096 ED04     		lsls	r5, r5, #19
ARM GAS  /tmp/ccXMuxQe.s 			page 76


 2200 0098 C3F81059 		str	r5, [r3, #2320]
 2201              	.L143:
 814:stm32f4xx-hal-driver/Src/stm32f4xx_ll_usb.c ****     {
 2202              		.loc 1 814 5 is_stmt 1 view .LVU701
 814:stm32f4xx-hal-driver/Src/stm32f4xx_ll_usb.c ****     {
 2203              		.loc 1 814 8 is_stmt 0 view .LVU702
 2204 009c 012A     		cmp	r2, #1
 2205 009e 51D0     		beq	.L166
 839:stm32f4xx-hal-driver/Src/stm32f4xx_ll_usb.c **** 
 2206              		.loc 1 839 7 is_stmt 1 view .LVU703
 839:stm32f4xx-hal-driver/Src/stm32f4xx_ll_usb.c **** 
 2207              		.loc 1 839 33 is_stmt 0 view .LVU704
 2208 00a0 00EB4414 		add	r4, r0, r4, lsl #5
 2209              	.LVL167:
 839:stm32f4xx-hal-driver/Src/stm32f4xx_ll_usb.c **** 
 2210              		.loc 1 839 33 view .LVU705
 2211 00a4 D4F80039 		ldr	r3, [r4, #2304]
 2212 00a8 43F00443 		orr	r3, r3, #-2080374784
 2213 00ac C4F80039 		str	r3, [r4, #2304]
 841:stm32f4xx-hal-driver/Src/stm32f4xx_ll_usb.c ****       {
 2214              		.loc 1 841 7 is_stmt 1 view .LVU706
 841:stm32f4xx-hal-driver/Src/stm32f4xx_ll_usb.c ****       {
 2215              		.loc 1 841 13 is_stmt 0 view .LVU707
 2216 00b0 0B79     		ldrb	r3, [r1, #4]	@ zero_extendqisi2
 841:stm32f4xx-hal-driver/Src/stm32f4xx_ll_usb.c ****       {
 2217              		.loc 1 841 10 view .LVU708
 2218 00b2 012B     		cmp	r3, #1
 2219 00b4 6FD0     		beq	.L152
 844:stm32f4xx-hal-driver/Src/stm32f4xx_ll_usb.c ****         {
 2220              		.loc 1 844 9 is_stmt 1 view .LVU709
 844:stm32f4xx-hal-driver/Src/stm32f4xx_ll_usb.c ****         {
 2221              		.loc 1 844 15 is_stmt 0 view .LVU710
 2222 00b6 0B69     		ldr	r3, [r1, #16]
 844:stm32f4xx-hal-driver/Src/stm32f4xx_ll_usb.c ****         {
 2223              		.loc 1 844 12 view .LVU711
 2224 00b8 002B     		cmp	r3, #0
 2225 00ba D4D0     		beq	.L151
 846:stm32f4xx-hal-driver/Src/stm32f4xx_ll_usb.c ****         }
 2226              		.loc 1 846 11 is_stmt 1 view .LVU712
 846:stm32f4xx-hal-driver/Src/stm32f4xx_ll_usb.c ****         }
 2227              		.loc 1 846 35 is_stmt 0 view .LVU713
 2228 00bc D0F83438 		ldr	r3, [r0, #2100]
 846:stm32f4xx-hal-driver/Src/stm32f4xx_ll_usb.c ****         }
 2229              		.loc 1 846 48 view .LVU714
 2230 00c0 0A78     		ldrb	r2, [r1]	@ zero_extendqisi2
 2231              	.LVL168:
 846:stm32f4xx-hal-driver/Src/stm32f4xx_ll_usb.c ****         }
 2232              		.loc 1 846 54 view .LVU715
 2233 00c2 02F00F01 		and	r1, r2, #15
 2234              	.LVL169:
 846:stm32f4xx-hal-driver/Src/stm32f4xx_ll_usb.c ****         }
 2235              		.loc 1 846 42 view .LVU716
 2236 00c6 0122     		movs	r2, #1
 2237 00c8 8A40     		lsls	r2, r2, r1
 846:stm32f4xx-hal-driver/Src/stm32f4xx_ll_usb.c ****         }
 2238              		.loc 1 846 35 view .LVU717
 2239 00ca 1343     		orrs	r3, r3, r2
ARM GAS  /tmp/ccXMuxQe.s 			page 77


 2240 00cc C0F83438 		str	r3, [r0, #2100]
 2241 00d0 C9E7     		b	.L151
 2242              	.LVL170:
 2243              	.L142:
 787:stm32f4xx-hal-driver/Src/stm32f4xx_ll_usb.c ****       USBx_INEP(epnum)->DIEPTSIZ &= ~(USB_OTG_DIEPTSIZ_PKTCNT);
 2244              		.loc 1 787 7 is_stmt 1 view .LVU718
 787:stm32f4xx-hal-driver/Src/stm32f4xx_ll_usb.c ****       USBx_INEP(epnum)->DIEPTSIZ &= ~(USB_OTG_DIEPTSIZ_PKTCNT);
 2245              		.loc 1 787 34 is_stmt 0 view .LVU719
 2246 00d2 00EB4413 		add	r3, r0, r4, lsl #5
 2247 00d6 03F51063 		add	r3, r3, #2304
 2248 00da 1D69     		ldr	r5, [r3, #16]
 2249 00dc ED0C     		lsrs	r5, r5, #19
 2250 00de ED04     		lsls	r5, r5, #19
 2251 00e0 1D61     		str	r5, [r3, #16]
 788:stm32f4xx-hal-driver/Src/stm32f4xx_ll_usb.c **** 
 2252              		.loc 1 788 7 is_stmt 1 view .LVU720
 788:stm32f4xx-hal-driver/Src/stm32f4xx_ll_usb.c **** 
 2253              		.loc 1 788 34 is_stmt 0 view .LVU721
 2254 00e2 1D69     		ldr	r5, [r3, #16]
 2255 00e4 25F0FF55 		bic	r5, r5, #534773760
 2256 00e8 25F4C015 		bic	r5, r5, #1572864
 2257 00ec 1D61     		str	r5, [r3, #16]
 790:stm32f4xx-hal-driver/Src/stm32f4xx_ll_usb.c ****       {
 2258              		.loc 1 790 7 is_stmt 1 view .LVU722
 790:stm32f4xx-hal-driver/Src/stm32f4xx_ll_usb.c ****       {
 2259              		.loc 1 790 10 is_stmt 0 view .LVU723
 2260 00ee 7CB9     		cbnz	r4, .L144
 792:stm32f4xx-hal-driver/Src/stm32f4xx_ll_usb.c ****         {
 2261              		.loc 1 792 9 is_stmt 1 view .LVU724
 792:stm32f4xx-hal-driver/Src/stm32f4xx_ll_usb.c ****         {
 2262              		.loc 1 792 15 is_stmt 0 view .LVU725
 2263 00f0 0E69     		ldr	r6, [r1, #16]
 792:stm32f4xx-hal-driver/Src/stm32f4xx_ll_usb.c ****         {
 2264              		.loc 1 792 30 view .LVU726
 2265 00f2 8D68     		ldr	r5, [r1, #8]
 792:stm32f4xx-hal-driver/Src/stm32f4xx_ll_usb.c ****         {
 2266              		.loc 1 792 12 view .LVU727
 2267 00f4 AE42     		cmp	r6, r5
 2268 00f6 00D9     		bls	.L145
 794:stm32f4xx-hal-driver/Src/stm32f4xx_ll_usb.c ****         }
 2269              		.loc 1 794 11 is_stmt 1 view .LVU728
 794:stm32f4xx-hal-driver/Src/stm32f4xx_ll_usb.c ****         }
 2270              		.loc 1 794 24 is_stmt 0 view .LVU729
 2271 00f8 0D61     		str	r5, [r1, #16]
 2272              	.L145:
 797:stm32f4xx-hal-driver/Src/stm32f4xx_ll_usb.c ****       }
 2273              		.loc 1 797 9 is_stmt 1 view .LVU730
 797:stm32f4xx-hal-driver/Src/stm32f4xx_ll_usb.c ****       }
 2274              		.loc 1 797 36 is_stmt 0 view .LVU731
 2275 00fa 1D69     		ldr	r5, [r3, #16]
 2276 00fc 45F40025 		orr	r5, r5, #524288
 2277 0100 1D61     		str	r5, [r3, #16]
 2278              	.L146:
 811:stm32f4xx-hal-driver/Src/stm32f4xx_ll_usb.c ****     }
 2279              		.loc 1 811 7 is_stmt 1 view .LVU732
 811:stm32f4xx-hal-driver/Src/stm32f4xx_ll_usb.c ****     }
 2280              		.loc 1 811 34 is_stmt 0 view .LVU733
ARM GAS  /tmp/ccXMuxQe.s 			page 78


 2281 0102 1D69     		ldr	r5, [r3, #16]
 811:stm32f4xx-hal-driver/Src/stm32f4xx_ll_usb.c ****     }
 2282              		.loc 1 811 66 view .LVU734
 2283 0104 0E69     		ldr	r6, [r1, #16]
 811:stm32f4xx-hal-driver/Src/stm32f4xx_ll_usb.c ****     }
 2284              		.loc 1 811 62 view .LVU735
 2285 0106 C6F31206 		ubfx	r6, r6, #0, #19
 811:stm32f4xx-hal-driver/Src/stm32f4xx_ll_usb.c ****     }
 2286              		.loc 1 811 34 view .LVU736
 2287 010a 3543     		orrs	r5, r5, r6
 2288 010c 1D61     		str	r5, [r3, #16]
 2289 010e C5E7     		b	.L143
 2290              	.L144:
 801:stm32f4xx-hal-driver/Src/stm32f4xx_ll_usb.c ****         USBx_INEP(epnum)->DIEPTSIZ |= (USB_OTG_DIEPTSIZ_PKTCNT & ((uint32_t)pktcnt << 19));
 2291              		.loc 1 801 9 is_stmt 1 view .LVU737
 801:stm32f4xx-hal-driver/Src/stm32f4xx_ll_usb.c ****         USBx_INEP(epnum)->DIEPTSIZ |= (USB_OTG_DIEPTSIZ_PKTCNT & ((uint32_t)pktcnt << 19));
 2292              		.loc 1 801 32 is_stmt 0 view .LVU738
 2293 0110 0E69     		ldr	r6, [r1, #16]
 801:stm32f4xx-hal-driver/Src/stm32f4xx_ll_usb.c ****         USBx_INEP(epnum)->DIEPTSIZ |= (USB_OTG_DIEPTSIZ_PKTCNT & ((uint32_t)pktcnt << 19));
 2294              		.loc 1 801 47 view .LVU739
 2295 0112 8F68     		ldr	r7, [r1, #8]
 801:stm32f4xx-hal-driver/Src/stm32f4xx_ll_usb.c ****         USBx_INEP(epnum)->DIEPTSIZ |= (USB_OTG_DIEPTSIZ_PKTCNT & ((uint32_t)pktcnt << 19));
 2296              		.loc 1 801 43 view .LVU740
 2297 0114 F519     		adds	r5, r6, r7
 801:stm32f4xx-hal-driver/Src/stm32f4xx_ll_usb.c ****         USBx_INEP(epnum)->DIEPTSIZ |= (USB_OTG_DIEPTSIZ_PKTCNT & ((uint32_t)pktcnt << 19));
 2298              		.loc 1 801 59 view .LVU741
 2299 0116 013D     		subs	r5, r5, #1
 801:stm32f4xx-hal-driver/Src/stm32f4xx_ll_usb.c ****         USBx_INEP(epnum)->DIEPTSIZ |= (USB_OTG_DIEPTSIZ_PKTCNT & ((uint32_t)pktcnt << 19));
 2300              		.loc 1 801 65 view .LVU742
 2301 0118 B5FBF7F5 		udiv	r5, r5, r7
 2302              	.LVL171:
 802:stm32f4xx-hal-driver/Src/stm32f4xx_ll_usb.c **** 
 2303              		.loc 1 802 9 is_stmt 1 view .LVU743
 802:stm32f4xx-hal-driver/Src/stm32f4xx_ll_usb.c **** 
 2304              		.loc 1 802 36 is_stmt 0 view .LVU744
 2305 011c 1E69     		ldr	r6, [r3, #16]
 802:stm32f4xx-hal-driver/Src/stm32f4xx_ll_usb.c **** 
 2306              		.loc 1 802 64 view .LVU745
 2307 011e 484F     		ldr	r7, .L168
 2308 0120 07EAC547 		and	r7, r7, r5, lsl #19
 802:stm32f4xx-hal-driver/Src/stm32f4xx_ll_usb.c **** 
 2309              		.loc 1 802 36 view .LVU746
 2310 0124 3E43     		orrs	r6, r6, r7
 2311 0126 1E61     		str	r6, [r3, #16]
 804:stm32f4xx-hal-driver/Src/stm32f4xx_ll_usb.c ****         {
 2312              		.loc 1 804 9 is_stmt 1 view .LVU747
 804:stm32f4xx-hal-driver/Src/stm32f4xx_ll_usb.c ****         {
 2313              		.loc 1 804 15 is_stmt 0 view .LVU748
 2314 0128 0E79     		ldrb	r6, [r1, #4]	@ zero_extendqisi2
 804:stm32f4xx-hal-driver/Src/stm32f4xx_ll_usb.c ****         {
 2315              		.loc 1 804 12 view .LVU749
 2316 012a 012E     		cmp	r6, #1
 2317 012c E9D1     		bne	.L146
 806:stm32f4xx-hal-driver/Src/stm32f4xx_ll_usb.c ****           USBx_INEP(epnum)->DIEPTSIZ |= (USB_OTG_DIEPTSIZ_MULCNT & ((uint32_t)pktcnt << 29));
 2318              		.loc 1 806 11 is_stmt 1 view .LVU750
 806:stm32f4xx-hal-driver/Src/stm32f4xx_ll_usb.c ****           USBx_INEP(epnum)->DIEPTSIZ |= (USB_OTG_DIEPTSIZ_MULCNT & ((uint32_t)pktcnt << 29));
 2319              		.loc 1 806 38 is_stmt 0 view .LVU751
ARM GAS  /tmp/ccXMuxQe.s 			page 79


 2320 012e 1E69     		ldr	r6, [r3, #16]
 2321 0130 26F0C046 		bic	r6, r6, #1610612736
 2322 0134 1E61     		str	r6, [r3, #16]
 807:stm32f4xx-hal-driver/Src/stm32f4xx_ll_usb.c ****         }
 2323              		.loc 1 807 11 is_stmt 1 view .LVU752
 807:stm32f4xx-hal-driver/Src/stm32f4xx_ll_usb.c ****         }
 2324              		.loc 1 807 38 is_stmt 0 view .LVU753
 2325 0136 1E69     		ldr	r6, [r3, #16]
 807:stm32f4xx-hal-driver/Src/stm32f4xx_ll_usb.c ****         }
 2326              		.loc 1 807 66 view .LVU754
 2327 0138 6D07     		lsls	r5, r5, #29
 2328              	.LVL172:
 807:stm32f4xx-hal-driver/Src/stm32f4xx_ll_usb.c ****         }
 2329              		.loc 1 807 66 view .LVU755
 2330 013a 05F0C045 		and	r5, r5, #1610612736
 807:stm32f4xx-hal-driver/Src/stm32f4xx_ll_usb.c ****         }
 2331              		.loc 1 807 38 view .LVU756
 2332 013e 3543     		orrs	r5, r5, r6
 2333 0140 1D61     		str	r5, [r3, #16]
 2334 0142 DEE7     		b	.L146
 2335              	.L166:
 816:stm32f4xx-hal-driver/Src/stm32f4xx_ll_usb.c ****       {
 2336              		.loc 1 816 7 is_stmt 1 view .LVU757
 816:stm32f4xx-hal-driver/Src/stm32f4xx_ll_usb.c ****       {
 2337              		.loc 1 816 23 is_stmt 0 view .LVU758
 2338 0144 CB69     		ldr	r3, [r1, #28]
 816:stm32f4xx-hal-driver/Src/stm32f4xx_ll_usb.c ****       {
 2339              		.loc 1 816 10 view .LVU759
 2340 0146 1BB1     		cbz	r3, .L148
 818:stm32f4xx-hal-driver/Src/stm32f4xx_ll_usb.c ****       }
 2341              		.loc 1 818 9 is_stmt 1 view .LVU760
 2342 0148 00EB4412 		add	r2, r0, r4, lsl #5
 2343              	.LVL173:
 818:stm32f4xx-hal-driver/Src/stm32f4xx_ll_usb.c ****       }
 2344              		.loc 1 818 35 is_stmt 0 view .LVU761
 2345 014c C2F81439 		str	r3, [r2, #2324]
 2346              	.L148:
 821:stm32f4xx-hal-driver/Src/stm32f4xx_ll_usb.c ****       {
 2347              		.loc 1 821 7 is_stmt 1 view .LVU762
 821:stm32f4xx-hal-driver/Src/stm32f4xx_ll_usb.c ****       {
 2348              		.loc 1 821 13 is_stmt 0 view .LVU763
 2349 0150 0B79     		ldrb	r3, [r1, #4]	@ zero_extendqisi2
 821:stm32f4xx-hal-driver/Src/stm32f4xx_ll_usb.c ****       {
 2350              		.loc 1 821 10 view .LVU764
 2351 0152 012B     		cmp	r3, #1
 2352 0154 08D0     		beq	.L167
 2353              	.L149:
 834:stm32f4xx-hal-driver/Src/stm32f4xx_ll_usb.c ****     }
 2354              		.loc 1 834 7 is_stmt 1 view .LVU765
 834:stm32f4xx-hal-driver/Src/stm32f4xx_ll_usb.c ****     }
 2355              		.loc 1 834 33 is_stmt 0 view .LVU766
 2356 0156 00EB4410 		add	r0, r0, r4, lsl #5
 2357              	.LVL174:
 834:stm32f4xx-hal-driver/Src/stm32f4xx_ll_usb.c ****     }
 2358              		.loc 1 834 33 view .LVU767
 2359 015a D0F80039 		ldr	r3, [r0, #2304]
 2360 015e 43F00443 		orr	r3, r3, #-2080374784
ARM GAS  /tmp/ccXMuxQe.s 			page 80


 2361 0162 C0F80039 		str	r3, [r0, #2304]
 2362 0166 7EE7     		b	.L151
 2363              	.LVL175:
 2364              	.L167:
 823:stm32f4xx-hal-driver/Src/stm32f4xx_ll_usb.c ****         {
 2365              		.loc 1 823 9 is_stmt 1 view .LVU768
 823:stm32f4xx-hal-driver/Src/stm32f4xx_ll_usb.c ****         {
 2366              		.loc 1 823 25 is_stmt 0 view .LVU769
 2367 0168 D0F80838 		ldr	r3, [r0, #2056]
 823:stm32f4xx-hal-driver/Src/stm32f4xx_ll_usb.c ****         {
 2368              		.loc 1 823 12 view .LVU770
 2369 016c 13F4807F 		tst	r3, #256
 2370 0170 08D1     		bne	.L150
 825:stm32f4xx-hal-driver/Src/stm32f4xx_ll_usb.c ****         }
 2371              		.loc 1 825 11 is_stmt 1 view .LVU771
 825:stm32f4xx-hal-driver/Src/stm32f4xx_ll_usb.c ****         }
 2372              		.loc 1 825 37 is_stmt 0 view .LVU772
 2373 0172 00EB4412 		add	r2, r0, r4, lsl #5
 2374 0176 D2F80039 		ldr	r3, [r2, #2304]
 2375 017a 43F00053 		orr	r3, r3, #536870912
 2376 017e C2F80039 		str	r3, [r2, #2304]
 2377 0182 E8E7     		b	.L149
 2378              	.L150:
 829:stm32f4xx-hal-driver/Src/stm32f4xx_ll_usb.c ****         }
 2379              		.loc 1 829 11 is_stmt 1 view .LVU773
 829:stm32f4xx-hal-driver/Src/stm32f4xx_ll_usb.c ****         }
 2380              		.loc 1 829 37 is_stmt 0 view .LVU774
 2381 0184 00EB4412 		add	r2, r0, r4, lsl #5
 2382 0188 D2F80039 		ldr	r3, [r2, #2304]
 2383 018c 43F08053 		orr	r3, r3, #268435456
 2384 0190 C2F80039 		str	r3, [r2, #2304]
 2385 0194 DFE7     		b	.L149
 2386              	.LVL176:
 2387              	.L152:
 851:stm32f4xx-hal-driver/Src/stm32f4xx_ll_usb.c ****         {
 2388              		.loc 1 851 9 is_stmt 1 view .LVU775
 851:stm32f4xx-hal-driver/Src/stm32f4xx_ll_usb.c ****         {
 2389              		.loc 1 851 25 is_stmt 0 view .LVU776
 2390 0196 D0F80838 		ldr	r3, [r0, #2056]
 851:stm32f4xx-hal-driver/Src/stm32f4xx_ll_usb.c ****         {
 2391              		.loc 1 851 12 view .LVU777
 2392 019a 13F4807F 		tst	r3, #256
 2393 019e 0CD1     		bne	.L153
 853:stm32f4xx-hal-driver/Src/stm32f4xx_ll_usb.c ****         }
 2394              		.loc 1 853 11 is_stmt 1 view .LVU778
 853:stm32f4xx-hal-driver/Src/stm32f4xx_ll_usb.c ****         }
 2395              		.loc 1 853 37 is_stmt 0 view .LVU779
 2396 01a0 D4F80039 		ldr	r3, [r4, #2304]
 2397 01a4 43F00053 		orr	r3, r3, #536870912
 2398 01a8 C4F80039 		str	r3, [r4, #2304]
 2399              	.L154:
 860:stm32f4xx-hal-driver/Src/stm32f4xx_ll_usb.c ****       }
 2400              		.loc 1 860 9 is_stmt 1 view .LVU780
 860:stm32f4xx-hal-driver/Src/stm32f4xx_ll_usb.c ****       }
 2401              		.loc 1 860 15 is_stmt 0 view .LVU781
 2402 01ac 0092     		str	r2, [sp]
 2403 01ae 0B8A     		ldrh	r3, [r1, #16]
ARM GAS  /tmp/ccXMuxQe.s 			page 81


 2404 01b0 0A78     		ldrb	r2, [r1]	@ zero_extendqisi2
 2405              	.LVL177:
 860:stm32f4xx-hal-driver/Src/stm32f4xx_ll_usb.c ****       }
 2406              		.loc 1 860 15 view .LVU782
 2407 01b2 C968     		ldr	r1, [r1, #12]
 2408              	.LVL178:
 860:stm32f4xx-hal-driver/Src/stm32f4xx_ll_usb.c ****       }
 2409              		.loc 1 860 15 view .LVU783
 2410 01b4 FFF7FEFF 		bl	USB_WritePacket
 2411              	.LVL179:
 860:stm32f4xx-hal-driver/Src/stm32f4xx_ll_usb.c ****       }
 2412              		.loc 1 860 15 view .LVU784
 2413 01b8 55E7     		b	.L151
 2414              	.LVL180:
 2415              	.L153:
 857:stm32f4xx-hal-driver/Src/stm32f4xx_ll_usb.c ****         }
 2416              		.loc 1 857 11 is_stmt 1 view .LVU785
 857:stm32f4xx-hal-driver/Src/stm32f4xx_ll_usb.c ****         }
 2417              		.loc 1 857 37 is_stmt 0 view .LVU786
 2418 01ba D4F80039 		ldr	r3, [r4, #2304]
 2419 01be 43F08053 		orr	r3, r3, #268435456
 2420 01c2 C4F80039 		str	r3, [r4, #2304]
 2421 01c6 F1E7     		b	.L154
 2422              	.LVL181:
 2423              	.L155:
 888:stm32f4xx-hal-driver/Src/stm32f4xx_ll_usb.c ****       {
 2424              		.loc 1 888 7 is_stmt 1 view .LVU787
 888:stm32f4xx-hal-driver/Src/stm32f4xx_ll_usb.c ****       {
 2425              		.loc 1 888 13 is_stmt 0 view .LVU788
 2426 01c8 0C69     		ldr	r4, [r1, #16]
 2427              	.LVL182:
 888:stm32f4xx-hal-driver/Src/stm32f4xx_ll_usb.c ****       {
 2428              		.loc 1 888 10 view .LVU789
 2429 01ca 54B9     		cbnz	r4, .L158
 890:stm32f4xx-hal-driver/Src/stm32f4xx_ll_usb.c ****         USBx_OUTEP(epnum)->DOEPTSIZ |= (USB_OTG_DOEPTSIZ_PKTCNT & (1U << 19));
 2430              		.loc 1 890 9 is_stmt 1 view .LVU790
 890:stm32f4xx-hal-driver/Src/stm32f4xx_ll_usb.c ****         USBx_OUTEP(epnum)->DOEPTSIZ |= (USB_OTG_DOEPTSIZ_PKTCNT & (1U << 19));
 2431              		.loc 1 890 37 is_stmt 0 view .LVU791
 2432 01cc 1C69     		ldr	r4, [r3, #16]
 890:stm32f4xx-hal-driver/Src/stm32f4xx_ll_usb.c ****         USBx_OUTEP(epnum)->DOEPTSIZ |= (USB_OTG_DOEPTSIZ_PKTCNT & (1U << 19));
 2433              		.loc 1 890 69 view .LVU792
 2434 01ce 8D68     		ldr	r5, [r1, #8]
 890:stm32f4xx-hal-driver/Src/stm32f4xx_ll_usb.c ****         USBx_OUTEP(epnum)->DOEPTSIZ |= (USB_OTG_DOEPTSIZ_PKTCNT & (1U << 19));
 2435              		.loc 1 890 65 view .LVU793
 2436 01d0 C5F31205 		ubfx	r5, r5, #0, #19
 890:stm32f4xx-hal-driver/Src/stm32f4xx_ll_usb.c ****         USBx_OUTEP(epnum)->DOEPTSIZ |= (USB_OTG_DOEPTSIZ_PKTCNT & (1U << 19));
 2437              		.loc 1 890 37 view .LVU794
 2438 01d4 2C43     		orrs	r4, r4, r5
 2439 01d6 1C61     		str	r4, [r3, #16]
 891:stm32f4xx-hal-driver/Src/stm32f4xx_ll_usb.c ****       }
 2440              		.loc 1 891 9 is_stmt 1 view .LVU795
 891:stm32f4xx-hal-driver/Src/stm32f4xx_ll_usb.c ****       }
 2441              		.loc 1 891 37 is_stmt 0 view .LVU796
 2442 01d8 1C69     		ldr	r4, [r3, #16]
 2443 01da 44F40024 		orr	r4, r4, #524288
 2444 01de 1C61     		str	r4, [r3, #16]
 2445 01e0 34E7     		b	.L157
ARM GAS  /tmp/ccXMuxQe.s 			page 82


 2446              	.L158:
 895:stm32f4xx-hal-driver/Src/stm32f4xx_ll_usb.c ****         ep->xfer_size = ep->maxpacket * pktcnt;
 2447              		.loc 1 895 9 is_stmt 1 view .LVU797
 895:stm32f4xx-hal-driver/Src/stm32f4xx_ll_usb.c ****         ep->xfer_size = ep->maxpacket * pktcnt;
 2448              		.loc 1 895 47 is_stmt 0 view .LVU798
 2449 01e2 8D68     		ldr	r5, [r1, #8]
 895:stm32f4xx-hal-driver/Src/stm32f4xx_ll_usb.c ****         ep->xfer_size = ep->maxpacket * pktcnt;
 2450              		.loc 1 895 43 view .LVU799
 2451 01e4 2C44     		add	r4, r4, r5
 895:stm32f4xx-hal-driver/Src/stm32f4xx_ll_usb.c ****         ep->xfer_size = ep->maxpacket * pktcnt;
 2452              		.loc 1 895 59 view .LVU800
 2453 01e6 013C     		subs	r4, r4, #1
 895:stm32f4xx-hal-driver/Src/stm32f4xx_ll_usb.c ****         ep->xfer_size = ep->maxpacket * pktcnt;
 2454              		.loc 1 895 65 view .LVU801
 2455 01e8 B4FBF5F4 		udiv	r4, r4, r5
 2456              	.LVL183:
 896:stm32f4xx-hal-driver/Src/stm32f4xx_ll_usb.c **** 
 2457              		.loc 1 896 9 is_stmt 1 view .LVU802
 896:stm32f4xx-hal-driver/Src/stm32f4xx_ll_usb.c **** 
 2458              		.loc 1 896 39 is_stmt 0 view .LVU803
 2459 01ec A7B2     		uxth	r7, r4
 2460 01ee 05FB07F5 		mul	r5, r5, r7
 896:stm32f4xx-hal-driver/Src/stm32f4xx_ll_usb.c **** 
 2461              		.loc 1 896 23 view .LVU804
 2462 01f2 0D62     		str	r5, [r1, #32]
 898:stm32f4xx-hal-driver/Src/stm32f4xx_ll_usb.c ****         USBx_OUTEP(epnum)->DOEPTSIZ |= USB_OTG_DOEPTSIZ_XFRSIZ & ep->xfer_size;
 2463              		.loc 1 898 9 is_stmt 1 view .LVU805
 898:stm32f4xx-hal-driver/Src/stm32f4xx_ll_usb.c ****         USBx_OUTEP(epnum)->DOEPTSIZ |= USB_OTG_DOEPTSIZ_XFRSIZ & ep->xfer_size;
 2464              		.loc 1 898 37 is_stmt 0 view .LVU806
 2465 01f4 1D69     		ldr	r5, [r3, #16]
 898:stm32f4xx-hal-driver/Src/stm32f4xx_ll_usb.c ****         USBx_OUTEP(epnum)->DOEPTSIZ |= USB_OTG_DOEPTSIZ_XFRSIZ & ep->xfer_size;
 2466              		.loc 1 898 64 view .LVU807
 2467 01f6 124F     		ldr	r7, .L168
 2468 01f8 07EAC444 		and	r4, r7, r4, lsl #19
 2469              	.LVL184:
 898:stm32f4xx-hal-driver/Src/stm32f4xx_ll_usb.c ****         USBx_OUTEP(epnum)->DOEPTSIZ |= USB_OTG_DOEPTSIZ_XFRSIZ & ep->xfer_size;
 2470              		.loc 1 898 37 view .LVU808
 2471 01fc 2C43     		orrs	r4, r4, r5
 2472 01fe 1C61     		str	r4, [r3, #16]
 2473              	.LVL185:
 899:stm32f4xx-hal-driver/Src/stm32f4xx_ll_usb.c ****       }
 2474              		.loc 1 899 9 is_stmt 1 view .LVU809
 899:stm32f4xx-hal-driver/Src/stm32f4xx_ll_usb.c ****       }
 2475              		.loc 1 899 37 is_stmt 0 view .LVU810
 2476 0200 1C69     		ldr	r4, [r3, #16]
 899:stm32f4xx-hal-driver/Src/stm32f4xx_ll_usb.c ****       }
 2477              		.loc 1 899 68 view .LVU811
 2478 0202 0D6A     		ldr	r5, [r1, #32]
 899:stm32f4xx-hal-driver/Src/stm32f4xx_ll_usb.c ****       }
 2479              		.loc 1 899 64 view .LVU812
 2480 0204 C5F31205 		ubfx	r5, r5, #0, #19
 899:stm32f4xx-hal-driver/Src/stm32f4xx_ll_usb.c ****       }
 2481              		.loc 1 899 37 view .LVU813
 2482 0208 2C43     		orrs	r4, r4, r5
 2483 020a 1C61     		str	r4, [r3, #16]
 2484 020c 1EE7     		b	.L157
 2485              	.L164:
ARM GAS  /tmp/ccXMuxQe.s 			page 83


 905:stm32f4xx-hal-driver/Src/stm32f4xx_ll_usb.c ****       {
 2486              		.loc 1 905 7 is_stmt 1 view .LVU814
 905:stm32f4xx-hal-driver/Src/stm32f4xx_ll_usb.c ****       {
 2487              		.loc 1 905 23 is_stmt 0 view .LVU815
 2488 020e CA68     		ldr	r2, [r1, #12]
 2489              	.LVL186:
 905:stm32f4xx-hal-driver/Src/stm32f4xx_ll_usb.c ****       {
 2490              		.loc 1 905 10 view .LVU816
 2491 0210 002A     		cmp	r2, #0
 2492 0212 3FF41EAF 		beq	.L159
 907:stm32f4xx-hal-driver/Src/stm32f4xx_ll_usb.c ****       }
 2493              		.loc 1 907 9 is_stmt 1 view .LVU817
 907:stm32f4xx-hal-driver/Src/stm32f4xx_ll_usb.c ****       }
 2494              		.loc 1 907 36 is_stmt 0 view .LVU818
 2495 0216 5A61     		str	r2, [r3, #20]
 2496 0218 1BE7     		b	.L159
 2497              	.L165:
 913:stm32f4xx-hal-driver/Src/stm32f4xx_ll_usb.c ****       {
 2498              		.loc 1 913 7 is_stmt 1 view .LVU819
 913:stm32f4xx-hal-driver/Src/stm32f4xx_ll_usb.c ****       {
 2499              		.loc 1 913 23 is_stmt 0 view .LVU820
 2500 021a D0F80838 		ldr	r3, [r0, #2056]
 913:stm32f4xx-hal-driver/Src/stm32f4xx_ll_usb.c ****       {
 2501              		.loc 1 913 10 view .LVU821
 2502 021e 13F4807F 		tst	r3, #256
 2503 0222 06D1     		bne	.L161
 915:stm32f4xx-hal-driver/Src/stm32f4xx_ll_usb.c ****       }
 2504              		.loc 1 915 9 is_stmt 1 view .LVU822
 915:stm32f4xx-hal-driver/Src/stm32f4xx_ll_usb.c ****       }
 2505              		.loc 1 915 36 is_stmt 0 view .LVU823
 2506 0224 D6F8003B 		ldr	r3, [r6, #2816]
 2507 0228 43F00053 		orr	r3, r3, #536870912
 2508 022c C6F8003B 		str	r3, [r6, #2816]
 2509 0230 13E7     		b	.L160
 2510              	.L161:
 919:stm32f4xx-hal-driver/Src/stm32f4xx_ll_usb.c ****       }
 2511              		.loc 1 919 9 is_stmt 1 view .LVU824
 919:stm32f4xx-hal-driver/Src/stm32f4xx_ll_usb.c ****       }
 2512              		.loc 1 919 36 is_stmt 0 view .LVU825
 2513 0232 D6F8003B 		ldr	r3, [r6, #2816]
 2514 0236 43F08053 		orr	r3, r3, #268435456
 2515 023a C6F8003B 		str	r3, [r6, #2816]
 2516 023e 0CE7     		b	.L160
 2517              	.L169:
 2518              		.align	2
 2519              	.L168:
 2520 0240 0000F81F 		.word	536346624
 2521              		.cfi_endproc
 2522              	.LFE253:
 2524              		.section	.text.USB_ReadPacket,"ax",%progbits
 2525              		.align	1
 2526              		.global	USB_ReadPacket
 2527              		.syntax unified
 2528              		.thumb
 2529              		.thumb_func
 2530              		.fpu fpv4-sp-d16
 2532              	USB_ReadPacket:
ARM GAS  /tmp/ccXMuxQe.s 			page 84


 2533              	.LVL187:
 2534              	.LFB256:
1032:stm32f4xx-hal-driver/Src/stm32f4xx_ll_usb.c ****   uint32_t USBx_BASE = (uint32_t)USBx;
 2535              		.loc 1 1032 1 is_stmt 1 view -0
 2536              		.cfi_startproc
 2537              		@ args = 0, pretend = 0, frame = 8
 2538              		@ frame_needed = 0, uses_anonymous_args = 0
 2539              		@ link register save eliminated.
1032:stm32f4xx-hal-driver/Src/stm32f4xx_ll_usb.c ****   uint32_t USBx_BASE = (uint32_t)USBx;
 2540              		.loc 1 1032 1 is_stmt 0 view .LVU827
 2541 0000 F0B4     		push	{r4, r5, r6, r7}
 2542              	.LCFI39:
 2543              		.cfi_def_cfa_offset 16
 2544              		.cfi_offset 4, -16
 2545              		.cfi_offset 5, -12
 2546              		.cfi_offset 6, -8
 2547              		.cfi_offset 7, -4
 2548 0002 82B0     		sub	sp, sp, #8
 2549              	.LCFI40:
 2550              		.cfi_def_cfa_offset 24
 2551 0004 0746     		mov	r7, r0
 2552 0006 0846     		mov	r0, r1
 2553              	.LVL188:
1033:stm32f4xx-hal-driver/Src/stm32f4xx_ll_usb.c ****   uint8_t *pDest = dest;
 2554              		.loc 1 1033 3 is_stmt 1 view .LVU828
1033:stm32f4xx-hal-driver/Src/stm32f4xx_ll_usb.c ****   uint8_t *pDest = dest;
 2555              		.loc 1 1033 12 is_stmt 0 view .LVU829
 2556 0008 3E46     		mov	r6, r7
 2557              	.LVL189:
1034:stm32f4xx-hal-driver/Src/stm32f4xx_ll_usb.c ****   uint32_t pData;
 2558              		.loc 1 1034 3 is_stmt 1 view .LVU830
1035:stm32f4xx-hal-driver/Src/stm32f4xx_ll_usb.c ****   uint32_t i;
 2559              		.loc 1 1035 3 view .LVU831
1036:stm32f4xx-hal-driver/Src/stm32f4xx_ll_usb.c ****   uint32_t count32b = (uint32_t)len >> 2U;
 2560              		.loc 1 1036 3 view .LVU832
1037:stm32f4xx-hal-driver/Src/stm32f4xx_ll_usb.c ****   uint16_t remaining_bytes = len % 4U;
 2561              		.loc 1 1037 3 view .LVU833
1037:stm32f4xx-hal-driver/Src/stm32f4xx_ll_usb.c ****   uint16_t remaining_bytes = len % 4U;
 2562              		.loc 1 1037 37 is_stmt 0 view .LVU834
 2563 000a 9508     		lsrs	r5, r2, #2
 2564              	.LVL190:
1038:stm32f4xx-hal-driver/Src/stm32f4xx_ll_usb.c **** 
 2565              		.loc 1 1038 3 is_stmt 1 view .LVU835
1038:stm32f4xx-hal-driver/Src/stm32f4xx_ll_usb.c **** 
 2566              		.loc 1 1038 12 is_stmt 0 view .LVU836
 2567 000c 02F00302 		and	r2, r2, #3
 2568              	.LVL191:
1040:stm32f4xx-hal-driver/Src/stm32f4xx_ll_usb.c ****   {
 2569              		.loc 1 1040 3 is_stmt 1 view .LVU837
1040:stm32f4xx-hal-driver/Src/stm32f4xx_ll_usb.c ****   {
 2570              		.loc 1 1040 10 is_stmt 0 view .LVU838
 2571 0010 0023     		movs	r3, #0
 2572              	.LVL192:
 2573              	.L171:
1040:stm32f4xx-hal-driver/Src/stm32f4xx_ll_usb.c ****   {
 2574              		.loc 1 1040 16 is_stmt 1 discriminator 1 view .LVU839
1040:stm32f4xx-hal-driver/Src/stm32f4xx_ll_usb.c ****   {
ARM GAS  /tmp/ccXMuxQe.s 			page 85


 2575              		.loc 1 1040 3 is_stmt 0 discriminator 1 view .LVU840
 2576 0012 AB42     		cmp	r3, r5
 2577 0014 06D2     		bcs	.L176
1042:stm32f4xx-hal-driver/Src/stm32f4xx_ll_usb.c ****     pDest++;
 2578              		.loc 1 1042 5 is_stmt 1 discriminator 3 view .LVU841
 2579 0016 06F58054 		add	r4, r6, #4096
 2580 001a 2468     		ldr	r4, [r4]
 2581 001c 40F8044B 		str	r4, [r0], #4	@ unaligned
 2582              	.LVL193:
1043:stm32f4xx-hal-driver/Src/stm32f4xx_ll_usb.c ****     pDest++;
 2583              		.loc 1 1043 5 discriminator 3 view .LVU842
1044:stm32f4xx-hal-driver/Src/stm32f4xx_ll_usb.c ****     pDest++;
 2584              		.loc 1 1044 5 discriminator 3 view .LVU843
1045:stm32f4xx-hal-driver/Src/stm32f4xx_ll_usb.c ****     pDest++;
 2585              		.loc 1 1045 5 discriminator 3 view .LVU844
1046:stm32f4xx-hal-driver/Src/stm32f4xx_ll_usb.c ****   }
 2586              		.loc 1 1046 5 discriminator 3 view .LVU845
1040:stm32f4xx-hal-driver/Src/stm32f4xx_ll_usb.c ****   {
 2587              		.loc 1 1040 30 discriminator 3 view .LVU846
1040:stm32f4xx-hal-driver/Src/stm32f4xx_ll_usb.c ****   {
 2588              		.loc 1 1040 31 is_stmt 0 discriminator 3 view .LVU847
 2589 0020 0133     		adds	r3, r3, #1
 2590              	.LVL194:
1040:stm32f4xx-hal-driver/Src/stm32f4xx_ll_usb.c ****   {
 2591              		.loc 1 1040 31 discriminator 3 view .LVU848
 2592 0022 F6E7     		b	.L171
 2593              	.LVL195:
 2594              	.L176:
1050:stm32f4xx-hal-driver/Src/stm32f4xx_ll_usb.c ****   {
 2595              		.loc 1 1050 3 is_stmt 1 view .LVU849
1050:stm32f4xx-hal-driver/Src/stm32f4xx_ll_usb.c ****   {
 2596              		.loc 1 1050 6 is_stmt 0 view .LVU850
 2597 0024 7AB1     		cbz	r2, .L173
1052:stm32f4xx-hal-driver/Src/stm32f4xx_ll_usb.c ****     __UNALIGNED_UINT32_WRITE(&pData, USBx_DFIFO(0U));
 2598              		.loc 1 1052 5 is_stmt 1 view .LVU851
 2599              	.LVL196:
1053:stm32f4xx-hal-driver/Src/stm32f4xx_ll_usb.c **** 
 2600              		.loc 1 1053 5 view .LVU852
 2601 0026 07F58057 		add	r7, r7, #4096
 2602 002a 3B68     		ldr	r3, [r7]
 2603 002c 0193     		str	r3, [sp, #4]
1052:stm32f4xx-hal-driver/Src/stm32f4xx_ll_usb.c ****     __UNALIGNED_UINT32_WRITE(&pData, USBx_DFIFO(0U));
 2604              		.loc 1 1052 7 is_stmt 0 view .LVU853
 2605 002e 0025     		movs	r5, #0
 2606              	.LVL197:
 2607              	.L174:
1055:stm32f4xx-hal-driver/Src/stm32f4xx_ll_usb.c ****     {
 2608              		.loc 1 1055 5 is_stmt 1 discriminator 1 view .LVU854
1057:stm32f4xx-hal-driver/Src/stm32f4xx_ll_usb.c ****       i++;
 2609              		.loc 1 1057 7 discriminator 1 view .LVU855
1057:stm32f4xx-hal-driver/Src/stm32f4xx_ll_usb.c ****       i++;
 2610              		.loc 1 1057 50 is_stmt 0 discriminator 1 view .LVU856
 2611 0030 EBB2     		uxtb	r3, r5
 2612 0032 DC00     		lsls	r4, r3, #3
1057:stm32f4xx-hal-driver/Src/stm32f4xx_ll_usb.c ****       i++;
 2613              		.loc 1 1057 43 discriminator 1 view .LVU857
 2614 0034 019B     		ldr	r3, [sp, #4]
ARM GAS  /tmp/ccXMuxQe.s 			page 86


 2615 0036 E340     		lsrs	r3, r3, r4
1057:stm32f4xx-hal-driver/Src/stm32f4xx_ll_usb.c ****       i++;
 2616              		.loc 1 1057 25 discriminator 1 view .LVU858
 2617 0038 00F8013B 		strb	r3, [r0], #1
 2618              	.LVL198:
1058:stm32f4xx-hal-driver/Src/stm32f4xx_ll_usb.c ****       pDest++;
 2619              		.loc 1 1058 7 is_stmt 1 discriminator 1 view .LVU859
1058:stm32f4xx-hal-driver/Src/stm32f4xx_ll_usb.c ****       pDest++;
 2620              		.loc 1 1058 8 is_stmt 0 discriminator 1 view .LVU860
 2621 003c 0135     		adds	r5, r5, #1
 2622              	.LVL199:
1059:stm32f4xx-hal-driver/Src/stm32f4xx_ll_usb.c ****       remaining_bytes--;
 2623              		.loc 1 1059 7 is_stmt 1 discriminator 1 view .LVU861
1060:stm32f4xx-hal-driver/Src/stm32f4xx_ll_usb.c ****     } while (remaining_bytes != 0U);
 2624              		.loc 1 1060 7 discriminator 1 view .LVU862
1060:stm32f4xx-hal-driver/Src/stm32f4xx_ll_usb.c ****     } while (remaining_bytes != 0U);
 2625              		.loc 1 1060 22 is_stmt 0 discriminator 1 view .LVU863
 2626 003e 013A     		subs	r2, r2, #1
 2627              	.LVL200:
1060:stm32f4xx-hal-driver/Src/stm32f4xx_ll_usb.c ****     } while (remaining_bytes != 0U);
 2628              		.loc 1 1060 22 discriminator 1 view .LVU864
 2629 0040 92B2     		uxth	r2, r2
 2630              	.LVL201:
1061:stm32f4xx-hal-driver/Src/stm32f4xx_ll_usb.c ****   }
 2631              		.loc 1 1061 13 is_stmt 1 discriminator 1 view .LVU865
1061:stm32f4xx-hal-driver/Src/stm32f4xx_ll_usb.c ****   }
 2632              		.loc 1 1061 5 is_stmt 0 discriminator 1 view .LVU866
 2633 0042 002A     		cmp	r2, #0
 2634 0044 F4D1     		bne	.L174
 2635              	.LVL202:
 2636              	.L173:
1064:stm32f4xx-hal-driver/Src/stm32f4xx_ll_usb.c **** }
 2637              		.loc 1 1064 3 is_stmt 1 view .LVU867
1065:stm32f4xx-hal-driver/Src/stm32f4xx_ll_usb.c **** 
 2638              		.loc 1 1065 1 is_stmt 0 view .LVU868
 2639 0046 02B0     		add	sp, sp, #8
 2640              	.LCFI41:
 2641              		.cfi_def_cfa_offset 16
 2642              		@ sp needed
 2643 0048 F0BC     		pop	{r4, r5, r6, r7}
 2644              	.LCFI42:
 2645              		.cfi_restore 7
 2646              		.cfi_restore 6
 2647              		.cfi_restore 5
 2648              		.cfi_restore 4
 2649              		.cfi_def_cfa_offset 0
 2650              	.LVL203:
1065:stm32f4xx-hal-driver/Src/stm32f4xx_ll_usb.c **** 
 2651              		.loc 1 1065 1 view .LVU869
 2652 004a 7047     		bx	lr
 2653              		.cfi_endproc
 2654              	.LFE256:
 2656              		.section	.text.USB_EPSetStall,"ax",%progbits
 2657              		.align	1
 2658              		.global	USB_EPSetStall
 2659              		.syntax unified
 2660              		.thumb
ARM GAS  /tmp/ccXMuxQe.s 			page 87


 2661              		.thumb_func
 2662              		.fpu fpv4-sp-d16
 2664              	USB_EPSetStall:
 2665              	.LVL204:
 2666              	.LFB257:
1074:stm32f4xx-hal-driver/Src/stm32f4xx_ll_usb.c ****   uint32_t USBx_BASE = (uint32_t)USBx;
 2667              		.loc 1 1074 1 is_stmt 1 view -0
 2668              		.cfi_startproc
 2669              		@ args = 0, pretend = 0, frame = 0
 2670              		@ frame_needed = 0, uses_anonymous_args = 0
 2671              		@ link register save eliminated.
1075:stm32f4xx-hal-driver/Src/stm32f4xx_ll_usb.c ****   uint32_t epnum = (uint32_t)ep->num;
 2672              		.loc 1 1075 3 view .LVU871
1076:stm32f4xx-hal-driver/Src/stm32f4xx_ll_usb.c **** 
 2673              		.loc 1 1076 3 view .LVU872
1076:stm32f4xx-hal-driver/Src/stm32f4xx_ll_usb.c **** 
 2674              		.loc 1 1076 32 is_stmt 0 view .LVU873
 2675 0000 0B78     		ldrb	r3, [r1]	@ zero_extendqisi2
 2676              	.LVL205:
1078:stm32f4xx-hal-driver/Src/stm32f4xx_ll_usb.c ****   {
 2677              		.loc 1 1078 3 is_stmt 1 view .LVU874
1078:stm32f4xx-hal-driver/Src/stm32f4xx_ll_usb.c ****   {
 2678              		.loc 1 1078 9 is_stmt 0 view .LVU875
 2679 0002 4A78     		ldrb	r2, [r1, #1]	@ zero_extendqisi2
1078:stm32f4xx-hal-driver/Src/stm32f4xx_ll_usb.c ****   {
 2680              		.loc 1 1078 6 view .LVU876
 2681 0004 012A     		cmp	r2, #1
 2682 0006 14D0     		beq	.L182
1088:stm32f4xx-hal-driver/Src/stm32f4xx_ll_usb.c ****     {
 2683              		.loc 1 1088 5 is_stmt 1 view .LVU877
1088:stm32f4xx-hal-driver/Src/stm32f4xx_ll_usb.c ****     {
 2684              		.loc 1 1088 11 is_stmt 0 view .LVU878
 2685 0008 00EB4310 		add	r0, r0, r3, lsl #5
 2686              	.LVL206:
1088:stm32f4xx-hal-driver/Src/stm32f4xx_ll_usb.c ****     {
 2687              		.loc 1 1088 28 view .LVU879
 2688 000c D0F8002B 		ldr	r2, [r0, #2816]
1088:stm32f4xx-hal-driver/Src/stm32f4xx_ll_usb.c ****     {
 2689              		.loc 1 1088 8 view .LVU880
 2690 0010 002A     		cmp	r2, #0
 2691 0012 06DB     		blt	.L181
1088:stm32f4xx-hal-driver/Src/stm32f4xx_ll_usb.c ****     {
 2692              		.loc 1 1088 70 discriminator 1 view .LVU881
 2693 0014 2BB1     		cbz	r3, .L181
1090:stm32f4xx-hal-driver/Src/stm32f4xx_ll_usb.c ****     }
 2694              		.loc 1 1090 7 is_stmt 1 view .LVU882
1090:stm32f4xx-hal-driver/Src/stm32f4xx_ll_usb.c ****     }
 2695              		.loc 1 1090 34 is_stmt 0 view .LVU883
 2696 0016 D0F8003B 		ldr	r3, [r0, #2816]
 2697              	.LVL207:
1090:stm32f4xx-hal-driver/Src/stm32f4xx_ll_usb.c ****     }
 2698              		.loc 1 1090 34 view .LVU884
 2699 001a 23F08043 		bic	r3, r3, #1073741824
 2700 001e C0F8003B 		str	r3, [r0, #2816]
 2701              	.LVL208:
 2702              	.L181:
1092:stm32f4xx-hal-driver/Src/stm32f4xx_ll_usb.c ****   }
ARM GAS  /tmp/ccXMuxQe.s 			page 88


 2703              		.loc 1 1092 5 is_stmt 1 view .LVU885
1092:stm32f4xx-hal-driver/Src/stm32f4xx_ll_usb.c ****   }
 2704              		.loc 1 1092 32 is_stmt 0 view .LVU886
 2705 0022 D0F8003B 		ldr	r3, [r0, #2816]
 2706 0026 43F40013 		orr	r3, r3, #2097152
 2707 002a C0F8003B 		str	r3, [r0, #2816]
 2708              	.L180:
1095:stm32f4xx-hal-driver/Src/stm32f4xx_ll_usb.c **** }
 2709              		.loc 1 1095 3 is_stmt 1 view .LVU887
1096:stm32f4xx-hal-driver/Src/stm32f4xx_ll_usb.c **** 
 2710              		.loc 1 1096 1 is_stmt 0 view .LVU888
 2711 002e 0020     		movs	r0, #0
 2712 0030 7047     		bx	lr
 2713              	.LVL209:
 2714              	.L182:
1080:stm32f4xx-hal-driver/Src/stm32f4xx_ll_usb.c ****     {
 2715              		.loc 1 1080 5 is_stmt 1 view .LVU889
1080:stm32f4xx-hal-driver/Src/stm32f4xx_ll_usb.c ****     {
 2716              		.loc 1 1080 11 is_stmt 0 view .LVU890
 2717 0032 00EB4310 		add	r0, r0, r3, lsl #5
 2718              	.LVL210:
1080:stm32f4xx-hal-driver/Src/stm32f4xx_ll_usb.c ****     {
 2719              		.loc 1 1080 27 view .LVU891
 2720 0036 D0F80029 		ldr	r2, [r0, #2304]
1080:stm32f4xx-hal-driver/Src/stm32f4xx_ll_usb.c ****     {
 2721              		.loc 1 1080 8 view .LVU892
 2722 003a 002A     		cmp	r2, #0
 2723 003c 06DB     		blt	.L179
1080:stm32f4xx-hal-driver/Src/stm32f4xx_ll_usb.c ****     {
 2724              		.loc 1 1080 69 discriminator 1 view .LVU893
 2725 003e 2BB1     		cbz	r3, .L179
1082:stm32f4xx-hal-driver/Src/stm32f4xx_ll_usb.c ****     }
 2726              		.loc 1 1082 7 is_stmt 1 view .LVU894
1082:stm32f4xx-hal-driver/Src/stm32f4xx_ll_usb.c ****     }
 2727              		.loc 1 1082 33 is_stmt 0 view .LVU895
 2728 0040 D0F80039 		ldr	r3, [r0, #2304]
 2729              	.LVL211:
1082:stm32f4xx-hal-driver/Src/stm32f4xx_ll_usb.c ****     }
 2730              		.loc 1 1082 33 view .LVU896
 2731 0044 23F08043 		bic	r3, r3, #1073741824
 2732 0048 C0F80039 		str	r3, [r0, #2304]
 2733              	.LVL212:
 2734              	.L179:
1084:stm32f4xx-hal-driver/Src/stm32f4xx_ll_usb.c ****   }
 2735              		.loc 1 1084 5 is_stmt 1 view .LVU897
1084:stm32f4xx-hal-driver/Src/stm32f4xx_ll_usb.c ****   }
 2736              		.loc 1 1084 31 is_stmt 0 view .LVU898
 2737 004c D0F80039 		ldr	r3, [r0, #2304]
 2738 0050 43F40013 		orr	r3, r3, #2097152
 2739 0054 C0F80039 		str	r3, [r0, #2304]
 2740 0058 E9E7     		b	.L180
 2741              		.cfi_endproc
 2742              	.LFE257:
 2744              		.section	.text.USB_EPClearStall,"ax",%progbits
 2745              		.align	1
 2746              		.global	USB_EPClearStall
 2747              		.syntax unified
ARM GAS  /tmp/ccXMuxQe.s 			page 89


 2748              		.thumb
 2749              		.thumb_func
 2750              		.fpu fpv4-sp-d16
 2752              	USB_EPClearStall:
 2753              	.LVL213:
 2754              	.LFB258:
1105:stm32f4xx-hal-driver/Src/stm32f4xx_ll_usb.c ****   uint32_t USBx_BASE = (uint32_t)USBx;
 2755              		.loc 1 1105 1 is_stmt 1 view -0
 2756              		.cfi_startproc
 2757              		@ args = 0, pretend = 0, frame = 0
 2758              		@ frame_needed = 0, uses_anonymous_args = 0
 2759              		@ link register save eliminated.
1106:stm32f4xx-hal-driver/Src/stm32f4xx_ll_usb.c ****   uint32_t epnum = (uint32_t)ep->num;
 2760              		.loc 1 1106 3 view .LVU900
1107:stm32f4xx-hal-driver/Src/stm32f4xx_ll_usb.c **** 
 2761              		.loc 1 1107 3 view .LVU901
1107:stm32f4xx-hal-driver/Src/stm32f4xx_ll_usb.c **** 
 2762              		.loc 1 1107 32 is_stmt 0 view .LVU902
 2763 0000 0B78     		ldrb	r3, [r1]	@ zero_extendqisi2
 2764              	.LVL214:
1109:stm32f4xx-hal-driver/Src/stm32f4xx_ll_usb.c ****   {
 2765              		.loc 1 1109 3 is_stmt 1 view .LVU903
1109:stm32f4xx-hal-driver/Src/stm32f4xx_ll_usb.c ****   {
 2766              		.loc 1 1109 9 is_stmt 0 view .LVU904
 2767 0002 4A78     		ldrb	r2, [r1, #1]	@ zero_extendqisi2
1109:stm32f4xx-hal-driver/Src/stm32f4xx_ll_usb.c ****   {
 2768              		.loc 1 1109 6 view .LVU905
 2769 0004 012A     		cmp	r2, #1
 2770 0006 0ED0     		beq	.L186
1119:stm32f4xx-hal-driver/Src/stm32f4xx_ll_usb.c ****     if ((ep->type == EP_TYPE_INTR) || (ep->type == EP_TYPE_BULK))
 2771              		.loc 1 1119 5 is_stmt 1 view .LVU906
1119:stm32f4xx-hal-driver/Src/stm32f4xx_ll_usb.c ****     if ((ep->type == EP_TYPE_INTR) || (ep->type == EP_TYPE_BULK))
 2772              		.loc 1 1119 32 is_stmt 0 view .LVU907
 2773 0008 00EB4310 		add	r0, r0, r3, lsl #5
 2774              	.LVL215:
1119:stm32f4xx-hal-driver/Src/stm32f4xx_ll_usb.c ****     if ((ep->type == EP_TYPE_INTR) || (ep->type == EP_TYPE_BULK))
 2775              		.loc 1 1119 32 view .LVU908
 2776 000c D0F8003B 		ldr	r3, [r0, #2816]
 2777              	.LVL216:
1119:stm32f4xx-hal-driver/Src/stm32f4xx_ll_usb.c ****     if ((ep->type == EP_TYPE_INTR) || (ep->type == EP_TYPE_BULK))
 2778              		.loc 1 1119 32 view .LVU909
 2779 0010 23F40013 		bic	r3, r3, #2097152
 2780 0014 C0F8003B 		str	r3, [r0, #2816]
 2781              	.LVL217:
1120:stm32f4xx-hal-driver/Src/stm32f4xx_ll_usb.c ****     {
 2782              		.loc 1 1120 5 is_stmt 1 view .LVU910
1120:stm32f4xx-hal-driver/Src/stm32f4xx_ll_usb.c ****     {
 2783              		.loc 1 1120 12 is_stmt 0 view .LVU911
 2784 0018 0B79     		ldrb	r3, [r1, #4]	@ zero_extendqisi2
1120:stm32f4xx-hal-driver/Src/stm32f4xx_ll_usb.c ****     {
 2785              		.loc 1 1120 36 view .LVU912
 2786 001a 023B     		subs	r3, r3, #2
 2787 001c DBB2     		uxtb	r3, r3
1120:stm32f4xx-hal-driver/Src/stm32f4xx_ll_usb.c ****     {
 2788              		.loc 1 1120 8 view .LVU913
 2789 001e 012B     		cmp	r3, #1
 2790 0020 15D9     		bls	.L187
ARM GAS  /tmp/ccXMuxQe.s 			page 90


 2791              	.L185:
1125:stm32f4xx-hal-driver/Src/stm32f4xx_ll_usb.c **** }
 2792              		.loc 1 1125 3 is_stmt 1 view .LVU914
1126:stm32f4xx-hal-driver/Src/stm32f4xx_ll_usb.c **** 
 2793              		.loc 1 1126 1 is_stmt 0 view .LVU915
 2794 0022 0020     		movs	r0, #0
 2795 0024 7047     		bx	lr
 2796              	.LVL218:
 2797              	.L186:
1111:stm32f4xx-hal-driver/Src/stm32f4xx_ll_usb.c ****     if ((ep->type == EP_TYPE_INTR) || (ep->type == EP_TYPE_BULK))
 2798              		.loc 1 1111 5 is_stmt 1 view .LVU916
1111:stm32f4xx-hal-driver/Src/stm32f4xx_ll_usb.c ****     if ((ep->type == EP_TYPE_INTR) || (ep->type == EP_TYPE_BULK))
 2799              		.loc 1 1111 31 is_stmt 0 view .LVU917
 2800 0026 00EB4310 		add	r0, r0, r3, lsl #5
 2801              	.LVL219:
1111:stm32f4xx-hal-driver/Src/stm32f4xx_ll_usb.c ****     if ((ep->type == EP_TYPE_INTR) || (ep->type == EP_TYPE_BULK))
 2802              		.loc 1 1111 31 view .LVU918
 2803 002a D0F80039 		ldr	r3, [r0, #2304]
 2804              	.LVL220:
1111:stm32f4xx-hal-driver/Src/stm32f4xx_ll_usb.c ****     if ((ep->type == EP_TYPE_INTR) || (ep->type == EP_TYPE_BULK))
 2805              		.loc 1 1111 31 view .LVU919
 2806 002e 23F40013 		bic	r3, r3, #2097152
 2807 0032 C0F80039 		str	r3, [r0, #2304]
 2808              	.LVL221:
1112:stm32f4xx-hal-driver/Src/stm32f4xx_ll_usb.c ****     {
 2809              		.loc 1 1112 5 is_stmt 1 view .LVU920
1112:stm32f4xx-hal-driver/Src/stm32f4xx_ll_usb.c ****     {
 2810              		.loc 1 1112 12 is_stmt 0 view .LVU921
 2811 0036 0B79     		ldrb	r3, [r1, #4]	@ zero_extendqisi2
1112:stm32f4xx-hal-driver/Src/stm32f4xx_ll_usb.c ****     {
 2812              		.loc 1 1112 36 view .LVU922
 2813 0038 023B     		subs	r3, r3, #2
 2814 003a DBB2     		uxtb	r3, r3
1112:stm32f4xx-hal-driver/Src/stm32f4xx_ll_usb.c ****     {
 2815              		.loc 1 1112 8 view .LVU923
 2816 003c 012B     		cmp	r3, #1
 2817 003e F0D8     		bhi	.L185
1114:stm32f4xx-hal-driver/Src/stm32f4xx_ll_usb.c ****     }
 2818              		.loc 1 1114 7 is_stmt 1 view .LVU924
1114:stm32f4xx-hal-driver/Src/stm32f4xx_ll_usb.c ****     }
 2819              		.loc 1 1114 33 is_stmt 0 view .LVU925
 2820 0040 D0F80039 		ldr	r3, [r0, #2304]
 2821 0044 43F08053 		orr	r3, r3, #268435456
 2822 0048 C0F80039 		str	r3, [r0, #2304]
 2823 004c E9E7     		b	.L185
 2824              	.L187:
1122:stm32f4xx-hal-driver/Src/stm32f4xx_ll_usb.c ****     }
 2825              		.loc 1 1122 7 is_stmt 1 view .LVU926
1122:stm32f4xx-hal-driver/Src/stm32f4xx_ll_usb.c ****     }
 2826              		.loc 1 1122 34 is_stmt 0 view .LVU927
 2827 004e D0F8003B 		ldr	r3, [r0, #2816]
 2828 0052 43F08053 		orr	r3, r3, #268435456
 2829 0056 C0F8003B 		str	r3, [r0, #2816]
 2830 005a E2E7     		b	.L185
 2831              		.cfi_endproc
 2832              	.LFE258:
 2834              		.section	.text.USB_StopDevice,"ax",%progbits
ARM GAS  /tmp/ccXMuxQe.s 			page 91


 2835              		.align	1
 2836              		.global	USB_StopDevice
 2837              		.syntax unified
 2838              		.thumb
 2839              		.thumb_func
 2840              		.fpu fpv4-sp-d16
 2842              	USB_StopDevice:
 2843              	.LVL222:
 2844              	.LFB259:
1134:stm32f4xx-hal-driver/Src/stm32f4xx_ll_usb.c ****   HAL_StatusTypeDef ret;
 2845              		.loc 1 1134 1 is_stmt 1 view -0
 2846              		.cfi_startproc
 2847              		@ args = 0, pretend = 0, frame = 0
 2848              		@ frame_needed = 0, uses_anonymous_args = 0
1134:stm32f4xx-hal-driver/Src/stm32f4xx_ll_usb.c ****   HAL_StatusTypeDef ret;
 2849              		.loc 1 1134 1 is_stmt 0 view .LVU929
 2850 0000 70B5     		push	{r4, r5, r6, lr}
 2851              	.LCFI43:
 2852              		.cfi_def_cfa_offset 16
 2853              		.cfi_offset 4, -16
 2854              		.cfi_offset 5, -12
 2855              		.cfi_offset 6, -8
 2856              		.cfi_offset 14, -4
 2857 0002 0646     		mov	r6, r0
1135:stm32f4xx-hal-driver/Src/stm32f4xx_ll_usb.c ****   uint32_t USBx_BASE = (uint32_t)USBx;
 2858              		.loc 1 1135 3 is_stmt 1 view .LVU930
1136:stm32f4xx-hal-driver/Src/stm32f4xx_ll_usb.c ****   uint32_t i;
 2859              		.loc 1 1136 3 view .LVU931
1136:stm32f4xx-hal-driver/Src/stm32f4xx_ll_usb.c ****   uint32_t i;
 2860              		.loc 1 1136 12 is_stmt 0 view .LVU932
 2861 0004 0546     		mov	r5, r0
 2862              	.LVL223:
1137:stm32f4xx-hal-driver/Src/stm32f4xx_ll_usb.c **** 
 2863              		.loc 1 1137 3 is_stmt 1 view .LVU933
1140:stm32f4xx-hal-driver/Src/stm32f4xx_ll_usb.c ****   {
 2864              		.loc 1 1140 3 view .LVU934
1140:stm32f4xx-hal-driver/Src/stm32f4xx_ll_usb.c ****   {
 2865              		.loc 1 1140 10 is_stmt 0 view .LVU935
 2866 0006 0022     		movs	r2, #0
1140:stm32f4xx-hal-driver/Src/stm32f4xx_ll_usb.c ****   {
 2867              		.loc 1 1140 3 view .LVU936
 2868 0008 08E0     		b	.L189
 2869              	.LVL224:
 2870              	.L190:
1142:stm32f4xx-hal-driver/Src/stm32f4xx_ll_usb.c ****     USBx_OUTEP(i)->DOEPINT = 0xFB7FU;
 2871              		.loc 1 1142 5 is_stmt 1 discriminator 3 view .LVU937
 2872 000a 05EB4213 		add	r3, r5, r2, lsl #5
1142:stm32f4xx-hal-driver/Src/stm32f4xx_ll_usb.c ****     USBx_OUTEP(i)->DOEPINT = 0xFB7FU;
 2873              		.loc 1 1142 27 is_stmt 0 discriminator 3 view .LVU938
 2874 000e 4FF67F31 		movw	r1, #64383
 2875 0012 C3F80819 		str	r1, [r3, #2312]
1143:stm32f4xx-hal-driver/Src/stm32f4xx_ll_usb.c ****   }
 2876              		.loc 1 1143 5 is_stmt 1 discriminator 3 view .LVU939
1143:stm32f4xx-hal-driver/Src/stm32f4xx_ll_usb.c ****   }
 2877              		.loc 1 1143 28 is_stmt 0 discriminator 3 view .LVU940
 2878 0016 C3F8081B 		str	r1, [r3, #2824]
1140:stm32f4xx-hal-driver/Src/stm32f4xx_ll_usb.c ****   {
ARM GAS  /tmp/ccXMuxQe.s 			page 92


 2879              		.loc 1 1140 25 is_stmt 1 discriminator 3 view .LVU941
1140:stm32f4xx-hal-driver/Src/stm32f4xx_ll_usb.c ****   {
 2880              		.loc 1 1140 26 is_stmt 0 discriminator 3 view .LVU942
 2881 001a 0132     		adds	r2, r2, #1
 2882              	.LVL225:
 2883              	.L189:
1140:stm32f4xx-hal-driver/Src/stm32f4xx_ll_usb.c ****   {
 2884              		.loc 1 1140 16 is_stmt 1 discriminator 1 view .LVU943
1140:stm32f4xx-hal-driver/Src/stm32f4xx_ll_usb.c ****   {
 2885              		.loc 1 1140 3 is_stmt 0 discriminator 1 view .LVU944
 2886 001c 0E2A     		cmp	r2, #14
 2887 001e F4D9     		bls	.L190
1147:stm32f4xx-hal-driver/Src/stm32f4xx_ll_usb.c ****   USBx_DEVICE->DOEPMSK  = 0U;
 2888              		.loc 1 1147 3 is_stmt 1 view .LVU945
1147:stm32f4xx-hal-driver/Src/stm32f4xx_ll_usb.c ****   USBx_DEVICE->DOEPMSK  = 0U;
 2889              		.loc 1 1147 25 is_stmt 0 view .LVU946
 2890 0020 0022     		movs	r2, #0
 2891              	.LVL226:
1147:stm32f4xx-hal-driver/Src/stm32f4xx_ll_usb.c ****   USBx_DEVICE->DOEPMSK  = 0U;
 2892              		.loc 1 1147 25 view .LVU947
 2893 0022 C6F81028 		str	r2, [r6, #2064]
1148:stm32f4xx-hal-driver/Src/stm32f4xx_ll_usb.c ****   USBx_DEVICE->DAINTMSK = 0U;
 2894              		.loc 1 1148 3 is_stmt 1 view .LVU948
1148:stm32f4xx-hal-driver/Src/stm32f4xx_ll_usb.c ****   USBx_DEVICE->DAINTMSK = 0U;
 2895              		.loc 1 1148 25 is_stmt 0 view .LVU949
 2896 0026 C6F81428 		str	r2, [r6, #2068]
1149:stm32f4xx-hal-driver/Src/stm32f4xx_ll_usb.c **** 
 2897              		.loc 1 1149 3 is_stmt 1 view .LVU950
1149:stm32f4xx-hal-driver/Src/stm32f4xx_ll_usb.c **** 
 2898              		.loc 1 1149 25 is_stmt 0 view .LVU951
 2899 002a C6F81C28 		str	r2, [r6, #2076]
1152:stm32f4xx-hal-driver/Src/stm32f4xx_ll_usb.c ****   if (ret != HAL_OK)
 2900              		.loc 1 1152 3 is_stmt 1 view .LVU952
1152:stm32f4xx-hal-driver/Src/stm32f4xx_ll_usb.c ****   if (ret != HAL_OK)
 2901              		.loc 1 1152 9 is_stmt 0 view .LVU953
 2902 002e 3046     		mov	r0, r6
 2903              	.LVL227:
1152:stm32f4xx-hal-driver/Src/stm32f4xx_ll_usb.c ****   if (ret != HAL_OK)
 2904              		.loc 1 1152 9 view .LVU954
 2905 0030 FFF7FEFF 		bl	USB_FlushRxFifo
 2906              	.LVL228:
1153:stm32f4xx-hal-driver/Src/stm32f4xx_ll_usb.c ****   {
 2907              		.loc 1 1153 3 is_stmt 1 view .LVU955
1153:stm32f4xx-hal-driver/Src/stm32f4xx_ll_usb.c ****   {
 2908              		.loc 1 1153 6 is_stmt 0 view .LVU956
 2909 0034 00B1     		cbz	r0, .L193
 2910              	.L191:
1165:stm32f4xx-hal-driver/Src/stm32f4xx_ll_usb.c **** 
 2911              		.loc 1 1165 1 view .LVU957
 2912 0036 70BD     		pop	{r4, r5, r6, pc}
 2913              	.LVL229:
 2914              	.L193:
1158:stm32f4xx-hal-driver/Src/stm32f4xx_ll_usb.c ****   if (ret != HAL_OK)
 2915              		.loc 1 1158 3 is_stmt 1 view .LVU958
1158:stm32f4xx-hal-driver/Src/stm32f4xx_ll_usb.c ****   if (ret != HAL_OK)
 2916              		.loc 1 1158 9 is_stmt 0 view .LVU959
 2917 0038 1021     		movs	r1, #16
ARM GAS  /tmp/ccXMuxQe.s 			page 93


 2918 003a 3046     		mov	r0, r6
 2919              	.LVL230:
1158:stm32f4xx-hal-driver/Src/stm32f4xx_ll_usb.c ****   if (ret != HAL_OK)
 2920              		.loc 1 1158 9 view .LVU960
 2921 003c FFF7FEFF 		bl	USB_FlushTxFifo
 2922              	.LVL231:
1159:stm32f4xx-hal-driver/Src/stm32f4xx_ll_usb.c ****   {
 2923              		.loc 1 1159 3 is_stmt 1 view .LVU961
 2924 0040 F9E7     		b	.L191
 2925              		.cfi_endproc
 2926              	.LFE259:
 2928              		.section	.text.USB_SetDevAddress,"ax",%progbits
 2929              		.align	1
 2930              		.global	USB_SetDevAddress
 2931              		.syntax unified
 2932              		.thumb
 2933              		.thumb_func
 2934              		.fpu fpv4-sp-d16
 2936              	USB_SetDevAddress:
 2937              	.LVL232:
 2938              	.LFB260:
1175:stm32f4xx-hal-driver/Src/stm32f4xx_ll_usb.c ****   uint32_t USBx_BASE = (uint32_t)USBx;
 2939              		.loc 1 1175 1 view -0
 2940              		.cfi_startproc
 2941              		@ args = 0, pretend = 0, frame = 0
 2942              		@ frame_needed = 0, uses_anonymous_args = 0
 2943              		@ link register save eliminated.
1176:stm32f4xx-hal-driver/Src/stm32f4xx_ll_usb.c **** 
 2944              		.loc 1 1176 3 view .LVU963
1178:stm32f4xx-hal-driver/Src/stm32f4xx_ll_usb.c ****   USBx_DEVICE->DCFG |= ((uint32_t)address << 4) & USB_OTG_DCFG_DAD;
 2945              		.loc 1 1178 3 view .LVU964
1178:stm32f4xx-hal-driver/Src/stm32f4xx_ll_usb.c ****   USBx_DEVICE->DCFG |= ((uint32_t)address << 4) & USB_OTG_DCFG_DAD;
 2946              		.loc 1 1178 21 is_stmt 0 view .LVU965
 2947 0000 D0F80038 		ldr	r3, [r0, #2048]
 2948 0004 23F4FE63 		bic	r3, r3, #2032
 2949 0008 C0F80038 		str	r3, [r0, #2048]
1179:stm32f4xx-hal-driver/Src/stm32f4xx_ll_usb.c **** 
 2950              		.loc 1 1179 3 is_stmt 1 view .LVU966
1179:stm32f4xx-hal-driver/Src/stm32f4xx_ll_usb.c **** 
 2951              		.loc 1 1179 21 is_stmt 0 view .LVU967
 2952 000c D0F80038 		ldr	r3, [r0, #2048]
1179:stm32f4xx-hal-driver/Src/stm32f4xx_ll_usb.c **** 
 2953              		.loc 1 1179 43 view .LVU968
 2954 0010 0901     		lsls	r1, r1, #4
 2955              	.LVL233:
1179:stm32f4xx-hal-driver/Src/stm32f4xx_ll_usb.c **** 
 2956              		.loc 1 1179 49 view .LVU969
 2957 0012 01F4FE61 		and	r1, r1, #2032
1179:stm32f4xx-hal-driver/Src/stm32f4xx_ll_usb.c **** 
 2958              		.loc 1 1179 21 view .LVU970
 2959 0016 1943     		orrs	r1, r1, r3
 2960 0018 C0F80018 		str	r1, [r0, #2048]
1181:stm32f4xx-hal-driver/Src/stm32f4xx_ll_usb.c **** }
 2961              		.loc 1 1181 3 is_stmt 1 view .LVU971
1182:stm32f4xx-hal-driver/Src/stm32f4xx_ll_usb.c **** 
 2962              		.loc 1 1182 1 is_stmt 0 view .LVU972
 2963 001c 0020     		movs	r0, #0
ARM GAS  /tmp/ccXMuxQe.s 			page 94


 2964              	.LVL234:
1182:stm32f4xx-hal-driver/Src/stm32f4xx_ll_usb.c **** 
 2965              		.loc 1 1182 1 view .LVU973
 2966 001e 7047     		bx	lr
 2967              		.cfi_endproc
 2968              	.LFE260:
 2970              		.section	.text.USB_DevConnect,"ax",%progbits
 2971              		.align	1
 2972              		.global	USB_DevConnect
 2973              		.syntax unified
 2974              		.thumb
 2975              		.thumb_func
 2976              		.fpu fpv4-sp-d16
 2978              	USB_DevConnect:
 2979              	.LVL235:
 2980              	.LFB261:
1190:stm32f4xx-hal-driver/Src/stm32f4xx_ll_usb.c ****   uint32_t USBx_BASE = (uint32_t)USBx;
 2981              		.loc 1 1190 1 is_stmt 1 view -0
 2982              		.cfi_startproc
 2983              		@ args = 0, pretend = 0, frame = 0
 2984              		@ frame_needed = 0, uses_anonymous_args = 0
 2985              		@ link register save eliminated.
1191:stm32f4xx-hal-driver/Src/stm32f4xx_ll_usb.c **** 
 2986              		.loc 1 1191 3 view .LVU975
1194:stm32f4xx-hal-driver/Src/stm32f4xx_ll_usb.c **** 
 2987              		.loc 1 1194 3 view .LVU976
1194:stm32f4xx-hal-driver/Src/stm32f4xx_ll_usb.c **** 
 2988              		.loc 1 1194 16 is_stmt 0 view .LVU977
 2989 0000 D0F8003E 		ldr	r3, [r0, #3584]
 2990 0004 23F00303 		bic	r3, r3, #3
 2991 0008 C0F8003E 		str	r3, [r0, #3584]
1196:stm32f4xx-hal-driver/Src/stm32f4xx_ll_usb.c **** 
 2992              		.loc 1 1196 3 is_stmt 1 view .LVU978
1196:stm32f4xx-hal-driver/Src/stm32f4xx_ll_usb.c **** 
 2993              		.loc 1 1196 21 is_stmt 0 view .LVU979
 2994 000c D0F80438 		ldr	r3, [r0, #2052]
 2995 0010 23F00203 		bic	r3, r3, #2
 2996 0014 C0F80438 		str	r3, [r0, #2052]
1198:stm32f4xx-hal-driver/Src/stm32f4xx_ll_usb.c **** }
 2997              		.loc 1 1198 3 is_stmt 1 view .LVU980
1199:stm32f4xx-hal-driver/Src/stm32f4xx_ll_usb.c **** 
 2998              		.loc 1 1199 1 is_stmt 0 view .LVU981
 2999 0018 0020     		movs	r0, #0
 3000              	.LVL236:
1199:stm32f4xx-hal-driver/Src/stm32f4xx_ll_usb.c **** 
 3001              		.loc 1 1199 1 view .LVU982
 3002 001a 7047     		bx	lr
 3003              		.cfi_endproc
 3004              	.LFE261:
 3006              		.section	.text.USB_DevDisconnect,"ax",%progbits
 3007              		.align	1
 3008              		.global	USB_DevDisconnect
 3009              		.syntax unified
 3010              		.thumb
 3011              		.thumb_func
 3012              		.fpu fpv4-sp-d16
 3014              	USB_DevDisconnect:
ARM GAS  /tmp/ccXMuxQe.s 			page 95


 3015              	.LVL237:
 3016              	.LFB262:
1207:stm32f4xx-hal-driver/Src/stm32f4xx_ll_usb.c ****   uint32_t USBx_BASE = (uint32_t)USBx;
 3017              		.loc 1 1207 1 is_stmt 1 view -0
 3018              		.cfi_startproc
 3019              		@ args = 0, pretend = 0, frame = 0
 3020              		@ frame_needed = 0, uses_anonymous_args = 0
 3021              		@ link register save eliminated.
1208:stm32f4xx-hal-driver/Src/stm32f4xx_ll_usb.c **** 
 3022              		.loc 1 1208 3 view .LVU984
1211:stm32f4xx-hal-driver/Src/stm32f4xx_ll_usb.c **** 
 3023              		.loc 1 1211 3 view .LVU985
1211:stm32f4xx-hal-driver/Src/stm32f4xx_ll_usb.c **** 
 3024              		.loc 1 1211 16 is_stmt 0 view .LVU986
 3025 0000 D0F8003E 		ldr	r3, [r0, #3584]
 3026 0004 23F00303 		bic	r3, r3, #3
 3027 0008 C0F8003E 		str	r3, [r0, #3584]
1213:stm32f4xx-hal-driver/Src/stm32f4xx_ll_usb.c **** 
 3028              		.loc 1 1213 3 is_stmt 1 view .LVU987
1213:stm32f4xx-hal-driver/Src/stm32f4xx_ll_usb.c **** 
 3029              		.loc 1 1213 21 is_stmt 0 view .LVU988
 3030 000c D0F80438 		ldr	r3, [r0, #2052]
 3031 0010 43F00203 		orr	r3, r3, #2
 3032 0014 C0F80438 		str	r3, [r0, #2052]
1215:stm32f4xx-hal-driver/Src/stm32f4xx_ll_usb.c **** }
 3033              		.loc 1 1215 3 is_stmt 1 view .LVU989
1216:stm32f4xx-hal-driver/Src/stm32f4xx_ll_usb.c **** 
 3034              		.loc 1 1216 1 is_stmt 0 view .LVU990
 3035 0018 0020     		movs	r0, #0
 3036              	.LVL238:
1216:stm32f4xx-hal-driver/Src/stm32f4xx_ll_usb.c **** 
 3037              		.loc 1 1216 1 view .LVU991
 3038 001a 7047     		bx	lr
 3039              		.cfi_endproc
 3040              	.LFE262:
 3042              		.section	.text.USB_ReadInterrupts,"ax",%progbits
 3043              		.align	1
 3044              		.global	USB_ReadInterrupts
 3045              		.syntax unified
 3046              		.thumb
 3047              		.thumb_func
 3048              		.fpu fpv4-sp-d16
 3050              	USB_ReadInterrupts:
 3051              	.LVL239:
 3052              	.LFB263:
1224:stm32f4xx-hal-driver/Src/stm32f4xx_ll_usb.c ****   uint32_t tmpreg;
 3053              		.loc 1 1224 1 is_stmt 1 view -0
 3054              		.cfi_startproc
 3055              		@ args = 0, pretend = 0, frame = 0
 3056              		@ frame_needed = 0, uses_anonymous_args = 0
 3057              		@ link register save eliminated.
1225:stm32f4xx-hal-driver/Src/stm32f4xx_ll_usb.c **** 
 3058              		.loc 1 1225 3 view .LVU993
1227:stm32f4xx-hal-driver/Src/stm32f4xx_ll_usb.c ****   tmpreg &= USBx->GINTMSK;
 3059              		.loc 1 1227 3 view .LVU994
1227:stm32f4xx-hal-driver/Src/stm32f4xx_ll_usb.c ****   tmpreg &= USBx->GINTMSK;
 3060              		.loc 1 1227 10 is_stmt 0 view .LVU995
ARM GAS  /tmp/ccXMuxQe.s 			page 96


 3061 0000 4269     		ldr	r2, [r0, #20]
 3062              	.LVL240:
1228:stm32f4xx-hal-driver/Src/stm32f4xx_ll_usb.c **** 
 3063              		.loc 1 1228 3 is_stmt 1 view .LVU996
1228:stm32f4xx-hal-driver/Src/stm32f4xx_ll_usb.c **** 
 3064              		.loc 1 1228 17 is_stmt 0 view .LVU997
 3065 0002 8069     		ldr	r0, [r0, #24]
 3066              	.LVL241:
1230:stm32f4xx-hal-driver/Src/stm32f4xx_ll_usb.c **** }
 3067              		.loc 1 1230 3 is_stmt 1 view .LVU998
1231:stm32f4xx-hal-driver/Src/stm32f4xx_ll_usb.c **** 
 3068              		.loc 1 1231 1 is_stmt 0 view .LVU999
 3069 0004 1040     		ands	r0, r0, r2
 3070              	.LVL242:
1231:stm32f4xx-hal-driver/Src/stm32f4xx_ll_usb.c **** 
 3071              		.loc 1 1231 1 view .LVU1000
 3072 0006 7047     		bx	lr
 3073              		.cfi_endproc
 3074              	.LFE263:
 3076              		.section	.text.USB_ReadChInterrupts,"ax",%progbits
 3077              		.align	1
 3078              		.global	USB_ReadChInterrupts
 3079              		.syntax unified
 3080              		.thumb
 3081              		.thumb_func
 3082              		.fpu fpv4-sp-d16
 3084              	USB_ReadChInterrupts:
 3085              	.LVL243:
 3086              	.LFB264:
1240:stm32f4xx-hal-driver/Src/stm32f4xx_ll_usb.c ****   uint32_t USBx_BASE = (uint32_t)USBx;
 3087              		.loc 1 1240 1 is_stmt 1 view -0
 3088              		.cfi_startproc
 3089              		@ args = 0, pretend = 0, frame = 0
 3090              		@ frame_needed = 0, uses_anonymous_args = 0
 3091              		@ link register save eliminated.
1241:stm32f4xx-hal-driver/Src/stm32f4xx_ll_usb.c ****   uint32_t tmpreg;
 3092              		.loc 1 1241 3 view .LVU1002
1242:stm32f4xx-hal-driver/Src/stm32f4xx_ll_usb.c **** 
 3093              		.loc 1 1242 3 view .LVU1003
1244:stm32f4xx-hal-driver/Src/stm32f4xx_ll_usb.c ****   tmpreg &= USBx_HC(chnum)->HCINTMSK;
 3094              		.loc 1 1244 3 view .LVU1004
1244:stm32f4xx-hal-driver/Src/stm32f4xx_ll_usb.c ****   tmpreg &= USBx_HC(chnum)->HCINTMSK;
 3095              		.loc 1 1244 12 is_stmt 0 view .LVU1005
 3096 0000 00EB4111 		add	r1, r0, r1, lsl #5
 3097              	.LVL244:
1244:stm32f4xx-hal-driver/Src/stm32f4xx_ll_usb.c ****   tmpreg &= USBx_HC(chnum)->HCINTMSK;
 3098              		.loc 1 1244 10 view .LVU1006
 3099 0004 D1F80805 		ldr	r0, [r1, #1288]
 3100              	.LVL245:
1245:stm32f4xx-hal-driver/Src/stm32f4xx_ll_usb.c **** 
 3101              		.loc 1 1245 3 is_stmt 1 view .LVU1007
1245:stm32f4xx-hal-driver/Src/stm32f4xx_ll_usb.c **** 
 3102              		.loc 1 1245 27 is_stmt 0 view .LVU1008
 3103 0008 D1F80C35 		ldr	r3, [r1, #1292]
 3104              	.LVL246:
1247:stm32f4xx-hal-driver/Src/stm32f4xx_ll_usb.c **** }
 3105              		.loc 1 1247 3 is_stmt 1 view .LVU1009
ARM GAS  /tmp/ccXMuxQe.s 			page 97


1248:stm32f4xx-hal-driver/Src/stm32f4xx_ll_usb.c **** 
 3106              		.loc 1 1248 1 is_stmt 0 view .LVU1010
 3107 000c 1840     		ands	r0, r0, r3
 3108              	.LVL247:
1248:stm32f4xx-hal-driver/Src/stm32f4xx_ll_usb.c **** 
 3109              		.loc 1 1248 1 view .LVU1011
 3110 000e 7047     		bx	lr
 3111              		.cfi_endproc
 3112              	.LFE264:
 3114              		.section	.text.USB_ReadDevAllOutEpInterrupt,"ax",%progbits
 3115              		.align	1
 3116              		.global	USB_ReadDevAllOutEpInterrupt
 3117              		.syntax unified
 3118              		.thumb
 3119              		.thumb_func
 3120              		.fpu fpv4-sp-d16
 3122              	USB_ReadDevAllOutEpInterrupt:
 3123              	.LVL248:
 3124              	.LFB265:
1256:stm32f4xx-hal-driver/Src/stm32f4xx_ll_usb.c ****   uint32_t USBx_BASE = (uint32_t)USBx;
 3125              		.loc 1 1256 1 is_stmt 1 view -0
 3126              		.cfi_startproc
 3127              		@ args = 0, pretend = 0, frame = 0
 3128              		@ frame_needed = 0, uses_anonymous_args = 0
 3129              		@ link register save eliminated.
1257:stm32f4xx-hal-driver/Src/stm32f4xx_ll_usb.c ****   uint32_t tmpreg;
 3130              		.loc 1 1257 3 view .LVU1013
1258:stm32f4xx-hal-driver/Src/stm32f4xx_ll_usb.c **** 
 3131              		.loc 1 1258 3 view .LVU1014
1260:stm32f4xx-hal-driver/Src/stm32f4xx_ll_usb.c ****   tmpreg &= USBx_DEVICE->DAINTMSK;
 3132              		.loc 1 1260 3 view .LVU1015
1260:stm32f4xx-hal-driver/Src/stm32f4xx_ll_usb.c ****   tmpreg &= USBx_DEVICE->DAINTMSK;
 3133              		.loc 1 1260 11 is_stmt 0 view .LVU1016
 3134 0000 D0F81838 		ldr	r3, [r0, #2072]
1260:stm32f4xx-hal-driver/Src/stm32f4xx_ll_usb.c ****   tmpreg &= USBx_DEVICE->DAINTMSK;
 3135              		.loc 1 1260 13 view .LVU1017
 3136 0004 00F50060 		add	r0, r0, #2048
 3137              	.LVL249:
1261:stm32f4xx-hal-driver/Src/stm32f4xx_ll_usb.c **** 
 3138              		.loc 1 1261 3 is_stmt 1 view .LVU1018
1261:stm32f4xx-hal-driver/Src/stm32f4xx_ll_usb.c **** 
 3139              		.loc 1 1261 24 is_stmt 0 view .LVU1019
 3140 0008 C069     		ldr	r0, [r0, #28]
 3141              	.LVL250:
1261:stm32f4xx-hal-driver/Src/stm32f4xx_ll_usb.c **** 
 3142              		.loc 1 1261 10 view .LVU1020
 3143 000a 1840     		ands	r0, r0, r3
 3144              	.LVL251:
1263:stm32f4xx-hal-driver/Src/stm32f4xx_ll_usb.c **** }
 3145              		.loc 1 1263 3 is_stmt 1 view .LVU1021
1264:stm32f4xx-hal-driver/Src/stm32f4xx_ll_usb.c **** 
 3146              		.loc 1 1264 1 is_stmt 0 view .LVU1022
 3147 000c 000C     		lsrs	r0, r0, #16
 3148              	.LVL252:
1264:stm32f4xx-hal-driver/Src/stm32f4xx_ll_usb.c **** 
 3149              		.loc 1 1264 1 view .LVU1023
 3150 000e 7047     		bx	lr
ARM GAS  /tmp/ccXMuxQe.s 			page 98


 3151              		.cfi_endproc
 3152              	.LFE265:
 3154              		.section	.text.USB_ReadDevAllInEpInterrupt,"ax",%progbits
 3155              		.align	1
 3156              		.global	USB_ReadDevAllInEpInterrupt
 3157              		.syntax unified
 3158              		.thumb
 3159              		.thumb_func
 3160              		.fpu fpv4-sp-d16
 3162              	USB_ReadDevAllInEpInterrupt:
 3163              	.LVL253:
 3164              	.LFB266:
1272:stm32f4xx-hal-driver/Src/stm32f4xx_ll_usb.c ****   uint32_t USBx_BASE = (uint32_t)USBx;
 3165              		.loc 1 1272 1 is_stmt 1 view -0
 3166              		.cfi_startproc
 3167              		@ args = 0, pretend = 0, frame = 0
 3168              		@ frame_needed = 0, uses_anonymous_args = 0
 3169              		@ link register save eliminated.
1273:stm32f4xx-hal-driver/Src/stm32f4xx_ll_usb.c ****   uint32_t tmpreg;
 3170              		.loc 1 1273 3 view .LVU1025
1274:stm32f4xx-hal-driver/Src/stm32f4xx_ll_usb.c **** 
 3171              		.loc 1 1274 3 view .LVU1026
1276:stm32f4xx-hal-driver/Src/stm32f4xx_ll_usb.c ****   tmpreg &= USBx_DEVICE->DAINTMSK;
 3172              		.loc 1 1276 3 view .LVU1027
1276:stm32f4xx-hal-driver/Src/stm32f4xx_ll_usb.c ****   tmpreg &= USBx_DEVICE->DAINTMSK;
 3173              		.loc 1 1276 11 is_stmt 0 view .LVU1028
 3174 0000 D0F81838 		ldr	r3, [r0, #2072]
1276:stm32f4xx-hal-driver/Src/stm32f4xx_ll_usb.c ****   tmpreg &= USBx_DEVICE->DAINTMSK;
 3175              		.loc 1 1276 13 view .LVU1029
 3176 0004 00F50060 		add	r0, r0, #2048
 3177              	.LVL254:
1277:stm32f4xx-hal-driver/Src/stm32f4xx_ll_usb.c **** 
 3178              		.loc 1 1277 3 is_stmt 1 view .LVU1030
1277:stm32f4xx-hal-driver/Src/stm32f4xx_ll_usb.c **** 
 3179              		.loc 1 1277 24 is_stmt 0 view .LVU1031
 3180 0008 C069     		ldr	r0, [r0, #28]
 3181              	.LVL255:
1277:stm32f4xx-hal-driver/Src/stm32f4xx_ll_usb.c **** 
 3182              		.loc 1 1277 10 view .LVU1032
 3183 000a 1840     		ands	r0, r0, r3
 3184              	.LVL256:
1279:stm32f4xx-hal-driver/Src/stm32f4xx_ll_usb.c **** }
 3185              		.loc 1 1279 3 is_stmt 1 view .LVU1033
1280:stm32f4xx-hal-driver/Src/stm32f4xx_ll_usb.c **** 
 3186              		.loc 1 1280 1 is_stmt 0 view .LVU1034
 3187 000c 80B2     		uxth	r0, r0
 3188              	.LVL257:
1280:stm32f4xx-hal-driver/Src/stm32f4xx_ll_usb.c **** 
 3189              		.loc 1 1280 1 view .LVU1035
 3190 000e 7047     		bx	lr
 3191              		.cfi_endproc
 3192              	.LFE266:
 3194              		.section	.text.USB_ReadDevOutEPInterrupt,"ax",%progbits
 3195              		.align	1
 3196              		.global	USB_ReadDevOutEPInterrupt
 3197              		.syntax unified
 3198              		.thumb
ARM GAS  /tmp/ccXMuxQe.s 			page 99


 3199              		.thumb_func
 3200              		.fpu fpv4-sp-d16
 3202              	USB_ReadDevOutEPInterrupt:
 3203              	.LVL258:
 3204              	.LFB267:
1290:stm32f4xx-hal-driver/Src/stm32f4xx_ll_usb.c ****   uint32_t USBx_BASE = (uint32_t)USBx;
 3205              		.loc 1 1290 1 is_stmt 1 view -0
 3206              		.cfi_startproc
 3207              		@ args = 0, pretend = 0, frame = 0
 3208              		@ frame_needed = 0, uses_anonymous_args = 0
 3209              		@ link register save eliminated.
1291:stm32f4xx-hal-driver/Src/stm32f4xx_ll_usb.c ****   uint32_t tmpreg;
 3210              		.loc 1 1291 3 view .LVU1037
1292:stm32f4xx-hal-driver/Src/stm32f4xx_ll_usb.c **** 
 3211              		.loc 1 1292 3 view .LVU1038
1294:stm32f4xx-hal-driver/Src/stm32f4xx_ll_usb.c ****   tmpreg &= USBx_DEVICE->DOEPMSK;
 3212              		.loc 1 1294 3 view .LVU1039
1294:stm32f4xx-hal-driver/Src/stm32f4xx_ll_usb.c ****   tmpreg &= USBx_DEVICE->DOEPMSK;
 3213              		.loc 1 1294 13 is_stmt 0 view .LVU1040
 3214 0000 00EB4111 		add	r1, r0, r1, lsl #5
 3215              	.LVL259:
1294:stm32f4xx-hal-driver/Src/stm32f4xx_ll_usb.c ****   tmpreg &= USBx_DEVICE->DOEPMSK;
 3216              		.loc 1 1294 11 view .LVU1041
 3217 0004 D1F8082B 		ldr	r2, [r1, #2824]
 3218              	.LVL260:
1295:stm32f4xx-hal-driver/Src/stm32f4xx_ll_usb.c **** 
 3219              		.loc 1 1295 3 is_stmt 1 view .LVU1042
1295:stm32f4xx-hal-driver/Src/stm32f4xx_ll_usb.c **** 
 3220              		.loc 1 1295 13 is_stmt 0 view .LVU1043
 3221 0008 00F50060 		add	r0, r0, #2048
 3222              	.LVL261:
1295:stm32f4xx-hal-driver/Src/stm32f4xx_ll_usb.c **** 
 3223              		.loc 1 1295 24 view .LVU1044
 3224 000c 4069     		ldr	r0, [r0, #20]
 3225              	.LVL262:
1297:stm32f4xx-hal-driver/Src/stm32f4xx_ll_usb.c **** }
 3226              		.loc 1 1297 3 is_stmt 1 view .LVU1045
1298:stm32f4xx-hal-driver/Src/stm32f4xx_ll_usb.c **** 
 3227              		.loc 1 1298 1 is_stmt 0 view .LVU1046
 3228 000e 1040     		ands	r0, r0, r2
 3229              	.LVL263:
1298:stm32f4xx-hal-driver/Src/stm32f4xx_ll_usb.c **** 
 3230              		.loc 1 1298 1 view .LVU1047
 3231 0010 7047     		bx	lr
 3232              		.cfi_endproc
 3233              	.LFE267:
 3235              		.section	.text.USB_ReadDevInEPInterrupt,"ax",%progbits
 3236              		.align	1
 3237              		.global	USB_ReadDevInEPInterrupt
 3238              		.syntax unified
 3239              		.thumb
 3240              		.thumb_func
 3241              		.fpu fpv4-sp-d16
 3243              	USB_ReadDevInEPInterrupt:
 3244              	.LVL264:
 3245              	.LFB268:
1308:stm32f4xx-hal-driver/Src/stm32f4xx_ll_usb.c ****   uint32_t USBx_BASE = (uint32_t)USBx;
ARM GAS  /tmp/ccXMuxQe.s 			page 100


 3246              		.loc 1 1308 1 is_stmt 1 view -0
 3247              		.cfi_startproc
 3248              		@ args = 0, pretend = 0, frame = 0
 3249              		@ frame_needed = 0, uses_anonymous_args = 0
 3250              		@ link register save eliminated.
1308:stm32f4xx-hal-driver/Src/stm32f4xx_ll_usb.c ****   uint32_t USBx_BASE = (uint32_t)USBx;
 3251              		.loc 1 1308 1 is_stmt 0 view .LVU1049
 3252 0000 10B4     		push	{r4}
 3253              	.LCFI44:
 3254              		.cfi_def_cfa_offset 4
 3255              		.cfi_offset 4, -4
1309:stm32f4xx-hal-driver/Src/stm32f4xx_ll_usb.c ****   uint32_t tmpreg;
 3256              		.loc 1 1309 3 is_stmt 1 view .LVU1050
 3257              	.LVL265:
1310:stm32f4xx-hal-driver/Src/stm32f4xx_ll_usb.c ****   uint32_t msk;
 3258              		.loc 1 1310 3 view .LVU1051
1311:stm32f4xx-hal-driver/Src/stm32f4xx_ll_usb.c ****   uint32_t emp;
 3259              		.loc 1 1311 3 view .LVU1052
1312:stm32f4xx-hal-driver/Src/stm32f4xx_ll_usb.c **** 
 3260              		.loc 1 1312 3 view .LVU1053
1314:stm32f4xx-hal-driver/Src/stm32f4xx_ll_usb.c ****   emp = USBx_DEVICE->DIEPEMPMSK;
 3261              		.loc 1 1314 3 view .LVU1054
1314:stm32f4xx-hal-driver/Src/stm32f4xx_ll_usb.c ****   emp = USBx_DEVICE->DIEPEMPMSK;
 3262              		.loc 1 1314 7 is_stmt 0 view .LVU1055
 3263 0002 D0F81048 		ldr	r4, [r0, #2064]
 3264              	.LVL266:
1315:stm32f4xx-hal-driver/Src/stm32f4xx_ll_usb.c ****   msk |= ((emp >> (epnum & EP_ADDR_MSK)) & 0x1U) << 7;
 3265              		.loc 1 1315 3 is_stmt 1 view .LVU1056
1315:stm32f4xx-hal-driver/Src/stm32f4xx_ll_usb.c ****   msk |= ((emp >> (epnum & EP_ADDR_MSK)) & 0x1U) << 7;
 3266              		.loc 1 1315 7 is_stmt 0 view .LVU1057
 3267 0006 D0F83438 		ldr	r3, [r0, #2100]
 3268              	.LVL267:
1316:stm32f4xx-hal-driver/Src/stm32f4xx_ll_usb.c ****   tmpreg = USBx_INEP((uint32_t)epnum)->DIEPINT & msk;
 3269              		.loc 1 1316 3 is_stmt 1 view .LVU1058
1316:stm32f4xx-hal-driver/Src/stm32f4xx_ll_usb.c ****   tmpreg = USBx_INEP((uint32_t)epnum)->DIEPINT & msk;
 3270              		.loc 1 1316 26 is_stmt 0 view .LVU1059
 3271 000a 01F00F02 		and	r2, r1, #15
1316:stm32f4xx-hal-driver/Src/stm32f4xx_ll_usb.c ****   tmpreg = USBx_INEP((uint32_t)epnum)->DIEPINT & msk;
 3272              		.loc 1 1316 16 view .LVU1060
 3273 000e D340     		lsrs	r3, r3, r2
 3274              	.LVL268:
1316:stm32f4xx-hal-driver/Src/stm32f4xx_ll_usb.c ****   tmpreg = USBx_INEP((uint32_t)epnum)->DIEPINT & msk;
 3275              		.loc 1 1316 50 view .LVU1061
 3276 0010 DB01     		lsls	r3, r3, #7
 3277 0012 DBB2     		uxtb	r3, r3
1316:stm32f4xx-hal-driver/Src/stm32f4xx_ll_usb.c ****   tmpreg = USBx_INEP((uint32_t)epnum)->DIEPINT & msk;
 3278              		.loc 1 1316 7 view .LVU1062
 3279 0014 2343     		orrs	r3, r3, r4
 3280              	.LVL269:
1317:stm32f4xx-hal-driver/Src/stm32f4xx_ll_usb.c **** 
 3281              		.loc 1 1317 3 is_stmt 1 view .LVU1063
1317:stm32f4xx-hal-driver/Src/stm32f4xx_ll_usb.c **** 
 3282              		.loc 1 1317 12 is_stmt 0 view .LVU1064
 3283 0016 00EB4110 		add	r0, r0, r1, lsl #5
 3284              	.LVL270:
1317:stm32f4xx-hal-driver/Src/stm32f4xx_ll_usb.c **** 
 3285              		.loc 1 1317 12 view .LVU1065
ARM GAS  /tmp/ccXMuxQe.s 			page 101


 3286 001a 00F51060 		add	r0, r0, #2304
1317:stm32f4xx-hal-driver/Src/stm32f4xx_ll_usb.c **** 
 3287              		.loc 1 1317 38 view .LVU1066
 3288 001e 8068     		ldr	r0, [r0, #8]
 3289              	.LVL271:
1319:stm32f4xx-hal-driver/Src/stm32f4xx_ll_usb.c **** }
 3290              		.loc 1 1319 3 is_stmt 1 view .LVU1067
1320:stm32f4xx-hal-driver/Src/stm32f4xx_ll_usb.c **** 
 3291              		.loc 1 1320 1 is_stmt 0 view .LVU1068
 3292 0020 1840     		ands	r0, r0, r3
 3293              	.LVL272:
1320:stm32f4xx-hal-driver/Src/stm32f4xx_ll_usb.c **** 
 3294              		.loc 1 1320 1 view .LVU1069
 3295 0022 5DF8044B 		ldr	r4, [sp], #4
 3296              	.LCFI45:
 3297              		.cfi_restore 4
 3298              		.cfi_def_cfa_offset 0
 3299 0026 7047     		bx	lr
 3300              		.cfi_endproc
 3301              	.LFE268:
 3303              		.section	.text.USB_ClearInterrupts,"ax",%progbits
 3304              		.align	1
 3305              		.global	USB_ClearInterrupts
 3306              		.syntax unified
 3307              		.thumb
 3308              		.thumb_func
 3309              		.fpu fpv4-sp-d16
 3311              	USB_ClearInterrupts:
 3312              	.LVL273:
 3313              	.LFB269:
1329:stm32f4xx-hal-driver/Src/stm32f4xx_ll_usb.c ****   USBx->GINTSTS &= interrupt;
 3314              		.loc 1 1329 1 is_stmt 1 view -0
 3315              		.cfi_startproc
 3316              		@ args = 0, pretend = 0, frame = 0
 3317              		@ frame_needed = 0, uses_anonymous_args = 0
 3318              		@ link register save eliminated.
1330:stm32f4xx-hal-driver/Src/stm32f4xx_ll_usb.c **** }
 3319              		.loc 1 1330 3 view .LVU1071
1330:stm32f4xx-hal-driver/Src/stm32f4xx_ll_usb.c **** }
 3320              		.loc 1 1330 17 is_stmt 0 view .LVU1072
 3321 0000 4369     		ldr	r3, [r0, #20]
 3322 0002 0B40     		ands	r3, r3, r1
 3323 0004 4361     		str	r3, [r0, #20]
1331:stm32f4xx-hal-driver/Src/stm32f4xx_ll_usb.c **** 
 3324              		.loc 1 1331 1 view .LVU1073
 3325 0006 7047     		bx	lr
 3326              		.cfi_endproc
 3327              	.LFE269:
 3329              		.section	.text.USB_GetMode,"ax",%progbits
 3330              		.align	1
 3331              		.global	USB_GetMode
 3332              		.syntax unified
 3333              		.thumb
 3334              		.thumb_func
 3335              		.fpu fpv4-sp-d16
 3337              	USB_GetMode:
 3338              	.LVL274:
ARM GAS  /tmp/ccXMuxQe.s 			page 102


 3339              	.LFB270:
1342:stm32f4xx-hal-driver/Src/stm32f4xx_ll_usb.c ****   return ((USBx->GINTSTS) & 0x1U);
 3340              		.loc 1 1342 1 is_stmt 1 view -0
 3341              		.cfi_startproc
 3342              		@ args = 0, pretend = 0, frame = 0
 3343              		@ frame_needed = 0, uses_anonymous_args = 0
 3344              		@ link register save eliminated.
1343:stm32f4xx-hal-driver/Src/stm32f4xx_ll_usb.c **** }
 3345              		.loc 1 1343 3 view .LVU1075
1343:stm32f4xx-hal-driver/Src/stm32f4xx_ll_usb.c **** }
 3346              		.loc 1 1343 16 is_stmt 0 view .LVU1076
 3347 0000 4069     		ldr	r0, [r0, #20]
 3348              	.LVL275:
1344:stm32f4xx-hal-driver/Src/stm32f4xx_ll_usb.c **** 
 3349              		.loc 1 1344 1 view .LVU1077
 3350 0002 00F00100 		and	r0, r0, #1
 3351 0006 7047     		bx	lr
 3352              		.cfi_endproc
 3353              	.LFE270:
 3355              		.section	.text.USB_SetCurrentMode,"ax",%progbits
 3356              		.align	1
 3357              		.global	USB_SetCurrentMode
 3358              		.syntax unified
 3359              		.thumb
 3360              		.thumb_func
 3361              		.fpu fpv4-sp-d16
 3363              	USB_SetCurrentMode:
 3364              	.LVL276:
 3365              	.LFB243:
 250:stm32f4xx-hal-driver/Src/stm32f4xx_ll_usb.c ****   uint32_t ms = 0U;
 3366              		.loc 1 250 1 is_stmt 1 view -0
 3367              		.cfi_startproc
 3368              		@ args = 0, pretend = 0, frame = 0
 3369              		@ frame_needed = 0, uses_anonymous_args = 0
 250:stm32f4xx-hal-driver/Src/stm32f4xx_ll_usb.c ****   uint32_t ms = 0U;
 3370              		.loc 1 250 1 is_stmt 0 view .LVU1079
 3371 0000 38B5     		push	{r3, r4, r5, lr}
 3372              	.LCFI46:
 3373              		.cfi_def_cfa_offset 16
 3374              		.cfi_offset 3, -16
 3375              		.cfi_offset 4, -12
 3376              		.cfi_offset 5, -8
 3377              		.cfi_offset 14, -4
 3378 0002 0546     		mov	r5, r0
 251:stm32f4xx-hal-driver/Src/stm32f4xx_ll_usb.c **** 
 3379              		.loc 1 251 3 is_stmt 1 view .LVU1080
 3380              	.LVL277:
 253:stm32f4xx-hal-driver/Src/stm32f4xx_ll_usb.c **** 
 3381              		.loc 1 253 3 view .LVU1081
 253:stm32f4xx-hal-driver/Src/stm32f4xx_ll_usb.c **** 
 3382              		.loc 1 253 17 is_stmt 0 view .LVU1082
 3383 0004 C368     		ldr	r3, [r0, #12]
 3384 0006 23F0C043 		bic	r3, r3, #1610612736
 3385 000a C360     		str	r3, [r0, #12]
 255:stm32f4xx-hal-driver/Src/stm32f4xx_ll_usb.c ****   {
 3386              		.loc 1 255 3 is_stmt 1 view .LVU1083
 255:stm32f4xx-hal-driver/Src/stm32f4xx_ll_usb.c ****   {
ARM GAS  /tmp/ccXMuxQe.s 			page 103


 3387              		.loc 1 255 6 is_stmt 0 view .LVU1084
 3388 000c 0129     		cmp	r1, #1
 3389 000e 13D0     		beq	.L215
 265:stm32f4xx-hal-driver/Src/stm32f4xx_ll_usb.c ****   {
 3390              		.loc 1 265 8 is_stmt 1 view .LVU1085
 265:stm32f4xx-hal-driver/Src/stm32f4xx_ll_usb.c ****   {
 3391              		.loc 1 265 11 is_stmt 0 view .LVU1086
 3392 0010 19BB     		cbnz	r1, .L212
 267:stm32f4xx-hal-driver/Src/stm32f4xx_ll_usb.c **** 
 3393              		.loc 1 267 5 is_stmt 1 view .LVU1087
 267:stm32f4xx-hal-driver/Src/stm32f4xx_ll_usb.c **** 
 3394              		.loc 1 267 19 is_stmt 0 view .LVU1088
 3395 0012 C368     		ldr	r3, [r0, #12]
 3396 0014 43F08043 		orr	r3, r3, #1073741824
 3397 0018 C360     		str	r3, [r0, #12]
 251:stm32f4xx-hal-driver/Src/stm32f4xx_ll_usb.c **** 
 3398              		.loc 1 251 12 view .LVU1089
 3399 001a 0024     		movs	r4, #0
 3400              	.LVL278:
 3401              	.L211:
 269:stm32f4xx-hal-driver/Src/stm32f4xx_ll_usb.c ****     {
 3402              		.loc 1 269 5 is_stmt 1 discriminator 2 view .LVU1090
 271:stm32f4xx-hal-driver/Src/stm32f4xx_ll_usb.c ****       ms += 10U;
 3403              		.loc 1 271 7 discriminator 2 view .LVU1091
 3404 001c 0A20     		movs	r0, #10
 3405 001e FFF7FEFF 		bl	HAL_Delay
 3406              	.LVL279:
 272:stm32f4xx-hal-driver/Src/stm32f4xx_ll_usb.c ****     } while ((USB_GetMode(USBx) != (uint32_t)USB_DEVICE_MODE) && (ms < HAL_USB_CURRENT_MODE_MAX_DEL
 3407              		.loc 1 272 7 discriminator 2 view .LVU1092
 272:stm32f4xx-hal-driver/Src/stm32f4xx_ll_usb.c ****     } while ((USB_GetMode(USBx) != (uint32_t)USB_DEVICE_MODE) && (ms < HAL_USB_CURRENT_MODE_MAX_DEL
 3408              		.loc 1 272 10 is_stmt 0 discriminator 2 view .LVU1093
 3409 0022 0A34     		adds	r4, r4, #10
 3410              	.LVL280:
 273:stm32f4xx-hal-driver/Src/stm32f4xx_ll_usb.c ****   }
 3411              		.loc 1 273 13 is_stmt 1 discriminator 2 view .LVU1094
 273:stm32f4xx-hal-driver/Src/stm32f4xx_ll_usb.c ****   }
 3412              		.loc 1 273 15 is_stmt 0 discriminator 2 view .LVU1095
 3413 0024 2846     		mov	r0, r5
 3414 0026 FFF7FEFF 		bl	USB_GetMode
 3415              	.LVL281:
 273:stm32f4xx-hal-driver/Src/stm32f4xx_ll_usb.c ****   }
 3416              		.loc 1 273 5 discriminator 2 view .LVU1096
 3417 002a 08B1     		cbz	r0, .L208
 273:stm32f4xx-hal-driver/Src/stm32f4xx_ll_usb.c ****   }
 3418              		.loc 1 273 63 discriminator 1 view .LVU1097
 3419 002c C72C     		cmp	r4, #199
 3420 002e F5D9     		bls	.L211
 3421              	.L208:
 280:stm32f4xx-hal-driver/Src/stm32f4xx_ll_usb.c ****   {
 3422              		.loc 1 280 3 is_stmt 1 view .LVU1098
 280:stm32f4xx-hal-driver/Src/stm32f4xx_ll_usb.c ****   {
 3423              		.loc 1 280 6 is_stmt 0 view .LVU1099
 3424 0030 C82C     		cmp	r4, #200
 3425 0032 14D0     		beq	.L213
 285:stm32f4xx-hal-driver/Src/stm32f4xx_ll_usb.c **** }
 3426              		.loc 1 285 10 view .LVU1100
 3427 0034 0020     		movs	r0, #0
ARM GAS  /tmp/ccXMuxQe.s 			page 104


 3428              	.LVL282:
 3429              	.L210:
 286:stm32f4xx-hal-driver/Src/stm32f4xx_ll_usb.c **** 
 3430              		.loc 1 286 1 view .LVU1101
 3431 0036 38BD     		pop	{r3, r4, r5, pc}
 3432              	.LVL283:
 3433              	.L215:
 257:stm32f4xx-hal-driver/Src/stm32f4xx_ll_usb.c **** 
 3434              		.loc 1 257 5 is_stmt 1 view .LVU1102
 257:stm32f4xx-hal-driver/Src/stm32f4xx_ll_usb.c **** 
 3435              		.loc 1 257 19 is_stmt 0 view .LVU1103
 3436 0038 C368     		ldr	r3, [r0, #12]
 3437 003a 43F00053 		orr	r3, r3, #536870912
 3438 003e C360     		str	r3, [r0, #12]
 251:stm32f4xx-hal-driver/Src/stm32f4xx_ll_usb.c **** 
 3439              		.loc 1 251 12 view .LVU1104
 3440 0040 0024     		movs	r4, #0
 3441              	.LVL284:
 3442              	.L209:
 259:stm32f4xx-hal-driver/Src/stm32f4xx_ll_usb.c ****     {
 3443              		.loc 1 259 5 is_stmt 1 discriminator 2 view .LVU1105
 261:stm32f4xx-hal-driver/Src/stm32f4xx_ll_usb.c ****       ms += 10U;
 3444              		.loc 1 261 7 discriminator 2 view .LVU1106
 3445 0042 0A20     		movs	r0, #10
 3446 0044 FFF7FEFF 		bl	HAL_Delay
 3447              	.LVL285:
 262:stm32f4xx-hal-driver/Src/stm32f4xx_ll_usb.c ****     } while ((USB_GetMode(USBx) != (uint32_t)USB_HOST_MODE) && (ms < HAL_USB_CURRENT_MODE_MAX_DELAY
 3448              		.loc 1 262 7 discriminator 2 view .LVU1107
 262:stm32f4xx-hal-driver/Src/stm32f4xx_ll_usb.c ****     } while ((USB_GetMode(USBx) != (uint32_t)USB_HOST_MODE) && (ms < HAL_USB_CURRENT_MODE_MAX_DELAY
 3449              		.loc 1 262 10 is_stmt 0 discriminator 2 view .LVU1108
 3450 0048 0A34     		adds	r4, r4, #10
 3451              	.LVL286:
 263:stm32f4xx-hal-driver/Src/stm32f4xx_ll_usb.c ****   }
 3452              		.loc 1 263 13 is_stmt 1 discriminator 2 view .LVU1109
 263:stm32f4xx-hal-driver/Src/stm32f4xx_ll_usb.c ****   }
 3453              		.loc 1 263 15 is_stmt 0 discriminator 2 view .LVU1110
 3454 004a 2846     		mov	r0, r5
 3455 004c FFF7FEFF 		bl	USB_GetMode
 3456              	.LVL287:
 263:stm32f4xx-hal-driver/Src/stm32f4xx_ll_usb.c ****   }
 3457              		.loc 1 263 5 discriminator 2 view .LVU1111
 3458 0050 0128     		cmp	r0, #1
 3459 0052 EDD0     		beq	.L208
 263:stm32f4xx-hal-driver/Src/stm32f4xx_ll_usb.c ****   }
 3460              		.loc 1 263 61 discriminator 1 view .LVU1112
 3461 0054 C72C     		cmp	r4, #199
 3462 0056 F4D9     		bls	.L209
 3463 0058 EAE7     		b	.L208
 3464              	.LVL288:
 3465              	.L212:
 277:stm32f4xx-hal-driver/Src/stm32f4xx_ll_usb.c ****   }
 3466              		.loc 1 277 12 view .LVU1113
 3467 005a 0120     		movs	r0, #1
 3468              	.LVL289:
 277:stm32f4xx-hal-driver/Src/stm32f4xx_ll_usb.c ****   }
 3469              		.loc 1 277 12 view .LVU1114
 3470 005c EBE7     		b	.L210
ARM GAS  /tmp/ccXMuxQe.s 			page 105


 3471              	.LVL290:
 3472              	.L213:
 282:stm32f4xx-hal-driver/Src/stm32f4xx_ll_usb.c ****   }
 3473              		.loc 1 282 12 view .LVU1115
 3474 005e 0120     		movs	r0, #1
 3475 0060 E9E7     		b	.L210
 3476              		.cfi_endproc
 3477              	.LFE243:
 3479              		.section	.text.USB_ActivateSetup,"ax",%progbits
 3480              		.align	1
 3481              		.global	USB_ActivateSetup
 3482              		.syntax unified
 3483              		.thumb
 3484              		.thumb_func
 3485              		.fpu fpv4-sp-d16
 3487              	USB_ActivateSetup:
 3488              	.LVL291:
 3489              	.LFB271:
1352:stm32f4xx-hal-driver/Src/stm32f4xx_ll_usb.c ****   uint32_t USBx_BASE = (uint32_t)USBx;
 3490              		.loc 1 1352 1 is_stmt 1 view -0
 3491              		.cfi_startproc
 3492              		@ args = 0, pretend = 0, frame = 0
 3493              		@ frame_needed = 0, uses_anonymous_args = 0
 3494              		@ link register save eliminated.
1353:stm32f4xx-hal-driver/Src/stm32f4xx_ll_usb.c **** 
 3495              		.loc 1 1353 3 view .LVU1117
1356:stm32f4xx-hal-driver/Src/stm32f4xx_ll_usb.c **** 
 3496              		.loc 1 1356 3 view .LVU1118
1356:stm32f4xx-hal-driver/Src/stm32f4xx_ll_usb.c **** 
 3497              		.loc 1 1356 26 is_stmt 0 view .LVU1119
 3498 0000 D0F80039 		ldr	r3, [r0, #2304]
 3499 0004 23F4FF63 		bic	r3, r3, #2040
 3500 0008 23F00703 		bic	r3, r3, #7
 3501 000c C0F80039 		str	r3, [r0, #2304]
1358:stm32f4xx-hal-driver/Src/stm32f4xx_ll_usb.c **** 
 3502              		.loc 1 1358 3 is_stmt 1 view .LVU1120
1358:stm32f4xx-hal-driver/Src/stm32f4xx_ll_usb.c **** 
 3503              		.loc 1 1358 21 is_stmt 0 view .LVU1121
 3504 0010 D0F80438 		ldr	r3, [r0, #2052]
 3505 0014 43F48073 		orr	r3, r3, #256
 3506 0018 C0F80438 		str	r3, [r0, #2052]
1360:stm32f4xx-hal-driver/Src/stm32f4xx_ll_usb.c **** }
 3507              		.loc 1 1360 3 is_stmt 1 view .LVU1122
1361:stm32f4xx-hal-driver/Src/stm32f4xx_ll_usb.c **** 
 3508              		.loc 1 1361 1 is_stmt 0 view .LVU1123
 3509 001c 0020     		movs	r0, #0
 3510              	.LVL292:
1361:stm32f4xx-hal-driver/Src/stm32f4xx_ll_usb.c **** 
 3511              		.loc 1 1361 1 view .LVU1124
 3512 001e 7047     		bx	lr
 3513              		.cfi_endproc
 3514              	.LFE271:
 3516              		.section	.text.USB_EP0_OutStart,"ax",%progbits
 3517              		.align	1
 3518              		.global	USB_EP0_OutStart
 3519              		.syntax unified
 3520              		.thumb
ARM GAS  /tmp/ccXMuxQe.s 			page 106


 3521              		.thumb_func
 3522              		.fpu fpv4-sp-d16
 3524              	USB_EP0_OutStart:
 3525              	.LVL293:
 3526              	.LFB272:
1374:stm32f4xx-hal-driver/Src/stm32f4xx_ll_usb.c ****   uint32_t USBx_BASE = (uint32_t)USBx;
 3527              		.loc 1 1374 1 is_stmt 1 view -0
 3528              		.cfi_startproc
 3529              		@ args = 0, pretend = 0, frame = 0
 3530              		@ frame_needed = 0, uses_anonymous_args = 0
 3531              		@ link register save eliminated.
1374:stm32f4xx-hal-driver/Src/stm32f4xx_ll_usb.c ****   uint32_t USBx_BASE = (uint32_t)USBx;
 3532              		.loc 1 1374 1 is_stmt 0 view .LVU1126
 3533 0000 10B4     		push	{r4}
 3534              	.LCFI47:
 3535              		.cfi_def_cfa_offset 4
 3536              		.cfi_offset 4, -4
1375:stm32f4xx-hal-driver/Src/stm32f4xx_ll_usb.c ****   uint32_t gSNPSiD = *(__IO const uint32_t *)(&USBx->CID + 0x1U);
 3537              		.loc 1 1375 3 is_stmt 1 view .LVU1127
 3538              	.LVL294:
1376:stm32f4xx-hal-driver/Src/stm32f4xx_ll_usb.c **** 
 3539              		.loc 1 1376 3 view .LVU1128
1376:stm32f4xx-hal-driver/Src/stm32f4xx_ll_usb.c **** 
 3540              		.loc 1 1376 12 is_stmt 0 view .LVU1129
 3541 0002 046C     		ldr	r4, [r0, #64]
 3542              	.LVL295:
1378:stm32f4xx-hal-driver/Src/stm32f4xx_ll_usb.c ****   {
 3543              		.loc 1 1378 3 is_stmt 1 view .LVU1130
1378:stm32f4xx-hal-driver/Src/stm32f4xx_ll_usb.c ****   {
 3544              		.loc 1 1378 6 is_stmt 0 view .LVU1131
 3545 0004 154B     		ldr	r3, .L222
 3546 0006 9C42     		cmp	r4, r3
 3547 0008 03D9     		bls	.L218
1380:stm32f4xx-hal-driver/Src/stm32f4xx_ll_usb.c ****     {
 3548              		.loc 1 1380 5 is_stmt 1 view .LVU1132
1380:stm32f4xx-hal-driver/Src/stm32f4xx_ll_usb.c ****     {
 3549              		.loc 1 1380 24 is_stmt 0 view .LVU1133
 3550 000a D0F8003B 		ldr	r3, [r0, #2816]
1380:stm32f4xx-hal-driver/Src/stm32f4xx_ll_usb.c ****     {
 3551              		.loc 1 1380 8 view .LVU1134
 3552 000e 002B     		cmp	r3, #0
 3553 0010 16DB     		blt	.L219
 3554              	.L218:
1386:stm32f4xx-hal-driver/Src/stm32f4xx_ll_usb.c ****   USBx_OUTEP(0U)->DOEPTSIZ |= (USB_OTG_DOEPTSIZ_PKTCNT & (1U << 19));
 3555              		.loc 1 1386 3 is_stmt 1 view .LVU1135
1386:stm32f4xx-hal-driver/Src/stm32f4xx_ll_usb.c ****   USBx_OUTEP(0U)->DOEPTSIZ |= (USB_OTG_DOEPTSIZ_PKTCNT & (1U << 19));
 3556              		.loc 1 1386 28 is_stmt 0 view .LVU1136
 3557 0012 0024     		movs	r4, #0
 3558              	.LVL296:
1386:stm32f4xx-hal-driver/Src/stm32f4xx_ll_usb.c ****   USBx_OUTEP(0U)->DOEPTSIZ |= (USB_OTG_DOEPTSIZ_PKTCNT & (1U << 19));
 3559              		.loc 1 1386 28 view .LVU1137
 3560 0014 C0F8104B 		str	r4, [r0, #2832]
1387:stm32f4xx-hal-driver/Src/stm32f4xx_ll_usb.c ****   USBx_OUTEP(0U)->DOEPTSIZ |= (3U * 8U);
 3561              		.loc 1 1387 3 is_stmt 1 view .LVU1138
1387:stm32f4xx-hal-driver/Src/stm32f4xx_ll_usb.c ****   USBx_OUTEP(0U)->DOEPTSIZ |= (3U * 8U);
 3562              		.loc 1 1387 28 is_stmt 0 view .LVU1139
 3563 0018 D0F8104B 		ldr	r4, [r0, #2832]
ARM GAS  /tmp/ccXMuxQe.s 			page 107


 3564 001c 44F40024 		orr	r4, r4, #524288
 3565 0020 C0F8104B 		str	r4, [r0, #2832]
1388:stm32f4xx-hal-driver/Src/stm32f4xx_ll_usb.c ****   USBx_OUTEP(0U)->DOEPTSIZ |=  USB_OTG_DOEPTSIZ_STUPCNT;
 3566              		.loc 1 1388 3 is_stmt 1 view .LVU1140
1388:stm32f4xx-hal-driver/Src/stm32f4xx_ll_usb.c ****   USBx_OUTEP(0U)->DOEPTSIZ |=  USB_OTG_DOEPTSIZ_STUPCNT;
 3567              		.loc 1 1388 28 is_stmt 0 view .LVU1141
 3568 0024 D0F8104B 		ldr	r4, [r0, #2832]
 3569 0028 44F01804 		orr	r4, r4, #24
 3570 002c C0F8104B 		str	r4, [r0, #2832]
1389:stm32f4xx-hal-driver/Src/stm32f4xx_ll_usb.c **** 
 3571              		.loc 1 1389 3 is_stmt 1 view .LVU1142
1389:stm32f4xx-hal-driver/Src/stm32f4xx_ll_usb.c **** 
 3572              		.loc 1 1389 28 is_stmt 0 view .LVU1143
 3573 0030 D0F8104B 		ldr	r4, [r0, #2832]
 3574 0034 44F0C044 		orr	r4, r4, #1610612736
 3575 0038 C0F8104B 		str	r4, [r0, #2832]
1391:stm32f4xx-hal-driver/Src/stm32f4xx_ll_usb.c ****   {
 3576              		.loc 1 1391 3 is_stmt 1 view .LVU1144
1391:stm32f4xx-hal-driver/Src/stm32f4xx_ll_usb.c ****   {
 3577              		.loc 1 1391 6 is_stmt 0 view .LVU1145
 3578 003c 0129     		cmp	r1, #1
 3579 003e 03D0     		beq	.L221
 3580              	.L219:
1399:stm32f4xx-hal-driver/Src/stm32f4xx_ll_usb.c **** 
 3581              		.loc 1 1399 1 view .LVU1146
 3582 0040 0020     		movs	r0, #0
 3583              	.LVL297:
1399:stm32f4xx-hal-driver/Src/stm32f4xx_ll_usb.c **** 
 3584              		.loc 1 1399 1 view .LVU1147
 3585 0042 5DF8044B 		ldr	r4, [sp], #4
 3586              	.LCFI48:
 3587              		.cfi_remember_state
 3588              		.cfi_restore 4
 3589              		.cfi_def_cfa_offset 0
 3590 0046 7047     		bx	lr
 3591              	.LVL298:
 3592              	.L221:
 3593              	.LCFI49:
 3594              		.cfi_restore_state
1393:stm32f4xx-hal-driver/Src/stm32f4xx_ll_usb.c ****     /* EP enable */
 3595              		.loc 1 1393 5 is_stmt 1 view .LVU1148
1393:stm32f4xx-hal-driver/Src/stm32f4xx_ll_usb.c ****     /* EP enable */
 3596              		.loc 1 1393 29 is_stmt 0 view .LVU1149
 3597 0048 C0F8142B 		str	r2, [r0, #2836]
1395:stm32f4xx-hal-driver/Src/stm32f4xx_ll_usb.c ****   }
 3598              		.loc 1 1395 5 is_stmt 1 view .LVU1150
1395:stm32f4xx-hal-driver/Src/stm32f4xx_ll_usb.c ****   }
 3599              		.loc 1 1395 29 is_stmt 0 view .LVU1151
 3600 004c D0F8003B 		ldr	r3, [r0, #2816]
 3601 0050 43F08023 		orr	r3, r3, #-2147450880
 3602 0054 C0F8003B 		str	r3, [r0, #2816]
 3603 0058 F2E7     		b	.L219
 3604              	.L223:
 3605 005a 00BF     		.align	2
 3606              	.L222:
 3607 005c 0A30544F 		.word	1330917386
 3608              		.cfi_endproc
ARM GAS  /tmp/ccXMuxQe.s 			page 108


 3609              	.LFE272:
 3611              		.section	.text.USB_HostInit,"ax",%progbits
 3612              		.align	1
 3613              		.global	USB_HostInit
 3614              		.syntax unified
 3615              		.thumb
 3616              		.thumb_func
 3617              		.fpu fpv4-sp-d16
 3619              	USB_HostInit:
 3620              	.LVL299:
 3621              	.LFB274:
1444:stm32f4xx-hal-driver/Src/stm32f4xx_ll_usb.c **** 
1445:stm32f4xx-hal-driver/Src/stm32f4xx_ll_usb.c **** /**
1446:stm32f4xx-hal-driver/Src/stm32f4xx_ll_usb.c ****   * @brief  USB_HostInit : Initializes the USB OTG controller registers
1447:stm32f4xx-hal-driver/Src/stm32f4xx_ll_usb.c ****   *         for Host mode
1448:stm32f4xx-hal-driver/Src/stm32f4xx_ll_usb.c ****   * @param  USBx  Selected device
1449:stm32f4xx-hal-driver/Src/stm32f4xx_ll_usb.c ****   * @param  cfg   pointer to a USB_OTG_CfgTypeDef structure that contains
1450:stm32f4xx-hal-driver/Src/stm32f4xx_ll_usb.c ****   *         the configuration information for the specified USBx peripheral.
1451:stm32f4xx-hal-driver/Src/stm32f4xx_ll_usb.c ****   * @retval HAL status
1452:stm32f4xx-hal-driver/Src/stm32f4xx_ll_usb.c ****   */
1453:stm32f4xx-hal-driver/Src/stm32f4xx_ll_usb.c **** HAL_StatusTypeDef USB_HostInit(USB_OTG_GlobalTypeDef *USBx, USB_OTG_CfgTypeDef cfg)
1454:stm32f4xx-hal-driver/Src/stm32f4xx_ll_usb.c **** {
 3622              		.loc 1 1454 1 is_stmt 1 view -0
 3623              		.cfi_startproc
 3624              		@ args = 20, pretend = 16, frame = 0
 3625              		@ frame_needed = 0, uses_anonymous_args = 0
 3626              		.loc 1 1454 1 is_stmt 0 view .LVU1153
 3627 0000 84B0     		sub	sp, sp, #16
 3628              	.LCFI50:
 3629              		.cfi_def_cfa_offset 16
 3630 0002 70B5     		push	{r4, r5, r6, lr}
 3631              	.LCFI51:
 3632              		.cfi_def_cfa_offset 32
 3633              		.cfi_offset 4, -32
 3634              		.cfi_offset 5, -28
 3635              		.cfi_offset 6, -24
 3636              		.cfi_offset 14, -20
 3637 0004 0446     		mov	r4, r0
 3638 0006 05A8     		add	r0, sp, #20
 3639              	.LVL300:
 3640              		.loc 1 1454 1 view .LVU1154
 3641 0008 80E80E00 		stm	r0, {r1, r2, r3}
1455:stm32f4xx-hal-driver/Src/stm32f4xx_ll_usb.c ****   HAL_StatusTypeDef ret = HAL_OK;
 3642              		.loc 1 1455 3 is_stmt 1 view .LVU1155
 3643              	.LVL301:
1456:stm32f4xx-hal-driver/Src/stm32f4xx_ll_usb.c ****   uint32_t USBx_BASE = (uint32_t)USBx;
 3644              		.loc 1 1456 3 view .LVU1156
 3645              		.loc 1 1456 12 is_stmt 0 view .LVU1157
 3646 000c 2546     		mov	r5, r4
 3647              	.LVL302:
1457:stm32f4xx-hal-driver/Src/stm32f4xx_ll_usb.c ****   uint32_t i;
 3648              		.loc 1 1457 3 is_stmt 1 view .LVU1158
1458:stm32f4xx-hal-driver/Src/stm32f4xx_ll_usb.c **** 
1459:stm32f4xx-hal-driver/Src/stm32f4xx_ll_usb.c ****   /* Restart the Phy Clock */
1460:stm32f4xx-hal-driver/Src/stm32f4xx_ll_usb.c ****   USBx_PCGCCTL = 0U;
 3649              		.loc 1 1460 3 view .LVU1159
 3650              		.loc 1 1460 16 is_stmt 0 view .LVU1160
ARM GAS  /tmp/ccXMuxQe.s 			page 109


 3651 000e 0023     		movs	r3, #0
 3652 0010 C4F8003E 		str	r3, [r4, #3584]
1461:stm32f4xx-hal-driver/Src/stm32f4xx_ll_usb.c **** 
1462:stm32f4xx-hal-driver/Src/stm32f4xx_ll_usb.c **** #if defined(STM32F446xx) || defined(STM32F469xx) || defined(STM32F479xx) || defined(STM32F412Zx) \
1463:stm32f4xx-hal-driver/Src/stm32f4xx_ll_usb.c ****  || defined(STM32F412Vx) || defined(STM32F412Rx) || defined(STM32F412Cx) || defined(STM32F413xx) \
1464:stm32f4xx-hal-driver/Src/stm32f4xx_ll_usb.c ****  || defined(STM32F423xx)
1465:stm32f4xx-hal-driver/Src/stm32f4xx_ll_usb.c ****   /* Disable HW VBUS sensing */
1466:stm32f4xx-hal-driver/Src/stm32f4xx_ll_usb.c ****   USBx->GCCFG &= ~(USB_OTG_GCCFG_VBDEN);
1467:stm32f4xx-hal-driver/Src/stm32f4xx_ll_usb.c **** #else
1468:stm32f4xx-hal-driver/Src/stm32f4xx_ll_usb.c ****   /*
1469:stm32f4xx-hal-driver/Src/stm32f4xx_ll_usb.c ****   * Disable HW VBUS sensing. VBUS is internally considered to be always
1470:stm32f4xx-hal-driver/Src/stm32f4xx_ll_usb.c ****   * at VBUS-Valid level (5V).
1471:stm32f4xx-hal-driver/Src/stm32f4xx_ll_usb.c ****   */
1472:stm32f4xx-hal-driver/Src/stm32f4xx_ll_usb.c ****   USBx->GCCFG |= USB_OTG_GCCFG_NOVBUSSENS;
 3653              		.loc 1 1472 3 is_stmt 1 view .LVU1161
 3654              		.loc 1 1472 15 is_stmt 0 view .LVU1162
 3655 0014 A36B     		ldr	r3, [r4, #56]
 3656 0016 43F40013 		orr	r3, r3, #2097152
 3657 001a A363     		str	r3, [r4, #56]
1473:stm32f4xx-hal-driver/Src/stm32f4xx_ll_usb.c ****   USBx->GCCFG &= ~USB_OTG_GCCFG_VBUSBSEN;
 3658              		.loc 1 1473 3 is_stmt 1 view .LVU1163
 3659              		.loc 1 1473 15 is_stmt 0 view .LVU1164
 3660 001c A36B     		ldr	r3, [r4, #56]
 3661 001e 23F40023 		bic	r3, r3, #524288
 3662 0022 A363     		str	r3, [r4, #56]
1474:stm32f4xx-hal-driver/Src/stm32f4xx_ll_usb.c ****   USBx->GCCFG &= ~USB_OTG_GCCFG_VBUSASEN;
 3663              		.loc 1 1474 3 is_stmt 1 view .LVU1165
 3664              		.loc 1 1474 15 is_stmt 0 view .LVU1166
 3665 0024 A36B     		ldr	r3, [r4, #56]
 3666 0026 23F48023 		bic	r3, r3, #262144
 3667 002a A363     		str	r3, [r4, #56]
1475:stm32f4xx-hal-driver/Src/stm32f4xx_ll_usb.c **** #endif /* defined(STM32F446xx) || defined(STM32F469xx) || defined(STM32F479xx) || defined(STM32F412
1476:stm32f4xx-hal-driver/Src/stm32f4xx_ll_usb.c ****           defined(STM32F412Vx) || defined(STM32F412Rx) || defined(STM32F412Cx) || defined(STM32F413
1477:stm32f4xx-hal-driver/Src/stm32f4xx_ll_usb.c ****           defined(STM32F423xx) */
1478:stm32f4xx-hal-driver/Src/stm32f4xx_ll_usb.c **** #if defined(STM32F412Zx) || defined(STM32F412Vx) || defined(STM32F412Rx) \
1479:stm32f4xx-hal-driver/Src/stm32f4xx_ll_usb.c ****  || defined(STM32F412Cx) || defined(STM32F413xx) || defined(STM32F423xx)
1480:stm32f4xx-hal-driver/Src/stm32f4xx_ll_usb.c ****   /* Disable Battery chargin detector */
1481:stm32f4xx-hal-driver/Src/stm32f4xx_ll_usb.c ****   USBx->GCCFG &= ~(USB_OTG_GCCFG_BCDEN);
1482:stm32f4xx-hal-driver/Src/stm32f4xx_ll_usb.c **** #endif /* defined(STM32F412Zx) || defined(STM32F412Vx) || defined(STM32F412Rx) ||
1483:stm32f4xx-hal-driver/Src/stm32f4xx_ll_usb.c ****           defined(STM32F412Cx) || defined(STM32F413xx) || defined(STM32F423xx) */
1484:stm32f4xx-hal-driver/Src/stm32f4xx_ll_usb.c **** 
1485:stm32f4xx-hal-driver/Src/stm32f4xx_ll_usb.c ****   if ((USBx->GUSBCFG & USB_OTG_GUSBCFG_PHYSEL) == 0U)
 3668              		.loc 1 1485 3 is_stmt 1 view .LVU1167
 3669              		.loc 1 1485 12 is_stmt 0 view .LVU1168
 3670 002c E368     		ldr	r3, [r4, #12]
 3671              		.loc 1 1485 6 view .LVU1169
 3672 002e 13F0400F 		tst	r3, #64
 3673 0032 11D1     		bne	.L225
1486:stm32f4xx-hal-driver/Src/stm32f4xx_ll_usb.c ****   {
1487:stm32f4xx-hal-driver/Src/stm32f4xx_ll_usb.c ****     if (cfg.speed == USBH_FSLS_SPEED)
 3674              		.loc 1 1487 5 is_stmt 1 view .LVU1170
 3675              		.loc 1 1487 12 is_stmt 0 view .LVU1171
 3676 0034 9DF81730 		ldrb	r3, [sp, #23]	@ zero_extendqisi2
 3677              		.loc 1 1487 8 view .LVU1172
 3678 0038 012B     		cmp	r3, #1
 3679 003a 06D0     		beq	.L238
1488:stm32f4xx-hal-driver/Src/stm32f4xx_ll_usb.c ****     {
ARM GAS  /tmp/ccXMuxQe.s 			page 110


1489:stm32f4xx-hal-driver/Src/stm32f4xx_ll_usb.c ****       /* Force Device Enumeration to FS/LS mode only */
1490:stm32f4xx-hal-driver/Src/stm32f4xx_ll_usb.c ****       USBx_HOST->HCFG |= USB_OTG_HCFG_FSLSS;
1491:stm32f4xx-hal-driver/Src/stm32f4xx_ll_usb.c ****     }
1492:stm32f4xx-hal-driver/Src/stm32f4xx_ll_usb.c ****     else
1493:stm32f4xx-hal-driver/Src/stm32f4xx_ll_usb.c ****     {
1494:stm32f4xx-hal-driver/Src/stm32f4xx_ll_usb.c ****       /* Set default Max speed support */
1495:stm32f4xx-hal-driver/Src/stm32f4xx_ll_usb.c ****       USBx_HOST->HCFG &= ~(USB_OTG_HCFG_FSLSS);
 3680              		.loc 1 1495 7 is_stmt 1 view .LVU1173
 3681              		.loc 1 1495 23 is_stmt 0 view .LVU1174
 3682 003c D4F80034 		ldr	r3, [r4, #1024]
 3683 0040 23F00403 		bic	r3, r3, #4
 3684 0044 C4F80034 		str	r3, [r4, #1024]
 3685 0048 0CE0     		b	.L227
 3686              	.L238:
1490:stm32f4xx-hal-driver/Src/stm32f4xx_ll_usb.c ****     }
 3687              		.loc 1 1490 7 is_stmt 1 view .LVU1175
1490:stm32f4xx-hal-driver/Src/stm32f4xx_ll_usb.c ****     }
 3688              		.loc 1 1490 23 is_stmt 0 view .LVU1176
 3689 004a D4F80034 		ldr	r3, [r4, #1024]
 3690 004e 43F00403 		orr	r3, r3, #4
 3691 0052 C4F80034 		str	r3, [r4, #1024]
 3692 0056 05E0     		b	.L227
 3693              	.L225:
1496:stm32f4xx-hal-driver/Src/stm32f4xx_ll_usb.c ****     }
1497:stm32f4xx-hal-driver/Src/stm32f4xx_ll_usb.c ****   }
1498:stm32f4xx-hal-driver/Src/stm32f4xx_ll_usb.c ****   else
1499:stm32f4xx-hal-driver/Src/stm32f4xx_ll_usb.c ****   {
1500:stm32f4xx-hal-driver/Src/stm32f4xx_ll_usb.c ****     /* Set default Max speed support */
1501:stm32f4xx-hal-driver/Src/stm32f4xx_ll_usb.c ****     USBx_HOST->HCFG &= ~(USB_OTG_HCFG_FSLSS);
 3694              		.loc 1 1501 5 is_stmt 1 view .LVU1177
 3695              		.loc 1 1501 21 is_stmt 0 view .LVU1178
 3696 0058 D4F80034 		ldr	r3, [r4, #1024]
 3697 005c 23F00403 		bic	r3, r3, #4
 3698 0060 C4F80034 		str	r3, [r4, #1024]
 3699              	.L227:
1502:stm32f4xx-hal-driver/Src/stm32f4xx_ll_usb.c ****   }
1503:stm32f4xx-hal-driver/Src/stm32f4xx_ll_usb.c **** 
1504:stm32f4xx-hal-driver/Src/stm32f4xx_ll_usb.c ****   /* Make sure the FIFOs are flushed. */
1505:stm32f4xx-hal-driver/Src/stm32f4xx_ll_usb.c ****   if (USB_FlushTxFifo(USBx, 0x10U) != HAL_OK) /* all Tx FIFOs */
 3700              		.loc 1 1505 3 is_stmt 1 view .LVU1179
 3701              		.loc 1 1505 7 is_stmt 0 view .LVU1180
 3702 0064 1021     		movs	r1, #16
 3703 0066 2046     		mov	r0, r4
 3704 0068 FFF7FEFF 		bl	USB_FlushTxFifo
 3705              	.LVL303:
 3706              		.loc 1 1505 6 view .LVU1181
 3707 006c 0646     		mov	r6, r0
 3708 006e 00B1     		cbz	r0, .L228
1506:stm32f4xx-hal-driver/Src/stm32f4xx_ll_usb.c ****   {
1507:stm32f4xx-hal-driver/Src/stm32f4xx_ll_usb.c ****     ret = HAL_ERROR;
 3709              		.loc 1 1507 9 view .LVU1182
 3710 0070 0126     		movs	r6, #1
 3711              	.L228:
 3712              	.LVL304:
1508:stm32f4xx-hal-driver/Src/stm32f4xx_ll_usb.c ****   }
1509:stm32f4xx-hal-driver/Src/stm32f4xx_ll_usb.c **** 
1510:stm32f4xx-hal-driver/Src/stm32f4xx_ll_usb.c ****   if (USB_FlushRxFifo(USBx) != HAL_OK)
ARM GAS  /tmp/ccXMuxQe.s 			page 111


 3713              		.loc 1 1510 3 is_stmt 1 view .LVU1183
 3714              		.loc 1 1510 7 is_stmt 0 view .LVU1184
 3715 0072 2046     		mov	r0, r4
 3716 0074 FFF7FEFF 		bl	USB_FlushRxFifo
 3717              	.LVL305:
 3718              		.loc 1 1510 6 view .LVU1185
 3719 0078 00B1     		cbz	r0, .L229
1511:stm32f4xx-hal-driver/Src/stm32f4xx_ll_usb.c ****   {
1512:stm32f4xx-hal-driver/Src/stm32f4xx_ll_usb.c ****     ret = HAL_ERROR;
 3720              		.loc 1 1512 9 view .LVU1186
 3721 007a 0126     		movs	r6, #1
 3722              	.LVL306:
 3723              	.L229:
1513:stm32f4xx-hal-driver/Src/stm32f4xx_ll_usb.c ****   }
1514:stm32f4xx-hal-driver/Src/stm32f4xx_ll_usb.c **** 
1515:stm32f4xx-hal-driver/Src/stm32f4xx_ll_usb.c ****   /* Clear all pending HC Interrupts */
1516:stm32f4xx-hal-driver/Src/stm32f4xx_ll_usb.c ****   for (i = 0U; i < cfg.Host_channels; i++)
 3724              		.loc 1 1516 3 is_stmt 1 view .LVU1187
 3725              		.loc 1 1516 10 is_stmt 0 view .LVU1188
 3726 007c 0022     		movs	r2, #0
 3727              	.LVL307:
 3728              	.L230:
 3729              		.loc 1 1516 16 is_stmt 1 discriminator 1 view .LVU1189
 3730              		.loc 1 1516 23 is_stmt 0 discriminator 1 view .LVU1190
 3731 007e 9DF81530 		ldrb	r3, [sp, #21]	@ zero_extendqisi2
 3732              		.loc 1 1516 3 discriminator 1 view .LVU1191
 3733 0082 9342     		cmp	r3, r2
 3734 0084 0AD9     		bls	.L239
1517:stm32f4xx-hal-driver/Src/stm32f4xx_ll_usb.c ****   {
1518:stm32f4xx-hal-driver/Src/stm32f4xx_ll_usb.c ****     USBx_HC(i)->HCINT = CLEAR_INTERRUPT_MASK;
 3735              		.loc 1 1518 5 is_stmt 1 discriminator 3 view .LVU1192
 3736 0086 05EB4213 		add	r3, r5, r2, lsl #5
 3737              		.loc 1 1518 23 is_stmt 0 discriminator 3 view .LVU1193
 3738 008a 4FF0FF31 		mov	r1, #-1
 3739 008e C3F80815 		str	r1, [r3, #1288]
1519:stm32f4xx-hal-driver/Src/stm32f4xx_ll_usb.c ****     USBx_HC(i)->HCINTMSK = 0U;
 3740              		.loc 1 1519 5 is_stmt 1 discriminator 3 view .LVU1194
 3741              		.loc 1 1519 26 is_stmt 0 discriminator 3 view .LVU1195
 3742 0092 0021     		movs	r1, #0
 3743 0094 C3F80C15 		str	r1, [r3, #1292]
1516:stm32f4xx-hal-driver/Src/stm32f4xx_ll_usb.c ****   {
 3744              		.loc 1 1516 39 is_stmt 1 discriminator 3 view .LVU1196
1516:stm32f4xx-hal-driver/Src/stm32f4xx_ll_usb.c ****   {
 3745              		.loc 1 1516 40 is_stmt 0 discriminator 3 view .LVU1197
 3746 0098 0132     		adds	r2, r2, #1
 3747              	.LVL308:
1516:stm32f4xx-hal-driver/Src/stm32f4xx_ll_usb.c ****   {
 3748              		.loc 1 1516 40 discriminator 3 view .LVU1198
 3749 009a F0E7     		b	.L230
 3750              	.L239:
1520:stm32f4xx-hal-driver/Src/stm32f4xx_ll_usb.c ****   }
1521:stm32f4xx-hal-driver/Src/stm32f4xx_ll_usb.c **** 
1522:stm32f4xx-hal-driver/Src/stm32f4xx_ll_usb.c ****   /* Disable all interrupts. */
1523:stm32f4xx-hal-driver/Src/stm32f4xx_ll_usb.c ****   USBx->GINTMSK = 0U;
 3751              		.loc 1 1523 3 is_stmt 1 view .LVU1199
 3752              		.loc 1 1523 17 is_stmt 0 view .LVU1200
 3753 009c 0023     		movs	r3, #0
ARM GAS  /tmp/ccXMuxQe.s 			page 112


 3754 009e A361     		str	r3, [r4, #24]
1524:stm32f4xx-hal-driver/Src/stm32f4xx_ll_usb.c **** 
1525:stm32f4xx-hal-driver/Src/stm32f4xx_ll_usb.c ****   /* Clear any pending interrupts */
1526:stm32f4xx-hal-driver/Src/stm32f4xx_ll_usb.c ****   USBx->GINTSTS = CLEAR_INTERRUPT_MASK;
 3755              		.loc 1 1526 3 is_stmt 1 view .LVU1201
 3756              		.loc 1 1526 17 is_stmt 0 view .LVU1202
 3757 00a0 4FF0FF33 		mov	r3, #-1
 3758 00a4 6361     		str	r3, [r4, #20]
1527:stm32f4xx-hal-driver/Src/stm32f4xx_ll_usb.c **** #if defined (USB_OTG_HS)
1528:stm32f4xx-hal-driver/Src/stm32f4xx_ll_usb.c ****   if (USBx == USB_OTG_HS)
 3759              		.loc 1 1528 3 is_stmt 1 view .LVU1203
 3760              		.loc 1 1528 6 is_stmt 0 view .LVU1204
 3761 00a6 124B     		ldr	r3, .L241
 3762 00a8 9C42     		cmp	r4, r3
 3763 00aa 17D0     		beq	.L240
1529:stm32f4xx-hal-driver/Src/stm32f4xx_ll_usb.c ****   {
1530:stm32f4xx-hal-driver/Src/stm32f4xx_ll_usb.c ****     /* set Rx FIFO size */
1531:stm32f4xx-hal-driver/Src/stm32f4xx_ll_usb.c ****     USBx->GRXFSIZ  = 0x200U;
1532:stm32f4xx-hal-driver/Src/stm32f4xx_ll_usb.c ****     USBx->DIEPTXF0_HNPTXFSIZ = (uint32_t)(((0x100U << 16) & USB_OTG_NPTXFD) | 0x200U);
1533:stm32f4xx-hal-driver/Src/stm32f4xx_ll_usb.c ****     USBx->HPTXFSIZ = (uint32_t)(((0xE0U << 16) & USB_OTG_HPTXFSIZ_PTXFD) | 0x300U);
1534:stm32f4xx-hal-driver/Src/stm32f4xx_ll_usb.c ****   }
1535:stm32f4xx-hal-driver/Src/stm32f4xx_ll_usb.c ****   else
1536:stm32f4xx-hal-driver/Src/stm32f4xx_ll_usb.c **** #endif /* defined (USB_OTG_HS) */
1537:stm32f4xx-hal-driver/Src/stm32f4xx_ll_usb.c ****   {
1538:stm32f4xx-hal-driver/Src/stm32f4xx_ll_usb.c ****     /* set Rx FIFO size */
1539:stm32f4xx-hal-driver/Src/stm32f4xx_ll_usb.c ****     USBx->GRXFSIZ  = 0x80U;
 3764              		.loc 1 1539 5 is_stmt 1 view .LVU1205
 3765              		.loc 1 1539 20 is_stmt 0 view .LVU1206
 3766 00ac 8023     		movs	r3, #128
 3767 00ae 6362     		str	r3, [r4, #36]
1540:stm32f4xx-hal-driver/Src/stm32f4xx_ll_usb.c ****     USBx->DIEPTXF0_HNPTXFSIZ = (uint32_t)(((0x60U << 16) & USB_OTG_NPTXFD) | 0x80U);
 3768              		.loc 1 1540 5 is_stmt 1 view .LVU1207
 3769              		.loc 1 1540 30 is_stmt 0 view .LVU1208
 3770 00b0 03F5C003 		add	r3, r3, #6291456
 3771 00b4 A362     		str	r3, [r4, #40]
1541:stm32f4xx-hal-driver/Src/stm32f4xx_ll_usb.c ****     USBx->HPTXFSIZ = (uint32_t)(((0x40U << 16)& USB_OTG_HPTXFSIZ_PTXFD) | 0xE0U);
 3772              		.loc 1 1541 5 is_stmt 1 view .LVU1209
 3773              		.loc 1 1541 20 is_stmt 0 view .LVU1210
 3774 00b6 0F4B     		ldr	r3, .L241+4
 3775 00b8 C4F80031 		str	r3, [r4, #256]
 3776              	.L233:
1542:stm32f4xx-hal-driver/Src/stm32f4xx_ll_usb.c ****   }
1543:stm32f4xx-hal-driver/Src/stm32f4xx_ll_usb.c **** 
1544:stm32f4xx-hal-driver/Src/stm32f4xx_ll_usb.c ****   /* Enable the common interrupts */
1545:stm32f4xx-hal-driver/Src/stm32f4xx_ll_usb.c ****   if (cfg.dma_enable == 0U)
 3777              		.loc 1 1545 3 is_stmt 1 view .LVU1211
 3778              		.loc 1 1545 10 is_stmt 0 view .LVU1212
 3779 00bc 9DF81630 		ldrb	r3, [sp, #22]	@ zero_extendqisi2
 3780              		.loc 1 1545 6 view .LVU1213
 3781 00c0 1BB9     		cbnz	r3, .L234
1546:stm32f4xx-hal-driver/Src/stm32f4xx_ll_usb.c ****   {
1547:stm32f4xx-hal-driver/Src/stm32f4xx_ll_usb.c ****     USBx->GINTMSK |= USB_OTG_GINTMSK_RXFLVLM;
 3782              		.loc 1 1547 5 is_stmt 1 view .LVU1214
 3783              		.loc 1 1547 19 is_stmt 0 view .LVU1215
 3784 00c2 A369     		ldr	r3, [r4, #24]
 3785 00c4 43F01003 		orr	r3, r3, #16
 3786 00c8 A361     		str	r3, [r4, #24]
ARM GAS  /tmp/ccXMuxQe.s 			page 113


 3787              	.L234:
1548:stm32f4xx-hal-driver/Src/stm32f4xx_ll_usb.c ****   }
1549:stm32f4xx-hal-driver/Src/stm32f4xx_ll_usb.c **** 
1550:stm32f4xx-hal-driver/Src/stm32f4xx_ll_usb.c ****   /* Enable interrupts matching to the Host mode ONLY */
1551:stm32f4xx-hal-driver/Src/stm32f4xx_ll_usb.c ****   USBx->GINTMSK |= (USB_OTG_GINTMSK_PRTIM            | USB_OTG_GINTMSK_HCIM | \
 3788              		.loc 1 1551 3 is_stmt 1 view .LVU1216
 3789              		.loc 1 1551 17 is_stmt 0 view .LVU1217
 3790 00ca A269     		ldr	r2, [r4, #24]
 3791              	.LVL309:
 3792              		.loc 1 1551 17 view .LVU1218
 3793 00cc 0A4B     		ldr	r3, .L241+8
 3794 00ce 1343     		orrs	r3, r3, r2
 3795 00d0 A361     		str	r3, [r4, #24]
1552:stm32f4xx-hal-driver/Src/stm32f4xx_ll_usb.c ****                     USB_OTG_GINTMSK_SOFM             | USB_OTG_GINTSTS_DISCINT | \
1553:stm32f4xx-hal-driver/Src/stm32f4xx_ll_usb.c ****                     USB_OTG_GINTMSK_PXFRM_IISOOXFRM  | USB_OTG_GINTMSK_WUIM);
1554:stm32f4xx-hal-driver/Src/stm32f4xx_ll_usb.c **** 
1555:stm32f4xx-hal-driver/Src/stm32f4xx_ll_usb.c ****   return ret;
 3796              		.loc 1 1555 3 is_stmt 1 view .LVU1219
1556:stm32f4xx-hal-driver/Src/stm32f4xx_ll_usb.c **** }
 3797              		.loc 1 1556 1 is_stmt 0 view .LVU1220
 3798 00d2 3046     		mov	r0, r6
 3799 00d4 BDE87040 		pop	{r4, r5, r6, lr}
 3800              	.LCFI52:
 3801              		.cfi_remember_state
 3802              		.cfi_restore 14
 3803              		.cfi_restore 6
 3804              		.cfi_restore 5
 3805              		.cfi_restore 4
 3806              		.cfi_def_cfa_offset 16
 3807              	.LVL310:
 3808              		.loc 1 1556 1 view .LVU1221
 3809 00d8 04B0     		add	sp, sp, #16
 3810              	.LCFI53:
 3811              		.cfi_def_cfa_offset 0
 3812 00da 7047     		bx	lr
 3813              	.LVL311:
 3814              	.L240:
 3815              	.LCFI54:
 3816              		.cfi_restore_state
1531:stm32f4xx-hal-driver/Src/stm32f4xx_ll_usb.c ****     USBx->DIEPTXF0_HNPTXFSIZ = (uint32_t)(((0x100U << 16) & USB_OTG_NPTXFD) | 0x200U);
 3817              		.loc 1 1531 5 is_stmt 1 view .LVU1222
1531:stm32f4xx-hal-driver/Src/stm32f4xx_ll_usb.c ****     USBx->DIEPTXF0_HNPTXFSIZ = (uint32_t)(((0x100U << 16) & USB_OTG_NPTXFD) | 0x200U);
 3818              		.loc 1 1531 20 is_stmt 0 view .LVU1223
 3819 00dc 4FF40073 		mov	r3, #512
 3820 00e0 6362     		str	r3, [r4, #36]
1532:stm32f4xx-hal-driver/Src/stm32f4xx_ll_usb.c ****     USBx->HPTXFSIZ = (uint32_t)(((0xE0U << 16) & USB_OTG_HPTXFSIZ_PTXFD) | 0x300U);
 3821              		.loc 1 1532 5 is_stmt 1 view .LVU1224
1532:stm32f4xx-hal-driver/Src/stm32f4xx_ll_usb.c ****     USBx->HPTXFSIZ = (uint32_t)(((0xE0U << 16) & USB_OTG_HPTXFSIZ_PTXFD) | 0x300U);
 3822              		.loc 1 1532 30 is_stmt 0 view .LVU1225
 3823 00e2 03F18073 		add	r3, r3, #16777216
 3824 00e6 A362     		str	r3, [r4, #40]
1533:stm32f4xx-hal-driver/Src/stm32f4xx_ll_usb.c ****   }
 3825              		.loc 1 1533 5 is_stmt 1 view .LVU1226
1533:stm32f4xx-hal-driver/Src/stm32f4xx_ll_usb.c ****   }
 3826              		.loc 1 1533 20 is_stmt 0 view .LVU1227
 3827 00e8 044B     		ldr	r3, .L241+12
 3828 00ea C4F80031 		str	r3, [r4, #256]
ARM GAS  /tmp/ccXMuxQe.s 			page 114


 3829 00ee E5E7     		b	.L233
 3830              	.L242:
 3831              		.align	2
 3832              	.L241:
 3833 00f0 00000440 		.word	1074003968
 3834 00f4 E0004000 		.word	4194528
 3835 00f8 080020A3 		.word	-1558183928
 3836 00fc 0003E000 		.word	14680832
 3837              		.cfi_endproc
 3838              	.LFE274:
 3840              		.section	.text.USB_InitFSLSPClkSel,"ax",%progbits
 3841              		.align	1
 3842              		.global	USB_InitFSLSPClkSel
 3843              		.syntax unified
 3844              		.thumb
 3845              		.thumb_func
 3846              		.fpu fpv4-sp-d16
 3848              	USB_InitFSLSPClkSel:
 3849              	.LVL312:
 3850              	.LFB275:
1557:stm32f4xx-hal-driver/Src/stm32f4xx_ll_usb.c **** 
1558:stm32f4xx-hal-driver/Src/stm32f4xx_ll_usb.c **** /**
1559:stm32f4xx-hal-driver/Src/stm32f4xx_ll_usb.c ****   * @brief  USB_InitFSLSPClkSel : Initializes the FSLSPClkSel field of the
1560:stm32f4xx-hal-driver/Src/stm32f4xx_ll_usb.c ****   *         HCFG register on the PHY type and set the right frame interval
1561:stm32f4xx-hal-driver/Src/stm32f4xx_ll_usb.c ****   * @param  USBx  Selected device
1562:stm32f4xx-hal-driver/Src/stm32f4xx_ll_usb.c ****   * @param  freq  clock frequency
1563:stm32f4xx-hal-driver/Src/stm32f4xx_ll_usb.c ****   *          This parameter can be one of these values:
1564:stm32f4xx-hal-driver/Src/stm32f4xx_ll_usb.c ****   *           HCFG_48_MHZ : Full Speed 48 MHz Clock
1565:stm32f4xx-hal-driver/Src/stm32f4xx_ll_usb.c ****   *           HCFG_6_MHZ : Low Speed 6 MHz Clock
1566:stm32f4xx-hal-driver/Src/stm32f4xx_ll_usb.c ****   * @retval HAL status
1567:stm32f4xx-hal-driver/Src/stm32f4xx_ll_usb.c ****   */
1568:stm32f4xx-hal-driver/Src/stm32f4xx_ll_usb.c **** HAL_StatusTypeDef USB_InitFSLSPClkSel(const USB_OTG_GlobalTypeDef *USBx, uint8_t freq)
1569:stm32f4xx-hal-driver/Src/stm32f4xx_ll_usb.c **** {
 3851              		.loc 1 1569 1 is_stmt 1 view -0
 3852              		.cfi_startproc
 3853              		@ args = 0, pretend = 0, frame = 0
 3854              		@ frame_needed = 0, uses_anonymous_args = 0
 3855              		@ link register save eliminated.
 3856              		.loc 1 1569 1 is_stmt 0 view .LVU1229
 3857 0000 10B4     		push	{r4}
 3858              	.LCFI55:
 3859              		.cfi_def_cfa_offset 4
 3860              		.cfi_offset 4, -4
1570:stm32f4xx-hal-driver/Src/stm32f4xx_ll_usb.c ****   uint32_t USBx_BASE = (uint32_t)USBx;
 3861              		.loc 1 1570 3 is_stmt 1 view .LVU1230
 3862              	.LVL313:
1571:stm32f4xx-hal-driver/Src/stm32f4xx_ll_usb.c **** 
1572:stm32f4xx-hal-driver/Src/stm32f4xx_ll_usb.c ****   USBx_HOST->HCFG &= ~(USB_OTG_HCFG_FSLSPCS);
 3863              		.loc 1 1572 3 view .LVU1231
 3864              		.loc 1 1572 19 is_stmt 0 view .LVU1232
 3865 0002 00F58064 		add	r4, r0, #1024
 3866 0006 D0F80034 		ldr	r3, [r0, #1024]
 3867 000a 23F00303 		bic	r3, r3, #3
 3868 000e C0F80034 		str	r3, [r0, #1024]
1573:stm32f4xx-hal-driver/Src/stm32f4xx_ll_usb.c ****   USBx_HOST->HCFG |= (uint32_t)freq & USB_OTG_HCFG_FSLSPCS;
 3869              		.loc 1 1573 3 is_stmt 1 view .LVU1233
 3870              		.loc 1 1573 19 is_stmt 0 view .LVU1234
ARM GAS  /tmp/ccXMuxQe.s 			page 115


 3871 0012 D0F80034 		ldr	r3, [r0, #1024]
 3872              		.loc 1 1573 37 view .LVU1235
 3873 0016 01F00302 		and	r2, r1, #3
 3874              		.loc 1 1573 19 view .LVU1236
 3875 001a 1343     		orrs	r3, r3, r2
 3876 001c C0F80034 		str	r3, [r0, #1024]
1574:stm32f4xx-hal-driver/Src/stm32f4xx_ll_usb.c **** 
1575:stm32f4xx-hal-driver/Src/stm32f4xx_ll_usb.c ****   if (freq == HCFG_48_MHZ)
 3877              		.loc 1 1575 3 is_stmt 1 view .LVU1237
 3878              		.loc 1 1575 6 is_stmt 0 view .LVU1238
 3879 0020 0129     		cmp	r1, #1
 3880 0022 06D0     		beq	.L248
1576:stm32f4xx-hal-driver/Src/stm32f4xx_ll_usb.c ****   {
1577:stm32f4xx-hal-driver/Src/stm32f4xx_ll_usb.c ****     USBx_HOST->HFIR = HFIR_48_MHZ;
1578:stm32f4xx-hal-driver/Src/stm32f4xx_ll_usb.c ****   }
1579:stm32f4xx-hal-driver/Src/stm32f4xx_ll_usb.c ****   else if (freq == HCFG_6_MHZ)
 3881              		.loc 1 1579 8 is_stmt 1 view .LVU1239
 3882              		.loc 1 1579 11 is_stmt 0 view .LVU1240
 3883 0024 0229     		cmp	r1, #2
 3884 0026 0BD1     		bne	.L246
1580:stm32f4xx-hal-driver/Src/stm32f4xx_ll_usb.c ****   {
1581:stm32f4xx-hal-driver/Src/stm32f4xx_ll_usb.c ****     USBx_HOST->HFIR = HFIR_6_MHZ;
 3885              		.loc 1 1581 5 is_stmt 1 view .LVU1241
 3886              		.loc 1 1581 21 is_stmt 0 view .LVU1242
 3887 0028 41F27073 		movw	r3, #6000
 3888 002c 6360     		str	r3, [r4, #4]
1582:stm32f4xx-hal-driver/Src/stm32f4xx_ll_usb.c ****   }
1583:stm32f4xx-hal-driver/Src/stm32f4xx_ll_usb.c ****   else
1584:stm32f4xx-hal-driver/Src/stm32f4xx_ll_usb.c ****   {
1585:stm32f4xx-hal-driver/Src/stm32f4xx_ll_usb.c ****     return HAL_ERROR;
1586:stm32f4xx-hal-driver/Src/stm32f4xx_ll_usb.c ****   }
1587:stm32f4xx-hal-driver/Src/stm32f4xx_ll_usb.c **** 
1588:stm32f4xx-hal-driver/Src/stm32f4xx_ll_usb.c ****   return HAL_OK;
 3889              		.loc 1 1588 10 view .LVU1243
 3890 002e 0020     		movs	r0, #0
 3891              	.LVL314:
 3892              		.loc 1 1588 10 view .LVU1244
 3893 0030 03E0     		b	.L245
 3894              	.LVL315:
 3895              	.L248:
1577:stm32f4xx-hal-driver/Src/stm32f4xx_ll_usb.c ****   }
 3896              		.loc 1 1577 5 is_stmt 1 view .LVU1245
1577:stm32f4xx-hal-driver/Src/stm32f4xx_ll_usb.c ****   }
 3897              		.loc 1 1577 21 is_stmt 0 view .LVU1246
 3898 0032 4BF68033 		movw	r3, #48000
 3899 0036 6360     		str	r3, [r4, #4]
 3900              		.loc 1 1588 10 view .LVU1247
 3901 0038 0020     		movs	r0, #0
 3902              	.LVL316:
 3903              	.L245:
1589:stm32f4xx-hal-driver/Src/stm32f4xx_ll_usb.c **** }
 3904              		.loc 1 1589 1 view .LVU1248
 3905 003a 5DF8044B 		ldr	r4, [sp], #4
 3906              	.LCFI56:
 3907              		.cfi_remember_state
 3908              		.cfi_restore 4
 3909              		.cfi_def_cfa_offset 0
ARM GAS  /tmp/ccXMuxQe.s 			page 116


 3910              	.LVL317:
 3911              		.loc 1 1589 1 view .LVU1249
 3912 003e 7047     		bx	lr
 3913              	.LVL318:
 3914              	.L246:
 3915              	.LCFI57:
 3916              		.cfi_restore_state
1585:stm32f4xx-hal-driver/Src/stm32f4xx_ll_usb.c ****   }
 3917              		.loc 1 1585 12 view .LVU1250
 3918 0040 0120     		movs	r0, #1
 3919              	.LVL319:
1585:stm32f4xx-hal-driver/Src/stm32f4xx_ll_usb.c ****   }
 3920              		.loc 1 1585 12 view .LVU1251
 3921 0042 FAE7     		b	.L245
 3922              		.cfi_endproc
 3923              	.LFE275:
 3925              		.section	.text.USB_ResetPort,"ax",%progbits
 3926              		.align	1
 3927              		.global	USB_ResetPort
 3928              		.syntax unified
 3929              		.thumb
 3930              		.thumb_func
 3931              		.fpu fpv4-sp-d16
 3933              	USB_ResetPort:
 3934              	.LVL320:
 3935              	.LFB276:
1590:stm32f4xx-hal-driver/Src/stm32f4xx_ll_usb.c **** 
1591:stm32f4xx-hal-driver/Src/stm32f4xx_ll_usb.c **** /**
1592:stm32f4xx-hal-driver/Src/stm32f4xx_ll_usb.c ****   * @brief  USB_OTG_ResetPort : Reset Host Port
1593:stm32f4xx-hal-driver/Src/stm32f4xx_ll_usb.c ****   * @param  USBx  Selected device
1594:stm32f4xx-hal-driver/Src/stm32f4xx_ll_usb.c ****   * @retval HAL status
1595:stm32f4xx-hal-driver/Src/stm32f4xx_ll_usb.c ****   * @note (1)The application must wait at least 10 ms
1596:stm32f4xx-hal-driver/Src/stm32f4xx_ll_usb.c ****   *   before clearing the reset bit.
1597:stm32f4xx-hal-driver/Src/stm32f4xx_ll_usb.c ****   */
1598:stm32f4xx-hal-driver/Src/stm32f4xx_ll_usb.c **** HAL_StatusTypeDef USB_ResetPort(const USB_OTG_GlobalTypeDef *USBx)
1599:stm32f4xx-hal-driver/Src/stm32f4xx_ll_usb.c **** {
 3936              		.loc 1 1599 1 is_stmt 1 view -0
 3937              		.cfi_startproc
 3938              		@ args = 0, pretend = 0, frame = 8
 3939              		@ frame_needed = 0, uses_anonymous_args = 0
 3940              		.loc 1 1599 1 is_stmt 0 view .LVU1253
 3941 0000 30B5     		push	{r4, r5, lr}
 3942              	.LCFI58:
 3943              		.cfi_def_cfa_offset 12
 3944              		.cfi_offset 4, -12
 3945              		.cfi_offset 5, -8
 3946              		.cfi_offset 14, -4
 3947 0002 83B0     		sub	sp, sp, #12
 3948              	.LCFI59:
 3949              		.cfi_def_cfa_offset 24
 3950 0004 0446     		mov	r4, r0
1600:stm32f4xx-hal-driver/Src/stm32f4xx_ll_usb.c ****   uint32_t USBx_BASE = (uint32_t)USBx;
 3951              		.loc 1 1600 3 is_stmt 1 view .LVU1254
 3952              	.LVL321:
1601:stm32f4xx-hal-driver/Src/stm32f4xx_ll_usb.c **** 
1602:stm32f4xx-hal-driver/Src/stm32f4xx_ll_usb.c ****   __IO uint32_t hprt0 = 0U;
 3953              		.loc 1 1602 3 view .LVU1255
ARM GAS  /tmp/ccXMuxQe.s 			page 117


 3954              		.loc 1 1602 17 is_stmt 0 view .LVU1256
 3955 0006 0025     		movs	r5, #0
 3956 0008 0195     		str	r5, [sp, #4]
1603:stm32f4xx-hal-driver/Src/stm32f4xx_ll_usb.c **** 
1604:stm32f4xx-hal-driver/Src/stm32f4xx_ll_usb.c ****   hprt0 = USBx_HPRT0;
 3957              		.loc 1 1604 3 is_stmt 1 view .LVU1257
 3958              		.loc 1 1604 11 is_stmt 0 view .LVU1258
 3959 000a D0F84034 		ldr	r3, [r0, #1088]
 3960              		.loc 1 1604 9 view .LVU1259
 3961 000e 0193     		str	r3, [sp, #4]
1605:stm32f4xx-hal-driver/Src/stm32f4xx_ll_usb.c **** 
1606:stm32f4xx-hal-driver/Src/stm32f4xx_ll_usb.c ****   hprt0 &= ~(USB_OTG_HPRT_PENA | USB_OTG_HPRT_PCDET |
 3962              		.loc 1 1606 3 is_stmt 1 view .LVU1260
 3963              		.loc 1 1606 9 is_stmt 0 view .LVU1261
 3964 0010 019B     		ldr	r3, [sp, #4]
 3965 0012 23F02E03 		bic	r3, r3, #46
 3966 0016 0193     		str	r3, [sp, #4]
1607:stm32f4xx-hal-driver/Src/stm32f4xx_ll_usb.c ****              USB_OTG_HPRT_PENCHNG | USB_OTG_HPRT_POCCHNG);
1608:stm32f4xx-hal-driver/Src/stm32f4xx_ll_usb.c **** 
1609:stm32f4xx-hal-driver/Src/stm32f4xx_ll_usb.c ****   USBx_HPRT0 = (USB_OTG_HPRT_PRST | hprt0);
 3967              		.loc 1 1609 3 is_stmt 1 view .LVU1262
 3968              		.loc 1 1609 35 is_stmt 0 view .LVU1263
 3969 0018 019B     		ldr	r3, [sp, #4]
 3970 001a 43F48073 		orr	r3, r3, #256
 3971              		.loc 1 1609 14 view .LVU1264
 3972 001e C0F84034 		str	r3, [r0, #1088]
1610:stm32f4xx-hal-driver/Src/stm32f4xx_ll_usb.c ****   HAL_Delay(100U);                                 /* See Note #1 */
 3973              		.loc 1 1610 3 is_stmt 1 view .LVU1265
 3974 0022 6420     		movs	r0, #100
 3975              	.LVL322:
 3976              		.loc 1 1610 3 is_stmt 0 view .LVU1266
 3977 0024 FFF7FEFF 		bl	HAL_Delay
 3978              	.LVL323:
1611:stm32f4xx-hal-driver/Src/stm32f4xx_ll_usb.c ****   USBx_HPRT0 = ((~USB_OTG_HPRT_PRST) & hprt0);
 3979              		.loc 1 1611 3 is_stmt 1 view .LVU1267
 3980              		.loc 1 1611 38 is_stmt 0 view .LVU1268
 3981 0028 019B     		ldr	r3, [sp, #4]
 3982 002a 23F48073 		bic	r3, r3, #256
 3983              		.loc 1 1611 14 view .LVU1269
 3984 002e C4F84034 		str	r3, [r4, #1088]
1612:stm32f4xx-hal-driver/Src/stm32f4xx_ll_usb.c ****   HAL_Delay(10U);
 3985              		.loc 1 1612 3 is_stmt 1 view .LVU1270
 3986 0032 0A20     		movs	r0, #10
 3987 0034 FFF7FEFF 		bl	HAL_Delay
 3988              	.LVL324:
1613:stm32f4xx-hal-driver/Src/stm32f4xx_ll_usb.c **** 
1614:stm32f4xx-hal-driver/Src/stm32f4xx_ll_usb.c ****   return HAL_OK;
 3989              		.loc 1 1614 3 view .LVU1271
1615:stm32f4xx-hal-driver/Src/stm32f4xx_ll_usb.c **** }
 3990              		.loc 1 1615 1 is_stmt 0 view .LVU1272
 3991 0038 2846     		mov	r0, r5
 3992 003a 03B0     		add	sp, sp, #12
 3993              	.LCFI60:
 3994              		.cfi_def_cfa_offset 12
 3995              		@ sp needed
 3996 003c 30BD     		pop	{r4, r5, pc}
 3997              		.loc 1 1615 1 view .LVU1273
ARM GAS  /tmp/ccXMuxQe.s 			page 118


 3998              		.cfi_endproc
 3999              	.LFE276:
 4001              		.section	.text.USB_DriveVbus,"ax",%progbits
 4002              		.align	1
 4003              		.global	USB_DriveVbus
 4004              		.syntax unified
 4005              		.thumb
 4006              		.thumb_func
 4007              		.fpu fpv4-sp-d16
 4009              	USB_DriveVbus:
 4010              	.LVL325:
 4011              	.LFB277:
1616:stm32f4xx-hal-driver/Src/stm32f4xx_ll_usb.c **** 
1617:stm32f4xx-hal-driver/Src/stm32f4xx_ll_usb.c **** /**
1618:stm32f4xx-hal-driver/Src/stm32f4xx_ll_usb.c ****   * @brief  USB_DriveVbus : activate or de-activate vbus
1619:stm32f4xx-hal-driver/Src/stm32f4xx_ll_usb.c ****   * @param  state  VBUS state
1620:stm32f4xx-hal-driver/Src/stm32f4xx_ll_usb.c ****   *          This parameter can be one of these values:
1621:stm32f4xx-hal-driver/Src/stm32f4xx_ll_usb.c ****   *           0 : Deactivate VBUS
1622:stm32f4xx-hal-driver/Src/stm32f4xx_ll_usb.c ****   *           1 : Activate VBUS
1623:stm32f4xx-hal-driver/Src/stm32f4xx_ll_usb.c ****   * @retval HAL status
1624:stm32f4xx-hal-driver/Src/stm32f4xx_ll_usb.c ****   */
1625:stm32f4xx-hal-driver/Src/stm32f4xx_ll_usb.c **** HAL_StatusTypeDef USB_DriveVbus(const USB_OTG_GlobalTypeDef *USBx, uint8_t state)
1626:stm32f4xx-hal-driver/Src/stm32f4xx_ll_usb.c **** {
 4012              		.loc 1 1626 1 is_stmt 1 view -0
 4013              		.cfi_startproc
 4014              		@ args = 0, pretend = 0, frame = 8
 4015              		@ frame_needed = 0, uses_anonymous_args = 0
 4016              		@ link register save eliminated.
 4017              		.loc 1 1626 1 is_stmt 0 view .LVU1275
 4018 0000 82B0     		sub	sp, sp, #8
 4019              	.LCFI61:
 4020              		.cfi_def_cfa_offset 8
1627:stm32f4xx-hal-driver/Src/stm32f4xx_ll_usb.c ****   uint32_t USBx_BASE = (uint32_t)USBx;
 4021              		.loc 1 1627 3 is_stmt 1 view .LVU1276
 4022              	.LVL326:
1628:stm32f4xx-hal-driver/Src/stm32f4xx_ll_usb.c ****   __IO uint32_t hprt0 = 0U;
 4023              		.loc 1 1628 3 view .LVU1277
 4024              		.loc 1 1628 17 is_stmt 0 view .LVU1278
 4025 0002 0023     		movs	r3, #0
 4026 0004 0193     		str	r3, [sp, #4]
1629:stm32f4xx-hal-driver/Src/stm32f4xx_ll_usb.c **** 
1630:stm32f4xx-hal-driver/Src/stm32f4xx_ll_usb.c ****   hprt0 = USBx_HPRT0;
 4027              		.loc 1 1630 3 is_stmt 1 view .LVU1279
 4028              		.loc 1 1630 11 is_stmt 0 view .LVU1280
 4029 0006 D0F84034 		ldr	r3, [r0, #1088]
 4030              		.loc 1 1630 9 view .LVU1281
 4031 000a 0193     		str	r3, [sp, #4]
1631:stm32f4xx-hal-driver/Src/stm32f4xx_ll_usb.c **** 
1632:stm32f4xx-hal-driver/Src/stm32f4xx_ll_usb.c ****   hprt0 &= ~(USB_OTG_HPRT_PENA | USB_OTG_HPRT_PCDET |
 4032              		.loc 1 1632 3 is_stmt 1 view .LVU1282
 4033              		.loc 1 1632 9 is_stmt 0 view .LVU1283
 4034 000c 019B     		ldr	r3, [sp, #4]
 4035 000e 23F02E03 		bic	r3, r3, #46
 4036 0012 0193     		str	r3, [sp, #4]
1633:stm32f4xx-hal-driver/Src/stm32f4xx_ll_usb.c ****              USB_OTG_HPRT_PENCHNG | USB_OTG_HPRT_POCCHNG);
1634:stm32f4xx-hal-driver/Src/stm32f4xx_ll_usb.c **** 
1635:stm32f4xx-hal-driver/Src/stm32f4xx_ll_usb.c ****   if (((hprt0 & USB_OTG_HPRT_PPWR) == 0U) && (state == 1U))
ARM GAS  /tmp/ccXMuxQe.s 			page 119


 4037              		.loc 1 1635 3 is_stmt 1 view .LVU1284
 4038              		.loc 1 1635 15 is_stmt 0 view .LVU1285
 4039 0014 019B     		ldr	r3, [sp, #4]
 4040              		.loc 1 1635 6 view .LVU1286
 4041 0016 13F4805F 		tst	r3, #4096
 4042 001a 01D1     		bne	.L252
 4043              		.loc 1 1635 43 discriminator 1 view .LVU1287
 4044 001c 0129     		cmp	r1, #1
 4045 001e 0CD0     		beq	.L255
 4046              	.L252:
1636:stm32f4xx-hal-driver/Src/stm32f4xx_ll_usb.c ****   {
1637:stm32f4xx-hal-driver/Src/stm32f4xx_ll_usb.c ****     USBx_HPRT0 = (USB_OTG_HPRT_PPWR | hprt0);
1638:stm32f4xx-hal-driver/Src/stm32f4xx_ll_usb.c ****   }
1639:stm32f4xx-hal-driver/Src/stm32f4xx_ll_usb.c ****   if (((hprt0 & USB_OTG_HPRT_PPWR) == USB_OTG_HPRT_PPWR) && (state == 0U))
 4047              		.loc 1 1639 3 is_stmt 1 view .LVU1288
 4048              		.loc 1 1639 15 is_stmt 0 view .LVU1289
 4049 0020 019B     		ldr	r3, [sp, #4]
 4050              		.loc 1 1639 6 view .LVU1290
 4051 0022 13F4805F 		tst	r3, #4096
 4052 0026 05D0     		beq	.L253
 4053              		.loc 1 1639 58 discriminator 1 view .LVU1291
 4054 0028 21B9     		cbnz	r1, .L253
1640:stm32f4xx-hal-driver/Src/stm32f4xx_ll_usb.c ****   {
1641:stm32f4xx-hal-driver/Src/stm32f4xx_ll_usb.c ****     USBx_HPRT0 = ((~USB_OTG_HPRT_PPWR) & hprt0);
 4055              		.loc 1 1641 5 is_stmt 1 view .LVU1292
 4056              		.loc 1 1641 40 is_stmt 0 view .LVU1293
 4057 002a 019B     		ldr	r3, [sp, #4]
 4058 002c 23F48053 		bic	r3, r3, #4096
 4059              		.loc 1 1641 16 view .LVU1294
 4060 0030 C0F84034 		str	r3, [r0, #1088]
 4061              	.L253:
1642:stm32f4xx-hal-driver/Src/stm32f4xx_ll_usb.c ****   }
1643:stm32f4xx-hal-driver/Src/stm32f4xx_ll_usb.c ****   return HAL_OK;
 4062              		.loc 1 1643 3 is_stmt 1 view .LVU1295
1644:stm32f4xx-hal-driver/Src/stm32f4xx_ll_usb.c **** }
 4063              		.loc 1 1644 1 is_stmt 0 view .LVU1296
 4064 0034 0020     		movs	r0, #0
 4065              	.LVL327:
 4066              		.loc 1 1644 1 view .LVU1297
 4067 0036 02B0     		add	sp, sp, #8
 4068              	.LCFI62:
 4069              		.cfi_remember_state
 4070              		.cfi_def_cfa_offset 0
 4071              		@ sp needed
 4072 0038 7047     		bx	lr
 4073              	.LVL328:
 4074              	.L255:
 4075              	.LCFI63:
 4076              		.cfi_restore_state
1637:stm32f4xx-hal-driver/Src/stm32f4xx_ll_usb.c ****   }
 4077              		.loc 1 1637 5 is_stmt 1 view .LVU1298
1637:stm32f4xx-hal-driver/Src/stm32f4xx_ll_usb.c ****   }
 4078              		.loc 1 1637 37 is_stmt 0 view .LVU1299
 4079 003a 019B     		ldr	r3, [sp, #4]
 4080 003c 43F48053 		orr	r3, r3, #4096
1637:stm32f4xx-hal-driver/Src/stm32f4xx_ll_usb.c ****   }
 4081              		.loc 1 1637 16 view .LVU1300
ARM GAS  /tmp/ccXMuxQe.s 			page 120


 4082 0040 C0F84034 		str	r3, [r0, #1088]
 4083 0044 ECE7     		b	.L252
 4084              		.cfi_endproc
 4085              	.LFE277:
 4087              		.section	.text.USB_GetHostSpeed,"ax",%progbits
 4088              		.align	1
 4089              		.global	USB_GetHostSpeed
 4090              		.syntax unified
 4091              		.thumb
 4092              		.thumb_func
 4093              		.fpu fpv4-sp-d16
 4095              	USB_GetHostSpeed:
 4096              	.LVL329:
 4097              	.LFB278:
1645:stm32f4xx-hal-driver/Src/stm32f4xx_ll_usb.c **** 
1646:stm32f4xx-hal-driver/Src/stm32f4xx_ll_usb.c **** /**
1647:stm32f4xx-hal-driver/Src/stm32f4xx_ll_usb.c ****   * @brief  Return Host Port speed
1648:stm32f4xx-hal-driver/Src/stm32f4xx_ll_usb.c ****   * @param  USBx  Selected device
1649:stm32f4xx-hal-driver/Src/stm32f4xx_ll_usb.c ****   * @retval speed : Host port device speed
1650:stm32f4xx-hal-driver/Src/stm32f4xx_ll_usb.c ****   *          This parameter can be one of these values:
1651:stm32f4xx-hal-driver/Src/stm32f4xx_ll_usb.c ****   *            @arg HCD_DEVICE_SPEED_HIGH: High speed mode
1652:stm32f4xx-hal-driver/Src/stm32f4xx_ll_usb.c ****   *            @arg HCD_DEVICE_SPEED_FULL: Full speed mode
1653:stm32f4xx-hal-driver/Src/stm32f4xx_ll_usb.c ****   *            @arg HCD_DEVICE_SPEED_LOW: Low speed mode
1654:stm32f4xx-hal-driver/Src/stm32f4xx_ll_usb.c ****   */
1655:stm32f4xx-hal-driver/Src/stm32f4xx_ll_usb.c **** uint32_t USB_GetHostSpeed(USB_OTG_GlobalTypeDef const *USBx)
1656:stm32f4xx-hal-driver/Src/stm32f4xx_ll_usb.c **** {
 4098              		.loc 1 1656 1 is_stmt 1 view -0
 4099              		.cfi_startproc
 4100              		@ args = 0, pretend = 0, frame = 8
 4101              		@ frame_needed = 0, uses_anonymous_args = 0
 4102              		@ link register save eliminated.
 4103              		.loc 1 1656 1 is_stmt 0 view .LVU1302
 4104 0000 82B0     		sub	sp, sp, #8
 4105              	.LCFI64:
 4106              		.cfi_def_cfa_offset 8
1657:stm32f4xx-hal-driver/Src/stm32f4xx_ll_usb.c ****   uint32_t USBx_BASE = (uint32_t)USBx;
 4107              		.loc 1 1657 3 is_stmt 1 view .LVU1303
 4108              	.LVL330:
1658:stm32f4xx-hal-driver/Src/stm32f4xx_ll_usb.c ****   __IO uint32_t hprt0 = 0U;
 4109              		.loc 1 1658 3 view .LVU1304
 4110              		.loc 1 1658 17 is_stmt 0 view .LVU1305
 4111 0002 0023     		movs	r3, #0
 4112 0004 0193     		str	r3, [sp, #4]
1659:stm32f4xx-hal-driver/Src/stm32f4xx_ll_usb.c **** 
1660:stm32f4xx-hal-driver/Src/stm32f4xx_ll_usb.c ****   hprt0 = USBx_HPRT0;
 4113              		.loc 1 1660 3 is_stmt 1 view .LVU1306
 4114              		.loc 1 1660 11 is_stmt 0 view .LVU1307
 4115 0006 D0F84034 		ldr	r3, [r0, #1088]
 4116              		.loc 1 1660 9 view .LVU1308
 4117 000a 0193     		str	r3, [sp, #4]
1661:stm32f4xx-hal-driver/Src/stm32f4xx_ll_usb.c ****   return ((hprt0 & USB_OTG_HPRT_PSPD) >> 17);
 4118              		.loc 1 1661 3 is_stmt 1 view .LVU1309
 4119              		.loc 1 1661 39 is_stmt 0 view .LVU1310
 4120 000c 0198     		ldr	r0, [sp, #4]
 4121              	.LVL331:
1662:stm32f4xx-hal-driver/Src/stm32f4xx_ll_usb.c **** }
 4122              		.loc 1 1662 1 view .LVU1311
ARM GAS  /tmp/ccXMuxQe.s 			page 121


 4123 000e C0F34140 		ubfx	r0, r0, #17, #2
 4124 0012 02B0     		add	sp, sp, #8
 4125              	.LCFI65:
 4126              		.cfi_def_cfa_offset 0
 4127              		@ sp needed
 4128 0014 7047     		bx	lr
 4129              		.cfi_endproc
 4130              	.LFE278:
 4132              		.section	.text.USB_GetCurrentFrame,"ax",%progbits
 4133              		.align	1
 4134              		.global	USB_GetCurrentFrame
 4135              		.syntax unified
 4136              		.thumb
 4137              		.thumb_func
 4138              		.fpu fpv4-sp-d16
 4140              	USB_GetCurrentFrame:
 4141              	.LVL332:
 4142              	.LFB279:
1663:stm32f4xx-hal-driver/Src/stm32f4xx_ll_usb.c **** 
1664:stm32f4xx-hal-driver/Src/stm32f4xx_ll_usb.c **** /**
1665:stm32f4xx-hal-driver/Src/stm32f4xx_ll_usb.c ****   * @brief  Return Host Current Frame number
1666:stm32f4xx-hal-driver/Src/stm32f4xx_ll_usb.c ****   * @param  USBx  Selected device
1667:stm32f4xx-hal-driver/Src/stm32f4xx_ll_usb.c ****   * @retval current frame number
1668:stm32f4xx-hal-driver/Src/stm32f4xx_ll_usb.c ****   */
1669:stm32f4xx-hal-driver/Src/stm32f4xx_ll_usb.c **** uint32_t USB_GetCurrentFrame(USB_OTG_GlobalTypeDef const *USBx)
1670:stm32f4xx-hal-driver/Src/stm32f4xx_ll_usb.c **** {
 4143              		.loc 1 1670 1 is_stmt 1 view -0
 4144              		.cfi_startproc
 4145              		@ args = 0, pretend = 0, frame = 0
 4146              		@ frame_needed = 0, uses_anonymous_args = 0
 4147              		@ link register save eliminated.
1671:stm32f4xx-hal-driver/Src/stm32f4xx_ll_usb.c ****   uint32_t USBx_BASE = (uint32_t)USBx;
 4148              		.loc 1 1671 3 view .LVU1313
1672:stm32f4xx-hal-driver/Src/stm32f4xx_ll_usb.c **** 
1673:stm32f4xx-hal-driver/Src/stm32f4xx_ll_usb.c ****   return (USBx_HOST->HFNUM & USB_OTG_HFNUM_FRNUM);
 4149              		.loc 1 1673 3 view .LVU1314
 4150              		.loc 1 1673 11 is_stmt 0 view .LVU1315
 4151 0000 00F58060 		add	r0, r0, #1024
 4152              	.LVL333:
 4153              		.loc 1 1673 20 view .LVU1316
 4154 0004 8068     		ldr	r0, [r0, #8]
 4155              	.LVL334:
1674:stm32f4xx-hal-driver/Src/stm32f4xx_ll_usb.c **** }
 4156              		.loc 1 1674 1 view .LVU1317
 4157 0006 80B2     		uxth	r0, r0
 4158 0008 7047     		bx	lr
 4159              		.cfi_endproc
 4160              	.LFE279:
 4162              		.section	.text.USB_HC_Init,"ax",%progbits
 4163              		.align	1
 4164              		.global	USB_HC_Init
 4165              		.syntax unified
 4166              		.thumb
 4167              		.thumb_func
 4168              		.fpu fpv4-sp-d16
 4170              	USB_HC_Init:
 4171              	.LVL335:
ARM GAS  /tmp/ccXMuxQe.s 			page 122


 4172              	.LFB280:
1675:stm32f4xx-hal-driver/Src/stm32f4xx_ll_usb.c **** 
1676:stm32f4xx-hal-driver/Src/stm32f4xx_ll_usb.c **** /**
1677:stm32f4xx-hal-driver/Src/stm32f4xx_ll_usb.c ****   * @brief  Initialize a host channel
1678:stm32f4xx-hal-driver/Src/stm32f4xx_ll_usb.c ****   * @param  USBx  Selected device
1679:stm32f4xx-hal-driver/Src/stm32f4xx_ll_usb.c ****   * @param  ch_num  Channel number
1680:stm32f4xx-hal-driver/Src/stm32f4xx_ll_usb.c ****   *         This parameter can be a value from 1 to 15
1681:stm32f4xx-hal-driver/Src/stm32f4xx_ll_usb.c ****   * @param  epnum  Endpoint number
1682:stm32f4xx-hal-driver/Src/stm32f4xx_ll_usb.c ****   *          This parameter can be a value from 1 to 15
1683:stm32f4xx-hal-driver/Src/stm32f4xx_ll_usb.c ****   * @param  dev_address  Current device address
1684:stm32f4xx-hal-driver/Src/stm32f4xx_ll_usb.c ****   *          This parameter can be a value from 0 to 255
1685:stm32f4xx-hal-driver/Src/stm32f4xx_ll_usb.c ****   * @param  speed  Current device speed
1686:stm32f4xx-hal-driver/Src/stm32f4xx_ll_usb.c ****   *          This parameter can be one of these values:
1687:stm32f4xx-hal-driver/Src/stm32f4xx_ll_usb.c ****   *            @arg USB_OTG_SPEED_HIGH: High speed mode
1688:stm32f4xx-hal-driver/Src/stm32f4xx_ll_usb.c ****   *            @arg USB_OTG_SPEED_FULL: Full speed mode
1689:stm32f4xx-hal-driver/Src/stm32f4xx_ll_usb.c ****   *            @arg USB_OTG_SPEED_LOW: Low speed mode
1690:stm32f4xx-hal-driver/Src/stm32f4xx_ll_usb.c ****   * @param  ep_type  Endpoint Type
1691:stm32f4xx-hal-driver/Src/stm32f4xx_ll_usb.c ****   *          This parameter can be one of these values:
1692:stm32f4xx-hal-driver/Src/stm32f4xx_ll_usb.c ****   *            @arg EP_TYPE_CTRL: Control type
1693:stm32f4xx-hal-driver/Src/stm32f4xx_ll_usb.c ****   *            @arg EP_TYPE_ISOC: Isochronous type
1694:stm32f4xx-hal-driver/Src/stm32f4xx_ll_usb.c ****   *            @arg EP_TYPE_BULK: Bulk type
1695:stm32f4xx-hal-driver/Src/stm32f4xx_ll_usb.c ****   *            @arg EP_TYPE_INTR: Interrupt type
1696:stm32f4xx-hal-driver/Src/stm32f4xx_ll_usb.c ****   * @param  mps  Max Packet Size
1697:stm32f4xx-hal-driver/Src/stm32f4xx_ll_usb.c ****   *          This parameter can be a value from 0 to 32K
1698:stm32f4xx-hal-driver/Src/stm32f4xx_ll_usb.c ****   * @retval HAL state
1699:stm32f4xx-hal-driver/Src/stm32f4xx_ll_usb.c ****   */
1700:stm32f4xx-hal-driver/Src/stm32f4xx_ll_usb.c **** HAL_StatusTypeDef USB_HC_Init(USB_OTG_GlobalTypeDef *USBx, uint8_t ch_num,
1701:stm32f4xx-hal-driver/Src/stm32f4xx_ll_usb.c ****                               uint8_t epnum, uint8_t dev_address, uint8_t speed,
1702:stm32f4xx-hal-driver/Src/stm32f4xx_ll_usb.c ****                               uint8_t ep_type, uint16_t mps)
1703:stm32f4xx-hal-driver/Src/stm32f4xx_ll_usb.c **** {
 4173              		.loc 1 1703 1 is_stmt 1 view -0
 4174              		.cfi_startproc
 4175              		@ args = 12, pretend = 0, frame = 0
 4176              		@ frame_needed = 0, uses_anonymous_args = 0
 4177              		.loc 1 1703 1 is_stmt 0 view .LVU1319
 4178 0000 2DE9F843 		push	{r3, r4, r5, r6, r7, r8, r9, lr}
 4179              	.LCFI66:
 4180              		.cfi_def_cfa_offset 32
 4181              		.cfi_offset 3, -32
 4182              		.cfi_offset 4, -28
 4183              		.cfi_offset 5, -24
 4184              		.cfi_offset 6, -20
 4185              		.cfi_offset 7, -16
 4186              		.cfi_offset 8, -12
 4187              		.cfi_offset 9, -8
 4188              		.cfi_offset 14, -4
 4189 0004 9146     		mov	r9, r2
 4190 0006 1C46     		mov	r4, r3
 4191 0008 9DF82450 		ldrb	r5, [sp, #36]	@ zero_extendqisi2
1704:stm32f4xx-hal-driver/Src/stm32f4xx_ll_usb.c ****   HAL_StatusTypeDef ret = HAL_OK;
 4192              		.loc 1 1704 3 is_stmt 1 view .LVU1320
 4193              	.LVL336:
1705:stm32f4xx-hal-driver/Src/stm32f4xx_ll_usb.c ****   uint32_t USBx_BASE = (uint32_t)USBx;
 4194              		.loc 1 1705 3 view .LVU1321
1706:stm32f4xx-hal-driver/Src/stm32f4xx_ll_usb.c ****   uint32_t HCcharEpDir;
 4195              		.loc 1 1706 3 view .LVU1322
1707:stm32f4xx-hal-driver/Src/stm32f4xx_ll_usb.c ****   uint32_t HCcharLowSpeed;
ARM GAS  /tmp/ccXMuxQe.s 			page 123


 4196              		.loc 1 1707 3 view .LVU1323
1708:stm32f4xx-hal-driver/Src/stm32f4xx_ll_usb.c ****   uint32_t HostCoreSpeed;
 4197              		.loc 1 1708 3 view .LVU1324
1709:stm32f4xx-hal-driver/Src/stm32f4xx_ll_usb.c **** 
1710:stm32f4xx-hal-driver/Src/stm32f4xx_ll_usb.c ****   /* Clear old interrupt conditions for this host channel. */
1711:stm32f4xx-hal-driver/Src/stm32f4xx_ll_usb.c ****   USBx_HC((uint32_t)ch_num)->HCINT = CLEAR_INTERRUPT_MASK;
 4198              		.loc 1 1711 3 view .LVU1325
 4199 000c 00EB4116 		add	r6, r0, r1, lsl #5
 4200 0010 06F5A063 		add	r3, r6, #1280
 4201              	.LVL337:
 4202              		.loc 1 1711 36 is_stmt 0 view .LVU1326
 4203 0014 4FF0FF32 		mov	r2, #-1
 4204              	.LVL338:
 4205              		.loc 1 1711 36 view .LVU1327
 4206 0018 9A60     		str	r2, [r3, #8]
1712:stm32f4xx-hal-driver/Src/stm32f4xx_ll_usb.c **** 
1713:stm32f4xx-hal-driver/Src/stm32f4xx_ll_usb.c ****   /* Enable channel interrupts required for this transfer. */
1714:stm32f4xx-hal-driver/Src/stm32f4xx_ll_usb.c ****   switch (ep_type)
 4207              		.loc 1 1714 3 is_stmt 1 view .LVU1328
 4208 001a 032D     		cmp	r5, #3
 4209 001c 7BD8     		bhi	.L270
 4210 001e DFE805F0 		tbb	[pc, r5]
 4211              	.L262:
 4212 0022 02       		.byte	(.L263-.L262)/2
 4213 0023 6C       		.byte	(.L264-.L262)/2
 4214 0024 02       		.byte	(.L263-.L262)/2
 4215 0025 19       		.byte	(.L261-.L262)/2
 4216              		.p2align 1
 4217              	.L263:
1715:stm32f4xx-hal-driver/Src/stm32f4xx_ll_usb.c ****   {
1716:stm32f4xx-hal-driver/Src/stm32f4xx_ll_usb.c ****     case EP_TYPE_CTRL:
1717:stm32f4xx-hal-driver/Src/stm32f4xx_ll_usb.c ****     case EP_TYPE_BULK:
1718:stm32f4xx-hal-driver/Src/stm32f4xx_ll_usb.c ****       USBx_HC((uint32_t)ch_num)->HCINTMSK = USB_OTG_HCINTMSK_XFRCM  |
 4218              		.loc 1 1718 7 view .LVU1329
 4219              		.loc 1 1718 43 is_stmt 0 view .LVU1330
 4220 0026 40F29D42 		movw	r2, #1181
 4221 002a DA60     		str	r2, [r3, #12]
1719:stm32f4xx-hal-driver/Src/stm32f4xx_ll_usb.c ****                                             USB_OTG_HCINTMSK_STALLM |
1720:stm32f4xx-hal-driver/Src/stm32f4xx_ll_usb.c ****                                             USB_OTG_HCINTMSK_TXERRM |
1721:stm32f4xx-hal-driver/Src/stm32f4xx_ll_usb.c ****                                             USB_OTG_HCINTMSK_DTERRM |
1722:stm32f4xx-hal-driver/Src/stm32f4xx_ll_usb.c ****                                             USB_OTG_HCINTMSK_AHBERR |
1723:stm32f4xx-hal-driver/Src/stm32f4xx_ll_usb.c ****                                             USB_OTG_HCINTMSK_NAKM;
1724:stm32f4xx-hal-driver/Src/stm32f4xx_ll_usb.c **** 
1725:stm32f4xx-hal-driver/Src/stm32f4xx_ll_usb.c ****       if ((epnum & 0x80U) == 0x80U)
 4222              		.loc 1 1725 7 is_stmt 1 view .LVU1331
 4223              		.loc 1 1725 10 is_stmt 0 view .LVU1332
 4224 002c 19F0800F 		tst	r9, #128
 4225 0030 04D1     		bne	.L278
1726:stm32f4xx-hal-driver/Src/stm32f4xx_ll_usb.c ****       {
1727:stm32f4xx-hal-driver/Src/stm32f4xx_ll_usb.c ****         USBx_HC((uint32_t)ch_num)->HCINTMSK |= USB_OTG_HCINTMSK_BBERRM;
1728:stm32f4xx-hal-driver/Src/stm32f4xx_ll_usb.c ****       }
1729:stm32f4xx-hal-driver/Src/stm32f4xx_ll_usb.c ****       else
1730:stm32f4xx-hal-driver/Src/stm32f4xx_ll_usb.c ****       {
1731:stm32f4xx-hal-driver/Src/stm32f4xx_ll_usb.c **** #if defined (USB_OTG_HS)
1732:stm32f4xx-hal-driver/Src/stm32f4xx_ll_usb.c ****         if (USBx == USB_OTG_HS)
 4226              		.loc 1 1732 9 is_stmt 1 view .LVU1333
 4227              		.loc 1 1732 12 is_stmt 0 view .LVU1334
ARM GAS  /tmp/ccXMuxQe.s 			page 124


 4228 0032 3F4A     		ldr	r2, .L285
 4229 0034 9042     		cmp	r0, r2
 4230 0036 07D0     		beq	.L279
1704:stm32f4xx-hal-driver/Src/stm32f4xx_ll_usb.c ****   uint32_t USBx_BASE = (uint32_t)USBx;
 4231              		.loc 1 1704 21 view .LVU1335
 4232 0038 0027     		movs	r7, #0
 4233 003a 12E0     		b	.L260
 4234              	.L278:
1727:stm32f4xx-hal-driver/Src/stm32f4xx_ll_usb.c ****       }
 4235              		.loc 1 1727 9 is_stmt 1 view .LVU1336
1727:stm32f4xx-hal-driver/Src/stm32f4xx_ll_usb.c ****       }
 4236              		.loc 1 1727 45 is_stmt 0 view .LVU1337
 4237 003c DA68     		ldr	r2, [r3, #12]
 4238 003e 42F48072 		orr	r2, r2, #256
 4239 0042 DA60     		str	r2, [r3, #12]
1704:stm32f4xx-hal-driver/Src/stm32f4xx_ll_usb.c ****   uint32_t USBx_BASE = (uint32_t)USBx;
 4240              		.loc 1 1704 21 view .LVU1338
 4241 0044 0027     		movs	r7, #0
 4242 0046 0CE0     		b	.L260
 4243              	.L279:
1733:stm32f4xx-hal-driver/Src/stm32f4xx_ll_usb.c ****         {
1734:stm32f4xx-hal-driver/Src/stm32f4xx_ll_usb.c ****           USBx_HC((uint32_t)ch_num)->HCINTMSK |= USB_OTG_HCINTMSK_NYET |
 4244              		.loc 1 1734 11 is_stmt 1 view .LVU1339
 4245              		.loc 1 1734 47 is_stmt 0 view .LVU1340
 4246 0048 DA68     		ldr	r2, [r3, #12]
 4247 004a 42F06002 		orr	r2, r2, #96
 4248 004e DA60     		str	r2, [r3, #12]
1704:stm32f4xx-hal-driver/Src/stm32f4xx_ll_usb.c ****   uint32_t USBx_BASE = (uint32_t)USBx;
 4249              		.loc 1 1704 21 view .LVU1341
 4250 0050 0027     		movs	r7, #0
 4251 0052 06E0     		b	.L260
 4252              	.L261:
1735:stm32f4xx-hal-driver/Src/stm32f4xx_ll_usb.c ****                                                  USB_OTG_HCINTMSK_ACKM;
1736:stm32f4xx-hal-driver/Src/stm32f4xx_ll_usb.c ****         }
1737:stm32f4xx-hal-driver/Src/stm32f4xx_ll_usb.c **** #endif /* defined (USB_OTG_HS) */
1738:stm32f4xx-hal-driver/Src/stm32f4xx_ll_usb.c ****       }
1739:stm32f4xx-hal-driver/Src/stm32f4xx_ll_usb.c ****       break;
1740:stm32f4xx-hal-driver/Src/stm32f4xx_ll_usb.c **** 
1741:stm32f4xx-hal-driver/Src/stm32f4xx_ll_usb.c ****     case EP_TYPE_INTR:
1742:stm32f4xx-hal-driver/Src/stm32f4xx_ll_usb.c ****       USBx_HC((uint32_t)ch_num)->HCINTMSK = USB_OTG_HCINTMSK_XFRCM  |
 4253              		.loc 1 1742 7 is_stmt 1 view .LVU1342
 4254              		.loc 1 1742 43 is_stmt 0 view .LVU1343
 4255 0054 40F29D62 		movw	r2, #1693
 4256 0058 DA60     		str	r2, [r3, #12]
1743:stm32f4xx-hal-driver/Src/stm32f4xx_ll_usb.c ****                                             USB_OTG_HCINTMSK_STALLM |
1744:stm32f4xx-hal-driver/Src/stm32f4xx_ll_usb.c ****                                             USB_OTG_HCINTMSK_TXERRM |
1745:stm32f4xx-hal-driver/Src/stm32f4xx_ll_usb.c ****                                             USB_OTG_HCINTMSK_DTERRM |
1746:stm32f4xx-hal-driver/Src/stm32f4xx_ll_usb.c ****                                             USB_OTG_HCINTMSK_NAKM   |
1747:stm32f4xx-hal-driver/Src/stm32f4xx_ll_usb.c ****                                             USB_OTG_HCINTMSK_AHBERR |
1748:stm32f4xx-hal-driver/Src/stm32f4xx_ll_usb.c ****                                             USB_OTG_HCINTMSK_FRMORM;
1749:stm32f4xx-hal-driver/Src/stm32f4xx_ll_usb.c **** 
1750:stm32f4xx-hal-driver/Src/stm32f4xx_ll_usb.c ****       if ((epnum & 0x80U) == 0x80U)
 4257              		.loc 1 1750 7 is_stmt 1 view .LVU1344
 4258              		.loc 1 1750 10 is_stmt 0 view .LVU1345
 4259 005a 19F0800F 		tst	r9, #128
 4260 005e 46D1     		bne	.L280
1704:stm32f4xx-hal-driver/Src/stm32f4xx_ll_usb.c ****   uint32_t USBx_BASE = (uint32_t)USBx;
ARM GAS  /tmp/ccXMuxQe.s 			page 125


 4261              		.loc 1 1704 21 view .LVU1346
 4262 0060 0027     		movs	r7, #0
 4263              	.L260:
 4264              	.LVL339:
1751:stm32f4xx-hal-driver/Src/stm32f4xx_ll_usb.c ****       {
1752:stm32f4xx-hal-driver/Src/stm32f4xx_ll_usb.c ****         USBx_HC((uint32_t)ch_num)->HCINTMSK |= USB_OTG_HCINTMSK_BBERRM;
1753:stm32f4xx-hal-driver/Src/stm32f4xx_ll_usb.c ****       }
1754:stm32f4xx-hal-driver/Src/stm32f4xx_ll_usb.c **** 
1755:stm32f4xx-hal-driver/Src/stm32f4xx_ll_usb.c ****       break;
1756:stm32f4xx-hal-driver/Src/stm32f4xx_ll_usb.c **** 
1757:stm32f4xx-hal-driver/Src/stm32f4xx_ll_usb.c ****     case EP_TYPE_ISOC:
1758:stm32f4xx-hal-driver/Src/stm32f4xx_ll_usb.c ****       USBx_HC((uint32_t)ch_num)->HCINTMSK = USB_OTG_HCINTMSK_XFRCM  |
1759:stm32f4xx-hal-driver/Src/stm32f4xx_ll_usb.c ****                                             USB_OTG_HCINTMSK_ACKM   |
1760:stm32f4xx-hal-driver/Src/stm32f4xx_ll_usb.c ****                                             USB_OTG_HCINTMSK_AHBERR |
1761:stm32f4xx-hal-driver/Src/stm32f4xx_ll_usb.c ****                                             USB_OTG_HCINTMSK_FRMORM;
1762:stm32f4xx-hal-driver/Src/stm32f4xx_ll_usb.c **** 
1763:stm32f4xx-hal-driver/Src/stm32f4xx_ll_usb.c ****       if ((epnum & 0x80U) == 0x80U)
1764:stm32f4xx-hal-driver/Src/stm32f4xx_ll_usb.c ****       {
1765:stm32f4xx-hal-driver/Src/stm32f4xx_ll_usb.c ****         USBx_HC((uint32_t)ch_num)->HCINTMSK |= (USB_OTG_HCINTMSK_TXERRM | USB_OTG_HCINTMSK_BBERRM);
1766:stm32f4xx-hal-driver/Src/stm32f4xx_ll_usb.c ****       }
1767:stm32f4xx-hal-driver/Src/stm32f4xx_ll_usb.c ****       break;
1768:stm32f4xx-hal-driver/Src/stm32f4xx_ll_usb.c **** 
1769:stm32f4xx-hal-driver/Src/stm32f4xx_ll_usb.c ****     default:
1770:stm32f4xx-hal-driver/Src/stm32f4xx_ll_usb.c ****       ret = HAL_ERROR;
1771:stm32f4xx-hal-driver/Src/stm32f4xx_ll_usb.c ****       break;
1772:stm32f4xx-hal-driver/Src/stm32f4xx_ll_usb.c ****   }
1773:stm32f4xx-hal-driver/Src/stm32f4xx_ll_usb.c **** 
1774:stm32f4xx-hal-driver/Src/stm32f4xx_ll_usb.c ****   /* Clear Hub Start Split transaction */
1775:stm32f4xx-hal-driver/Src/stm32f4xx_ll_usb.c ****   USBx_HC((uint32_t)ch_num)->HCSPLT = 0U;
 4265              		.loc 1 1775 3 is_stmt 1 view .LVU1347
 4266              		.loc 1 1775 37 is_stmt 0 view .LVU1348
 4267 0062 0022     		movs	r2, #0
 4268 0064 5A60     		str	r2, [r3, #4]
1776:stm32f4xx-hal-driver/Src/stm32f4xx_ll_usb.c **** 
1777:stm32f4xx-hal-driver/Src/stm32f4xx_ll_usb.c ****   /* Enable host channel Halt interrupt */
1778:stm32f4xx-hal-driver/Src/stm32f4xx_ll_usb.c ****   USBx_HC((uint32_t)ch_num)->HCINTMSK |= USB_OTG_HCINTMSK_CHHM;
 4269              		.loc 1 1778 3 is_stmt 1 view .LVU1349
 4270              		.loc 1 1778 39 is_stmt 0 view .LVU1350
 4271 0066 DA68     		ldr	r2, [r3, #12]
 4272 0068 42F00202 		orr	r2, r2, #2
 4273 006c DA60     		str	r2, [r3, #12]
1779:stm32f4xx-hal-driver/Src/stm32f4xx_ll_usb.c **** 
1780:stm32f4xx-hal-driver/Src/stm32f4xx_ll_usb.c ****   /* Enable the top level host channel interrupt. */
1781:stm32f4xx-hal-driver/Src/stm32f4xx_ll_usb.c ****   USBx_HOST->HAINTMSK |= 1UL << (ch_num & 0xFU);
 4274              		.loc 1 1781 3 is_stmt 1 view .LVU1351
 4275              		.loc 1 1781 23 is_stmt 0 view .LVU1352
 4276 006e D0F81834 		ldr	r3, [r0, #1048]
 4277              		.loc 1 1781 41 view .LVU1353
 4278 0072 01F00F01 		and	r1, r1, #15
 4279              	.LVL340:
 4280              		.loc 1 1781 30 view .LVU1354
 4281 0076 0122     		movs	r2, #1
 4282 0078 02FA01F1 		lsl	r1, r2, r1
 4283              		.loc 1 1781 23 view .LVU1355
 4284 007c 1943     		orrs	r1, r1, r3
 4285 007e C0F81814 		str	r1, [r0, #1048]
1782:stm32f4xx-hal-driver/Src/stm32f4xx_ll_usb.c **** 
ARM GAS  /tmp/ccXMuxQe.s 			page 126


1783:stm32f4xx-hal-driver/Src/stm32f4xx_ll_usb.c ****   /* Make sure host channel interrupts are enabled. */
1784:stm32f4xx-hal-driver/Src/stm32f4xx_ll_usb.c ****   USBx->GINTMSK |= USB_OTG_GINTMSK_HCIM;
 4286              		.loc 1 1784 3 is_stmt 1 view .LVU1356
 4287              		.loc 1 1784 17 is_stmt 0 view .LVU1357
 4288 0082 8369     		ldr	r3, [r0, #24]
 4289 0084 43F00073 		orr	r3, r3, #33554432
 4290 0088 8361     		str	r3, [r0, #24]
1785:stm32f4xx-hal-driver/Src/stm32f4xx_ll_usb.c **** 
1786:stm32f4xx-hal-driver/Src/stm32f4xx_ll_usb.c ****   /* Program the HCCHAR register */
1787:stm32f4xx-hal-driver/Src/stm32f4xx_ll_usb.c ****   if ((epnum & 0x80U) == 0x80U)
 4291              		.loc 1 1787 3 is_stmt 1 view .LVU1358
 4292              		.loc 1 1787 6 is_stmt 0 view .LVU1359
 4293 008a 19F0800F 		tst	r9, #128
 4294 008e 44D1     		bne	.L281
1788:stm32f4xx-hal-driver/Src/stm32f4xx_ll_usb.c ****   {
1789:stm32f4xx-hal-driver/Src/stm32f4xx_ll_usb.c ****     HCcharEpDir = (0x1U << 15) & USB_OTG_HCCHAR_EPDIR;
1790:stm32f4xx-hal-driver/Src/stm32f4xx_ll_usb.c ****   }
1791:stm32f4xx-hal-driver/Src/stm32f4xx_ll_usb.c ****   else
1792:stm32f4xx-hal-driver/Src/stm32f4xx_ll_usb.c ****   {
1793:stm32f4xx-hal-driver/Src/stm32f4xx_ll_usb.c ****     HCcharEpDir = 0U;
 4295              		.loc 1 1793 17 view .LVU1360
 4296 0090 4FF00008 		mov	r8, #0
 4297              	.L266:
 4298              	.LVL341:
1794:stm32f4xx-hal-driver/Src/stm32f4xx_ll_usb.c ****   }
1795:stm32f4xx-hal-driver/Src/stm32f4xx_ll_usb.c **** 
1796:stm32f4xx-hal-driver/Src/stm32f4xx_ll_usb.c ****   HostCoreSpeed = USB_GetHostSpeed(USBx);
 4299              		.loc 1 1796 3 is_stmt 1 view .LVU1361
 4300              		.loc 1 1796 19 is_stmt 0 view .LVU1362
 4301 0094 FFF7FEFF 		bl	USB_GetHostSpeed
 4302              	.LVL342:
1797:stm32f4xx-hal-driver/Src/stm32f4xx_ll_usb.c **** 
1798:stm32f4xx-hal-driver/Src/stm32f4xx_ll_usb.c ****   /* LS device plugged to HUB */
1799:stm32f4xx-hal-driver/Src/stm32f4xx_ll_usb.c ****   if ((speed == HPRT0_PRTSPD_LOW_SPEED) && (HostCoreSpeed != HPRT0_PRTSPD_LOW_SPEED))
 4303              		.loc 1 1799 3 is_stmt 1 view .LVU1363
 4304              		.loc 1 1799 6 is_stmt 0 view .LVU1364
 4305 0098 9DF82030 		ldrb	r3, [sp, #32]	@ zero_extendqisi2
 4306 009c 022B     		cmp	r3, #2
 4307 009e 3FD0     		beq	.L282
1800:stm32f4xx-hal-driver/Src/stm32f4xx_ll_usb.c ****   {
1801:stm32f4xx-hal-driver/Src/stm32f4xx_ll_usb.c ****     HCcharLowSpeed = (0x1U << 17) & USB_OTG_HCCHAR_LSDEV;
1802:stm32f4xx-hal-driver/Src/stm32f4xx_ll_usb.c ****   }
1803:stm32f4xx-hal-driver/Src/stm32f4xx_ll_usb.c ****   else
1804:stm32f4xx-hal-driver/Src/stm32f4xx_ll_usb.c ****   {
1805:stm32f4xx-hal-driver/Src/stm32f4xx_ll_usb.c ****     HCcharLowSpeed = 0U;
 4308              		.loc 1 1805 20 view .LVU1365
 4309 00a0 0021     		movs	r1, #0
 4310              	.L267:
 4311              	.LVL343:
1806:stm32f4xx-hal-driver/Src/stm32f4xx_ll_usb.c ****   }
1807:stm32f4xx-hal-driver/Src/stm32f4xx_ll_usb.c **** 
1808:stm32f4xx-hal-driver/Src/stm32f4xx_ll_usb.c ****   USBx_HC((uint32_t)ch_num)->HCCHAR = (((uint32_t)dev_address << 22) & USB_OTG_HCCHAR_DAD) |
 4312              		.loc 1 1808 3 is_stmt 1 view .LVU1366
 4313              		.loc 1 1808 63 is_stmt 0 view .LVU1367
 4314 00a2 A305     		lsls	r3, r4, #22
 4315              		.loc 1 1808 70 view .LVU1368
 4316 00a4 03F0FE53 		and	r3, r3, #532676608
ARM GAS  /tmp/ccXMuxQe.s 			page 127


1809:stm32f4xx-hal-driver/Src/stm32f4xx_ll_usb.c ****                                       ((((uint32_t)epnum & 0x7FU) << 11) & USB_OTG_HCCHAR_EPNUM) |
 4317              		.loc 1 1809 67 view .LVU1369
 4318 00a8 4FEAC929 		lsl	r9, r9, #11
 4319              		.loc 1 1809 74 view .LVU1370
 4320 00ac 09F4F049 		and	r9, r9, #30720
1808:stm32f4xx-hal-driver/Src/stm32f4xx_ll_usb.c ****                                       ((((uint32_t)epnum & 0x7FU) << 11) & USB_OTG_HCCHAR_EPNUM) |
 4321              		.loc 1 1808 92 view .LVU1371
 4322 00b0 43EA0903 		orr	r3, r3, r9
1810:stm32f4xx-hal-driver/Src/stm32f4xx_ll_usb.c ****                                       (((uint32_t)ep_type << 18) & USB_OTG_HCCHAR_EPTYP) |
 4323              		.loc 1 1810 59 view .LVU1372
 4324 00b4 AC04     		lsls	r4, r5, #18
 4325              		.loc 1 1810 66 view .LVU1373
 4326 00b6 04F44024 		and	r4, r4, #786432
1809:stm32f4xx-hal-driver/Src/stm32f4xx_ll_usb.c ****                                       ((((uint32_t)epnum & 0x7FU) << 11) & USB_OTG_HCCHAR_EPNUM) |
 4327              		.loc 1 1809 98 view .LVU1374
 4328 00ba 2343     		orrs	r3, r3, r4
1811:stm32f4xx-hal-driver/Src/stm32f4xx_ll_usb.c ****                                       ((uint32_t)mps & USB_OTG_HCCHAR_MPSIZ) |
 4329              		.loc 1 1811 54 view .LVU1375
 4330 00bc BDF82820 		ldrh	r2, [sp, #40]
 4331 00c0 C2F30A02 		ubfx	r2, r2, #0, #11
1810:stm32f4xx-hal-driver/Src/stm32f4xx_ll_usb.c ****                                       (((uint32_t)ep_type << 18) & USB_OTG_HCCHAR_EPTYP) |
 4332              		.loc 1 1810 90 view .LVU1376
 4333 00c4 1343     		orrs	r3, r3, r2
1812:stm32f4xx-hal-driver/Src/stm32f4xx_ll_usb.c ****                                       USB_OTG_HCCHAR_MC_0 | HCcharEpDir | HCcharLowSpeed;
 4334              		.loc 1 1812 59 view .LVU1377
 4335 00c6 43EA0803 		orr	r3, r3, r8
 4336              		.loc 1 1812 73 view .LVU1378
 4337 00ca 0B43     		orrs	r3, r3, r1
 4338 00cc 43F48013 		orr	r3, r3, #1048576
1808:stm32f4xx-hal-driver/Src/stm32f4xx_ll_usb.c ****                                       ((((uint32_t)epnum & 0x7FU) << 11) & USB_OTG_HCCHAR_EPNUM) |
 4339              		.loc 1 1808 37 view .LVU1379
 4340 00d0 C6F80035 		str	r3, [r6, #1280]
1813:stm32f4xx-hal-driver/Src/stm32f4xx_ll_usb.c **** 
1814:stm32f4xx-hal-driver/Src/stm32f4xx_ll_usb.c ****   if ((ep_type == EP_TYPE_INTR) || (ep_type == EP_TYPE_ISOC))
 4341              		.loc 1 1814 3 is_stmt 1 view .LVU1380
 4342              		.loc 1 1814 6 is_stmt 0 view .LVU1381
 4343 00d4 032D     		cmp	r5, #3
 4344 00d6 01D0     		beq	.L268
 4345              		.loc 1 1814 33 discriminator 1 view .LVU1382
 4346 00d8 012D     		cmp	r5, #1
 4347 00da 05D1     		bne	.L269
 4348              	.L268:
1815:stm32f4xx-hal-driver/Src/stm32f4xx_ll_usb.c ****   {
1816:stm32f4xx-hal-driver/Src/stm32f4xx_ll_usb.c ****     USBx_HC((uint32_t)ch_num)->HCCHAR |= USB_OTG_HCCHAR_ODDFRM;
 4349              		.loc 1 1816 5 is_stmt 1 view .LVU1383
 4350              		.loc 1 1816 39 is_stmt 0 view .LVU1384
 4351 00dc D6F80035 		ldr	r3, [r6, #1280]
 4352 00e0 43F00053 		orr	r3, r3, #536870912
 4353 00e4 C6F80035 		str	r3, [r6, #1280]
 4354              	.L269:
1817:stm32f4xx-hal-driver/Src/stm32f4xx_ll_usb.c ****   }
1818:stm32f4xx-hal-driver/Src/stm32f4xx_ll_usb.c **** 
1819:stm32f4xx-hal-driver/Src/stm32f4xx_ll_usb.c ****   return ret;
 4355              		.loc 1 1819 3 is_stmt 1 view .LVU1385
1820:stm32f4xx-hal-driver/Src/stm32f4xx_ll_usb.c **** }
 4356              		.loc 1 1820 1 is_stmt 0 view .LVU1386
 4357 00e8 3846     		mov	r0, r7
ARM GAS  /tmp/ccXMuxQe.s 			page 128


 4358              	.LVL344:
 4359              		.loc 1 1820 1 view .LVU1387
 4360 00ea BDE8F883 		pop	{r3, r4, r5, r6, r7, r8, r9, pc}
 4361              	.LVL345:
 4362              	.L280:
1752:stm32f4xx-hal-driver/Src/stm32f4xx_ll_usb.c ****       }
 4363              		.loc 1 1752 9 is_stmt 1 view .LVU1388
1752:stm32f4xx-hal-driver/Src/stm32f4xx_ll_usb.c ****       }
 4364              		.loc 1 1752 45 is_stmt 0 view .LVU1389
 4365 00ee DA68     		ldr	r2, [r3, #12]
 4366 00f0 42F48072 		orr	r2, r2, #256
 4367 00f4 DA60     		str	r2, [r3, #12]
1704:stm32f4xx-hal-driver/Src/stm32f4xx_ll_usb.c ****   uint32_t USBx_BASE = (uint32_t)USBx;
 4368              		.loc 1 1704 21 view .LVU1390
 4369 00f6 0027     		movs	r7, #0
 4370 00f8 B3E7     		b	.L260
 4371              	.L264:
1758:stm32f4xx-hal-driver/Src/stm32f4xx_ll_usb.c ****                                             USB_OTG_HCINTMSK_ACKM   |
 4372              		.loc 1 1758 7 is_stmt 1 view .LVU1391
1758:stm32f4xx-hal-driver/Src/stm32f4xx_ll_usb.c ****                                             USB_OTG_HCINTMSK_ACKM   |
 4373              		.loc 1 1758 43 is_stmt 0 view .LVU1392
 4374 00fa 40F22522 		movw	r2, #549
 4375 00fe DA60     		str	r2, [r3, #12]
1763:stm32f4xx-hal-driver/Src/stm32f4xx_ll_usb.c ****       {
 4376              		.loc 1 1763 7 is_stmt 1 view .LVU1393
1763:stm32f4xx-hal-driver/Src/stm32f4xx_ll_usb.c ****       {
 4377              		.loc 1 1763 10 is_stmt 0 view .LVU1394
 4378 0100 19F0800F 		tst	r9, #128
 4379 0104 01D1     		bne	.L283
1704:stm32f4xx-hal-driver/Src/stm32f4xx_ll_usb.c ****   uint32_t USBx_BASE = (uint32_t)USBx;
 4380              		.loc 1 1704 21 view .LVU1395
 4381 0106 0027     		movs	r7, #0
 4382 0108 ABE7     		b	.L260
 4383              	.L283:
1765:stm32f4xx-hal-driver/Src/stm32f4xx_ll_usb.c ****       }
 4384              		.loc 1 1765 9 is_stmt 1 view .LVU1396
1765:stm32f4xx-hal-driver/Src/stm32f4xx_ll_usb.c ****       }
 4385              		.loc 1 1765 45 is_stmt 0 view .LVU1397
 4386 010a DA68     		ldr	r2, [r3, #12]
 4387 010c 42F4C072 		orr	r2, r2, #384
 4388 0110 DA60     		str	r2, [r3, #12]
1704:stm32f4xx-hal-driver/Src/stm32f4xx_ll_usb.c ****   uint32_t USBx_BASE = (uint32_t)USBx;
 4389              		.loc 1 1704 21 view .LVU1398
 4390 0112 0027     		movs	r7, #0
 4391 0114 A5E7     		b	.L260
 4392              	.L270:
1711:stm32f4xx-hal-driver/Src/stm32f4xx_ll_usb.c **** 
 4393              		.loc 1 1711 36 view .LVU1399
 4394 0116 0127     		movs	r7, #1
 4395 0118 A3E7     		b	.L260
 4396              	.LVL346:
 4397              	.L281:
1789:stm32f4xx-hal-driver/Src/stm32f4xx_ll_usb.c ****   }
 4398              		.loc 1 1789 17 view .LVU1400
 4399 011a 4FF40048 		mov	r8, #32768
 4400 011e B9E7     		b	.L266
 4401              	.LVL347:
ARM GAS  /tmp/ccXMuxQe.s 			page 129


 4402              	.L282:
1799:stm32f4xx-hal-driver/Src/stm32f4xx_ll_usb.c ****   {
 4403              		.loc 1 1799 41 discriminator 1 view .LVU1401
 4404 0120 0228     		cmp	r0, #2
 4405 0122 02D0     		beq	.L284
1801:stm32f4xx-hal-driver/Src/stm32f4xx_ll_usb.c ****   }
 4406              		.loc 1 1801 20 view .LVU1402
 4407 0124 4FF40031 		mov	r1, #131072
 4408 0128 BBE7     		b	.L267
 4409              	.L284:
1805:stm32f4xx-hal-driver/Src/stm32f4xx_ll_usb.c ****   }
 4410              		.loc 1 1805 20 view .LVU1403
 4411 012a 0021     		movs	r1, #0
 4412 012c B9E7     		b	.L267
 4413              	.L286:
 4414 012e 00BF     		.align	2
 4415              	.L285:
 4416 0130 00000440 		.word	1074003968
 4417              		.cfi_endproc
 4418              	.LFE280:
 4420              		.section	.text.USB_HC_ReadInterrupt,"ax",%progbits
 4421              		.align	1
 4422              		.global	USB_HC_ReadInterrupt
 4423              		.syntax unified
 4424              		.thumb
 4425              		.thumb_func
 4426              		.fpu fpv4-sp-d16
 4428              	USB_HC_ReadInterrupt:
 4429              	.LVL348:
 4430              	.LFB282:
1821:stm32f4xx-hal-driver/Src/stm32f4xx_ll_usb.c **** 
1822:stm32f4xx-hal-driver/Src/stm32f4xx_ll_usb.c **** /**
1823:stm32f4xx-hal-driver/Src/stm32f4xx_ll_usb.c ****   * @brief  Start a transfer over a host channel
1824:stm32f4xx-hal-driver/Src/stm32f4xx_ll_usb.c ****   * @param  USBx  Selected device
1825:stm32f4xx-hal-driver/Src/stm32f4xx_ll_usb.c ****   * @param  hc  pointer to host channel structure
1826:stm32f4xx-hal-driver/Src/stm32f4xx_ll_usb.c ****   * @param  dma USB dma enabled or disabled
1827:stm32f4xx-hal-driver/Src/stm32f4xx_ll_usb.c ****   *          This parameter can be one of these values:
1828:stm32f4xx-hal-driver/Src/stm32f4xx_ll_usb.c ****   *           0 : DMA feature not used
1829:stm32f4xx-hal-driver/Src/stm32f4xx_ll_usb.c ****   *           1 : DMA feature used
1830:stm32f4xx-hal-driver/Src/stm32f4xx_ll_usb.c ****   * @retval HAL state
1831:stm32f4xx-hal-driver/Src/stm32f4xx_ll_usb.c ****   */
1832:stm32f4xx-hal-driver/Src/stm32f4xx_ll_usb.c **** HAL_StatusTypeDef USB_HC_StartXfer(USB_OTG_GlobalTypeDef *USBx, USB_OTG_HCTypeDef *hc, uint8_t dma)
1833:stm32f4xx-hal-driver/Src/stm32f4xx_ll_usb.c **** {
1834:stm32f4xx-hal-driver/Src/stm32f4xx_ll_usb.c ****   uint32_t USBx_BASE = (uint32_t)USBx;
1835:stm32f4xx-hal-driver/Src/stm32f4xx_ll_usb.c ****   uint32_t ch_num = (uint32_t)hc->ch_num;
1836:stm32f4xx-hal-driver/Src/stm32f4xx_ll_usb.c ****   __IO uint32_t tmpreg;
1837:stm32f4xx-hal-driver/Src/stm32f4xx_ll_usb.c ****   uint8_t  is_oddframe;
1838:stm32f4xx-hal-driver/Src/stm32f4xx_ll_usb.c ****   uint16_t len_words;
1839:stm32f4xx-hal-driver/Src/stm32f4xx_ll_usb.c ****   uint16_t num_packets;
1840:stm32f4xx-hal-driver/Src/stm32f4xx_ll_usb.c ****   uint16_t max_hc_pkt_count = HC_MAX_PKT_CNT;
1841:stm32f4xx-hal-driver/Src/stm32f4xx_ll_usb.c **** 
1842:stm32f4xx-hal-driver/Src/stm32f4xx_ll_usb.c **** #if defined (USB_OTG_HS)
1843:stm32f4xx-hal-driver/Src/stm32f4xx_ll_usb.c ****   if (USBx == USB_OTG_HS)
1844:stm32f4xx-hal-driver/Src/stm32f4xx_ll_usb.c ****   {
1845:stm32f4xx-hal-driver/Src/stm32f4xx_ll_usb.c ****     /* in DMA mode host Core automatically issues ping in case of NYET/NAK */
1846:stm32f4xx-hal-driver/Src/stm32f4xx_ll_usb.c ****     if (dma == 1U)
1847:stm32f4xx-hal-driver/Src/stm32f4xx_ll_usb.c ****     {
ARM GAS  /tmp/ccXMuxQe.s 			page 130


1848:stm32f4xx-hal-driver/Src/stm32f4xx_ll_usb.c ****       if (((hc->ep_type == EP_TYPE_CTRL) || (hc->ep_type == EP_TYPE_BULK)) && (hc->do_ssplit == 0U)
1849:stm32f4xx-hal-driver/Src/stm32f4xx_ll_usb.c ****       {
1850:stm32f4xx-hal-driver/Src/stm32f4xx_ll_usb.c **** 
1851:stm32f4xx-hal-driver/Src/stm32f4xx_ll_usb.c ****         USBx_HC((uint32_t)ch_num)->HCINTMSK &= ~(USB_OTG_HCINTMSK_NYET |
1852:stm32f4xx-hal-driver/Src/stm32f4xx_ll_usb.c ****                                                  USB_OTG_HCINTMSK_ACKM |
1853:stm32f4xx-hal-driver/Src/stm32f4xx_ll_usb.c ****                                                  USB_OTG_HCINTMSK_NAKM);
1854:stm32f4xx-hal-driver/Src/stm32f4xx_ll_usb.c ****       }
1855:stm32f4xx-hal-driver/Src/stm32f4xx_ll_usb.c ****     }
1856:stm32f4xx-hal-driver/Src/stm32f4xx_ll_usb.c ****     else
1857:stm32f4xx-hal-driver/Src/stm32f4xx_ll_usb.c ****     {
1858:stm32f4xx-hal-driver/Src/stm32f4xx_ll_usb.c ****       if ((hc->speed == USBH_HS_SPEED) && (hc->do_ping == 1U))
1859:stm32f4xx-hal-driver/Src/stm32f4xx_ll_usb.c ****       {
1860:stm32f4xx-hal-driver/Src/stm32f4xx_ll_usb.c ****         (void)USB_DoPing(USBx, hc->ch_num);
1861:stm32f4xx-hal-driver/Src/stm32f4xx_ll_usb.c ****         return HAL_OK;
1862:stm32f4xx-hal-driver/Src/stm32f4xx_ll_usb.c ****       }
1863:stm32f4xx-hal-driver/Src/stm32f4xx_ll_usb.c ****     }
1864:stm32f4xx-hal-driver/Src/stm32f4xx_ll_usb.c ****   }
1865:stm32f4xx-hal-driver/Src/stm32f4xx_ll_usb.c **** #endif /* defined (USB_OTG_HS) */
1866:stm32f4xx-hal-driver/Src/stm32f4xx_ll_usb.c **** 
1867:stm32f4xx-hal-driver/Src/stm32f4xx_ll_usb.c ****   if (hc->do_ssplit == 1U)
1868:stm32f4xx-hal-driver/Src/stm32f4xx_ll_usb.c ****   {
1869:stm32f4xx-hal-driver/Src/stm32f4xx_ll_usb.c ****     /* Set number of packet to 1 for Split transaction */
1870:stm32f4xx-hal-driver/Src/stm32f4xx_ll_usb.c ****     num_packets = 1U;
1871:stm32f4xx-hal-driver/Src/stm32f4xx_ll_usb.c **** 
1872:stm32f4xx-hal-driver/Src/stm32f4xx_ll_usb.c ****     if (hc->ep_is_in != 0U)
1873:stm32f4xx-hal-driver/Src/stm32f4xx_ll_usb.c ****     {
1874:stm32f4xx-hal-driver/Src/stm32f4xx_ll_usb.c ****       hc->XferSize = (uint32_t)num_packets * hc->max_packet;
1875:stm32f4xx-hal-driver/Src/stm32f4xx_ll_usb.c ****     }
1876:stm32f4xx-hal-driver/Src/stm32f4xx_ll_usb.c ****     else
1877:stm32f4xx-hal-driver/Src/stm32f4xx_ll_usb.c ****     {
1878:stm32f4xx-hal-driver/Src/stm32f4xx_ll_usb.c ****       if (hc->ep_type == EP_TYPE_ISOC)
1879:stm32f4xx-hal-driver/Src/stm32f4xx_ll_usb.c ****       {
1880:stm32f4xx-hal-driver/Src/stm32f4xx_ll_usb.c ****         if (hc->xfer_len > ISO_SPLT_MPS)
1881:stm32f4xx-hal-driver/Src/stm32f4xx_ll_usb.c ****         {
1882:stm32f4xx-hal-driver/Src/stm32f4xx_ll_usb.c ****           /* Isochrone Max Packet Size for Split mode */
1883:stm32f4xx-hal-driver/Src/stm32f4xx_ll_usb.c ****           hc->XferSize = hc->max_packet;
1884:stm32f4xx-hal-driver/Src/stm32f4xx_ll_usb.c ****           hc->xfer_len = hc->XferSize;
1885:stm32f4xx-hal-driver/Src/stm32f4xx_ll_usb.c **** 
1886:stm32f4xx-hal-driver/Src/stm32f4xx_ll_usb.c ****           if ((hc->iso_splt_xactPos == HCSPLT_BEGIN) || (hc->iso_splt_xactPos == HCSPLT_MIDDLE))
1887:stm32f4xx-hal-driver/Src/stm32f4xx_ll_usb.c ****           {
1888:stm32f4xx-hal-driver/Src/stm32f4xx_ll_usb.c ****             hc->iso_splt_xactPos = HCSPLT_MIDDLE;
1889:stm32f4xx-hal-driver/Src/stm32f4xx_ll_usb.c ****           }
1890:stm32f4xx-hal-driver/Src/stm32f4xx_ll_usb.c ****           else
1891:stm32f4xx-hal-driver/Src/stm32f4xx_ll_usb.c ****           {
1892:stm32f4xx-hal-driver/Src/stm32f4xx_ll_usb.c ****             hc->iso_splt_xactPos = HCSPLT_BEGIN;
1893:stm32f4xx-hal-driver/Src/stm32f4xx_ll_usb.c ****           }
1894:stm32f4xx-hal-driver/Src/stm32f4xx_ll_usb.c ****         }
1895:stm32f4xx-hal-driver/Src/stm32f4xx_ll_usb.c ****         else
1896:stm32f4xx-hal-driver/Src/stm32f4xx_ll_usb.c ****         {
1897:stm32f4xx-hal-driver/Src/stm32f4xx_ll_usb.c ****           hc->XferSize = hc->xfer_len;
1898:stm32f4xx-hal-driver/Src/stm32f4xx_ll_usb.c **** 
1899:stm32f4xx-hal-driver/Src/stm32f4xx_ll_usb.c ****           if ((hc->iso_splt_xactPos != HCSPLT_BEGIN) && (hc->iso_splt_xactPos != HCSPLT_MIDDLE))
1900:stm32f4xx-hal-driver/Src/stm32f4xx_ll_usb.c ****           {
1901:stm32f4xx-hal-driver/Src/stm32f4xx_ll_usb.c ****             hc->iso_splt_xactPos = HCSPLT_FULL;
1902:stm32f4xx-hal-driver/Src/stm32f4xx_ll_usb.c ****           }
1903:stm32f4xx-hal-driver/Src/stm32f4xx_ll_usb.c ****           else
1904:stm32f4xx-hal-driver/Src/stm32f4xx_ll_usb.c ****           {
ARM GAS  /tmp/ccXMuxQe.s 			page 131


1905:stm32f4xx-hal-driver/Src/stm32f4xx_ll_usb.c ****             hc->iso_splt_xactPos = HCSPLT_END;
1906:stm32f4xx-hal-driver/Src/stm32f4xx_ll_usb.c ****           }
1907:stm32f4xx-hal-driver/Src/stm32f4xx_ll_usb.c ****         }
1908:stm32f4xx-hal-driver/Src/stm32f4xx_ll_usb.c ****       }
1909:stm32f4xx-hal-driver/Src/stm32f4xx_ll_usb.c ****       else
1910:stm32f4xx-hal-driver/Src/stm32f4xx_ll_usb.c ****       {
1911:stm32f4xx-hal-driver/Src/stm32f4xx_ll_usb.c ****         if ((dma == 1U) && (hc->xfer_len > hc->max_packet))
1912:stm32f4xx-hal-driver/Src/stm32f4xx_ll_usb.c ****         {
1913:stm32f4xx-hal-driver/Src/stm32f4xx_ll_usb.c ****           hc->XferSize = (uint32_t)num_packets * hc->max_packet;
1914:stm32f4xx-hal-driver/Src/stm32f4xx_ll_usb.c ****         }
1915:stm32f4xx-hal-driver/Src/stm32f4xx_ll_usb.c ****         else
1916:stm32f4xx-hal-driver/Src/stm32f4xx_ll_usb.c ****         {
1917:stm32f4xx-hal-driver/Src/stm32f4xx_ll_usb.c ****           hc->XferSize = hc->xfer_len;
1918:stm32f4xx-hal-driver/Src/stm32f4xx_ll_usb.c ****         }
1919:stm32f4xx-hal-driver/Src/stm32f4xx_ll_usb.c ****       }
1920:stm32f4xx-hal-driver/Src/stm32f4xx_ll_usb.c ****     }
1921:stm32f4xx-hal-driver/Src/stm32f4xx_ll_usb.c ****   }
1922:stm32f4xx-hal-driver/Src/stm32f4xx_ll_usb.c ****   else
1923:stm32f4xx-hal-driver/Src/stm32f4xx_ll_usb.c ****   {
1924:stm32f4xx-hal-driver/Src/stm32f4xx_ll_usb.c ****     /* Compute the expected number of packets associated to the transfer */
1925:stm32f4xx-hal-driver/Src/stm32f4xx_ll_usb.c ****     if (hc->xfer_len > 0U)
1926:stm32f4xx-hal-driver/Src/stm32f4xx_ll_usb.c ****     {
1927:stm32f4xx-hal-driver/Src/stm32f4xx_ll_usb.c ****       num_packets = (uint16_t)((hc->xfer_len + hc->max_packet - 1U) / hc->max_packet);
1928:stm32f4xx-hal-driver/Src/stm32f4xx_ll_usb.c **** 
1929:stm32f4xx-hal-driver/Src/stm32f4xx_ll_usb.c ****       if (num_packets > max_hc_pkt_count)
1930:stm32f4xx-hal-driver/Src/stm32f4xx_ll_usb.c ****       {
1931:stm32f4xx-hal-driver/Src/stm32f4xx_ll_usb.c ****         num_packets = max_hc_pkt_count;
1932:stm32f4xx-hal-driver/Src/stm32f4xx_ll_usb.c ****         hc->XferSize = (uint32_t)num_packets * hc->max_packet;
1933:stm32f4xx-hal-driver/Src/stm32f4xx_ll_usb.c ****       }
1934:stm32f4xx-hal-driver/Src/stm32f4xx_ll_usb.c ****     }
1935:stm32f4xx-hal-driver/Src/stm32f4xx_ll_usb.c ****     else
1936:stm32f4xx-hal-driver/Src/stm32f4xx_ll_usb.c ****     {
1937:stm32f4xx-hal-driver/Src/stm32f4xx_ll_usb.c ****       num_packets = 1U;
1938:stm32f4xx-hal-driver/Src/stm32f4xx_ll_usb.c ****     }
1939:stm32f4xx-hal-driver/Src/stm32f4xx_ll_usb.c **** 
1940:stm32f4xx-hal-driver/Src/stm32f4xx_ll_usb.c ****     /*
1941:stm32f4xx-hal-driver/Src/stm32f4xx_ll_usb.c ****     * For IN channel HCTSIZ.XferSize is expected to be an integer multiple of
1942:stm32f4xx-hal-driver/Src/stm32f4xx_ll_usb.c ****     * max_packet size.
1943:stm32f4xx-hal-driver/Src/stm32f4xx_ll_usb.c ****     */
1944:stm32f4xx-hal-driver/Src/stm32f4xx_ll_usb.c ****     if (hc->ep_is_in != 0U)
1945:stm32f4xx-hal-driver/Src/stm32f4xx_ll_usb.c ****     {
1946:stm32f4xx-hal-driver/Src/stm32f4xx_ll_usb.c ****       hc->XferSize = (uint32_t)num_packets * hc->max_packet;
1947:stm32f4xx-hal-driver/Src/stm32f4xx_ll_usb.c ****     }
1948:stm32f4xx-hal-driver/Src/stm32f4xx_ll_usb.c ****     else
1949:stm32f4xx-hal-driver/Src/stm32f4xx_ll_usb.c ****     {
1950:stm32f4xx-hal-driver/Src/stm32f4xx_ll_usb.c ****       hc->XferSize = hc->xfer_len;
1951:stm32f4xx-hal-driver/Src/stm32f4xx_ll_usb.c ****     }
1952:stm32f4xx-hal-driver/Src/stm32f4xx_ll_usb.c ****   }
1953:stm32f4xx-hal-driver/Src/stm32f4xx_ll_usb.c **** 
1954:stm32f4xx-hal-driver/Src/stm32f4xx_ll_usb.c ****   /* Initialize the HCTSIZn register */
1955:stm32f4xx-hal-driver/Src/stm32f4xx_ll_usb.c ****   USBx_HC(ch_num)->HCTSIZ = (hc->XferSize & USB_OTG_HCTSIZ_XFRSIZ) |
1956:stm32f4xx-hal-driver/Src/stm32f4xx_ll_usb.c ****                             (((uint32_t)num_packets << 19) & USB_OTG_HCTSIZ_PKTCNT) |
1957:stm32f4xx-hal-driver/Src/stm32f4xx_ll_usb.c ****                             (((uint32_t)hc->data_pid << 29) & USB_OTG_HCTSIZ_DPID);
1958:stm32f4xx-hal-driver/Src/stm32f4xx_ll_usb.c **** 
1959:stm32f4xx-hal-driver/Src/stm32f4xx_ll_usb.c ****   if (dma != 0U)
1960:stm32f4xx-hal-driver/Src/stm32f4xx_ll_usb.c ****   {
1961:stm32f4xx-hal-driver/Src/stm32f4xx_ll_usb.c ****     /* xfer_buff MUST be 32-bits aligned */
ARM GAS  /tmp/ccXMuxQe.s 			page 132


1962:stm32f4xx-hal-driver/Src/stm32f4xx_ll_usb.c ****     USBx_HC(ch_num)->HCDMA = (uint32_t)hc->xfer_buff;
1963:stm32f4xx-hal-driver/Src/stm32f4xx_ll_usb.c ****   }
1964:stm32f4xx-hal-driver/Src/stm32f4xx_ll_usb.c **** 
1965:stm32f4xx-hal-driver/Src/stm32f4xx_ll_usb.c ****   is_oddframe = (((uint32_t)USBx_HOST->HFNUM & 0x01U) != 0U) ? 0U : 1U;
1966:stm32f4xx-hal-driver/Src/stm32f4xx_ll_usb.c ****   USBx_HC(ch_num)->HCCHAR &= ~USB_OTG_HCCHAR_ODDFRM;
1967:stm32f4xx-hal-driver/Src/stm32f4xx_ll_usb.c ****   USBx_HC(ch_num)->HCCHAR |= (uint32_t)is_oddframe << 29;
1968:stm32f4xx-hal-driver/Src/stm32f4xx_ll_usb.c **** 
1969:stm32f4xx-hal-driver/Src/stm32f4xx_ll_usb.c ****   if (hc->do_ssplit == 1U)
1970:stm32f4xx-hal-driver/Src/stm32f4xx_ll_usb.c ****   {
1971:stm32f4xx-hal-driver/Src/stm32f4xx_ll_usb.c ****     /* Set Hub start Split transaction */
1972:stm32f4xx-hal-driver/Src/stm32f4xx_ll_usb.c ****     USBx_HC((uint32_t)ch_num)->HCSPLT = ((uint32_t)hc->hub_addr << USB_OTG_HCSPLT_HUBADDR_Pos) |
1973:stm32f4xx-hal-driver/Src/stm32f4xx_ll_usb.c ****                                         (uint32_t)hc->hub_port_nbr | USB_OTG_HCSPLT_SPLITEN;
1974:stm32f4xx-hal-driver/Src/stm32f4xx_ll_usb.c **** 
1975:stm32f4xx-hal-driver/Src/stm32f4xx_ll_usb.c ****     /* unmask ack & nyet for IN/OUT transactions */
1976:stm32f4xx-hal-driver/Src/stm32f4xx_ll_usb.c ****     USBx_HC((uint32_t)ch_num)->HCINTMSK |= (USB_OTG_HCINTMSK_ACKM |
1977:stm32f4xx-hal-driver/Src/stm32f4xx_ll_usb.c ****                                             USB_OTG_HCINTMSK_NYET);
1978:stm32f4xx-hal-driver/Src/stm32f4xx_ll_usb.c **** 
1979:stm32f4xx-hal-driver/Src/stm32f4xx_ll_usb.c ****     if ((hc->do_csplit == 1U) && (hc->ep_is_in == 0U))
1980:stm32f4xx-hal-driver/Src/stm32f4xx_ll_usb.c ****     {
1981:stm32f4xx-hal-driver/Src/stm32f4xx_ll_usb.c ****       USBx_HC((uint32_t)ch_num)->HCSPLT |= USB_OTG_HCSPLT_COMPLSPLT;
1982:stm32f4xx-hal-driver/Src/stm32f4xx_ll_usb.c ****       USBx_HC((uint32_t)ch_num)->HCINTMSK |= USB_OTG_HCINTMSK_NYET;
1983:stm32f4xx-hal-driver/Src/stm32f4xx_ll_usb.c ****     }
1984:stm32f4xx-hal-driver/Src/stm32f4xx_ll_usb.c **** 
1985:stm32f4xx-hal-driver/Src/stm32f4xx_ll_usb.c ****     if (((hc->ep_type == EP_TYPE_ISOC) || (hc->ep_type == EP_TYPE_INTR)) &&
1986:stm32f4xx-hal-driver/Src/stm32f4xx_ll_usb.c ****         (hc->do_csplit == 1U) && (hc->ep_is_in == 1U))
1987:stm32f4xx-hal-driver/Src/stm32f4xx_ll_usb.c ****     {
1988:stm32f4xx-hal-driver/Src/stm32f4xx_ll_usb.c ****       USBx_HC((uint32_t)ch_num)->HCSPLT |= USB_OTG_HCSPLT_COMPLSPLT;
1989:stm32f4xx-hal-driver/Src/stm32f4xx_ll_usb.c ****     }
1990:stm32f4xx-hal-driver/Src/stm32f4xx_ll_usb.c **** 
1991:stm32f4xx-hal-driver/Src/stm32f4xx_ll_usb.c ****     /* Position management for iso out transaction on split mode */
1992:stm32f4xx-hal-driver/Src/stm32f4xx_ll_usb.c ****     if ((hc->ep_type == EP_TYPE_ISOC) && (hc->ep_is_in == 0U))
1993:stm32f4xx-hal-driver/Src/stm32f4xx_ll_usb.c ****     {
1994:stm32f4xx-hal-driver/Src/stm32f4xx_ll_usb.c ****       /* Set data payload position */
1995:stm32f4xx-hal-driver/Src/stm32f4xx_ll_usb.c ****       switch (hc->iso_splt_xactPos)
1996:stm32f4xx-hal-driver/Src/stm32f4xx_ll_usb.c ****       {
1997:stm32f4xx-hal-driver/Src/stm32f4xx_ll_usb.c ****         case HCSPLT_BEGIN:
1998:stm32f4xx-hal-driver/Src/stm32f4xx_ll_usb.c ****           /* First data payload for OUT Transaction */
1999:stm32f4xx-hal-driver/Src/stm32f4xx_ll_usb.c ****           USBx_HC((uint32_t)ch_num)->HCSPLT |= USB_OTG_HCSPLT_XACTPOS_1;
2000:stm32f4xx-hal-driver/Src/stm32f4xx_ll_usb.c ****           break;
2001:stm32f4xx-hal-driver/Src/stm32f4xx_ll_usb.c **** 
2002:stm32f4xx-hal-driver/Src/stm32f4xx_ll_usb.c ****         case HCSPLT_MIDDLE:
2003:stm32f4xx-hal-driver/Src/stm32f4xx_ll_usb.c ****           /* Middle data payload for OUT Transaction */
2004:stm32f4xx-hal-driver/Src/stm32f4xx_ll_usb.c ****           USBx_HC((uint32_t)ch_num)->HCSPLT |= USB_OTG_HCSPLT_XACTPOS_Pos;
2005:stm32f4xx-hal-driver/Src/stm32f4xx_ll_usb.c ****           break;
2006:stm32f4xx-hal-driver/Src/stm32f4xx_ll_usb.c **** 
2007:stm32f4xx-hal-driver/Src/stm32f4xx_ll_usb.c ****         case HCSPLT_END:
2008:stm32f4xx-hal-driver/Src/stm32f4xx_ll_usb.c ****           /* End data payload for OUT Transaction */
2009:stm32f4xx-hal-driver/Src/stm32f4xx_ll_usb.c ****           USBx_HC((uint32_t)ch_num)->HCSPLT |= USB_OTG_HCSPLT_XACTPOS_0;
2010:stm32f4xx-hal-driver/Src/stm32f4xx_ll_usb.c ****           break;
2011:stm32f4xx-hal-driver/Src/stm32f4xx_ll_usb.c **** 
2012:stm32f4xx-hal-driver/Src/stm32f4xx_ll_usb.c ****         case HCSPLT_FULL:
2013:stm32f4xx-hal-driver/Src/stm32f4xx_ll_usb.c ****           /* Entire data payload for OUT Transaction */
2014:stm32f4xx-hal-driver/Src/stm32f4xx_ll_usb.c ****           USBx_HC((uint32_t)ch_num)->HCSPLT |= USB_OTG_HCSPLT_XACTPOS;
2015:stm32f4xx-hal-driver/Src/stm32f4xx_ll_usb.c ****           break;
2016:stm32f4xx-hal-driver/Src/stm32f4xx_ll_usb.c **** 
2017:stm32f4xx-hal-driver/Src/stm32f4xx_ll_usb.c ****         default:
2018:stm32f4xx-hal-driver/Src/stm32f4xx_ll_usb.c ****           break;
ARM GAS  /tmp/ccXMuxQe.s 			page 133


2019:stm32f4xx-hal-driver/Src/stm32f4xx_ll_usb.c ****       }
2020:stm32f4xx-hal-driver/Src/stm32f4xx_ll_usb.c ****     }
2021:stm32f4xx-hal-driver/Src/stm32f4xx_ll_usb.c ****   }
2022:stm32f4xx-hal-driver/Src/stm32f4xx_ll_usb.c ****   else
2023:stm32f4xx-hal-driver/Src/stm32f4xx_ll_usb.c ****   {
2024:stm32f4xx-hal-driver/Src/stm32f4xx_ll_usb.c ****     /* Clear Hub Start Split transaction */
2025:stm32f4xx-hal-driver/Src/stm32f4xx_ll_usb.c ****     USBx_HC((uint32_t)ch_num)->HCSPLT = 0U;
2026:stm32f4xx-hal-driver/Src/stm32f4xx_ll_usb.c ****   }
2027:stm32f4xx-hal-driver/Src/stm32f4xx_ll_usb.c **** 
2028:stm32f4xx-hal-driver/Src/stm32f4xx_ll_usb.c ****   /* Set host channel enable */
2029:stm32f4xx-hal-driver/Src/stm32f4xx_ll_usb.c ****   tmpreg = USBx_HC(ch_num)->HCCHAR;
2030:stm32f4xx-hal-driver/Src/stm32f4xx_ll_usb.c ****   tmpreg &= ~USB_OTG_HCCHAR_CHDIS;
2031:stm32f4xx-hal-driver/Src/stm32f4xx_ll_usb.c **** 
2032:stm32f4xx-hal-driver/Src/stm32f4xx_ll_usb.c ****   /* make sure to set the correct ep direction */
2033:stm32f4xx-hal-driver/Src/stm32f4xx_ll_usb.c ****   if (hc->ep_is_in != 0U)
2034:stm32f4xx-hal-driver/Src/stm32f4xx_ll_usb.c ****   {
2035:stm32f4xx-hal-driver/Src/stm32f4xx_ll_usb.c ****     tmpreg |= USB_OTG_HCCHAR_EPDIR;
2036:stm32f4xx-hal-driver/Src/stm32f4xx_ll_usb.c ****   }
2037:stm32f4xx-hal-driver/Src/stm32f4xx_ll_usb.c ****   else
2038:stm32f4xx-hal-driver/Src/stm32f4xx_ll_usb.c ****   {
2039:stm32f4xx-hal-driver/Src/stm32f4xx_ll_usb.c ****     tmpreg &= ~USB_OTG_HCCHAR_EPDIR;
2040:stm32f4xx-hal-driver/Src/stm32f4xx_ll_usb.c ****   }
2041:stm32f4xx-hal-driver/Src/stm32f4xx_ll_usb.c ****   tmpreg |= USB_OTG_HCCHAR_CHENA;
2042:stm32f4xx-hal-driver/Src/stm32f4xx_ll_usb.c ****   USBx_HC(ch_num)->HCCHAR = tmpreg;
2043:stm32f4xx-hal-driver/Src/stm32f4xx_ll_usb.c **** 
2044:stm32f4xx-hal-driver/Src/stm32f4xx_ll_usb.c ****   if (dma != 0U) /* dma mode */
2045:stm32f4xx-hal-driver/Src/stm32f4xx_ll_usb.c ****   {
2046:stm32f4xx-hal-driver/Src/stm32f4xx_ll_usb.c ****     return HAL_OK;
2047:stm32f4xx-hal-driver/Src/stm32f4xx_ll_usb.c ****   }
2048:stm32f4xx-hal-driver/Src/stm32f4xx_ll_usb.c **** 
2049:stm32f4xx-hal-driver/Src/stm32f4xx_ll_usb.c ****   if ((hc->ep_is_in == 0U) && (hc->xfer_len > 0U) && (hc->do_csplit == 0U))
2050:stm32f4xx-hal-driver/Src/stm32f4xx_ll_usb.c ****   {
2051:stm32f4xx-hal-driver/Src/stm32f4xx_ll_usb.c ****     switch (hc->ep_type)
2052:stm32f4xx-hal-driver/Src/stm32f4xx_ll_usb.c ****     {
2053:stm32f4xx-hal-driver/Src/stm32f4xx_ll_usb.c ****       /* Non periodic transfer */
2054:stm32f4xx-hal-driver/Src/stm32f4xx_ll_usb.c ****       case EP_TYPE_CTRL:
2055:stm32f4xx-hal-driver/Src/stm32f4xx_ll_usb.c ****       case EP_TYPE_BULK:
2056:stm32f4xx-hal-driver/Src/stm32f4xx_ll_usb.c **** 
2057:stm32f4xx-hal-driver/Src/stm32f4xx_ll_usb.c ****         len_words = (uint16_t)((hc->xfer_len + 3U) / 4U);
2058:stm32f4xx-hal-driver/Src/stm32f4xx_ll_usb.c **** 
2059:stm32f4xx-hal-driver/Src/stm32f4xx_ll_usb.c ****         /* check if there is enough space in FIFO space */
2060:stm32f4xx-hal-driver/Src/stm32f4xx_ll_usb.c ****         if (len_words > (USBx->HNPTXSTS & 0xFFFFU))
2061:stm32f4xx-hal-driver/Src/stm32f4xx_ll_usb.c ****         {
2062:stm32f4xx-hal-driver/Src/stm32f4xx_ll_usb.c ****           /* need to process data in nptxfempty interrupt */
2063:stm32f4xx-hal-driver/Src/stm32f4xx_ll_usb.c ****           USBx->GINTMSK |= USB_OTG_GINTMSK_NPTXFEM;
2064:stm32f4xx-hal-driver/Src/stm32f4xx_ll_usb.c ****         }
2065:stm32f4xx-hal-driver/Src/stm32f4xx_ll_usb.c ****         break;
2066:stm32f4xx-hal-driver/Src/stm32f4xx_ll_usb.c **** 
2067:stm32f4xx-hal-driver/Src/stm32f4xx_ll_usb.c ****       /* Periodic transfer */
2068:stm32f4xx-hal-driver/Src/stm32f4xx_ll_usb.c ****       case EP_TYPE_INTR:
2069:stm32f4xx-hal-driver/Src/stm32f4xx_ll_usb.c ****       case EP_TYPE_ISOC:
2070:stm32f4xx-hal-driver/Src/stm32f4xx_ll_usb.c ****         len_words = (uint16_t)((hc->xfer_len + 3U) / 4U);
2071:stm32f4xx-hal-driver/Src/stm32f4xx_ll_usb.c ****         /* check if there is enough space in FIFO space */
2072:stm32f4xx-hal-driver/Src/stm32f4xx_ll_usb.c ****         if (len_words > (USBx_HOST->HPTXSTS & 0xFFFFU)) /* split the transfer */
2073:stm32f4xx-hal-driver/Src/stm32f4xx_ll_usb.c ****         {
2074:stm32f4xx-hal-driver/Src/stm32f4xx_ll_usb.c ****           /* need to process data in ptxfempty interrupt */
2075:stm32f4xx-hal-driver/Src/stm32f4xx_ll_usb.c ****           USBx->GINTMSK |= USB_OTG_GINTMSK_PTXFEM;
ARM GAS  /tmp/ccXMuxQe.s 			page 134


2076:stm32f4xx-hal-driver/Src/stm32f4xx_ll_usb.c ****         }
2077:stm32f4xx-hal-driver/Src/stm32f4xx_ll_usb.c ****         break;
2078:stm32f4xx-hal-driver/Src/stm32f4xx_ll_usb.c **** 
2079:stm32f4xx-hal-driver/Src/stm32f4xx_ll_usb.c ****       default:
2080:stm32f4xx-hal-driver/Src/stm32f4xx_ll_usb.c ****         break;
2081:stm32f4xx-hal-driver/Src/stm32f4xx_ll_usb.c ****     }
2082:stm32f4xx-hal-driver/Src/stm32f4xx_ll_usb.c **** 
2083:stm32f4xx-hal-driver/Src/stm32f4xx_ll_usb.c ****     /* Write packet into the Tx FIFO. */
2084:stm32f4xx-hal-driver/Src/stm32f4xx_ll_usb.c ****     (void)USB_WritePacket(USBx, hc->xfer_buff, hc->ch_num, (uint16_t)hc->xfer_len, 0);
2085:stm32f4xx-hal-driver/Src/stm32f4xx_ll_usb.c ****   }
2086:stm32f4xx-hal-driver/Src/stm32f4xx_ll_usb.c **** 
2087:stm32f4xx-hal-driver/Src/stm32f4xx_ll_usb.c ****   return HAL_OK;
2088:stm32f4xx-hal-driver/Src/stm32f4xx_ll_usb.c **** }
2089:stm32f4xx-hal-driver/Src/stm32f4xx_ll_usb.c **** 
2090:stm32f4xx-hal-driver/Src/stm32f4xx_ll_usb.c **** /**
2091:stm32f4xx-hal-driver/Src/stm32f4xx_ll_usb.c ****   * @brief Read all host channel interrupts status
2092:stm32f4xx-hal-driver/Src/stm32f4xx_ll_usb.c ****   * @param  USBx  Selected device
2093:stm32f4xx-hal-driver/Src/stm32f4xx_ll_usb.c ****   * @retval HAL state
2094:stm32f4xx-hal-driver/Src/stm32f4xx_ll_usb.c ****   */
2095:stm32f4xx-hal-driver/Src/stm32f4xx_ll_usb.c **** uint32_t USB_HC_ReadInterrupt(const USB_OTG_GlobalTypeDef *USBx)
2096:stm32f4xx-hal-driver/Src/stm32f4xx_ll_usb.c **** {
 4431              		.loc 1 2096 1 is_stmt 1 view -0
 4432              		.cfi_startproc
 4433              		@ args = 0, pretend = 0, frame = 0
 4434              		@ frame_needed = 0, uses_anonymous_args = 0
 4435              		@ link register save eliminated.
2097:stm32f4xx-hal-driver/Src/stm32f4xx_ll_usb.c ****   uint32_t USBx_BASE = (uint32_t)USBx;
 4436              		.loc 1 2097 3 view .LVU1405
2098:stm32f4xx-hal-driver/Src/stm32f4xx_ll_usb.c **** 
2099:stm32f4xx-hal-driver/Src/stm32f4xx_ll_usb.c ****   return ((USBx_HOST->HAINT) & 0xFFFFU);
 4437              		.loc 1 2099 3 view .LVU1406
 4438              		.loc 1 2099 12 is_stmt 0 view .LVU1407
 4439 0000 00F58060 		add	r0, r0, #1024
 4440              	.LVL349:
 4441              		.loc 1 2099 21 view .LVU1408
 4442 0004 4069     		ldr	r0, [r0, #20]
 4443              	.LVL350:
2100:stm32f4xx-hal-driver/Src/stm32f4xx_ll_usb.c **** }
 4444              		.loc 1 2100 1 view .LVU1409
 4445 0006 80B2     		uxth	r0, r0
 4446 0008 7047     		bx	lr
 4447              		.cfi_endproc
 4448              	.LFE282:
 4450              		.section	.text.USB_HC_Halt,"ax",%progbits
 4451              		.align	1
 4452              		.global	USB_HC_Halt
 4453              		.syntax unified
 4454              		.thumb
 4455              		.thumb_func
 4456              		.fpu fpv4-sp-d16
 4458              	USB_HC_Halt:
 4459              	.LVL351:
 4460              	.LFB283:
2101:stm32f4xx-hal-driver/Src/stm32f4xx_ll_usb.c **** 
2102:stm32f4xx-hal-driver/Src/stm32f4xx_ll_usb.c **** /**
2103:stm32f4xx-hal-driver/Src/stm32f4xx_ll_usb.c ****   * @brief  Halt a host channel
2104:stm32f4xx-hal-driver/Src/stm32f4xx_ll_usb.c ****   * @param  USBx  Selected device
ARM GAS  /tmp/ccXMuxQe.s 			page 135


2105:stm32f4xx-hal-driver/Src/stm32f4xx_ll_usb.c ****   * @param  hc_num  Host Channel number
2106:stm32f4xx-hal-driver/Src/stm32f4xx_ll_usb.c ****   *         This parameter can be a value from 1 to 15
2107:stm32f4xx-hal-driver/Src/stm32f4xx_ll_usb.c ****   * @retval HAL state
2108:stm32f4xx-hal-driver/Src/stm32f4xx_ll_usb.c ****   */
2109:stm32f4xx-hal-driver/Src/stm32f4xx_ll_usb.c **** HAL_StatusTypeDef USB_HC_Halt(const USB_OTG_GlobalTypeDef *USBx, uint8_t hc_num)
2110:stm32f4xx-hal-driver/Src/stm32f4xx_ll_usb.c **** {
 4461              		.loc 1 2110 1 is_stmt 1 view -0
 4462              		.cfi_startproc
 4463              		@ args = 0, pretend = 0, frame = 8
 4464              		@ frame_needed = 0, uses_anonymous_args = 0
 4465              		@ link register save eliminated.
 4466              		.loc 1 2110 1 is_stmt 0 view .LVU1411
 4467 0000 70B4     		push	{r4, r5, r6}
 4468              	.LCFI67:
 4469              		.cfi_def_cfa_offset 12
 4470              		.cfi_offset 4, -12
 4471              		.cfi_offset 5, -8
 4472              		.cfi_offset 6, -4
 4473 0002 83B0     		sub	sp, sp, #12
 4474              	.LCFI68:
 4475              		.cfi_def_cfa_offset 24
2111:stm32f4xx-hal-driver/Src/stm32f4xx_ll_usb.c ****   uint32_t USBx_BASE = (uint32_t)USBx;
 4476              		.loc 1 2111 3 is_stmt 1 view .LVU1412
 4477              	.LVL352:
2112:stm32f4xx-hal-driver/Src/stm32f4xx_ll_usb.c ****   uint32_t hcnum = (uint32_t)hc_num;
 4478              		.loc 1 2112 3 view .LVU1413
2113:stm32f4xx-hal-driver/Src/stm32f4xx_ll_usb.c ****   __IO uint32_t count = 0U;
 4479              		.loc 1 2113 3 view .LVU1414
 4480              		.loc 1 2113 17 is_stmt 0 view .LVU1415
 4481 0004 0023     		movs	r3, #0
 4482 0006 0193     		str	r3, [sp, #4]
2114:stm32f4xx-hal-driver/Src/stm32f4xx_ll_usb.c ****   uint32_t HcEpType = (USBx_HC(hcnum)->HCCHAR & USB_OTG_HCCHAR_EPTYP) >> 18;
 4483              		.loc 1 2114 3 is_stmt 1 view .LVU1416
 4484              		.loc 1 2114 24 is_stmt 0 view .LVU1417
 4485 0008 00EB4111 		add	r1, r0, r1, lsl #5
 4486              	.LVL353:
 4487              		.loc 1 2114 24 view .LVU1418
 4488 000c 01F5A062 		add	r2, r1, #1280
 4489              		.loc 1 2114 38 view .LVU1419
 4490 0010 D1F80035 		ldr	r3, [r1, #1280]
 4491              		.loc 1 2114 12 view .LVU1420
 4492 0014 C3F38143 		ubfx	r3, r3, #18, #2
 4493              	.LVL354:
2115:stm32f4xx-hal-driver/Src/stm32f4xx_ll_usb.c ****   uint32_t ChannelEna = (USBx_HC(hcnum)->HCCHAR & USB_OTG_HCCHAR_CHENA) >> 31;
 4494              		.loc 1 2115 3 is_stmt 1 view .LVU1421
 4495              		.loc 1 2115 40 is_stmt 0 view .LVU1422
 4496 0018 D1F80055 		ldr	r5, [r1, #1280]
 4497              	.LVL355:
2116:stm32f4xx-hal-driver/Src/stm32f4xx_ll_usb.c ****   uint32_t SplitEna = (USBx_HC(hcnum)->HCSPLT & USB_OTG_HCSPLT_SPLITEN) >> 31;
 4498              		.loc 1 2116 3 is_stmt 1 view .LVU1423
 4499              		.loc 1 2116 38 is_stmt 0 view .LVU1424
 4500 001c 5468     		ldr	r4, [r2, #4]
 4501              	.LVL356:
2117:stm32f4xx-hal-driver/Src/stm32f4xx_ll_usb.c **** 
2118:stm32f4xx-hal-driver/Src/stm32f4xx_ll_usb.c ****   /* In buffer DMA, Channel disable must not be programmed for non-split periodic channels.
2119:stm32f4xx-hal-driver/Src/stm32f4xx_ll_usb.c ****      At the end of the next uframe/frame (in the worst case), the core generates a channel halted
2120:stm32f4xx-hal-driver/Src/stm32f4xx_ll_usb.c ****      and disables the channel automatically. */
ARM GAS  /tmp/ccXMuxQe.s 			page 136


2121:stm32f4xx-hal-driver/Src/stm32f4xx_ll_usb.c **** 
2122:stm32f4xx-hal-driver/Src/stm32f4xx_ll_usb.c ****   if ((((USBx->GAHBCFG & USB_OTG_GAHBCFG_DMAEN) == USB_OTG_GAHBCFG_DMAEN) && (SplitEna == 0U)) &&
 4502              		.loc 1 2122 3 is_stmt 1 view .LVU1425
 4503              		.loc 1 2122 14 is_stmt 0 view .LVU1426
 4504 001e 8668     		ldr	r6, [r0, #8]
 4505              		.loc 1 2122 6 view .LVU1427
 4506 0020 16F0200F 		tst	r6, #32
 4507 0024 08D0     		beq	.L289
 4508 0026 ED0F     		lsrs	r5, r5, #31
 4509              	.LVL357:
 4510              		.loc 1 2122 6 view .LVU1428
 4511 0028 E40F     		lsrs	r4, r4, #31
 4512              	.LVL358:
 4513              		.loc 1 2122 75 discriminator 1 view .LVU1429
 4514 002a 2CB9     		cbnz	r4, .L289
 4515              		.loc 1 2122 96 discriminator 2 view .LVU1430
 4516 002c 002D     		cmp	r5, #0
 4517 002e 5AD0     		beq	.L290
2123:stm32f4xx-hal-driver/Src/stm32f4xx_ll_usb.c ****       ((ChannelEna == 0U) || (((HcEpType == HCCHAR_ISOC) || (HcEpType == HCCHAR_INTR)))))
 4518              		.loc 1 2123 27 view .LVU1431
 4519 0030 012B     		cmp	r3, #1
 4520 0032 58D0     		beq	.L290
 4521              		.loc 1 2123 58 discriminator 1 view .LVU1432
 4522 0034 032B     		cmp	r3, #3
 4523 0036 56D0     		beq	.L290
 4524              	.LVL359:
 4525              	.L289:
2124:stm32f4xx-hal-driver/Src/stm32f4xx_ll_usb.c ****   {
2125:stm32f4xx-hal-driver/Src/stm32f4xx_ll_usb.c ****     return HAL_OK;
2126:stm32f4xx-hal-driver/Src/stm32f4xx_ll_usb.c ****   }
2127:stm32f4xx-hal-driver/Src/stm32f4xx_ll_usb.c **** 
2128:stm32f4xx-hal-driver/Src/stm32f4xx_ll_usb.c ****   /* Check for space in the request queue to issue the halt. */
2129:stm32f4xx-hal-driver/Src/stm32f4xx_ll_usb.c ****   if ((HcEpType == HCCHAR_CTRL) || (HcEpType == HCCHAR_BULK))
 4526              		.loc 1 2129 3 is_stmt 1 view .LVU1433
 4527              		.loc 1 2129 6 is_stmt 0 view .LVU1434
 4528 0038 1BB3     		cbz	r3, .L291
 4529              		.loc 1 2129 33 discriminator 1 view .LVU1435
 4530 003a 022B     		cmp	r3, #2
 4531 003c 21D0     		beq	.L291
2130:stm32f4xx-hal-driver/Src/stm32f4xx_ll_usb.c ****   {
2131:stm32f4xx-hal-driver/Src/stm32f4xx_ll_usb.c ****     USBx_HC(hcnum)->HCCHAR |= USB_OTG_HCCHAR_CHDIS;
2132:stm32f4xx-hal-driver/Src/stm32f4xx_ll_usb.c **** 
2133:stm32f4xx-hal-driver/Src/stm32f4xx_ll_usb.c ****     if ((USBx->GAHBCFG & USB_OTG_GAHBCFG_DMAEN) == 0U)
2134:stm32f4xx-hal-driver/Src/stm32f4xx_ll_usb.c ****     {
2135:stm32f4xx-hal-driver/Src/stm32f4xx_ll_usb.c ****       if ((USBx->HNPTXSTS & (0xFFU << 16)) == 0U)
2136:stm32f4xx-hal-driver/Src/stm32f4xx_ll_usb.c ****       {
2137:stm32f4xx-hal-driver/Src/stm32f4xx_ll_usb.c ****         USBx_HC(hcnum)->HCCHAR &= ~USB_OTG_HCCHAR_CHENA;
2138:stm32f4xx-hal-driver/Src/stm32f4xx_ll_usb.c ****         USBx_HC(hcnum)->HCCHAR |= USB_OTG_HCCHAR_CHENA;
2139:stm32f4xx-hal-driver/Src/stm32f4xx_ll_usb.c ****         do
2140:stm32f4xx-hal-driver/Src/stm32f4xx_ll_usb.c ****         {
2141:stm32f4xx-hal-driver/Src/stm32f4xx_ll_usb.c ****           count++;
2142:stm32f4xx-hal-driver/Src/stm32f4xx_ll_usb.c **** 
2143:stm32f4xx-hal-driver/Src/stm32f4xx_ll_usb.c ****           if (count > 1000U)
2144:stm32f4xx-hal-driver/Src/stm32f4xx_ll_usb.c ****           {
2145:stm32f4xx-hal-driver/Src/stm32f4xx_ll_usb.c ****             break;
2146:stm32f4xx-hal-driver/Src/stm32f4xx_ll_usb.c ****           }
2147:stm32f4xx-hal-driver/Src/stm32f4xx_ll_usb.c ****         } while ((USBx_HC(hcnum)->HCCHAR & USB_OTG_HCCHAR_CHENA) == USB_OTG_HCCHAR_CHENA);
ARM GAS  /tmp/ccXMuxQe.s 			page 137


2148:stm32f4xx-hal-driver/Src/stm32f4xx_ll_usb.c ****       }
2149:stm32f4xx-hal-driver/Src/stm32f4xx_ll_usb.c ****       else
2150:stm32f4xx-hal-driver/Src/stm32f4xx_ll_usb.c ****       {
2151:stm32f4xx-hal-driver/Src/stm32f4xx_ll_usb.c ****         USBx_HC(hcnum)->HCCHAR |= USB_OTG_HCCHAR_CHENA;
2152:stm32f4xx-hal-driver/Src/stm32f4xx_ll_usb.c ****       }
2153:stm32f4xx-hal-driver/Src/stm32f4xx_ll_usb.c ****     }
2154:stm32f4xx-hal-driver/Src/stm32f4xx_ll_usb.c ****     else
2155:stm32f4xx-hal-driver/Src/stm32f4xx_ll_usb.c ****     {
2156:stm32f4xx-hal-driver/Src/stm32f4xx_ll_usb.c ****       USBx_HC(hcnum)->HCCHAR |= USB_OTG_HCCHAR_CHENA;
2157:stm32f4xx-hal-driver/Src/stm32f4xx_ll_usb.c ****     }
2158:stm32f4xx-hal-driver/Src/stm32f4xx_ll_usb.c ****   }
2159:stm32f4xx-hal-driver/Src/stm32f4xx_ll_usb.c ****   else
2160:stm32f4xx-hal-driver/Src/stm32f4xx_ll_usb.c ****   {
2161:stm32f4xx-hal-driver/Src/stm32f4xx_ll_usb.c ****     USBx_HC(hcnum)->HCCHAR |= USB_OTG_HCCHAR_CHDIS;
 4532              		.loc 1 2161 5 is_stmt 1 view .LVU1436
 4533              		.loc 1 2161 28 is_stmt 0 view .LVU1437
 4534 003e D1F80035 		ldr	r3, [r1, #1280]
 4535              	.LVL360:
 4536              		.loc 1 2161 28 view .LVU1438
 4537 0042 43F08043 		orr	r3, r3, #1073741824
 4538 0046 C1F80035 		str	r3, [r1, #1280]
2162:stm32f4xx-hal-driver/Src/stm32f4xx_ll_usb.c **** 
2163:stm32f4xx-hal-driver/Src/stm32f4xx_ll_usb.c ****     if ((USBx_HOST->HPTXSTS & (0xFFU << 16)) == 0U)
 4539              		.loc 1 2163 5 is_stmt 1 view .LVU1439
 4540              		.loc 1 2163 19 is_stmt 0 view .LVU1440
 4541 004a D0F81034 		ldr	r3, [r0, #1040]
 4542              		.loc 1 2163 8 view .LVU1441
 4543 004e 13F47F0F 		tst	r3, #16711680
 4544 0052 4CD1     		bne	.L296
2164:stm32f4xx-hal-driver/Src/stm32f4xx_ll_usb.c ****     {
2165:stm32f4xx-hal-driver/Src/stm32f4xx_ll_usb.c ****       USBx_HC(hcnum)->HCCHAR &= ~USB_OTG_HCCHAR_CHENA;
 4545              		.loc 1 2165 7 is_stmt 1 view .LVU1442
 4546              		.loc 1 2165 30 is_stmt 0 view .LVU1443
 4547 0054 D1F80035 		ldr	r3, [r1, #1280]
 4548 0058 23F00043 		bic	r3, r3, #-2147483648
 4549 005c C1F80035 		str	r3, [r1, #1280]
2166:stm32f4xx-hal-driver/Src/stm32f4xx_ll_usb.c ****       USBx_HC(hcnum)->HCCHAR |= USB_OTG_HCCHAR_CHENA;
 4550              		.loc 1 2166 7 is_stmt 1 view .LVU1444
 4551              		.loc 1 2166 30 is_stmt 0 view .LVU1445
 4552 0060 D1F80035 		ldr	r3, [r1, #1280]
 4553 0064 43F00043 		orr	r3, r3, #-2147483648
 4554 0068 C1F80035 		str	r3, [r1, #1280]
 4555              	.L297:
2167:stm32f4xx-hal-driver/Src/stm32f4xx_ll_usb.c ****       do
 4556              		.loc 1 2167 7 is_stmt 1 view .LVU1446
2168:stm32f4xx-hal-driver/Src/stm32f4xx_ll_usb.c ****       {
2169:stm32f4xx-hal-driver/Src/stm32f4xx_ll_usb.c ****         count++;
 4557              		.loc 1 2169 9 view .LVU1447
 4558              		.loc 1 2169 14 is_stmt 0 view .LVU1448
 4559 006c 019B     		ldr	r3, [sp, #4]
 4560 006e 0133     		adds	r3, r3, #1
 4561 0070 0193     		str	r3, [sp, #4]
2170:stm32f4xx-hal-driver/Src/stm32f4xx_ll_usb.c **** 
2171:stm32f4xx-hal-driver/Src/stm32f4xx_ll_usb.c ****         if (count > 1000U)
 4562              		.loc 1 2171 9 is_stmt 1 view .LVU1449
 4563              		.loc 1 2171 19 is_stmt 0 view .LVU1450
 4564 0072 019B     		ldr	r3, [sp, #4]
ARM GAS  /tmp/ccXMuxQe.s 			page 138


 4565              		.loc 1 2171 12 view .LVU1451
 4566 0074 B3F57A7F 		cmp	r3, #1000
 4567 0078 35D8     		bhi	.L290
2172:stm32f4xx-hal-driver/Src/stm32f4xx_ll_usb.c ****         {
2173:stm32f4xx-hal-driver/Src/stm32f4xx_ll_usb.c ****           break;
2174:stm32f4xx-hal-driver/Src/stm32f4xx_ll_usb.c ****         }
2175:stm32f4xx-hal-driver/Src/stm32f4xx_ll_usb.c ****       } while ((USBx_HC(hcnum)->HCCHAR & USB_OTG_HCCHAR_CHENA) == USB_OTG_HCCHAR_CHENA);
 4568              		.loc 1 2175 15 is_stmt 1 view .LVU1452
 4569              		.loc 1 2175 31 is_stmt 0 view .LVU1453
 4570 007a 1368     		ldr	r3, [r2]
 4571              		.loc 1 2175 7 view .LVU1454
 4572 007c 002B     		cmp	r3, #0
 4573 007e F5DB     		blt	.L297
 4574 0080 31E0     		b	.L290
 4575              	.LVL361:
 4576              	.L291:
2131:stm32f4xx-hal-driver/Src/stm32f4xx_ll_usb.c **** 
 4577              		.loc 1 2131 5 is_stmt 1 view .LVU1455
2131:stm32f4xx-hal-driver/Src/stm32f4xx_ll_usb.c **** 
 4578              		.loc 1 2131 28 is_stmt 0 view .LVU1456
 4579 0082 D1F80035 		ldr	r3, [r1, #1280]
 4580              	.LVL362:
2131:stm32f4xx-hal-driver/Src/stm32f4xx_ll_usb.c **** 
 4581              		.loc 1 2131 28 view .LVU1457
 4582 0086 43F08043 		orr	r3, r3, #1073741824
 4583 008a C1F80035 		str	r3, [r1, #1280]
2133:stm32f4xx-hal-driver/Src/stm32f4xx_ll_usb.c ****     {
 4584              		.loc 1 2133 5 is_stmt 1 view .LVU1458
2133:stm32f4xx-hal-driver/Src/stm32f4xx_ll_usb.c ****     {
 4585              		.loc 1 2133 14 is_stmt 0 view .LVU1459
 4586 008e 8368     		ldr	r3, [r0, #8]
2133:stm32f4xx-hal-driver/Src/stm32f4xx_ll_usb.c ****     {
 4587              		.loc 1 2133 8 view .LVU1460
 4588 0090 13F0200F 		tst	r3, #32
 4589 0094 21D1     		bne	.L293
2135:stm32f4xx-hal-driver/Src/stm32f4xx_ll_usb.c ****       {
 4590              		.loc 1 2135 7 is_stmt 1 view .LVU1461
2135:stm32f4xx-hal-driver/Src/stm32f4xx_ll_usb.c ****       {
 4591              		.loc 1 2135 16 is_stmt 0 view .LVU1462
 4592 0096 C36A     		ldr	r3, [r0, #44]
2135:stm32f4xx-hal-driver/Src/stm32f4xx_ll_usb.c ****       {
 4593              		.loc 1 2135 10 view .LVU1463
 4594 0098 13F47F0F 		tst	r3, #16711680
 4595 009c 16D1     		bne	.L294
2137:stm32f4xx-hal-driver/Src/stm32f4xx_ll_usb.c ****         USBx_HC(hcnum)->HCCHAR |= USB_OTG_HCCHAR_CHENA;
 4596              		.loc 1 2137 9 is_stmt 1 view .LVU1464
2137:stm32f4xx-hal-driver/Src/stm32f4xx_ll_usb.c ****         USBx_HC(hcnum)->HCCHAR |= USB_OTG_HCCHAR_CHENA;
 4597              		.loc 1 2137 32 is_stmt 0 view .LVU1465
 4598 009e D1F80035 		ldr	r3, [r1, #1280]
 4599 00a2 23F00043 		bic	r3, r3, #-2147483648
 4600 00a6 C1F80035 		str	r3, [r1, #1280]
2138:stm32f4xx-hal-driver/Src/stm32f4xx_ll_usb.c ****         do
 4601              		.loc 1 2138 9 is_stmt 1 view .LVU1466
2138:stm32f4xx-hal-driver/Src/stm32f4xx_ll_usb.c ****         do
 4602              		.loc 1 2138 32 is_stmt 0 view .LVU1467
 4603 00aa D1F80035 		ldr	r3, [r1, #1280]
 4604 00ae 43F00043 		orr	r3, r3, #-2147483648
ARM GAS  /tmp/ccXMuxQe.s 			page 139


 4605 00b2 C1F80035 		str	r3, [r1, #1280]
 4606              	.L295:
2139:stm32f4xx-hal-driver/Src/stm32f4xx_ll_usb.c ****         {
 4607              		.loc 1 2139 9 is_stmt 1 view .LVU1468
2141:stm32f4xx-hal-driver/Src/stm32f4xx_ll_usb.c **** 
 4608              		.loc 1 2141 11 view .LVU1469
2141:stm32f4xx-hal-driver/Src/stm32f4xx_ll_usb.c **** 
 4609              		.loc 1 2141 16 is_stmt 0 view .LVU1470
 4610 00b6 019B     		ldr	r3, [sp, #4]
 4611 00b8 0133     		adds	r3, r3, #1
 4612 00ba 0193     		str	r3, [sp, #4]
2143:stm32f4xx-hal-driver/Src/stm32f4xx_ll_usb.c ****           {
 4613              		.loc 1 2143 11 is_stmt 1 view .LVU1471
2143:stm32f4xx-hal-driver/Src/stm32f4xx_ll_usb.c ****           {
 4614              		.loc 1 2143 21 is_stmt 0 view .LVU1472
 4615 00bc 019B     		ldr	r3, [sp, #4]
2143:stm32f4xx-hal-driver/Src/stm32f4xx_ll_usb.c ****           {
 4616              		.loc 1 2143 14 view .LVU1473
 4617 00be B3F57A7F 		cmp	r3, #1000
 4618 00c2 10D8     		bhi	.L290
2147:stm32f4xx-hal-driver/Src/stm32f4xx_ll_usb.c ****       }
 4619              		.loc 1 2147 17 is_stmt 1 view .LVU1474
2147:stm32f4xx-hal-driver/Src/stm32f4xx_ll_usb.c ****       }
 4620              		.loc 1 2147 33 is_stmt 0 view .LVU1475
 4621 00c4 1368     		ldr	r3, [r2]
2147:stm32f4xx-hal-driver/Src/stm32f4xx_ll_usb.c ****       }
 4622              		.loc 1 2147 9 view .LVU1476
 4623 00c6 002B     		cmp	r3, #0
 4624 00c8 F5DB     		blt	.L295
 4625 00ca 0CE0     		b	.L290
 4626              	.L294:
2151:stm32f4xx-hal-driver/Src/stm32f4xx_ll_usb.c ****       }
 4627              		.loc 1 2151 9 is_stmt 1 view .LVU1477
2151:stm32f4xx-hal-driver/Src/stm32f4xx_ll_usb.c ****       }
 4628              		.loc 1 2151 32 is_stmt 0 view .LVU1478
 4629 00cc D1F80035 		ldr	r3, [r1, #1280]
 4630 00d0 43F00043 		orr	r3, r3, #-2147483648
 4631 00d4 C1F80035 		str	r3, [r1, #1280]
 4632 00d8 05E0     		b	.L290
 4633              	.L293:
2156:stm32f4xx-hal-driver/Src/stm32f4xx_ll_usb.c ****     }
 4634              		.loc 1 2156 7 is_stmt 1 view .LVU1479
2156:stm32f4xx-hal-driver/Src/stm32f4xx_ll_usb.c ****     }
 4635              		.loc 1 2156 30 is_stmt 0 view .LVU1480
 4636 00da D1F80035 		ldr	r3, [r1, #1280]
 4637 00de 43F00043 		orr	r3, r3, #-2147483648
 4638 00e2 C1F80035 		str	r3, [r1, #1280]
 4639              	.L290:
2176:stm32f4xx-hal-driver/Src/stm32f4xx_ll_usb.c ****     }
2177:stm32f4xx-hal-driver/Src/stm32f4xx_ll_usb.c ****     else
2178:stm32f4xx-hal-driver/Src/stm32f4xx_ll_usb.c ****     {
2179:stm32f4xx-hal-driver/Src/stm32f4xx_ll_usb.c ****       USBx_HC(hcnum)->HCCHAR |= USB_OTG_HCCHAR_CHENA;
2180:stm32f4xx-hal-driver/Src/stm32f4xx_ll_usb.c ****     }
2181:stm32f4xx-hal-driver/Src/stm32f4xx_ll_usb.c ****   }
2182:stm32f4xx-hal-driver/Src/stm32f4xx_ll_usb.c **** 
2183:stm32f4xx-hal-driver/Src/stm32f4xx_ll_usb.c ****   return HAL_OK;
2184:stm32f4xx-hal-driver/Src/stm32f4xx_ll_usb.c **** }
ARM GAS  /tmp/ccXMuxQe.s 			page 140


 4640              		.loc 1 2184 1 view .LVU1481
 4641 00e6 0020     		movs	r0, #0
 4642              	.LVL363:
 4643              		.loc 1 2184 1 view .LVU1482
 4644 00e8 03B0     		add	sp, sp, #12
 4645              	.LCFI69:
 4646              		.cfi_remember_state
 4647              		.cfi_def_cfa_offset 12
 4648              		@ sp needed
 4649 00ea 70BC     		pop	{r4, r5, r6}
 4650              	.LCFI70:
 4651              		.cfi_restore 6
 4652              		.cfi_restore 5
 4653              		.cfi_restore 4
 4654              		.cfi_def_cfa_offset 0
 4655 00ec 7047     		bx	lr
 4656              	.LVL364:
 4657              	.L296:
 4658              	.LCFI71:
 4659              		.cfi_restore_state
2179:stm32f4xx-hal-driver/Src/stm32f4xx_ll_usb.c ****     }
 4660              		.loc 1 2179 7 is_stmt 1 view .LVU1483
2179:stm32f4xx-hal-driver/Src/stm32f4xx_ll_usb.c ****     }
 4661              		.loc 1 2179 30 is_stmt 0 view .LVU1484
 4662 00ee D1F80035 		ldr	r3, [r1, #1280]
 4663 00f2 43F00043 		orr	r3, r3, #-2147483648
 4664 00f6 C1F80035 		str	r3, [r1, #1280]
 4665 00fa F4E7     		b	.L290
 4666              		.cfi_endproc
 4667              	.LFE283:
 4669              		.section	.text.USB_DoPing,"ax",%progbits
 4670              		.align	1
 4671              		.global	USB_DoPing
 4672              		.syntax unified
 4673              		.thumb
 4674              		.thumb_func
 4675              		.fpu fpv4-sp-d16
 4677              	USB_DoPing:
 4678              	.LVL365:
 4679              	.LFB284:
2185:stm32f4xx-hal-driver/Src/stm32f4xx_ll_usb.c **** 
2186:stm32f4xx-hal-driver/Src/stm32f4xx_ll_usb.c **** /**
2187:stm32f4xx-hal-driver/Src/stm32f4xx_ll_usb.c ****   * @brief  Initiate Do Ping protocol
2188:stm32f4xx-hal-driver/Src/stm32f4xx_ll_usb.c ****   * @param  USBx  Selected device
2189:stm32f4xx-hal-driver/Src/stm32f4xx_ll_usb.c ****   * @param  hc_num  Host Channel number
2190:stm32f4xx-hal-driver/Src/stm32f4xx_ll_usb.c ****   *         This parameter can be a value from 1 to 15
2191:stm32f4xx-hal-driver/Src/stm32f4xx_ll_usb.c ****   * @retval HAL state
2192:stm32f4xx-hal-driver/Src/stm32f4xx_ll_usb.c ****   */
2193:stm32f4xx-hal-driver/Src/stm32f4xx_ll_usb.c **** HAL_StatusTypeDef USB_DoPing(const USB_OTG_GlobalTypeDef *USBx, uint8_t ch_num)
2194:stm32f4xx-hal-driver/Src/stm32f4xx_ll_usb.c **** {
 4680              		.loc 1 2194 1 is_stmt 1 view -0
 4681              		.cfi_startproc
 4682              		@ args = 0, pretend = 0, frame = 0
 4683              		@ frame_needed = 0, uses_anonymous_args = 0
 4684              		@ link register save eliminated.
2195:stm32f4xx-hal-driver/Src/stm32f4xx_ll_usb.c ****   uint32_t USBx_BASE = (uint32_t)USBx;
 4685              		.loc 1 2195 3 view .LVU1486
ARM GAS  /tmp/ccXMuxQe.s 			page 141


2196:stm32f4xx-hal-driver/Src/stm32f4xx_ll_usb.c ****   uint32_t chnum = (uint32_t)ch_num;
 4686              		.loc 1 2196 3 view .LVU1487
2197:stm32f4xx-hal-driver/Src/stm32f4xx_ll_usb.c ****   uint32_t num_packets = 1U;
 4687              		.loc 1 2197 3 view .LVU1488
2198:stm32f4xx-hal-driver/Src/stm32f4xx_ll_usb.c ****   uint32_t tmpreg;
 4688              		.loc 1 2198 3 view .LVU1489
2199:stm32f4xx-hal-driver/Src/stm32f4xx_ll_usb.c **** 
2200:stm32f4xx-hal-driver/Src/stm32f4xx_ll_usb.c ****   USBx_HC(chnum)->HCTSIZ = ((num_packets << 19) & USB_OTG_HCTSIZ_PKTCNT) |
 4689              		.loc 1 2200 3 view .LVU1490
 4690 0000 00EB4111 		add	r1, r0, r1, lsl #5
 4691              	.LVL366:
 4692              		.loc 1 2200 26 is_stmt 0 view .LVU1491
 4693 0004 064A     		ldr	r2, .L300
 4694 0006 C1F81025 		str	r2, [r1, #1296]
2201:stm32f4xx-hal-driver/Src/stm32f4xx_ll_usb.c ****                            USB_OTG_HCTSIZ_DOPING;
2202:stm32f4xx-hal-driver/Src/stm32f4xx_ll_usb.c **** 
2203:stm32f4xx-hal-driver/Src/stm32f4xx_ll_usb.c ****   /* Set host channel enable */
2204:stm32f4xx-hal-driver/Src/stm32f4xx_ll_usb.c ****   tmpreg = USBx_HC(chnum)->HCCHAR;
 4695              		.loc 1 2204 3 is_stmt 1 view .LVU1492
 4696              		.loc 1 2204 10 is_stmt 0 view .LVU1493
 4697 000a D1F80035 		ldr	r3, [r1, #1280]
 4698              	.LVL367:
2205:stm32f4xx-hal-driver/Src/stm32f4xx_ll_usb.c ****   tmpreg &= ~USB_OTG_HCCHAR_CHDIS;
 4699              		.loc 1 2205 3 is_stmt 1 view .LVU1494
 4700              		.loc 1 2205 10 is_stmt 0 view .LVU1495
 4701 000e 23F08043 		bic	r3, r3, #1073741824
 4702              	.LVL368:
2206:stm32f4xx-hal-driver/Src/stm32f4xx_ll_usb.c ****   tmpreg |= USB_OTG_HCCHAR_CHENA;
 4703              		.loc 1 2206 3 is_stmt 1 view .LVU1496
 4704              		.loc 1 2206 10 is_stmt 0 view .LVU1497
 4705 0012 43F00043 		orr	r3, r3, #-2147483648
 4706              	.LVL369:
2207:stm32f4xx-hal-driver/Src/stm32f4xx_ll_usb.c ****   USBx_HC(chnum)->HCCHAR = tmpreg;
 4707              		.loc 1 2207 3 is_stmt 1 view .LVU1498
 4708              		.loc 1 2207 26 is_stmt 0 view .LVU1499
 4709 0016 C1F80035 		str	r3, [r1, #1280]
2208:stm32f4xx-hal-driver/Src/stm32f4xx_ll_usb.c **** 
2209:stm32f4xx-hal-driver/Src/stm32f4xx_ll_usb.c ****   return HAL_OK;
 4710              		.loc 1 2209 3 is_stmt 1 view .LVU1500
2210:stm32f4xx-hal-driver/Src/stm32f4xx_ll_usb.c **** }
 4711              		.loc 1 2210 1 is_stmt 0 view .LVU1501
 4712 001a 0020     		movs	r0, #0
 4713              	.LVL370:
 4714              		.loc 1 2210 1 view .LVU1502
 4715 001c 7047     		bx	lr
 4716              	.L301:
 4717 001e 00BF     		.align	2
 4718              	.L300:
 4719 0020 00000880 		.word	-2146959360
 4720              		.cfi_endproc
 4721              	.LFE284:
 4723              		.section	.text.USB_HC_StartXfer,"ax",%progbits
 4724              		.align	1
 4725              		.global	USB_HC_StartXfer
 4726              		.syntax unified
 4727              		.thumb
 4728              		.thumb_func
ARM GAS  /tmp/ccXMuxQe.s 			page 142


 4729              		.fpu fpv4-sp-d16
 4731              	USB_HC_StartXfer:
 4732              	.LVL371:
 4733              	.LFB281:
1833:stm32f4xx-hal-driver/Src/stm32f4xx_ll_usb.c ****   uint32_t USBx_BASE = (uint32_t)USBx;
 4734              		.loc 1 1833 1 is_stmt 1 view -0
 4735              		.cfi_startproc
 4736              		@ args = 0, pretend = 0, frame = 8
 4737              		@ frame_needed = 0, uses_anonymous_args = 0
1833:stm32f4xx-hal-driver/Src/stm32f4xx_ll_usb.c ****   uint32_t USBx_BASE = (uint32_t)USBx;
 4738              		.loc 1 1833 1 is_stmt 0 view .LVU1504
 4739 0000 F0B5     		push	{r4, r5, r6, r7, lr}
 4740              	.LCFI72:
 4741              		.cfi_def_cfa_offset 20
 4742              		.cfi_offset 4, -20
 4743              		.cfi_offset 5, -16
 4744              		.cfi_offset 6, -12
 4745              		.cfi_offset 7, -8
 4746              		.cfi_offset 14, -4
 4747 0002 85B0     		sub	sp, sp, #20
 4748              	.LCFI73:
 4749              		.cfi_def_cfa_offset 40
1834:stm32f4xx-hal-driver/Src/stm32f4xx_ll_usb.c ****   uint32_t ch_num = (uint32_t)hc->ch_num;
 4750              		.loc 1 1834 3 is_stmt 1 view .LVU1505
 4751              	.LVL372:
1835:stm32f4xx-hal-driver/Src/stm32f4xx_ll_usb.c ****   __IO uint32_t tmpreg;
 4752              		.loc 1 1835 3 view .LVU1506
1835:stm32f4xx-hal-driver/Src/stm32f4xx_ll_usb.c ****   __IO uint32_t tmpreg;
 4753              		.loc 1 1835 33 is_stmt 0 view .LVU1507
 4754 0004 4B78     		ldrb	r3, [r1, #1]	@ zero_extendqisi2
 4755              	.LVL373:
1836:stm32f4xx-hal-driver/Src/stm32f4xx_ll_usb.c ****   uint8_t  is_oddframe;
 4756              		.loc 1 1836 3 is_stmt 1 view .LVU1508
1837:stm32f4xx-hal-driver/Src/stm32f4xx_ll_usb.c ****   uint16_t len_words;
 4757              		.loc 1 1837 3 view .LVU1509
1838:stm32f4xx-hal-driver/Src/stm32f4xx_ll_usb.c ****   uint16_t num_packets;
 4758              		.loc 1 1838 3 view .LVU1510
1839:stm32f4xx-hal-driver/Src/stm32f4xx_ll_usb.c ****   uint16_t max_hc_pkt_count = HC_MAX_PKT_CNT;
 4759              		.loc 1 1839 3 view .LVU1511
1840:stm32f4xx-hal-driver/Src/stm32f4xx_ll_usb.c **** 
 4760              		.loc 1 1840 3 view .LVU1512
1843:stm32f4xx-hal-driver/Src/stm32f4xx_ll_usb.c ****   {
 4761              		.loc 1 1843 3 view .LVU1513
1843:stm32f4xx-hal-driver/Src/stm32f4xx_ll_usb.c ****   {
 4762              		.loc 1 1843 6 is_stmt 0 view .LVU1514
 4763 0006 994C     		ldr	r4, .L345
 4764 0008 A042     		cmp	r0, r4
 4765 000a 11D0     		beq	.L337
 4766              	.L303:
1867:stm32f4xx-hal-driver/Src/stm32f4xx_ll_usb.c ****   {
 4767              		.loc 1 1867 3 is_stmt 1 view .LVU1515
1867:stm32f4xx-hal-driver/Src/stm32f4xx_ll_usb.c ****   {
 4768              		.loc 1 1867 9 is_stmt 0 view .LVU1516
 4769 000c 8C79     		ldrb	r4, [r1, #6]	@ zero_extendqisi2
1867:stm32f4xx-hal-driver/Src/stm32f4xx_ll_usb.c ****   {
 4770              		.loc 1 1867 6 view .LVU1517
 4771 000e 012C     		cmp	r4, #1
ARM GAS  /tmp/ccXMuxQe.s 			page 143


 4772 0010 28D0     		beq	.L338
1925:stm32f4xx-hal-driver/Src/stm32f4xx_ll_usb.c ****     {
 4773              		.loc 1 1925 5 is_stmt 1 view .LVU1518
1925:stm32f4xx-hal-driver/Src/stm32f4xx_ll_usb.c ****     {
 4774              		.loc 1 1925 11 is_stmt 0 view .LVU1519
 4775 0012 0E6A     		ldr	r6, [r1, #32]
1925:stm32f4xx-hal-driver/Src/stm32f4xx_ll_usb.c ****     {
 4776              		.loc 1 1925 8 view .LVU1520
 4777 0014 002E     		cmp	r6, #0
 4778 0016 59D0     		beq	.L334
1927:stm32f4xx-hal-driver/Src/stm32f4xx_ll_usb.c **** 
 4779              		.loc 1 1927 7 is_stmt 1 view .LVU1521
1927:stm32f4xx-hal-driver/Src/stm32f4xx_ll_usb.c **** 
 4780              		.loc 1 1927 50 is_stmt 0 view .LVU1522
 4781 0018 8C8A     		ldrh	r4, [r1, #20]
1927:stm32f4xx-hal-driver/Src/stm32f4xx_ll_usb.c **** 
 4782              		.loc 1 1927 46 view .LVU1523
 4783 001a 3519     		adds	r5, r6, r4
1927:stm32f4xx-hal-driver/Src/stm32f4xx_ll_usb.c **** 
 4784              		.loc 1 1927 63 view .LVU1524
 4785 001c 013D     		subs	r5, r5, #1
1927:stm32f4xx-hal-driver/Src/stm32f4xx_ll_usb.c **** 
 4786              		.loc 1 1927 69 view .LVU1525
 4787 001e B5FBF4F5 		udiv	r5, r5, r4
1927:stm32f4xx-hal-driver/Src/stm32f4xx_ll_usb.c **** 
 4788              		.loc 1 1927 19 view .LVU1526
 4789 0022 ADB2     		uxth	r5, r5
 4790              	.LVL374:
1929:stm32f4xx-hal-driver/Src/stm32f4xx_ll_usb.c ****       {
 4791              		.loc 1 1929 7 is_stmt 1 view .LVU1527
1929:stm32f4xx-hal-driver/Src/stm32f4xx_ll_usb.c ****       {
 4792              		.loc 1 1929 10 is_stmt 0 view .LVU1528
 4793 0024 B5F5807F 		cmp	r5, #256
 4794 0028 51D9     		bls	.L315
1931:stm32f4xx-hal-driver/Src/stm32f4xx_ll_usb.c ****         hc->XferSize = (uint32_t)num_packets * hc->max_packet;
 4795              		.loc 1 1931 21 view .LVU1529
 4796 002a 4FF48075 		mov	r5, #256
 4797              	.LVL375:
1931:stm32f4xx-hal-driver/Src/stm32f4xx_ll_usb.c ****         hc->XferSize = (uint32_t)num_packets * hc->max_packet;
 4798              		.loc 1 1931 21 view .LVU1530
 4799 002e 4EE0     		b	.L315
 4800              	.LVL376:
 4801              	.L337:
1846:stm32f4xx-hal-driver/Src/stm32f4xx_ll_usb.c ****     {
 4802              		.loc 1 1846 5 is_stmt 1 view .LVU1531
1846:stm32f4xx-hal-driver/Src/stm32f4xx_ll_usb.c ****     {
 4803              		.loc 1 1846 8 is_stmt 0 view .LVU1532
 4804 0030 012A     		cmp	r2, #1
 4805 0032 07D0     		beq	.L339
1858:stm32f4xx-hal-driver/Src/stm32f4xx_ll_usb.c ****       {
 4806              		.loc 1 1858 7 is_stmt 1 view .LVU1533
1858:stm32f4xx-hal-driver/Src/stm32f4xx_ll_usb.c ****       {
 4807              		.loc 1 1858 40 is_stmt 0 view .LVU1534
 4808 0034 8C88     		ldrh	r4, [r1, #4]
1858:stm32f4xx-hal-driver/Src/stm32f4xx_ll_usb.c ****       {
 4809              		.loc 1 1858 10 view .LVU1535
 4810 0036 B4F5807F 		cmp	r4, #256
ARM GAS  /tmp/ccXMuxQe.s 			page 144


 4811 003a E7D1     		bne	.L303
1860:stm32f4xx-hal-driver/Src/stm32f4xx_ll_usb.c ****         return HAL_OK;
 4812              		.loc 1 1860 9 is_stmt 1 view .LVU1536
1860:stm32f4xx-hal-driver/Src/stm32f4xx_ll_usb.c ****         return HAL_OK;
 4813              		.loc 1 1860 15 is_stmt 0 view .LVU1537
 4814 003c 1946     		mov	r1, r3
 4815              	.LVL377:
1860:stm32f4xx-hal-driver/Src/stm32f4xx_ll_usb.c ****         return HAL_OK;
 4816              		.loc 1 1860 15 view .LVU1538
 4817 003e FFF7FEFF 		bl	USB_DoPing
 4818              	.LVL378:
1861:stm32f4xx-hal-driver/Src/stm32f4xx_ll_usb.c ****       }
 4819              		.loc 1 1861 9 is_stmt 1 view .LVU1539
1861:stm32f4xx-hal-driver/Src/stm32f4xx_ll_usb.c ****       }
 4820              		.loc 1 1861 16 is_stmt 0 view .LVU1540
 4821 0042 04E1     		b	.L306
 4822              	.LVL379:
 4823              	.L339:
1848:stm32f4xx-hal-driver/Src/stm32f4xx_ll_usb.c ****       {
 4824              		.loc 1 1848 7 is_stmt 1 view .LVU1541
1848:stm32f4xx-hal-driver/Src/stm32f4xx_ll_usb.c ****       {
 4825              		.loc 1 1848 15 is_stmt 0 view .LVU1542
 4826 0044 8C7C     		ldrb	r4, [r1, #18]	@ zero_extendqisi2
1848:stm32f4xx-hal-driver/Src/stm32f4xx_ll_usb.c ****       {
 4827              		.loc 1 1848 10 view .LVU1543
 4828 0046 0CB1     		cbz	r4, .L305
1848:stm32f4xx-hal-driver/Src/stm32f4xx_ll_usb.c ****       {
 4829              		.loc 1 1848 42 discriminator 2 view .LVU1544
 4830 0048 022C     		cmp	r4, #2
 4831 004a DFD1     		bne	.L303
 4832              	.L305:
1848:stm32f4xx-hal-driver/Src/stm32f4xx_ll_usb.c ****       {
 4833              		.loc 1 1848 82 discriminator 3 view .LVU1545
 4834 004c 8C79     		ldrb	r4, [r1, #6]	@ zero_extendqisi2
1848:stm32f4xx-hal-driver/Src/stm32f4xx_ll_usb.c ****       {
 4835              		.loc 1 1848 76 discriminator 3 view .LVU1546
 4836 004e 002C     		cmp	r4, #0
 4837 0050 DCD1     		bne	.L303
1851:stm32f4xx-hal-driver/Src/stm32f4xx_ll_usb.c ****                                                  USB_OTG_HCINTMSK_ACKM |
 4838              		.loc 1 1851 9 is_stmt 1 view .LVU1547
1851:stm32f4xx-hal-driver/Src/stm32f4xx_ll_usb.c ****                                                  USB_OTG_HCINTMSK_ACKM |
 4839              		.loc 1 1851 45 is_stmt 0 view .LVU1548
 4840 0052 00EB4314 		add	r4, r0, r3, lsl #5
 4841 0056 D4F80C55 		ldr	r5, [r4, #1292]
 4842 005a 25F07005 		bic	r5, r5, #112
 4843 005e C4F80C55 		str	r5, [r4, #1292]
 4844 0062 D3E7     		b	.L303
 4845              	.L338:
1870:stm32f4xx-hal-driver/Src/stm32f4xx_ll_usb.c **** 
 4846              		.loc 1 1870 5 is_stmt 1 view .LVU1549
 4847              	.LVL380:
1872:stm32f4xx-hal-driver/Src/stm32f4xx_ll_usb.c ****     {
 4848              		.loc 1 1872 5 view .LVU1550
1872:stm32f4xx-hal-driver/Src/stm32f4xx_ll_usb.c ****     {
 4849              		.loc 1 1872 11 is_stmt 0 view .LVU1551
 4850 0064 CC78     		ldrb	r4, [r1, #3]	@ zero_extendqisi2
1872:stm32f4xx-hal-driver/Src/stm32f4xx_ll_usb.c ****     {
ARM GAS  /tmp/ccXMuxQe.s 			page 145


 4851              		.loc 1 1872 8 view .LVU1552
 4852 0066 1CB1     		cbz	r4, .L308
1874:stm32f4xx-hal-driver/Src/stm32f4xx_ll_usb.c ****     }
 4853              		.loc 1 1874 7 is_stmt 1 view .LVU1553
1874:stm32f4xx-hal-driver/Src/stm32f4xx_ll_usb.c ****     }
 4854              		.loc 1 1874 48 is_stmt 0 view .LVU1554
 4855 0068 8C8A     		ldrh	r4, [r1, #20]
1874:stm32f4xx-hal-driver/Src/stm32f4xx_ll_usb.c ****     }
 4856              		.loc 1 1874 20 view .LVU1555
 4857 006a CC61     		str	r4, [r1, #28]
1870:stm32f4xx-hal-driver/Src/stm32f4xx_ll_usb.c **** 
 4858              		.loc 1 1870 17 view .LVU1556
 4859 006c 0125     		movs	r5, #1
 4860 006e 35E0     		b	.L309
 4861              	.L308:
1878:stm32f4xx-hal-driver/Src/stm32f4xx_ll_usb.c ****       {
 4862              		.loc 1 1878 7 is_stmt 1 view .LVU1557
1878:stm32f4xx-hal-driver/Src/stm32f4xx_ll_usb.c ****       {
 4863              		.loc 1 1878 13 is_stmt 0 view .LVU1558
 4864 0070 8C7C     		ldrb	r4, [r1, #18]	@ zero_extendqisi2
1878:stm32f4xx-hal-driver/Src/stm32f4xx_ll_usb.c ****       {
 4865              		.loc 1 1878 10 view .LVU1559
 4866 0072 012C     		cmp	r4, #1
 4867 0074 05D0     		beq	.L340
1911:stm32f4xx-hal-driver/Src/stm32f4xx_ll_usb.c ****         {
 4868              		.loc 1 1911 9 is_stmt 1 view .LVU1560
1911:stm32f4xx-hal-driver/Src/stm32f4xx_ll_usb.c ****         {
 4869              		.loc 1 1911 12 is_stmt 0 view .LVU1561
 4870 0076 012A     		cmp	r2, #1
 4871 0078 21D0     		beq	.L341
 4872              	.L314:
1917:stm32f4xx-hal-driver/Src/stm32f4xx_ll_usb.c ****         }
 4873              		.loc 1 1917 11 is_stmt 1 view .LVU1562
1917:stm32f4xx-hal-driver/Src/stm32f4xx_ll_usb.c ****         }
 4874              		.loc 1 1917 28 is_stmt 0 view .LVU1563
 4875 007a 0C6A     		ldr	r4, [r1, #32]
1917:stm32f4xx-hal-driver/Src/stm32f4xx_ll_usb.c ****         }
 4876              		.loc 1 1917 24 view .LVU1564
 4877 007c CC61     		str	r4, [r1, #28]
1870:stm32f4xx-hal-driver/Src/stm32f4xx_ll_usb.c **** 
 4878              		.loc 1 1870 17 view .LVU1565
 4879 007e 0125     		movs	r5, #1
 4880 0080 2CE0     		b	.L309
 4881              	.L340:
1880:stm32f4xx-hal-driver/Src/stm32f4xx_ll_usb.c ****         {
 4882              		.loc 1 1880 9 is_stmt 1 view .LVU1566
1880:stm32f4xx-hal-driver/Src/stm32f4xx_ll_usb.c ****         {
 4883              		.loc 1 1880 15 is_stmt 0 view .LVU1567
 4884 0082 0C6A     		ldr	r4, [r1, #32]
1880:stm32f4xx-hal-driver/Src/stm32f4xx_ll_usb.c ****         {
 4885              		.loc 1 1880 12 view .LVU1568
 4886 0084 BC2C     		cmp	r4, #188
 4887 0086 0DD9     		bls	.L311
1883:stm32f4xx-hal-driver/Src/stm32f4xx_ll_usb.c ****           hc->xfer_len = hc->XferSize;
 4888              		.loc 1 1883 11 is_stmt 1 view .LVU1569
1883:stm32f4xx-hal-driver/Src/stm32f4xx_ll_usb.c ****           hc->xfer_len = hc->XferSize;
 4889              		.loc 1 1883 28 is_stmt 0 view .LVU1570
ARM GAS  /tmp/ccXMuxQe.s 			page 146


 4890 0088 8C8A     		ldrh	r4, [r1, #20]
1883:stm32f4xx-hal-driver/Src/stm32f4xx_ll_usb.c ****           hc->xfer_len = hc->XferSize;
 4891              		.loc 1 1883 24 view .LVU1571
 4892 008a CC61     		str	r4, [r1, #28]
1884:stm32f4xx-hal-driver/Src/stm32f4xx_ll_usb.c **** 
 4893              		.loc 1 1884 11 is_stmt 1 view .LVU1572
1884:stm32f4xx-hal-driver/Src/stm32f4xx_ll_usb.c **** 
 4894              		.loc 1 1884 24 is_stmt 0 view .LVU1573
 4895 008c 0C62     		str	r4, [r1, #32]
1886:stm32f4xx-hal-driver/Src/stm32f4xx_ll_usb.c ****           {
 4896              		.loc 1 1886 11 is_stmt 1 view .LVU1574
1886:stm32f4xx-hal-driver/Src/stm32f4xx_ll_usb.c ****           {
 4897              		.loc 1 1886 18 is_stmt 0 view .LVU1575
 4898 008e CC68     		ldr	r4, [r1, #12]
1886:stm32f4xx-hal-driver/Src/stm32f4xx_ll_usb.c ****           {
 4899              		.loc 1 1886 54 view .LVU1576
 4900 0090 013C     		subs	r4, r4, #1
1886:stm32f4xx-hal-driver/Src/stm32f4xx_ll_usb.c ****           {
 4901              		.loc 1 1886 14 view .LVU1577
 4902 0092 012C     		cmp	r4, #1
 4903 0094 02D9     		bls	.L342
1892:stm32f4xx-hal-driver/Src/stm32f4xx_ll_usb.c ****           }
 4904              		.loc 1 1892 13 is_stmt 1 view .LVU1578
1892:stm32f4xx-hal-driver/Src/stm32f4xx_ll_usb.c ****           }
 4905              		.loc 1 1892 34 is_stmt 0 view .LVU1579
 4906 0096 0125     		movs	r5, #1
 4907 0098 CD60     		str	r5, [r1, #12]
 4908 009a 1FE0     		b	.L309
 4909              	.L342:
1888:stm32f4xx-hal-driver/Src/stm32f4xx_ll_usb.c ****           }
 4910              		.loc 1 1888 13 is_stmt 1 view .LVU1580
1888:stm32f4xx-hal-driver/Src/stm32f4xx_ll_usb.c ****           }
 4911              		.loc 1 1888 34 is_stmt 0 view .LVU1581
 4912 009c 0224     		movs	r4, #2
 4913 009e CC60     		str	r4, [r1, #12]
1870:stm32f4xx-hal-driver/Src/stm32f4xx_ll_usb.c **** 
 4914              		.loc 1 1870 17 view .LVU1582
 4915 00a0 0125     		movs	r5, #1
 4916 00a2 1BE0     		b	.L309
 4917              	.L311:
1897:stm32f4xx-hal-driver/Src/stm32f4xx_ll_usb.c **** 
 4918              		.loc 1 1897 11 is_stmt 1 view .LVU1583
1897:stm32f4xx-hal-driver/Src/stm32f4xx_ll_usb.c **** 
 4919              		.loc 1 1897 24 is_stmt 0 view .LVU1584
 4920 00a4 CC61     		str	r4, [r1, #28]
1899:stm32f4xx-hal-driver/Src/stm32f4xx_ll_usb.c ****           {
 4921              		.loc 1 1899 11 is_stmt 1 view .LVU1585
1899:stm32f4xx-hal-driver/Src/stm32f4xx_ll_usb.c ****           {
 4922              		.loc 1 1899 18 is_stmt 0 view .LVU1586
 4923 00a6 CC68     		ldr	r4, [r1, #12]
1899:stm32f4xx-hal-driver/Src/stm32f4xx_ll_usb.c ****           {
 4924              		.loc 1 1899 54 view .LVU1587
 4925 00a8 013C     		subs	r4, r4, #1
1899:stm32f4xx-hal-driver/Src/stm32f4xx_ll_usb.c ****           {
 4926              		.loc 1 1899 14 view .LVU1588
 4927 00aa 012C     		cmp	r4, #1
 4928 00ac 03D9     		bls	.L313
ARM GAS  /tmp/ccXMuxQe.s 			page 147


1901:stm32f4xx-hal-driver/Src/stm32f4xx_ll_usb.c ****           }
 4929              		.loc 1 1901 13 is_stmt 1 view .LVU1589
1901:stm32f4xx-hal-driver/Src/stm32f4xx_ll_usb.c ****           }
 4930              		.loc 1 1901 34 is_stmt 0 view .LVU1590
 4931 00ae 0424     		movs	r4, #4
 4932 00b0 CC60     		str	r4, [r1, #12]
1870:stm32f4xx-hal-driver/Src/stm32f4xx_ll_usb.c **** 
 4933              		.loc 1 1870 17 view .LVU1591
 4934 00b2 0125     		movs	r5, #1
 4935 00b4 12E0     		b	.L309
 4936              	.L313:
1905:stm32f4xx-hal-driver/Src/stm32f4xx_ll_usb.c ****           }
 4937              		.loc 1 1905 13 is_stmt 1 view .LVU1592
1905:stm32f4xx-hal-driver/Src/stm32f4xx_ll_usb.c ****           }
 4938              		.loc 1 1905 34 is_stmt 0 view .LVU1593
 4939 00b6 0324     		movs	r4, #3
 4940 00b8 CC60     		str	r4, [r1, #12]
1870:stm32f4xx-hal-driver/Src/stm32f4xx_ll_usb.c **** 
 4941              		.loc 1 1870 17 view .LVU1594
 4942 00ba 0125     		movs	r5, #1
 4943 00bc 0EE0     		b	.L309
 4944              	.L341:
1911:stm32f4xx-hal-driver/Src/stm32f4xx_ll_usb.c ****         {
 4945              		.loc 1 1911 31 discriminator 1 view .LVU1595
 4946 00be 0D6A     		ldr	r5, [r1, #32]
1911:stm32f4xx-hal-driver/Src/stm32f4xx_ll_usb.c ****         {
 4947              		.loc 1 1911 46 discriminator 1 view .LVU1596
 4948 00c0 8C8A     		ldrh	r4, [r1, #20]
1911:stm32f4xx-hal-driver/Src/stm32f4xx_ll_usb.c ****         {
 4949              		.loc 1 1911 25 discriminator 1 view .LVU1597
 4950 00c2 A542     		cmp	r5, r4
 4951 00c4 D9D9     		bls	.L314
1913:stm32f4xx-hal-driver/Src/stm32f4xx_ll_usb.c ****         }
 4952              		.loc 1 1913 11 is_stmt 1 view .LVU1598
1913:stm32f4xx-hal-driver/Src/stm32f4xx_ll_usb.c ****         }
 4953              		.loc 1 1913 24 is_stmt 0 view .LVU1599
 4954 00c6 CC61     		str	r4, [r1, #28]
1870:stm32f4xx-hal-driver/Src/stm32f4xx_ll_usb.c **** 
 4955              		.loc 1 1870 17 view .LVU1600
 4956 00c8 0125     		movs	r5, #1
1913:stm32f4xx-hal-driver/Src/stm32f4xx_ll_usb.c ****         }
 4957              		.loc 1 1913 24 view .LVU1601
 4958 00ca 07E0     		b	.L309
 4959              	.LVL381:
 4960              	.L334:
1937:stm32f4xx-hal-driver/Src/stm32f4xx_ll_usb.c ****     }
 4961              		.loc 1 1937 19 view .LVU1602
 4962 00cc 0125     		movs	r5, #1
 4963              	.L315:
 4964              	.LVL382:
1944:stm32f4xx-hal-driver/Src/stm32f4xx_ll_usb.c ****     {
 4965              		.loc 1 1944 5 is_stmt 1 view .LVU1603
1944:stm32f4xx-hal-driver/Src/stm32f4xx_ll_usb.c ****     {
 4966              		.loc 1 1944 11 is_stmt 0 view .LVU1604
 4967 00ce CC78     		ldrb	r4, [r1, #3]	@ zero_extendqisi2
1944:stm32f4xx-hal-driver/Src/stm32f4xx_ll_usb.c ****     {
 4968              		.loc 1 1944 8 view .LVU1605
ARM GAS  /tmp/ccXMuxQe.s 			page 148


 4969 00d0 002C     		cmp	r4, #0
 4970 00d2 57D0     		beq	.L316
1946:stm32f4xx-hal-driver/Src/stm32f4xx_ll_usb.c ****     }
 4971              		.loc 1 1946 7 is_stmt 1 view .LVU1606
1946:stm32f4xx-hal-driver/Src/stm32f4xx_ll_usb.c ****     }
 4972              		.loc 1 1946 48 is_stmt 0 view .LVU1607
 4973 00d4 8C8A     		ldrh	r4, [r1, #20]
1946:stm32f4xx-hal-driver/Src/stm32f4xx_ll_usb.c ****     }
 4974              		.loc 1 1946 44 view .LVU1608
 4975 00d6 04FB05F4 		mul	r4, r4, r5
1946:stm32f4xx-hal-driver/Src/stm32f4xx_ll_usb.c ****     }
 4976              		.loc 1 1946 20 view .LVU1609
 4977 00da CC61     		str	r4, [r1, #28]
 4978              	.LVL383:
 4979              	.L309:
1955:stm32f4xx-hal-driver/Src/stm32f4xx_ll_usb.c ****                             (((uint32_t)num_packets << 19) & USB_OTG_HCTSIZ_PKTCNT) |
 4980              		.loc 1 1955 3 is_stmt 1 view .LVU1610
1955:stm32f4xx-hal-driver/Src/stm32f4xx_ll_usb.c ****                             (((uint32_t)num_packets << 19) & USB_OTG_HCTSIZ_PKTCNT) |
 4981              		.loc 1 1955 32 is_stmt 0 view .LVU1611
 4982 00dc CC69     		ldr	r4, [r1, #28]
1955:stm32f4xx-hal-driver/Src/stm32f4xx_ll_usb.c ****                             (((uint32_t)num_packets << 19) & USB_OTG_HCTSIZ_PKTCNT) |
 4983              		.loc 1 1955 43 view .LVU1612
 4984 00de C4F31204 		ubfx	r4, r4, #0, #19
1956:stm32f4xx-hal-driver/Src/stm32f4xx_ll_usb.c ****                             (((uint32_t)hc->data_pid << 29) & USB_OTG_HCTSIZ_DPID);
 4985              		.loc 1 1956 60 view .LVU1613
 4986 00e2 634E     		ldr	r6, .L345+4
 4987 00e4 06EAC545 		and	r5, r6, r5, lsl #19
 4988              	.LVL384:
1955:stm32f4xx-hal-driver/Src/stm32f4xx_ll_usb.c ****                             (((uint32_t)num_packets << 19) & USB_OTG_HCTSIZ_PKTCNT) |
 4989              		.loc 1 1955 68 view .LVU1614
 4990 00e8 2C43     		orrs	r4, r4, r5
1957:stm32f4xx-hal-driver/Src/stm32f4xx_ll_usb.c **** 
 4991              		.loc 1 1957 43 view .LVU1615
 4992 00ea 8D7D     		ldrb	r5, [r1, #22]	@ zero_extendqisi2
1957:stm32f4xx-hal-driver/Src/stm32f4xx_ll_usb.c **** 
 4993              		.loc 1 1957 54 view .LVU1616
 4994 00ec 6D07     		lsls	r5, r5, #29
1957:stm32f4xx-hal-driver/Src/stm32f4xx_ll_usb.c **** 
 4995              		.loc 1 1957 61 view .LVU1617
 4996 00ee 05F0C045 		and	r5, r5, #1610612736
1955:stm32f4xx-hal-driver/Src/stm32f4xx_ll_usb.c ****                             (((uint32_t)num_packets << 19) & USB_OTG_HCTSIZ_PKTCNT) |
 4997              		.loc 1 1955 3 view .LVU1618
 4998 00f2 00EB4313 		add	r3, r0, r3, lsl #5
 4999              	.LVL385:
1955:stm32f4xx-hal-driver/Src/stm32f4xx_ll_usb.c ****                             (((uint32_t)num_packets << 19) & USB_OTG_HCTSIZ_PKTCNT) |
 5000              		.loc 1 1955 3 view .LVU1619
 5001 00f6 03F5A066 		add	r6, r3, #1280
1956:stm32f4xx-hal-driver/Src/stm32f4xx_ll_usb.c ****                             (((uint32_t)hc->data_pid << 29) & USB_OTG_HCTSIZ_DPID);
 5002              		.loc 1 1956 85 view .LVU1620
 5003 00fa 2C43     		orrs	r4, r4, r5
1955:stm32f4xx-hal-driver/Src/stm32f4xx_ll_usb.c ****                             (((uint32_t)num_packets << 19) & USB_OTG_HCTSIZ_PKTCNT) |
 5004              		.loc 1 1955 27 view .LVU1621
 5005 00fc 3461     		str	r4, [r6, #16]
1959:stm32f4xx-hal-driver/Src/stm32f4xx_ll_usb.c ****   {
 5006              		.loc 1 1959 3 is_stmt 1 view .LVU1622
1959:stm32f4xx-hal-driver/Src/stm32f4xx_ll_usb.c ****   {
 5007              		.loc 1 1959 6 is_stmt 0 view .LVU1623
ARM GAS  /tmp/ccXMuxQe.s 			page 149


 5008 00fe 0AB1     		cbz	r2, .L317
1962:stm32f4xx-hal-driver/Src/stm32f4xx_ll_usb.c ****   }
 5009              		.loc 1 1962 5 is_stmt 1 view .LVU1624
1962:stm32f4xx-hal-driver/Src/stm32f4xx_ll_usb.c ****   }
 5010              		.loc 1 1962 42 is_stmt 0 view .LVU1625
 5011 0100 8C69     		ldr	r4, [r1, #24]
1962:stm32f4xx-hal-driver/Src/stm32f4xx_ll_usb.c ****   }
 5012              		.loc 1 1962 28 view .LVU1626
 5013 0102 7461     		str	r4, [r6, #20]
 5014              	.L317:
1965:stm32f4xx-hal-driver/Src/stm32f4xx_ll_usb.c ****   USBx_HC(ch_num)->HCCHAR &= ~USB_OTG_HCCHAR_ODDFRM;
 5015              		.loc 1 1965 3 is_stmt 1 view .LVU1627
1965:stm32f4xx-hal-driver/Src/stm32f4xx_ll_usb.c ****   USBx_HC(ch_num)->HCCHAR &= ~USB_OTG_HCCHAR_ODDFRM;
 5016              		.loc 1 1965 29 is_stmt 0 view .LVU1628
 5017 0104 00F58065 		add	r5, r0, #1024
1965:stm32f4xx-hal-driver/Src/stm32f4xx_ll_usb.c ****   USBx_HC(ch_num)->HCCHAR &= ~USB_OTG_HCCHAR_ODDFRM;
 5018              		.loc 1 1965 38 view .LVU1629
 5019 0108 AC68     		ldr	r4, [r5, #8]
1965:stm32f4xx-hal-driver/Src/stm32f4xx_ll_usb.c ****   USBx_HC(ch_num)->HCCHAR &= ~USB_OTG_HCCHAR_ODDFRM;
 5020              		.loc 1 1965 67 view .LVU1630
 5021 010a 14F0010F 		tst	r4, #1
 5022              	.LVL386:
1966:stm32f4xx-hal-driver/Src/stm32f4xx_ll_usb.c ****   USBx_HC(ch_num)->HCCHAR |= (uint32_t)is_oddframe << 29;
 5023              		.loc 1 1966 3 is_stmt 1 view .LVU1631
1966:stm32f4xx-hal-driver/Src/stm32f4xx_ll_usb.c ****   USBx_HC(ch_num)->HCCHAR |= (uint32_t)is_oddframe << 29;
 5024              		.loc 1 1966 27 is_stmt 0 view .LVU1632
 5025 010e D3F80045 		ldr	r4, [r3, #1280]
 5026 0112 24F00054 		bic	r4, r4, #536870912
 5027 0116 C3F80045 		str	r4, [r3, #1280]
1967:stm32f4xx-hal-driver/Src/stm32f4xx_ll_usb.c **** 
 5028              		.loc 1 1967 3 is_stmt 1 view .LVU1633
1967:stm32f4xx-hal-driver/Src/stm32f4xx_ll_usb.c **** 
 5029              		.loc 1 1967 27 is_stmt 0 view .LVU1634
 5030 011a D3F80045 		ldr	r4, [r3, #1280]
1967:stm32f4xx-hal-driver/Src/stm32f4xx_ll_usb.c **** 
 5031              		.loc 1 1967 52 view .LVU1635
 5032 011e 0CBF     		ite	eq
 5033 0120 4FF00057 		moveq	r7, #536870912
 5034 0124 0027     		movne	r7, #0
1967:stm32f4xx-hal-driver/Src/stm32f4xx_ll_usb.c **** 
 5035              		.loc 1 1967 27 view .LVU1636
 5036 0126 3C43     		orrs	r4, r4, r7
 5037 0128 C3F80045 		str	r4, [r3, #1280]
1969:stm32f4xx-hal-driver/Src/stm32f4xx_ll_usb.c ****   {
 5038              		.loc 1 1969 3 is_stmt 1 view .LVU1637
1969:stm32f4xx-hal-driver/Src/stm32f4xx_ll_usb.c ****   {
 5039              		.loc 1 1969 9 is_stmt 0 view .LVU1638
 5040 012c 8C79     		ldrb	r4, [r1, #6]	@ zero_extendqisi2
1969:stm32f4xx-hal-driver/Src/stm32f4xx_ll_usb.c ****   {
 5041              		.loc 1 1969 6 view .LVU1639
 5042 012e 012C     		cmp	r4, #1
 5043              	.LVL387:
1969:stm32f4xx-hal-driver/Src/stm32f4xx_ll_usb.c ****   {
 5044              		.loc 1 1969 6 view .LVU1640
 5045 0130 2AD0     		beq	.L343
2025:stm32f4xx-hal-driver/Src/stm32f4xx_ll_usb.c ****   }
 5046              		.loc 1 2025 5 is_stmt 1 view .LVU1641
ARM GAS  /tmp/ccXMuxQe.s 			page 150


2025:stm32f4xx-hal-driver/Src/stm32f4xx_ll_usb.c ****   }
 5047              		.loc 1 2025 39 is_stmt 0 view .LVU1642
 5048 0132 0024     		movs	r4, #0
 5049 0134 7460     		str	r4, [r6, #4]
 5050              	.L322:
2029:stm32f4xx-hal-driver/Src/stm32f4xx_ll_usb.c ****   tmpreg &= ~USB_OTG_HCCHAR_CHDIS;
 5051              		.loc 1 2029 3 is_stmt 1 view .LVU1643
2029:stm32f4xx-hal-driver/Src/stm32f4xx_ll_usb.c ****   tmpreg &= ~USB_OTG_HCCHAR_CHDIS;
 5052              		.loc 1 2029 27 is_stmt 0 view .LVU1644
 5053 0136 D3F80045 		ldr	r4, [r3, #1280]
2029:stm32f4xx-hal-driver/Src/stm32f4xx_ll_usb.c ****   tmpreg &= ~USB_OTG_HCCHAR_CHDIS;
 5054              		.loc 1 2029 10 view .LVU1645
 5055 013a 0394     		str	r4, [sp, #12]
2030:stm32f4xx-hal-driver/Src/stm32f4xx_ll_usb.c **** 
 5056              		.loc 1 2030 3 is_stmt 1 view .LVU1646
2030:stm32f4xx-hal-driver/Src/stm32f4xx_ll_usb.c **** 
 5057              		.loc 1 2030 10 is_stmt 0 view .LVU1647
 5058 013c 039C     		ldr	r4, [sp, #12]
 5059 013e 24F08044 		bic	r4, r4, #1073741824
 5060 0142 0394     		str	r4, [sp, #12]
2033:stm32f4xx-hal-driver/Src/stm32f4xx_ll_usb.c ****   {
 5061              		.loc 1 2033 3 is_stmt 1 view .LVU1648
2033:stm32f4xx-hal-driver/Src/stm32f4xx_ll_usb.c ****   {
 5062              		.loc 1 2033 9 is_stmt 0 view .LVU1649
 5063 0144 CC78     		ldrb	r4, [r1, #3]	@ zero_extendqisi2
2033:stm32f4xx-hal-driver/Src/stm32f4xx_ll_usb.c ****   {
 5064              		.loc 1 2033 6 view .LVU1650
 5065 0146 002C     		cmp	r4, #0
 5066 0148 6AD0     		beq	.L328
2035:stm32f4xx-hal-driver/Src/stm32f4xx_ll_usb.c ****   }
 5067              		.loc 1 2035 5 is_stmt 1 view .LVU1651
2035:stm32f4xx-hal-driver/Src/stm32f4xx_ll_usb.c ****   }
 5068              		.loc 1 2035 12 is_stmt 0 view .LVU1652
 5069 014a 039C     		ldr	r4, [sp, #12]
 5070 014c 44F40044 		orr	r4, r4, #32768
 5071 0150 0394     		str	r4, [sp, #12]
 5072              	.L329:
2041:stm32f4xx-hal-driver/Src/stm32f4xx_ll_usb.c ****   USBx_HC(ch_num)->HCCHAR = tmpreg;
 5073              		.loc 1 2041 3 is_stmt 1 view .LVU1653
2041:stm32f4xx-hal-driver/Src/stm32f4xx_ll_usb.c ****   USBx_HC(ch_num)->HCCHAR = tmpreg;
 5074              		.loc 1 2041 10 is_stmt 0 view .LVU1654
 5075 0152 039C     		ldr	r4, [sp, #12]
 5076 0154 44F00044 		orr	r4, r4, #-2147483648
 5077 0158 0394     		str	r4, [sp, #12]
2042:stm32f4xx-hal-driver/Src/stm32f4xx_ll_usb.c **** 
 5078              		.loc 1 2042 3 is_stmt 1 view .LVU1655
2042:stm32f4xx-hal-driver/Src/stm32f4xx_ll_usb.c **** 
 5079              		.loc 1 2042 27 is_stmt 0 view .LVU1656
 5080 015a 039C     		ldr	r4, [sp, #12]
 5081 015c C3F80045 		str	r4, [r3, #1280]
2044:stm32f4xx-hal-driver/Src/stm32f4xx_ll_usb.c ****   {
 5082              		.loc 1 2044 3 is_stmt 1 view .LVU1657
2044:stm32f4xx-hal-driver/Src/stm32f4xx_ll_usb.c ****   {
 5083              		.loc 1 2044 6 is_stmt 0 view .LVU1658
 5084 0160 002A     		cmp	r2, #0
 5085 0162 74D1     		bne	.L306
2049:stm32f4xx-hal-driver/Src/stm32f4xx_ll_usb.c ****   {
ARM GAS  /tmp/ccXMuxQe.s 			page 151


 5086              		.loc 1 2049 3 is_stmt 1 view .LVU1659
2049:stm32f4xx-hal-driver/Src/stm32f4xx_ll_usb.c ****   {
 5087              		.loc 1 2049 10 is_stmt 0 view .LVU1660
 5088 0164 CB78     		ldrb	r3, [r1, #3]	@ zero_extendqisi2
2049:stm32f4xx-hal-driver/Src/stm32f4xx_ll_usb.c ****   {
 5089              		.loc 1 2049 6 view .LVU1661
 5090 0166 002B     		cmp	r3, #0
 5091 0168 71D1     		bne	.L306
2049:stm32f4xx-hal-driver/Src/stm32f4xx_ll_usb.c ****   {
 5092              		.loc 1 2049 34 discriminator 1 view .LVU1662
 5093 016a 0B6A     		ldr	r3, [r1, #32]
2049:stm32f4xx-hal-driver/Src/stm32f4xx_ll_usb.c ****   {
 5094              		.loc 1 2049 28 discriminator 1 view .LVU1663
 5095 016c 002B     		cmp	r3, #0
 5096 016e 6ED0     		beq	.L306
2049:stm32f4xx-hal-driver/Src/stm32f4xx_ll_usb.c ****   {
 5097              		.loc 1 2049 57 discriminator 2 view .LVU1664
 5098 0170 CA79     		ldrb	r2, [r1, #7]	@ zero_extendqisi2
 5099              	.LVL388:
2049:stm32f4xx-hal-driver/Src/stm32f4xx_ll_usb.c ****   {
 5100              		.loc 1 2049 51 discriminator 2 view .LVU1665
 5101 0172 002A     		cmp	r2, #0
 5102 0174 6BD1     		bne	.L306
2051:stm32f4xx-hal-driver/Src/stm32f4xx_ll_usb.c ****     {
 5103              		.loc 1 2051 5 is_stmt 1 view .LVU1666
2051:stm32f4xx-hal-driver/Src/stm32f4xx_ll_usb.c ****     {
 5104              		.loc 1 2051 15 is_stmt 0 view .LVU1667
 5105 0176 8A7C     		ldrb	r2, [r1, #18]	@ zero_extendqisi2
 5106 0178 032A     		cmp	r2, #3
 5107 017a 61D8     		bhi	.L330
 5108 017c DFE802F0 		tbb	[pc, r2]
 5109              	.L332:
 5110 0180 55       		.byte	(.L333-.L332)/2
 5111 0181 6A       		.byte	(.L331-.L332)/2
 5112 0182 55       		.byte	(.L333-.L332)/2
 5113 0183 6A       		.byte	(.L331-.L332)/2
 5114              	.LVL389:
 5115              		.p2align 1
 5116              	.L316:
1950:stm32f4xx-hal-driver/Src/stm32f4xx_ll_usb.c ****     }
 5117              		.loc 1 1950 7 is_stmt 1 view .LVU1668
1950:stm32f4xx-hal-driver/Src/stm32f4xx_ll_usb.c ****     }
 5118              		.loc 1 1950 20 is_stmt 0 view .LVU1669
 5119 0184 CE61     		str	r6, [r1, #28]
 5120 0186 A9E7     		b	.L309
 5121              	.LVL390:
 5122              	.L343:
1972:stm32f4xx-hal-driver/Src/stm32f4xx_ll_usb.c ****                                         (uint32_t)hc->hub_port_nbr | USB_OTG_HCSPLT_SPLITEN;
 5123              		.loc 1 1972 5 is_stmt 1 view .LVU1670
1972:stm32f4xx-hal-driver/Src/stm32f4xx_ll_usb.c ****                                         (uint32_t)hc->hub_port_nbr | USB_OTG_HCSPLT_SPLITEN;
 5124              		.loc 1 1972 54 is_stmt 0 view .LVU1671
 5125 0188 4F7C     		ldrb	r7, [r1, #17]	@ zero_extendqisi2
1973:stm32f4xx-hal-driver/Src/stm32f4xx_ll_usb.c **** 
 5126              		.loc 1 1973 53 view .LVU1672
 5127 018a 0C7C     		ldrb	r4, [r1, #16]	@ zero_extendqisi2
1972:stm32f4xx-hal-driver/Src/stm32f4xx_ll_usb.c ****                                         (uint32_t)hc->hub_port_nbr | USB_OTG_HCSPLT_SPLITEN;
 5128              		.loc 1 1972 96 view .LVU1673
ARM GAS  /tmp/ccXMuxQe.s 			page 152


 5129 018c 44EAC714 		orr	r4, r4, r7, lsl #7
1973:stm32f4xx-hal-driver/Src/stm32f4xx_ll_usb.c **** 
 5130              		.loc 1 1973 68 view .LVU1674
 5131 0190 44F00044 		orr	r4, r4, #-2147483648
1972:stm32f4xx-hal-driver/Src/stm32f4xx_ll_usb.c ****                                         (uint32_t)hc->hub_port_nbr | USB_OTG_HCSPLT_SPLITEN;
 5132              		.loc 1 1972 39 view .LVU1675
 5133 0194 7460     		str	r4, [r6, #4]
1976:stm32f4xx-hal-driver/Src/stm32f4xx_ll_usb.c ****                                             USB_OTG_HCINTMSK_NYET);
 5134              		.loc 1 1976 5 is_stmt 1 view .LVU1676
1976:stm32f4xx-hal-driver/Src/stm32f4xx_ll_usb.c ****                                             USB_OTG_HCINTMSK_NYET);
 5135              		.loc 1 1976 41 is_stmt 0 view .LVU1677
 5136 0196 F468     		ldr	r4, [r6, #12]
 5137 0198 44F06004 		orr	r4, r4, #96
 5138 019c F460     		str	r4, [r6, #12]
1979:stm32f4xx-hal-driver/Src/stm32f4xx_ll_usb.c ****     {
 5139              		.loc 1 1979 5 is_stmt 1 view .LVU1678
1979:stm32f4xx-hal-driver/Src/stm32f4xx_ll_usb.c ****     {
 5140              		.loc 1 1979 12 is_stmt 0 view .LVU1679
 5141 019e CC79     		ldrb	r4, [r1, #7]	@ zero_extendqisi2
1979:stm32f4xx-hal-driver/Src/stm32f4xx_ll_usb.c ****     {
 5142              		.loc 1 1979 8 view .LVU1680
 5143 01a0 012C     		cmp	r4, #1
 5144 01a2 12D0     		beq	.L344
 5145              	.L319:
1985:stm32f4xx-hal-driver/Src/stm32f4xx_ll_usb.c ****         (hc->do_csplit == 1U) && (hc->ep_is_in == 1U))
 5146              		.loc 1 1985 5 is_stmt 1 view .LVU1681
1985:stm32f4xx-hal-driver/Src/stm32f4xx_ll_usb.c ****         (hc->do_csplit == 1U) && (hc->ep_is_in == 1U))
 5147              		.loc 1 1985 13 is_stmt 0 view .LVU1682
 5148 01a4 8C7C     		ldrb	r4, [r1, #18]	@ zero_extendqisi2
1985:stm32f4xx-hal-driver/Src/stm32f4xx_ll_usb.c ****         (hc->do_csplit == 1U) && (hc->ep_is_in == 1U))
 5149              		.loc 1 1985 8 view .LVU1683
 5150 01a6 012C     		cmp	r4, #1
 5151 01a8 1BD0     		beq	.L320
1985:stm32f4xx-hal-driver/Src/stm32f4xx_ll_usb.c ****         (hc->do_csplit == 1U) && (hc->ep_is_in == 1U))
 5152              		.loc 1 1985 40 discriminator 2 view .LVU1684
 5153 01aa 032C     		cmp	r4, #3
 5154 01ac 19D0     		beq	.L320
 5155              	.L321:
1992:stm32f4xx-hal-driver/Src/stm32f4xx_ll_usb.c ****     {
 5156              		.loc 1 1992 5 is_stmt 1 view .LVU1685
1992:stm32f4xx-hal-driver/Src/stm32f4xx_ll_usb.c ****     {
 5157              		.loc 1 1992 12 is_stmt 0 view .LVU1686
 5158 01ae 8C7C     		ldrb	r4, [r1, #18]	@ zero_extendqisi2
1992:stm32f4xx-hal-driver/Src/stm32f4xx_ll_usb.c ****     {
 5159              		.loc 1 1992 8 view .LVU1687
 5160 01b0 012C     		cmp	r4, #1
 5161 01b2 C0D1     		bne	.L322
1992:stm32f4xx-hal-driver/Src/stm32f4xx_ll_usb.c ****     {
 5162              		.loc 1 1992 45 discriminator 1 view .LVU1688
 5163 01b4 CC78     		ldrb	r4, [r1, #3]	@ zero_extendqisi2
1992:stm32f4xx-hal-driver/Src/stm32f4xx_ll_usb.c ****     {
 5164              		.loc 1 1992 39 discriminator 1 view .LVU1689
 5165 01b6 002C     		cmp	r4, #0
 5166 01b8 BDD1     		bne	.L322
1995:stm32f4xx-hal-driver/Src/stm32f4xx_ll_usb.c ****       {
 5167              		.loc 1 1995 7 is_stmt 1 view .LVU1690
1995:stm32f4xx-hal-driver/Src/stm32f4xx_ll_usb.c ****       {
ARM GAS  /tmp/ccXMuxQe.s 			page 153


 5168              		.loc 1 1995 17 is_stmt 0 view .LVU1691
 5169 01ba CC68     		ldr	r4, [r1, #12]
 5170 01bc 013C     		subs	r4, r4, #1
 5171 01be 032C     		cmp	r4, #3
 5172 01c0 B9D8     		bhi	.L322
 5173 01c2 DFE804F0 		tbb	[pc, r4]
 5174              	.L324:
 5175 01c6 19       		.byte	(.L327-.L324)/2
 5176 01c7 1E       		.byte	(.L326-.L324)/2
 5177 01c8 23       		.byte	(.L325-.L324)/2
 5178 01c9 28       		.byte	(.L323-.L324)/2
 5179              		.p2align 1
 5180              	.L344:
1979:stm32f4xx-hal-driver/Src/stm32f4xx_ll_usb.c ****     {
 5181              		.loc 1 1979 37 discriminator 1 view .LVU1692
 5182 01ca CC78     		ldrb	r4, [r1, #3]	@ zero_extendqisi2
1979:stm32f4xx-hal-driver/Src/stm32f4xx_ll_usb.c ****     {
 5183              		.loc 1 1979 31 discriminator 1 view .LVU1693
 5184 01cc 002C     		cmp	r4, #0
 5185 01ce E9D1     		bne	.L319
1981:stm32f4xx-hal-driver/Src/stm32f4xx_ll_usb.c ****       USBx_HC((uint32_t)ch_num)->HCINTMSK |= USB_OTG_HCINTMSK_NYET;
 5186              		.loc 1 1981 7 is_stmt 1 view .LVU1694
1981:stm32f4xx-hal-driver/Src/stm32f4xx_ll_usb.c ****       USBx_HC((uint32_t)ch_num)->HCINTMSK |= USB_OTG_HCINTMSK_NYET;
 5187              		.loc 1 1981 41 is_stmt 0 view .LVU1695
 5188 01d0 7468     		ldr	r4, [r6, #4]
 5189 01d2 44F48034 		orr	r4, r4, #65536
 5190 01d6 7460     		str	r4, [r6, #4]
1982:stm32f4xx-hal-driver/Src/stm32f4xx_ll_usb.c ****     }
 5191              		.loc 1 1982 7 is_stmt 1 view .LVU1696
1982:stm32f4xx-hal-driver/Src/stm32f4xx_ll_usb.c ****     }
 5192              		.loc 1 1982 43 is_stmt 0 view .LVU1697
 5193 01d8 F468     		ldr	r4, [r6, #12]
 5194 01da 44F04004 		orr	r4, r4, #64
 5195 01de F460     		str	r4, [r6, #12]
 5196 01e0 E0E7     		b	.L319
 5197              	.L320:
1986:stm32f4xx-hal-driver/Src/stm32f4xx_ll_usb.c ****     {
 5198              		.loc 1 1986 12 discriminator 3 view .LVU1698
 5199 01e2 CC79     		ldrb	r4, [r1, #7]	@ zero_extendqisi2
1985:stm32f4xx-hal-driver/Src/stm32f4xx_ll_usb.c ****         (hc->do_csplit == 1U) && (hc->ep_is_in == 1U))
 5200              		.loc 1 1985 74 discriminator 3 view .LVU1699
 5201 01e4 012C     		cmp	r4, #1
 5202 01e6 E2D1     		bne	.L321
1986:stm32f4xx-hal-driver/Src/stm32f4xx_ll_usb.c ****     {
 5203              		.loc 1 1986 37 view .LVU1700
 5204 01e8 CC78     		ldrb	r4, [r1, #3]	@ zero_extendqisi2
1986:stm32f4xx-hal-driver/Src/stm32f4xx_ll_usb.c ****     {
 5205              		.loc 1 1986 31 view .LVU1701
 5206 01ea 012C     		cmp	r4, #1
 5207 01ec DFD1     		bne	.L321
1988:stm32f4xx-hal-driver/Src/stm32f4xx_ll_usb.c ****     }
 5208              		.loc 1 1988 7 is_stmt 1 view .LVU1702
1988:stm32f4xx-hal-driver/Src/stm32f4xx_ll_usb.c ****     }
 5209              		.loc 1 1988 41 is_stmt 0 view .LVU1703
 5210 01ee 7468     		ldr	r4, [r6, #4]
 5211 01f0 44F48034 		orr	r4, r4, #65536
 5212 01f4 7460     		str	r4, [r6, #4]
ARM GAS  /tmp/ccXMuxQe.s 			page 154


 5213 01f6 DAE7     		b	.L321
 5214              	.L327:
1999:stm32f4xx-hal-driver/Src/stm32f4xx_ll_usb.c ****           break;
 5215              		.loc 1 1999 11 is_stmt 1 view .LVU1704
1999:stm32f4xx-hal-driver/Src/stm32f4xx_ll_usb.c ****           break;
 5216              		.loc 1 1999 45 is_stmt 0 view .LVU1705
 5217 01f8 7468     		ldr	r4, [r6, #4]
 5218 01fa 44F40044 		orr	r4, r4, #32768
 5219 01fe 7460     		str	r4, [r6, #4]
2000:stm32f4xx-hal-driver/Src/stm32f4xx_ll_usb.c **** 
 5220              		.loc 1 2000 11 is_stmt 1 view .LVU1706
 5221 0200 99E7     		b	.L322
 5222              	.L326:
2004:stm32f4xx-hal-driver/Src/stm32f4xx_ll_usb.c ****           break;
 5223              		.loc 1 2004 11 view .LVU1707
2004:stm32f4xx-hal-driver/Src/stm32f4xx_ll_usb.c ****           break;
 5224              		.loc 1 2004 45 is_stmt 0 view .LVU1708
 5225 0202 7468     		ldr	r4, [r6, #4]
 5226 0204 44F00E04 		orr	r4, r4, #14
 5227 0208 7460     		str	r4, [r6, #4]
2005:stm32f4xx-hal-driver/Src/stm32f4xx_ll_usb.c **** 
 5228              		.loc 1 2005 11 is_stmt 1 view .LVU1709
 5229 020a 94E7     		b	.L322
 5230              	.L325:
2009:stm32f4xx-hal-driver/Src/stm32f4xx_ll_usb.c ****           break;
 5231              		.loc 1 2009 11 view .LVU1710
2009:stm32f4xx-hal-driver/Src/stm32f4xx_ll_usb.c ****           break;
 5232              		.loc 1 2009 45 is_stmt 0 view .LVU1711
 5233 020c 7468     		ldr	r4, [r6, #4]
 5234 020e 44F48044 		orr	r4, r4, #16384
 5235 0212 7460     		str	r4, [r6, #4]
2010:stm32f4xx-hal-driver/Src/stm32f4xx_ll_usb.c **** 
 5236              		.loc 1 2010 11 is_stmt 1 view .LVU1712
 5237 0214 8FE7     		b	.L322
 5238              	.L323:
2014:stm32f4xx-hal-driver/Src/stm32f4xx_ll_usb.c ****           break;
 5239              		.loc 1 2014 11 view .LVU1713
2014:stm32f4xx-hal-driver/Src/stm32f4xx_ll_usb.c ****           break;
 5240              		.loc 1 2014 45 is_stmt 0 view .LVU1714
 5241 0216 7468     		ldr	r4, [r6, #4]
 5242 0218 44F44044 		orr	r4, r4, #49152
 5243 021c 7460     		str	r4, [r6, #4]
2015:stm32f4xx-hal-driver/Src/stm32f4xx_ll_usb.c **** 
 5244              		.loc 1 2015 11 is_stmt 1 view .LVU1715
 5245 021e 8AE7     		b	.L322
 5246              	.L328:
2039:stm32f4xx-hal-driver/Src/stm32f4xx_ll_usb.c ****   }
 5247              		.loc 1 2039 5 view .LVU1716
2039:stm32f4xx-hal-driver/Src/stm32f4xx_ll_usb.c ****   }
 5248              		.loc 1 2039 12 is_stmt 0 view .LVU1717
 5249 0220 039C     		ldr	r4, [sp, #12]
 5250 0222 24F40044 		bic	r4, r4, #32768
 5251 0226 0394     		str	r4, [sp, #12]
 5252 0228 93E7     		b	.L329
 5253              	.LVL391:
 5254              	.L333:
2057:stm32f4xx-hal-driver/Src/stm32f4xx_ll_usb.c **** 
ARM GAS  /tmp/ccXMuxQe.s 			page 155


 5255              		.loc 1 2057 9 is_stmt 1 view .LVU1718
2057:stm32f4xx-hal-driver/Src/stm32f4xx_ll_usb.c **** 
 5256              		.loc 1 2057 46 is_stmt 0 view .LVU1719
 5257 022a 0333     		adds	r3, r3, #3
 5258              	.LVL392:
2060:stm32f4xx-hal-driver/Src/stm32f4xx_ll_usb.c ****         {
 5259              		.loc 1 2060 9 is_stmt 1 view .LVU1720
2060:stm32f4xx-hal-driver/Src/stm32f4xx_ll_usb.c ****         {
 5260              		.loc 1 2060 30 is_stmt 0 view .LVU1721
 5261 022c C26A     		ldr	r2, [r0, #44]
2060:stm32f4xx-hal-driver/Src/stm32f4xx_ll_usb.c ****         {
 5262              		.loc 1 2060 41 view .LVU1722
 5263 022e 92B2     		uxth	r2, r2
2060:stm32f4xx-hal-driver/Src/stm32f4xx_ll_usb.c ****         {
 5264              		.loc 1 2060 12 view .LVU1723
 5265 0230 C3F38F03 		ubfx	r3, r3, #2, #16
 5266              	.LVL393:
2060:stm32f4xx-hal-driver/Src/stm32f4xx_ll_usb.c ****         {
 5267              		.loc 1 2060 12 view .LVU1724
 5268 0234 9342     		cmp	r3, r2
 5269 0236 03D9     		bls	.L330
2063:stm32f4xx-hal-driver/Src/stm32f4xx_ll_usb.c ****         }
 5270              		.loc 1 2063 11 is_stmt 1 view .LVU1725
2063:stm32f4xx-hal-driver/Src/stm32f4xx_ll_usb.c ****         }
 5271              		.loc 1 2063 25 is_stmt 0 view .LVU1726
 5272 0238 8369     		ldr	r3, [r0, #24]
 5273 023a 43F02003 		orr	r3, r3, #32
 5274 023e 8361     		str	r3, [r0, #24]
 5275              	.LVL394:
 5276              	.L330:
2084:stm32f4xx-hal-driver/Src/stm32f4xx_ll_usb.c ****   }
 5277              		.loc 1 2084 5 is_stmt 1 view .LVU1727
2084:stm32f4xx-hal-driver/Src/stm32f4xx_ll_usb.c ****   }
 5278              		.loc 1 2084 11 is_stmt 0 view .LVU1728
 5279 0240 0023     		movs	r3, #0
 5280 0242 0093     		str	r3, [sp]
 5281 0244 0B8C     		ldrh	r3, [r1, #32]
 5282 0246 4A78     		ldrb	r2, [r1, #1]	@ zero_extendqisi2
 5283 0248 8969     		ldr	r1, [r1, #24]
 5284              	.LVL395:
2084:stm32f4xx-hal-driver/Src/stm32f4xx_ll_usb.c ****   }
 5285              		.loc 1 2084 11 view .LVU1729
 5286 024a FFF7FEFF 		bl	USB_WritePacket
 5287              	.LVL396:
 5288              	.L306:
2088:stm32f4xx-hal-driver/Src/stm32f4xx_ll_usb.c **** 
 5289              		.loc 1 2088 1 view .LVU1730
 5290 024e 0020     		movs	r0, #0
 5291 0250 05B0     		add	sp, sp, #20
 5292              	.LCFI74:
 5293              		.cfi_remember_state
 5294              		.cfi_def_cfa_offset 20
 5295              		@ sp needed
 5296 0252 F0BD     		pop	{r4, r5, r6, r7, pc}
 5297              	.LVL397:
 5298              	.L331:
 5299              	.LCFI75:
ARM GAS  /tmp/ccXMuxQe.s 			page 156


 5300              		.cfi_restore_state
2070:stm32f4xx-hal-driver/Src/stm32f4xx_ll_usb.c ****         /* check if there is enough space in FIFO space */
 5301              		.loc 1 2070 9 is_stmt 1 view .LVU1731
2070:stm32f4xx-hal-driver/Src/stm32f4xx_ll_usb.c ****         /* check if there is enough space in FIFO space */
 5302              		.loc 1 2070 46 is_stmt 0 view .LVU1732
 5303 0254 0333     		adds	r3, r3, #3
 5304              	.LVL398:
2072:stm32f4xx-hal-driver/Src/stm32f4xx_ll_usb.c ****         {
 5305              		.loc 1 2072 9 is_stmt 1 view .LVU1733
2072:stm32f4xx-hal-driver/Src/stm32f4xx_ll_usb.c ****         {
 5306              		.loc 1 2072 35 is_stmt 0 view .LVU1734
 5307 0256 2A69     		ldr	r2, [r5, #16]
2072:stm32f4xx-hal-driver/Src/stm32f4xx_ll_usb.c ****         {
 5308              		.loc 1 2072 45 view .LVU1735
 5309 0258 92B2     		uxth	r2, r2
2072:stm32f4xx-hal-driver/Src/stm32f4xx_ll_usb.c ****         {
 5310              		.loc 1 2072 12 view .LVU1736
 5311 025a C3F38F03 		ubfx	r3, r3, #2, #16
 5312              	.LVL399:
2072:stm32f4xx-hal-driver/Src/stm32f4xx_ll_usb.c ****         {
 5313              		.loc 1 2072 12 view .LVU1737
 5314 025e 9A42     		cmp	r2, r3
 5315 0260 EED2     		bcs	.L330
2075:stm32f4xx-hal-driver/Src/stm32f4xx_ll_usb.c ****         }
 5316              		.loc 1 2075 11 is_stmt 1 view .LVU1738
2075:stm32f4xx-hal-driver/Src/stm32f4xx_ll_usb.c ****         }
 5317              		.loc 1 2075 25 is_stmt 0 view .LVU1739
 5318 0262 8369     		ldr	r3, [r0, #24]
 5319 0264 43F08063 		orr	r3, r3, #67108864
 5320 0268 8361     		str	r3, [r0, #24]
 5321              	.LVL400:
2075:stm32f4xx-hal-driver/Src/stm32f4xx_ll_usb.c ****         }
 5322              		.loc 1 2075 25 view .LVU1740
 5323 026a E9E7     		b	.L330
 5324              	.L346:
 5325              		.align	2
 5326              	.L345:
 5327 026c 00000440 		.word	1074003968
 5328 0270 0000F81F 		.word	536346624
 5329              		.cfi_endproc
 5330              	.LFE281:
 5332              		.section	.text.USB_StopHost,"ax",%progbits
 5333              		.align	1
 5334              		.global	USB_StopHost
 5335              		.syntax unified
 5336              		.thumb
 5337              		.thumb_func
 5338              		.fpu fpv4-sp-d16
 5340              	USB_StopHost:
 5341              	.LVL401:
 5342              	.LFB285:
2211:stm32f4xx-hal-driver/Src/stm32f4xx_ll_usb.c **** 
2212:stm32f4xx-hal-driver/Src/stm32f4xx_ll_usb.c **** /**
2213:stm32f4xx-hal-driver/Src/stm32f4xx_ll_usb.c ****   * @brief  Stop Host Core
2214:stm32f4xx-hal-driver/Src/stm32f4xx_ll_usb.c ****   * @param  USBx  Selected device
2215:stm32f4xx-hal-driver/Src/stm32f4xx_ll_usb.c ****   * @retval HAL state
2216:stm32f4xx-hal-driver/Src/stm32f4xx_ll_usb.c ****   */
ARM GAS  /tmp/ccXMuxQe.s 			page 157


2217:stm32f4xx-hal-driver/Src/stm32f4xx_ll_usb.c **** HAL_StatusTypeDef USB_StopHost(USB_OTG_GlobalTypeDef *USBx)
2218:stm32f4xx-hal-driver/Src/stm32f4xx_ll_usb.c **** {
 5343              		.loc 1 2218 1 is_stmt 1 view -0
 5344              		.cfi_startproc
 5345              		@ args = 0, pretend = 0, frame = 8
 5346              		@ frame_needed = 0, uses_anonymous_args = 0
 5347              		.loc 1 2218 1 is_stmt 0 view .LVU1742
 5348 0000 70B5     		push	{r4, r5, r6, lr}
 5349              	.LCFI76:
 5350              		.cfi_def_cfa_offset 16
 5351              		.cfi_offset 4, -16
 5352              		.cfi_offset 5, -12
 5353              		.cfi_offset 6, -8
 5354              		.cfi_offset 14, -4
 5355 0002 82B0     		sub	sp, sp, #8
 5356              	.LCFI77:
 5357              		.cfi_def_cfa_offset 24
 5358 0004 0546     		mov	r5, r0
2219:stm32f4xx-hal-driver/Src/stm32f4xx_ll_usb.c ****   HAL_StatusTypeDef ret = HAL_OK;
 5359              		.loc 1 2219 3 is_stmt 1 view .LVU1743
 5360              	.LVL402:
2220:stm32f4xx-hal-driver/Src/stm32f4xx_ll_usb.c ****   uint32_t USBx_BASE = (uint32_t)USBx;
 5361              		.loc 1 2220 3 view .LVU1744
 5362              		.loc 1 2220 12 is_stmt 0 view .LVU1745
 5363 0006 0446     		mov	r4, r0
 5364              	.LVL403:
2221:stm32f4xx-hal-driver/Src/stm32f4xx_ll_usb.c ****   __IO uint32_t count = 0U;
 5365              		.loc 1 2221 3 is_stmt 1 view .LVU1746
 5366              		.loc 1 2221 17 is_stmt 0 view .LVU1747
 5367 0008 0023     		movs	r3, #0
 5368 000a 0193     		str	r3, [sp, #4]
2222:stm32f4xx-hal-driver/Src/stm32f4xx_ll_usb.c ****   uint32_t value;
 5369              		.loc 1 2222 3 is_stmt 1 view .LVU1748
2223:stm32f4xx-hal-driver/Src/stm32f4xx_ll_usb.c ****   uint32_t i;
 5370              		.loc 1 2223 3 view .LVU1749
2224:stm32f4xx-hal-driver/Src/stm32f4xx_ll_usb.c **** 
2225:stm32f4xx-hal-driver/Src/stm32f4xx_ll_usb.c ****   (void)USB_DisableGlobalInt(USBx);
 5371              		.loc 1 2225 3 view .LVU1750
 5372              		.loc 1 2225 9 is_stmt 0 view .LVU1751
 5373 000c FFF7FEFF 		bl	USB_DisableGlobalInt
 5374              	.LVL404:
2226:stm32f4xx-hal-driver/Src/stm32f4xx_ll_usb.c **** 
2227:stm32f4xx-hal-driver/Src/stm32f4xx_ll_usb.c ****   /* Flush USB FIFO */
2228:stm32f4xx-hal-driver/Src/stm32f4xx_ll_usb.c ****   if (USB_FlushTxFifo(USBx, 0x10U) != HAL_OK) /* all Tx FIFOs */
 5375              		.loc 1 2228 3 is_stmt 1 view .LVU1752
 5376              		.loc 1 2228 7 is_stmt 0 view .LVU1753
 5377 0010 1021     		movs	r1, #16
 5378 0012 2846     		mov	r0, r5
 5379 0014 FFF7FEFF 		bl	USB_FlushTxFifo
 5380              	.LVL405:
 5381              		.loc 1 2228 6 view .LVU1754
 5382 0018 0646     		mov	r6, r0
 5383 001a 00B1     		cbz	r0, .L348
2229:stm32f4xx-hal-driver/Src/stm32f4xx_ll_usb.c ****   {
2230:stm32f4xx-hal-driver/Src/stm32f4xx_ll_usb.c ****     ret = HAL_ERROR;
 5384              		.loc 1 2230 9 view .LVU1755
 5385 001c 0126     		movs	r6, #1
ARM GAS  /tmp/ccXMuxQe.s 			page 158


 5386              	.L348:
 5387              	.LVL406:
2231:stm32f4xx-hal-driver/Src/stm32f4xx_ll_usb.c ****   }
2232:stm32f4xx-hal-driver/Src/stm32f4xx_ll_usb.c **** 
2233:stm32f4xx-hal-driver/Src/stm32f4xx_ll_usb.c ****   if (USB_FlushRxFifo(USBx) != HAL_OK)
 5388              		.loc 1 2233 3 is_stmt 1 view .LVU1756
 5389              		.loc 1 2233 7 is_stmt 0 view .LVU1757
 5390 001e 2846     		mov	r0, r5
 5391 0020 FFF7FEFF 		bl	USB_FlushRxFifo
 5392              	.LVL407:
 5393              		.loc 1 2233 6 view .LVU1758
 5394 0024 00B1     		cbz	r0, .L349
2234:stm32f4xx-hal-driver/Src/stm32f4xx_ll_usb.c ****   {
2235:stm32f4xx-hal-driver/Src/stm32f4xx_ll_usb.c ****     ret = HAL_ERROR;
 5395              		.loc 1 2235 9 view .LVU1759
 5396 0026 0126     		movs	r6, #1
 5397              	.LVL408:
 5398              	.L349:
2236:stm32f4xx-hal-driver/Src/stm32f4xx_ll_usb.c ****   }
2237:stm32f4xx-hal-driver/Src/stm32f4xx_ll_usb.c **** 
2238:stm32f4xx-hal-driver/Src/stm32f4xx_ll_usb.c ****   /* Flush out any leftover queued requests. */
2239:stm32f4xx-hal-driver/Src/stm32f4xx_ll_usb.c ****   for (i = 0U; i <= 15U; i++)
 5399              		.loc 1 2239 3 is_stmt 1 view .LVU1760
 5400              		.loc 1 2239 10 is_stmt 0 view .LVU1761
 5401 0028 0022     		movs	r2, #0
 5402              		.loc 1 2239 3 view .LVU1762
 5403 002a 0AE0     		b	.L350
 5404              	.LVL409:
 5405              	.L351:
2240:stm32f4xx-hal-driver/Src/stm32f4xx_ll_usb.c ****   {
2241:stm32f4xx-hal-driver/Src/stm32f4xx_ll_usb.c ****     value = USBx_HC(i)->HCCHAR;
 5406              		.loc 1 2241 5 is_stmt 1 discriminator 3 view .LVU1763
 5407              		.loc 1 2241 13 is_stmt 0 discriminator 3 view .LVU1764
 5408 002c 04EB4211 		add	r1, r4, r2, lsl #5
 5409              		.loc 1 2241 11 discriminator 3 view .LVU1765
 5410 0030 D1F80035 		ldr	r3, [r1, #1280]
 5411              	.LVL410:
2242:stm32f4xx-hal-driver/Src/stm32f4xx_ll_usb.c ****     value |=  USB_OTG_HCCHAR_CHDIS;
 5412              		.loc 1 2242 5 is_stmt 1 discriminator 3 view .LVU1766
2243:stm32f4xx-hal-driver/Src/stm32f4xx_ll_usb.c ****     value &= ~USB_OTG_HCCHAR_CHENA;
 5413              		.loc 1 2243 5 discriminator 3 view .LVU1767
2244:stm32f4xx-hal-driver/Src/stm32f4xx_ll_usb.c ****     value &= ~USB_OTG_HCCHAR_EPDIR;
 5414              		.loc 1 2244 5 discriminator 3 view .LVU1768
 5415 0034 23F08023 		bic	r3, r3, #-2147450880
 5416              	.LVL411:
 5417              		.loc 1 2244 11 is_stmt 0 discriminator 3 view .LVU1769
 5418 0038 43F08043 		orr	r3, r3, #1073741824
 5419              	.LVL412:
2245:stm32f4xx-hal-driver/Src/stm32f4xx_ll_usb.c ****     USBx_HC(i)->HCCHAR = value;
 5420              		.loc 1 2245 5 is_stmt 1 discriminator 3 view .LVU1770
 5421              		.loc 1 2245 24 is_stmt 0 discriminator 3 view .LVU1771
 5422 003c C1F80035 		str	r3, [r1, #1280]
2239:stm32f4xx-hal-driver/Src/stm32f4xx_ll_usb.c ****   {
 5423              		.loc 1 2239 26 is_stmt 1 discriminator 3 view .LVU1772
2239:stm32f4xx-hal-driver/Src/stm32f4xx_ll_usb.c ****   {
 5424              		.loc 1 2239 27 is_stmt 0 discriminator 3 view .LVU1773
 5425 0040 0132     		adds	r2, r2, #1
ARM GAS  /tmp/ccXMuxQe.s 			page 159


 5426              	.LVL413:
 5427              	.L350:
2239:stm32f4xx-hal-driver/Src/stm32f4xx_ll_usb.c ****   {
 5428              		.loc 1 2239 16 is_stmt 1 discriminator 1 view .LVU1774
2239:stm32f4xx-hal-driver/Src/stm32f4xx_ll_usb.c ****   {
 5429              		.loc 1 2239 3 is_stmt 0 discriminator 1 view .LVU1775
 5430 0042 0F2A     		cmp	r2, #15
 5431 0044 F2D9     		bls	.L351
2246:stm32f4xx-hal-driver/Src/stm32f4xx_ll_usb.c ****   }
2247:stm32f4xx-hal-driver/Src/stm32f4xx_ll_usb.c **** 
2248:stm32f4xx-hal-driver/Src/stm32f4xx_ll_usb.c ****   /* Halt all channels to put them into a known state. */
2249:stm32f4xx-hal-driver/Src/stm32f4xx_ll_usb.c ****   for (i = 0U; i <= 15U; i++)
 5432              		.loc 1 2249 10 view .LVU1776
 5433 0046 0021     		movs	r1, #0
 5434 0048 00E0     		b	.L352
 5435              	.LVL414:
 5436              	.L353:
 5437              		.loc 1 2249 26 is_stmt 1 discriminator 2 view .LVU1777
 5438              		.loc 1 2249 27 is_stmt 0 discriminator 2 view .LVU1778
 5439 004a 0131     		adds	r1, r1, #1
 5440              	.LVL415:
 5441              	.L352:
 5442              		.loc 1 2249 16 is_stmt 1 discriminator 1 view .LVU1779
 5443              		.loc 1 2249 3 is_stmt 0 discriminator 1 view .LVU1780
 5444 004c 0F29     		cmp	r1, #15
 5445 004e 16D8     		bhi	.L359
2250:stm32f4xx-hal-driver/Src/stm32f4xx_ll_usb.c ****   {
2251:stm32f4xx-hal-driver/Src/stm32f4xx_ll_usb.c ****     value = USBx_HC(i)->HCCHAR;
 5446              		.loc 1 2251 5 is_stmt 1 view .LVU1781
 5447              		.loc 1 2251 13 is_stmt 0 view .LVU1782
 5448 0050 04EB4110 		add	r0, r4, r1, lsl #5
 5449 0054 00F5A062 		add	r2, r0, #1280
 5450              		.loc 1 2251 11 view .LVU1783
 5451 0058 D0F80035 		ldr	r3, [r0, #1280]
 5452              	.LVL416:
2252:stm32f4xx-hal-driver/Src/stm32f4xx_ll_usb.c ****     value |= USB_OTG_HCCHAR_CHDIS;
 5453              		.loc 1 2252 5 is_stmt 1 view .LVU1784
2253:stm32f4xx-hal-driver/Src/stm32f4xx_ll_usb.c ****     value |= USB_OTG_HCCHAR_CHENA;
 5454              		.loc 1 2253 5 view .LVU1785
2254:stm32f4xx-hal-driver/Src/stm32f4xx_ll_usb.c ****     value &= ~USB_OTG_HCCHAR_EPDIR;
 5455              		.loc 1 2254 5 view .LVU1786
 5456 005c 23F40043 		bic	r3, r3, #32768
 5457              	.LVL417:
 5458              		.loc 1 2254 11 is_stmt 0 view .LVU1787
 5459 0060 43F04043 		orr	r3, r3, #-1073741824
 5460              	.LVL418:
2255:stm32f4xx-hal-driver/Src/stm32f4xx_ll_usb.c ****     USBx_HC(i)->HCCHAR = value;
 5461              		.loc 1 2255 5 is_stmt 1 view .LVU1788
 5462              		.loc 1 2255 24 is_stmt 0 view .LVU1789
 5463 0064 C0F80035 		str	r3, [r0, #1280]
 5464              	.LVL419:
 5465              	.L354:
2256:stm32f4xx-hal-driver/Src/stm32f4xx_ll_usb.c **** 
2257:stm32f4xx-hal-driver/Src/stm32f4xx_ll_usb.c ****     do
 5466              		.loc 1 2257 5 is_stmt 1 view .LVU1790
2258:stm32f4xx-hal-driver/Src/stm32f4xx_ll_usb.c ****     {
2259:stm32f4xx-hal-driver/Src/stm32f4xx_ll_usb.c ****       count++;
ARM GAS  /tmp/ccXMuxQe.s 			page 160


 5467              		.loc 1 2259 7 view .LVU1791
 5468              		.loc 1 2259 12 is_stmt 0 view .LVU1792
 5469 0068 019B     		ldr	r3, [sp, #4]
 5470 006a 0133     		adds	r3, r3, #1
 5471 006c 0193     		str	r3, [sp, #4]
2260:stm32f4xx-hal-driver/Src/stm32f4xx_ll_usb.c **** 
2261:stm32f4xx-hal-driver/Src/stm32f4xx_ll_usb.c ****       if (count > 1000U)
 5472              		.loc 1 2261 7 is_stmt 1 view .LVU1793
 5473              		.loc 1 2261 17 is_stmt 0 view .LVU1794
 5474 006e 019B     		ldr	r3, [sp, #4]
 5475              		.loc 1 2261 10 view .LVU1795
 5476 0070 B3F57A7F 		cmp	r3, #1000
 5477 0074 E9D8     		bhi	.L353
2262:stm32f4xx-hal-driver/Src/stm32f4xx_ll_usb.c ****       {
2263:stm32f4xx-hal-driver/Src/stm32f4xx_ll_usb.c ****         break;
2264:stm32f4xx-hal-driver/Src/stm32f4xx_ll_usb.c ****       }
2265:stm32f4xx-hal-driver/Src/stm32f4xx_ll_usb.c ****     } while ((USBx_HC(i)->HCCHAR & USB_OTG_HCCHAR_CHENA) == USB_OTG_HCCHAR_CHENA);
 5478              		.loc 1 2265 13 is_stmt 1 view .LVU1796
 5479              		.loc 1 2265 25 is_stmt 0 view .LVU1797
 5480 0076 1368     		ldr	r3, [r2]
 5481              		.loc 1 2265 5 view .LVU1798
 5482 0078 002B     		cmp	r3, #0
 5483 007a F5DB     		blt	.L354
 5484 007c E5E7     		b	.L353
 5485              	.L359:
2266:stm32f4xx-hal-driver/Src/stm32f4xx_ll_usb.c ****   }
2267:stm32f4xx-hal-driver/Src/stm32f4xx_ll_usb.c **** 
2268:stm32f4xx-hal-driver/Src/stm32f4xx_ll_usb.c ****   /* Clear any pending Host interrupts */
2269:stm32f4xx-hal-driver/Src/stm32f4xx_ll_usb.c ****   USBx_HOST->HAINT = CLEAR_INTERRUPT_MASK;
 5486              		.loc 1 2269 3 is_stmt 1 view .LVU1799
 5487              		.loc 1 2269 20 is_stmt 0 view .LVU1800
 5488 007e 4FF0FF33 		mov	r3, #-1
 5489 0082 C5F81434 		str	r3, [r5, #1044]
2270:stm32f4xx-hal-driver/Src/stm32f4xx_ll_usb.c ****   USBx->GINTSTS = CLEAR_INTERRUPT_MASK;
 5490              		.loc 1 2270 3 is_stmt 1 view .LVU1801
 5491              		.loc 1 2270 17 is_stmt 0 view .LVU1802
 5492 0086 6B61     		str	r3, [r5, #20]
2271:stm32f4xx-hal-driver/Src/stm32f4xx_ll_usb.c **** 
2272:stm32f4xx-hal-driver/Src/stm32f4xx_ll_usb.c ****   (void)USB_EnableGlobalInt(USBx);
 5493              		.loc 1 2272 3 is_stmt 1 view .LVU1803
 5494              		.loc 1 2272 9 is_stmt 0 view .LVU1804
 5495 0088 2846     		mov	r0, r5
 5496 008a FFF7FEFF 		bl	USB_EnableGlobalInt
 5497              	.LVL420:
2273:stm32f4xx-hal-driver/Src/stm32f4xx_ll_usb.c **** 
2274:stm32f4xx-hal-driver/Src/stm32f4xx_ll_usb.c ****   return ret;
 5498              		.loc 1 2274 3 is_stmt 1 view .LVU1805
2275:stm32f4xx-hal-driver/Src/stm32f4xx_ll_usb.c **** }
 5499              		.loc 1 2275 1 is_stmt 0 view .LVU1806
 5500 008e 3046     		mov	r0, r6
 5501 0090 02B0     		add	sp, sp, #8
 5502              	.LCFI78:
 5503              		.cfi_def_cfa_offset 16
 5504              		@ sp needed
 5505 0092 70BD     		pop	{r4, r5, r6, pc}
 5506              		.loc 1 2275 1 view .LVU1807
 5507              		.cfi_endproc
ARM GAS  /tmp/ccXMuxQe.s 			page 161


 5508              	.LFE285:
 5510              		.section	.text.USB_ActivateRemoteWakeup,"ax",%progbits
 5511              		.align	1
 5512              		.global	USB_ActivateRemoteWakeup
 5513              		.syntax unified
 5514              		.thumb
 5515              		.thumb_func
 5516              		.fpu fpv4-sp-d16
 5518              	USB_ActivateRemoteWakeup:
 5519              	.LVL421:
 5520              	.LFB286:
2276:stm32f4xx-hal-driver/Src/stm32f4xx_ll_usb.c **** 
2277:stm32f4xx-hal-driver/Src/stm32f4xx_ll_usb.c **** /**
2278:stm32f4xx-hal-driver/Src/stm32f4xx_ll_usb.c ****   * @brief  USB_ActivateRemoteWakeup active remote wakeup signalling
2279:stm32f4xx-hal-driver/Src/stm32f4xx_ll_usb.c ****   * @param  USBx Selected device
2280:stm32f4xx-hal-driver/Src/stm32f4xx_ll_usb.c ****   * @retval HAL status
2281:stm32f4xx-hal-driver/Src/stm32f4xx_ll_usb.c ****   */
2282:stm32f4xx-hal-driver/Src/stm32f4xx_ll_usb.c **** HAL_StatusTypeDef USB_ActivateRemoteWakeup(const USB_OTG_GlobalTypeDef *USBx)
2283:stm32f4xx-hal-driver/Src/stm32f4xx_ll_usb.c **** {
 5521              		.loc 1 2283 1 is_stmt 1 view -0
 5522              		.cfi_startproc
 5523              		@ args = 0, pretend = 0, frame = 0
 5524              		@ frame_needed = 0, uses_anonymous_args = 0
 5525              		@ link register save eliminated.
2284:stm32f4xx-hal-driver/Src/stm32f4xx_ll_usb.c ****   uint32_t USBx_BASE = (uint32_t)USBx;
 5526              		.loc 1 2284 3 view .LVU1809
2285:stm32f4xx-hal-driver/Src/stm32f4xx_ll_usb.c **** 
2286:stm32f4xx-hal-driver/Src/stm32f4xx_ll_usb.c ****   if ((USBx_DEVICE->DSTS & USB_OTG_DSTS_SUSPSTS) == USB_OTG_DSTS_SUSPSTS)
 5527              		.loc 1 2286 3 view .LVU1810
 5528              		.loc 1 2286 19 is_stmt 0 view .LVU1811
 5529 0000 D0F80838 		ldr	r3, [r0, #2056]
 5530              		.loc 1 2286 8 view .LVU1812
 5531 0004 00F50060 		add	r0, r0, #2048
 5532              	.LVL422:
 5533              		.loc 1 2286 6 view .LVU1813
 5534 0008 13F0010F 		tst	r3, #1
 5535 000c 03D0     		beq	.L361
2287:stm32f4xx-hal-driver/Src/stm32f4xx_ll_usb.c ****   {
2288:stm32f4xx-hal-driver/Src/stm32f4xx_ll_usb.c ****     /* active Remote wakeup signalling */
2289:stm32f4xx-hal-driver/Src/stm32f4xx_ll_usb.c ****     USBx_DEVICE->DCTL |= USB_OTG_DCTL_RWUSIG;
 5536              		.loc 1 2289 5 is_stmt 1 view .LVU1814
 5537              		.loc 1 2289 23 is_stmt 0 view .LVU1815
 5538 000e 4368     		ldr	r3, [r0, #4]
 5539 0010 43F00103 		orr	r3, r3, #1
 5540 0014 4360     		str	r3, [r0, #4]
 5541              	.L361:
2290:stm32f4xx-hal-driver/Src/stm32f4xx_ll_usb.c ****   }
2291:stm32f4xx-hal-driver/Src/stm32f4xx_ll_usb.c **** 
2292:stm32f4xx-hal-driver/Src/stm32f4xx_ll_usb.c ****   return HAL_OK;
 5542              		.loc 1 2292 3 is_stmt 1 view .LVU1816
2293:stm32f4xx-hal-driver/Src/stm32f4xx_ll_usb.c **** }
 5543              		.loc 1 2293 1 is_stmt 0 view .LVU1817
 5544 0016 0020     		movs	r0, #0
 5545              	.LVL423:
 5546              		.loc 1 2293 1 view .LVU1818
 5547 0018 7047     		bx	lr
 5548              		.cfi_endproc
ARM GAS  /tmp/ccXMuxQe.s 			page 162


 5549              	.LFE286:
 5551              		.section	.text.USB_DeActivateRemoteWakeup,"ax",%progbits
 5552              		.align	1
 5553              		.global	USB_DeActivateRemoteWakeup
 5554              		.syntax unified
 5555              		.thumb
 5556              		.thumb_func
 5557              		.fpu fpv4-sp-d16
 5559              	USB_DeActivateRemoteWakeup:
 5560              	.LVL424:
 5561              	.LFB287:
2294:stm32f4xx-hal-driver/Src/stm32f4xx_ll_usb.c **** 
2295:stm32f4xx-hal-driver/Src/stm32f4xx_ll_usb.c **** /**
2296:stm32f4xx-hal-driver/Src/stm32f4xx_ll_usb.c ****   * @brief  USB_DeActivateRemoteWakeup de-active remote wakeup signalling
2297:stm32f4xx-hal-driver/Src/stm32f4xx_ll_usb.c ****   * @param  USBx Selected device
2298:stm32f4xx-hal-driver/Src/stm32f4xx_ll_usb.c ****   * @retval HAL status
2299:stm32f4xx-hal-driver/Src/stm32f4xx_ll_usb.c ****   */
2300:stm32f4xx-hal-driver/Src/stm32f4xx_ll_usb.c **** HAL_StatusTypeDef USB_DeActivateRemoteWakeup(const USB_OTG_GlobalTypeDef *USBx)
2301:stm32f4xx-hal-driver/Src/stm32f4xx_ll_usb.c **** {
 5562              		.loc 1 2301 1 is_stmt 1 view -0
 5563              		.cfi_startproc
 5564              		@ args = 0, pretend = 0, frame = 0
 5565              		@ frame_needed = 0, uses_anonymous_args = 0
 5566              		@ link register save eliminated.
2302:stm32f4xx-hal-driver/Src/stm32f4xx_ll_usb.c ****   uint32_t USBx_BASE = (uint32_t)USBx;
 5567              		.loc 1 2302 3 view .LVU1820
2303:stm32f4xx-hal-driver/Src/stm32f4xx_ll_usb.c **** 
2304:stm32f4xx-hal-driver/Src/stm32f4xx_ll_usb.c ****   /* active Remote wakeup signalling */
2305:stm32f4xx-hal-driver/Src/stm32f4xx_ll_usb.c ****   USBx_DEVICE->DCTL &= ~(USB_OTG_DCTL_RWUSIG);
 5568              		.loc 1 2305 3 view .LVU1821
 5569              		.loc 1 2305 21 is_stmt 0 view .LVU1822
 5570 0000 D0F80438 		ldr	r3, [r0, #2052]
 5571 0004 23F00103 		bic	r3, r3, #1
 5572 0008 C0F80438 		str	r3, [r0, #2052]
2306:stm32f4xx-hal-driver/Src/stm32f4xx_ll_usb.c **** 
2307:stm32f4xx-hal-driver/Src/stm32f4xx_ll_usb.c ****   return HAL_OK;
 5573              		.loc 1 2307 3 is_stmt 1 view .LVU1823
2308:stm32f4xx-hal-driver/Src/stm32f4xx_ll_usb.c **** }
 5574              		.loc 1 2308 1 is_stmt 0 view .LVU1824
 5575 000c 0020     		movs	r0, #0
 5576              	.LVL425:
 5577              		.loc 1 2308 1 view .LVU1825
 5578 000e 7047     		bx	lr
 5579              		.cfi_endproc
 5580              	.LFE287:
 5582              		.text
 5583              	.Letext0:
 5584              		.file 2 "/opt/gcc_arm/gcc-arm-none-eabi-9-2019-q4-major/arm-none-eabi/include/machine/_default_typ
 5585              		.file 3 "/opt/gcc_arm/gcc-arm-none-eabi-9-2019-q4-major/arm-none-eabi/include/sys/_stdint.h"
 5586              		.file 4 "CMSIS_5/CMSIS/Core/Include/cmsis_gcc.h"
 5587              		.file 5 "CMSIS_5/CMSIS/Core/Include/core_cm4.h"
 5588              		.file 6 "cmsis-device-f4/Include/system_stm32f4xx.h"
 5589              		.file 7 "cmsis-device-f4/Include/stm32f407xx.h"
 5590              		.file 8 "stm32f4xx-hal-driver/Inc/stm32f4xx_hal_def.h"
 5591              		.file 9 "stm32f4xx-hal-driver/Inc/stm32f4xx_ll_usb.h"
 5592              		.file 10 "stm32f4xx-hal-driver/Inc/stm32f4xx_hal.h"
ARM GAS  /tmp/ccXMuxQe.s 			page 163


DEFINED SYMBOLS
                            *ABS*:0000000000000000 stm32f4xx_ll_usb.c
     /tmp/ccXMuxQe.s:18     .text.USB_CoreReset:0000000000000000 $t
     /tmp/ccXMuxQe.s:25     .text.USB_CoreReset:0000000000000000 USB_CoreReset
     /tmp/ccXMuxQe.s:134    .text.USB_CoreInit:0000000000000000 $t
     /tmp/ccXMuxQe.s:141    .text.USB_CoreInit:0000000000000000 USB_CoreInit
     /tmp/ccXMuxQe.s:274    .text.USB_SetTurnaroundTime:0000000000000000 $t
     /tmp/ccXMuxQe.s:281    .text.USB_SetTurnaroundTime:0000000000000000 USB_SetTurnaroundTime
     /tmp/ccXMuxQe.s:461    .text.USB_SetTurnaroundTime:00000000000000a8 $d
     /tmp/ccXMuxQe.s:480    .text.USB_EnableGlobalInt:0000000000000000 $t
     /tmp/ccXMuxQe.s:487    .text.USB_EnableGlobalInt:0000000000000000 USB_EnableGlobalInt
     /tmp/ccXMuxQe.s:510    .text.USB_DisableGlobalInt:0000000000000000 $t
     /tmp/ccXMuxQe.s:517    .text.USB_DisableGlobalInt:0000000000000000 USB_DisableGlobalInt
     /tmp/ccXMuxQe.s:540    .text.USB_FlushTxFifo:0000000000000000 $t
     /tmp/ccXMuxQe.s:547    .text.USB_FlushTxFifo:0000000000000000 USB_FlushTxFifo
     /tmp/ccXMuxQe.s:644    .text.USB_FlushRxFifo:0000000000000000 $t
     /tmp/ccXMuxQe.s:651    .text.USB_FlushRxFifo:0000000000000000 USB_FlushRxFifo
     /tmp/ccXMuxQe.s:744    .text.USB_SetDevSpeed:0000000000000000 $t
     /tmp/ccXMuxQe.s:751    .text.USB_SetDevSpeed:0000000000000000 USB_SetDevSpeed
     /tmp/ccXMuxQe.s:777    .text.USB_DevInit:0000000000000000 $t
     /tmp/ccXMuxQe.s:784    .text.USB_DevInit:0000000000000000 USB_DevInit
     /tmp/ccXMuxQe.s:1142   .text.USB_DevInit:0000000000000194 $d
     /tmp/ccXMuxQe.s:1147   .text.USB_GetDevSpeed:0000000000000000 $t
     /tmp/ccXMuxQe.s:1154   .text.USB_GetDevSpeed:0000000000000000 USB_GetDevSpeed
     /tmp/ccXMuxQe.s:1212   .text.USB_ActivateEndpoint:0000000000000000 $t
     /tmp/ccXMuxQe.s:1219   .text.USB_ActivateEndpoint:0000000000000000 USB_ActivateEndpoint
     /tmp/ccXMuxQe.s:1346   .text.USB_ActivateDedicatedEndpoint:0000000000000000 $t
     /tmp/ccXMuxQe.s:1353   .text.USB_ActivateDedicatedEndpoint:0000000000000000 USB_ActivateDedicatedEndpoint
     /tmp/ccXMuxQe.s:1489   .text.USB_DeactivateEndpoint:0000000000000000 $t
     /tmp/ccXMuxQe.s:1496   .text.USB_DeactivateEndpoint:0000000000000000 USB_DeactivateEndpoint
     /tmp/ccXMuxQe.s:1661   .text.USB_DeactivateEndpoint:00000000000000d4 $d
     /tmp/ccXMuxQe.s:1667   .text.USB_DeactivateDedicatedEndpoint:0000000000000000 $t
     /tmp/ccXMuxQe.s:1674   .text.USB_DeactivateDedicatedEndpoint:0000000000000000 USB_DeactivateDedicatedEndpoint
     /tmp/ccXMuxQe.s:1797   .text.USB_EPStopXfer:0000000000000000 $t
     /tmp/ccXMuxQe.s:1804   .text.USB_EPStopXfer:0000000000000000 USB_EPStopXfer
     /tmp/ccXMuxQe.s:1974   .text.USB_WritePacket:0000000000000000 $t
     /tmp/ccXMuxQe.s:1981   .text.USB_WritePacket:0000000000000000 USB_WritePacket
     /tmp/ccXMuxQe.s:2057   .text.USB_EPStartXfer:0000000000000000 $t
     /tmp/ccXMuxQe.s:2064   .text.USB_EPStartXfer:0000000000000000 USB_EPStartXfer
     /tmp/ccXMuxQe.s:2520   .text.USB_EPStartXfer:0000000000000240 $d
     /tmp/ccXMuxQe.s:2525   .text.USB_ReadPacket:0000000000000000 $t
     /tmp/ccXMuxQe.s:2532   .text.USB_ReadPacket:0000000000000000 USB_ReadPacket
     /tmp/ccXMuxQe.s:2657   .text.USB_EPSetStall:0000000000000000 $t
     /tmp/ccXMuxQe.s:2664   .text.USB_EPSetStall:0000000000000000 USB_EPSetStall
     /tmp/ccXMuxQe.s:2745   .text.USB_EPClearStall:0000000000000000 $t
     /tmp/ccXMuxQe.s:2752   .text.USB_EPClearStall:0000000000000000 USB_EPClearStall
     /tmp/ccXMuxQe.s:2835   .text.USB_StopDevice:0000000000000000 $t
     /tmp/ccXMuxQe.s:2842   .text.USB_StopDevice:0000000000000000 USB_StopDevice
     /tmp/ccXMuxQe.s:2929   .text.USB_SetDevAddress:0000000000000000 $t
     /tmp/ccXMuxQe.s:2936   .text.USB_SetDevAddress:0000000000000000 USB_SetDevAddress
     /tmp/ccXMuxQe.s:2971   .text.USB_DevConnect:0000000000000000 $t
     /tmp/ccXMuxQe.s:2978   .text.USB_DevConnect:0000000000000000 USB_DevConnect
     /tmp/ccXMuxQe.s:3007   .text.USB_DevDisconnect:0000000000000000 $t
     /tmp/ccXMuxQe.s:3014   .text.USB_DevDisconnect:0000000000000000 USB_DevDisconnect
     /tmp/ccXMuxQe.s:3043   .text.USB_ReadInterrupts:0000000000000000 $t
     /tmp/ccXMuxQe.s:3050   .text.USB_ReadInterrupts:0000000000000000 USB_ReadInterrupts
     /tmp/ccXMuxQe.s:3077   .text.USB_ReadChInterrupts:0000000000000000 $t
ARM GAS  /tmp/ccXMuxQe.s 			page 164


     /tmp/ccXMuxQe.s:3084   .text.USB_ReadChInterrupts:0000000000000000 USB_ReadChInterrupts
     /tmp/ccXMuxQe.s:3115   .text.USB_ReadDevAllOutEpInterrupt:0000000000000000 $t
     /tmp/ccXMuxQe.s:3122   .text.USB_ReadDevAllOutEpInterrupt:0000000000000000 USB_ReadDevAllOutEpInterrupt
     /tmp/ccXMuxQe.s:3155   .text.USB_ReadDevAllInEpInterrupt:0000000000000000 $t
     /tmp/ccXMuxQe.s:3162   .text.USB_ReadDevAllInEpInterrupt:0000000000000000 USB_ReadDevAllInEpInterrupt
     /tmp/ccXMuxQe.s:3195   .text.USB_ReadDevOutEPInterrupt:0000000000000000 $t
     /tmp/ccXMuxQe.s:3202   .text.USB_ReadDevOutEPInterrupt:0000000000000000 USB_ReadDevOutEPInterrupt
     /tmp/ccXMuxQe.s:3236   .text.USB_ReadDevInEPInterrupt:0000000000000000 $t
     /tmp/ccXMuxQe.s:3243   .text.USB_ReadDevInEPInterrupt:0000000000000000 USB_ReadDevInEPInterrupt
     /tmp/ccXMuxQe.s:3304   .text.USB_ClearInterrupts:0000000000000000 $t
     /tmp/ccXMuxQe.s:3311   .text.USB_ClearInterrupts:0000000000000000 USB_ClearInterrupts
     /tmp/ccXMuxQe.s:3330   .text.USB_GetMode:0000000000000000 $t
     /tmp/ccXMuxQe.s:3337   .text.USB_GetMode:0000000000000000 USB_GetMode
     /tmp/ccXMuxQe.s:3356   .text.USB_SetCurrentMode:0000000000000000 $t
     /tmp/ccXMuxQe.s:3363   .text.USB_SetCurrentMode:0000000000000000 USB_SetCurrentMode
     /tmp/ccXMuxQe.s:3480   .text.USB_ActivateSetup:0000000000000000 $t
     /tmp/ccXMuxQe.s:3487   .text.USB_ActivateSetup:0000000000000000 USB_ActivateSetup
     /tmp/ccXMuxQe.s:3517   .text.USB_EP0_OutStart:0000000000000000 $t
     /tmp/ccXMuxQe.s:3524   .text.USB_EP0_OutStart:0000000000000000 USB_EP0_OutStart
     /tmp/ccXMuxQe.s:3607   .text.USB_EP0_OutStart:000000000000005c $d
     /tmp/ccXMuxQe.s:3612   .text.USB_HostInit:0000000000000000 $t
     /tmp/ccXMuxQe.s:3619   .text.USB_HostInit:0000000000000000 USB_HostInit
     /tmp/ccXMuxQe.s:3833   .text.USB_HostInit:00000000000000f0 $d
     /tmp/ccXMuxQe.s:3841   .text.USB_InitFSLSPClkSel:0000000000000000 $t
     /tmp/ccXMuxQe.s:3848   .text.USB_InitFSLSPClkSel:0000000000000000 USB_InitFSLSPClkSel
     /tmp/ccXMuxQe.s:3926   .text.USB_ResetPort:0000000000000000 $t
     /tmp/ccXMuxQe.s:3933   .text.USB_ResetPort:0000000000000000 USB_ResetPort
     /tmp/ccXMuxQe.s:4002   .text.USB_DriveVbus:0000000000000000 $t
     /tmp/ccXMuxQe.s:4009   .text.USB_DriveVbus:0000000000000000 USB_DriveVbus
     /tmp/ccXMuxQe.s:4088   .text.USB_GetHostSpeed:0000000000000000 $t
     /tmp/ccXMuxQe.s:4095   .text.USB_GetHostSpeed:0000000000000000 USB_GetHostSpeed
     /tmp/ccXMuxQe.s:4133   .text.USB_GetCurrentFrame:0000000000000000 $t
     /tmp/ccXMuxQe.s:4140   .text.USB_GetCurrentFrame:0000000000000000 USB_GetCurrentFrame
     /tmp/ccXMuxQe.s:4163   .text.USB_HC_Init:0000000000000000 $t
     /tmp/ccXMuxQe.s:4170   .text.USB_HC_Init:0000000000000000 USB_HC_Init
     /tmp/ccXMuxQe.s:4212   .text.USB_HC_Init:0000000000000022 $d
     /tmp/ccXMuxQe.s:4216   .text.USB_HC_Init:0000000000000026 $t
     /tmp/ccXMuxQe.s:4416   .text.USB_HC_Init:0000000000000130 $d
     /tmp/ccXMuxQe.s:4421   .text.USB_HC_ReadInterrupt:0000000000000000 $t
     /tmp/ccXMuxQe.s:4428   .text.USB_HC_ReadInterrupt:0000000000000000 USB_HC_ReadInterrupt
     /tmp/ccXMuxQe.s:4451   .text.USB_HC_Halt:0000000000000000 $t
     /tmp/ccXMuxQe.s:4458   .text.USB_HC_Halt:0000000000000000 USB_HC_Halt
     /tmp/ccXMuxQe.s:4670   .text.USB_DoPing:0000000000000000 $t
     /tmp/ccXMuxQe.s:4677   .text.USB_DoPing:0000000000000000 USB_DoPing
     /tmp/ccXMuxQe.s:4719   .text.USB_DoPing:0000000000000020 $d
     /tmp/ccXMuxQe.s:4724   .text.USB_HC_StartXfer:0000000000000000 $t
     /tmp/ccXMuxQe.s:4731   .text.USB_HC_StartXfer:0000000000000000 USB_HC_StartXfer
     /tmp/ccXMuxQe.s:5110   .text.USB_HC_StartXfer:0000000000000180 $d
     /tmp/ccXMuxQe.s:5115   .text.USB_HC_StartXfer:0000000000000184 $t
     /tmp/ccXMuxQe.s:5175   .text.USB_HC_StartXfer:00000000000001c6 $d
     /tmp/ccXMuxQe.s:5179   .text.USB_HC_StartXfer:00000000000001ca $t
     /tmp/ccXMuxQe.s:5327   .text.USB_HC_StartXfer:000000000000026c $d
     /tmp/ccXMuxQe.s:5333   .text.USB_StopHost:0000000000000000 $t
     /tmp/ccXMuxQe.s:5340   .text.USB_StopHost:0000000000000000 USB_StopHost
     /tmp/ccXMuxQe.s:5511   .text.USB_ActivateRemoteWakeup:0000000000000000 $t
     /tmp/ccXMuxQe.s:5518   .text.USB_ActivateRemoteWakeup:0000000000000000 USB_ActivateRemoteWakeup
     /tmp/ccXMuxQe.s:5552   .text.USB_DeActivateRemoteWakeup:0000000000000000 $t
ARM GAS  /tmp/ccXMuxQe.s 			page 165


     /tmp/ccXMuxQe.s:5559   .text.USB_DeActivateRemoteWakeup:0000000000000000 USB_DeActivateRemoteWakeup

UNDEFINED SYMBOLS
HAL_Delay
