ARM GAS  /tmp/cco6h2AZ.s 			page 1


   1              		.cpu cortex-m4
   2              		.eabi_attribute 27, 1
   3              		.eabi_attribute 28, 1
   4              		.eabi_attribute 20, 1
   5              		.eabi_attribute 21, 1
   6              		.eabi_attribute 23, 3
   7              		.eabi_attribute 24, 1
   8              		.eabi_attribute 25, 1
   9              		.eabi_attribute 26, 1
  10              		.eabi_attribute 30, 1
  11              		.eabi_attribute 34, 1
  12              		.eabi_attribute 18, 4
  13              		.file	"stm32f4xx_hal_dac.c"
  14              		.text
  15              	.Ltext0:
  16              		.cfi_sections	.debug_frame
  17              		.section	.text.HAL_DAC_MspInit,"ax",%progbits
  18              		.align	1
  19              		.weak	HAL_DAC_MspInit
  20              		.arch armv7e-m
  21              		.syntax unified
  22              		.thumb
  23              		.thumb_func
  24              		.fpu fpv4-sp-d16
  26              	HAL_DAC_MspInit:
  27              	.LVL0:
  28              	.LFB241:
  29              		.file 1 "stm32f4xx-hal-driver/Src/stm32f4xx_hal_dac.c"
   1:stm32f4xx-hal-driver/Src/stm32f4xx_hal_dac.c **** /**
   2:stm32f4xx-hal-driver/Src/stm32f4xx_hal_dac.c ****   ******************************************************************************
   3:stm32f4xx-hal-driver/Src/stm32f4xx_hal_dac.c ****   * @file    stm32f4xx_hal_dac.c
   4:stm32f4xx-hal-driver/Src/stm32f4xx_hal_dac.c ****   * @author  MCD Application Team
   5:stm32f4xx-hal-driver/Src/stm32f4xx_hal_dac.c ****   * @brief   DAC HAL module driver.
   6:stm32f4xx-hal-driver/Src/stm32f4xx_hal_dac.c ****   *         This file provides firmware functions to manage the following
   7:stm32f4xx-hal-driver/Src/stm32f4xx_hal_dac.c ****   *         functionalities of the Digital to Analog Converter (DAC) peripheral:
   8:stm32f4xx-hal-driver/Src/stm32f4xx_hal_dac.c ****   *           + Initialization and de-initialization functions
   9:stm32f4xx-hal-driver/Src/stm32f4xx_hal_dac.c ****   *           + IO operation functions
  10:stm32f4xx-hal-driver/Src/stm32f4xx_hal_dac.c ****   *           + Peripheral Control functions
  11:stm32f4xx-hal-driver/Src/stm32f4xx_hal_dac.c ****   *           + Peripheral State and Errors functions
  12:stm32f4xx-hal-driver/Src/stm32f4xx_hal_dac.c ****   *
  13:stm32f4xx-hal-driver/Src/stm32f4xx_hal_dac.c ****   *
  14:stm32f4xx-hal-driver/Src/stm32f4xx_hal_dac.c ****   ******************************************************************************
  15:stm32f4xx-hal-driver/Src/stm32f4xx_hal_dac.c ****   * @attention
  16:stm32f4xx-hal-driver/Src/stm32f4xx_hal_dac.c ****   *
  17:stm32f4xx-hal-driver/Src/stm32f4xx_hal_dac.c ****   * Copyright (c) 2016 STMicroelectronics.
  18:stm32f4xx-hal-driver/Src/stm32f4xx_hal_dac.c ****   * All rights reserved.
  19:stm32f4xx-hal-driver/Src/stm32f4xx_hal_dac.c ****   *
  20:stm32f4xx-hal-driver/Src/stm32f4xx_hal_dac.c ****   * This software is licensed under terms that can be found in the LICENSE file
  21:stm32f4xx-hal-driver/Src/stm32f4xx_hal_dac.c ****   * in the root directory of this software component.
  22:stm32f4xx-hal-driver/Src/stm32f4xx_hal_dac.c ****   * If no LICENSE file comes with this software, it is provided AS-IS.
  23:stm32f4xx-hal-driver/Src/stm32f4xx_hal_dac.c ****   *
  24:stm32f4xx-hal-driver/Src/stm32f4xx_hal_dac.c ****   ******************************************************************************
  25:stm32f4xx-hal-driver/Src/stm32f4xx_hal_dac.c ****   @verbatim
  26:stm32f4xx-hal-driver/Src/stm32f4xx_hal_dac.c ****   ==============================================================================
  27:stm32f4xx-hal-driver/Src/stm32f4xx_hal_dac.c ****                       ##### DAC Peripheral features #####
  28:stm32f4xx-hal-driver/Src/stm32f4xx_hal_dac.c ****   ==============================================================================
  29:stm32f4xx-hal-driver/Src/stm32f4xx_hal_dac.c ****     [..]
ARM GAS  /tmp/cco6h2AZ.s 			page 2


  30:stm32f4xx-hal-driver/Src/stm32f4xx_hal_dac.c ****       *** DAC Channels ***
  31:stm32f4xx-hal-driver/Src/stm32f4xx_hal_dac.c ****       ====================
  32:stm32f4xx-hal-driver/Src/stm32f4xx_hal_dac.c ****     [..]
  33:stm32f4xx-hal-driver/Src/stm32f4xx_hal_dac.c ****     STM32F4 devices integrate two 12-bit Digital Analog Converters
  34:stm32f4xx-hal-driver/Src/stm32f4xx_hal_dac.c **** 
  35:stm32f4xx-hal-driver/Src/stm32f4xx_hal_dac.c ****     The 2 converters (i.e. channel1 & channel2)
  36:stm32f4xx-hal-driver/Src/stm32f4xx_hal_dac.c ****     can be used independently or simultaneously (dual mode):
  37:stm32f4xx-hal-driver/Src/stm32f4xx_hal_dac.c ****       (#) DAC channel1 with DAC_OUT1 (PA4) as output
  38:stm32f4xx-hal-driver/Src/stm32f4xx_hal_dac.c ****       (#) DAC channel2 with DAC_OUT2 (PA5) as output
  39:stm32f4xx-hal-driver/Src/stm32f4xx_hal_dac.c **** 
  40:stm32f4xx-hal-driver/Src/stm32f4xx_hal_dac.c ****       *** DAC Triggers ***
  41:stm32f4xx-hal-driver/Src/stm32f4xx_hal_dac.c ****       ====================
  42:stm32f4xx-hal-driver/Src/stm32f4xx_hal_dac.c ****     [..]
  43:stm32f4xx-hal-driver/Src/stm32f4xx_hal_dac.c ****     Digital to Analog conversion can be non-triggered using DAC_TRIGGER_NONE
  44:stm32f4xx-hal-driver/Src/stm32f4xx_hal_dac.c ****     and DAC_OUT1/DAC_OUT2 is available once writing to DHRx register.
  45:stm32f4xx-hal-driver/Src/stm32f4xx_hal_dac.c ****     [..]
  46:stm32f4xx-hal-driver/Src/stm32f4xx_hal_dac.c ****     Digital to Analog conversion can be triggered by:
  47:stm32f4xx-hal-driver/Src/stm32f4xx_hal_dac.c ****       (#) External event: EXTI Line 9 (any GPIOx_PIN_9) using DAC_TRIGGER_EXT_IT9.
  48:stm32f4xx-hal-driver/Src/stm32f4xx_hal_dac.c ****           The used pin (GPIOx_PIN_9) must be configured in input mode.
  49:stm32f4xx-hal-driver/Src/stm32f4xx_hal_dac.c **** 
  50:stm32f4xx-hal-driver/Src/stm32f4xx_hal_dac.c ****       (#) Timers TRGO: TIM2, TIM4, TIM5, TIM6, TIM7 and TIM8
  51:stm32f4xx-hal-driver/Src/stm32f4xx_hal_dac.c ****           (DAC_TRIGGER_T2_TRGO, DAC_TRIGGER_T4_TRGO...)
  52:stm32f4xx-hal-driver/Src/stm32f4xx_hal_dac.c **** 
  53:stm32f4xx-hal-driver/Src/stm32f4xx_hal_dac.c ****       (#) Software using DAC_TRIGGER_SOFTWARE
  54:stm32f4xx-hal-driver/Src/stm32f4xx_hal_dac.c **** 
  55:stm32f4xx-hal-driver/Src/stm32f4xx_hal_dac.c ****       *** DAC Buffer mode feature ***
  56:stm32f4xx-hal-driver/Src/stm32f4xx_hal_dac.c ****       ===============================
  57:stm32f4xx-hal-driver/Src/stm32f4xx_hal_dac.c ****       [..]
  58:stm32f4xx-hal-driver/Src/stm32f4xx_hal_dac.c ****       Each DAC channel integrates an output buffer that can be used to
  59:stm32f4xx-hal-driver/Src/stm32f4xx_hal_dac.c ****       reduce the output impedance, and to drive external loads directly
  60:stm32f4xx-hal-driver/Src/stm32f4xx_hal_dac.c ****       without having to add an external operational amplifier.
  61:stm32f4xx-hal-driver/Src/stm32f4xx_hal_dac.c ****       To enable, the output buffer use
  62:stm32f4xx-hal-driver/Src/stm32f4xx_hal_dac.c ****       sConfig.DAC_OutputBuffer = DAC_OUTPUTBUFFER_ENABLE;
  63:stm32f4xx-hal-driver/Src/stm32f4xx_hal_dac.c ****       [..]
  64:stm32f4xx-hal-driver/Src/stm32f4xx_hal_dac.c ****       (@) Refer to the device datasheet for more details about output
  65:stm32f4xx-hal-driver/Src/stm32f4xx_hal_dac.c ****           impedance value with and without output buffer.
  66:stm32f4xx-hal-driver/Src/stm32f4xx_hal_dac.c **** 
  67:stm32f4xx-hal-driver/Src/stm32f4xx_hal_dac.c ****        *** DAC wave generation feature ***
  68:stm32f4xx-hal-driver/Src/stm32f4xx_hal_dac.c ****        ===================================
  69:stm32f4xx-hal-driver/Src/stm32f4xx_hal_dac.c ****        [..]
  70:stm32f4xx-hal-driver/Src/stm32f4xx_hal_dac.c ****        Both DAC channels can be used to generate
  71:stm32f4xx-hal-driver/Src/stm32f4xx_hal_dac.c ****          (#) Noise wave
  72:stm32f4xx-hal-driver/Src/stm32f4xx_hal_dac.c ****          (#) Triangle wave
  73:stm32f4xx-hal-driver/Src/stm32f4xx_hal_dac.c **** 
  74:stm32f4xx-hal-driver/Src/stm32f4xx_hal_dac.c ****        *** DAC data format ***
  75:stm32f4xx-hal-driver/Src/stm32f4xx_hal_dac.c ****        =======================
  76:stm32f4xx-hal-driver/Src/stm32f4xx_hal_dac.c ****        [..]
  77:stm32f4xx-hal-driver/Src/stm32f4xx_hal_dac.c ****        The DAC data format can be:
  78:stm32f4xx-hal-driver/Src/stm32f4xx_hal_dac.c ****          (#) 8-bit right alignment using DAC_ALIGN_8B_R
  79:stm32f4xx-hal-driver/Src/stm32f4xx_hal_dac.c ****          (#) 12-bit left alignment using DAC_ALIGN_12B_L
  80:stm32f4xx-hal-driver/Src/stm32f4xx_hal_dac.c ****          (#) 12-bit right alignment using DAC_ALIGN_12B_R
  81:stm32f4xx-hal-driver/Src/stm32f4xx_hal_dac.c **** 
  82:stm32f4xx-hal-driver/Src/stm32f4xx_hal_dac.c ****        *** DAC data value to voltage correspondence ***
  83:stm32f4xx-hal-driver/Src/stm32f4xx_hal_dac.c ****        ================================================
  84:stm32f4xx-hal-driver/Src/stm32f4xx_hal_dac.c ****        [..]
  85:stm32f4xx-hal-driver/Src/stm32f4xx_hal_dac.c ****        The analog output voltage on each DAC channel pin is determined
  86:stm32f4xx-hal-driver/Src/stm32f4xx_hal_dac.c ****        by the following equation:
ARM GAS  /tmp/cco6h2AZ.s 			page 3


  87:stm32f4xx-hal-driver/Src/stm32f4xx_hal_dac.c ****        [..]
  88:stm32f4xx-hal-driver/Src/stm32f4xx_hal_dac.c ****        DAC_OUTx = VREF+ * DOR / 4095
  89:stm32f4xx-hal-driver/Src/stm32f4xx_hal_dac.c ****        (+) with  DOR is the Data Output Register
  90:stm32f4xx-hal-driver/Src/stm32f4xx_hal_dac.c ****        [..]
  91:stm32f4xx-hal-driver/Src/stm32f4xx_hal_dac.c ****           VREF+ is the input voltage reference (refer to the device datasheet)
  92:stm32f4xx-hal-driver/Src/stm32f4xx_hal_dac.c ****        [..]
  93:stm32f4xx-hal-driver/Src/stm32f4xx_hal_dac.c ****         e.g. To set DAC_OUT1 to 0.7V, use
  94:stm32f4xx-hal-driver/Src/stm32f4xx_hal_dac.c ****        (+) Assuming that VREF+ = 3.3V, DAC_OUT1 = (3.3 * 868) / 4095 = 0.7V
  95:stm32f4xx-hal-driver/Src/stm32f4xx_hal_dac.c **** 
  96:stm32f4xx-hal-driver/Src/stm32f4xx_hal_dac.c ****        *** DMA requests ***
  97:stm32f4xx-hal-driver/Src/stm32f4xx_hal_dac.c ****        =====================
  98:stm32f4xx-hal-driver/Src/stm32f4xx_hal_dac.c ****        [..]
  99:stm32f4xx-hal-driver/Src/stm32f4xx_hal_dac.c ****        A DMA request can be generated when an external trigger (but not a software trigger)
 100:stm32f4xx-hal-driver/Src/stm32f4xx_hal_dac.c ****        occurs if DMA1 requests are enabled using HAL_DAC_Start_DMA().
 101:stm32f4xx-hal-driver/Src/stm32f4xx_hal_dac.c ****        DMA1 requests are mapped as following:
 102:stm32f4xx-hal-driver/Src/stm32f4xx_hal_dac.c ****       (#) DAC channel1 mapped on DMA1 Stream5 channel7 which must be
 103:stm32f4xx-hal-driver/Src/stm32f4xx_hal_dac.c ****           already configured
 104:stm32f4xx-hal-driver/Src/stm32f4xx_hal_dac.c ****       (#) DAC channel2 mapped on DMA1 Stream6 channel7 which must be
 105:stm32f4xx-hal-driver/Src/stm32f4xx_hal_dac.c ****           already configured
 106:stm32f4xx-hal-driver/Src/stm32f4xx_hal_dac.c **** 
 107:stm32f4xx-hal-driver/Src/stm32f4xx_hal_dac.c ****      [..]
 108:stm32f4xx-hal-driver/Src/stm32f4xx_hal_dac.c ****     (@) For Dual mode and specific signal (Triangle and noise) generation please
 109:stm32f4xx-hal-driver/Src/stm32f4xx_hal_dac.c ****         refer to Extended Features Driver description
 110:stm32f4xx-hal-driver/Src/stm32f4xx_hal_dac.c **** 
 111:stm32f4xx-hal-driver/Src/stm32f4xx_hal_dac.c ****                       ##### How to use this driver #####
 112:stm32f4xx-hal-driver/Src/stm32f4xx_hal_dac.c ****   ==============================================================================
 113:stm32f4xx-hal-driver/Src/stm32f4xx_hal_dac.c ****     [..]
 114:stm32f4xx-hal-driver/Src/stm32f4xx_hal_dac.c ****       (+) DAC APB clock must be enabled to get write access to DAC
 115:stm32f4xx-hal-driver/Src/stm32f4xx_hal_dac.c ****           registers using HAL_DAC_Init()
 116:stm32f4xx-hal-driver/Src/stm32f4xx_hal_dac.c ****       (+) Configure DAC_OUTx (DAC_OUT1: PA4, DAC_OUT2: PA5) in analog mode.
 117:stm32f4xx-hal-driver/Src/stm32f4xx_hal_dac.c ****       (+) Configure the DAC channel using HAL_DAC_ConfigChannel() function.
 118:stm32f4xx-hal-driver/Src/stm32f4xx_hal_dac.c ****       (+) Enable the DAC channel using HAL_DAC_Start() or HAL_DAC_Start_DMA() functions.
 119:stm32f4xx-hal-driver/Src/stm32f4xx_hal_dac.c **** 
 120:stm32f4xx-hal-driver/Src/stm32f4xx_hal_dac.c **** 
 121:stm32f4xx-hal-driver/Src/stm32f4xx_hal_dac.c ****      *** Polling mode IO operation ***
 122:stm32f4xx-hal-driver/Src/stm32f4xx_hal_dac.c ****      =================================
 123:stm32f4xx-hal-driver/Src/stm32f4xx_hal_dac.c ****      [..]
 124:stm32f4xx-hal-driver/Src/stm32f4xx_hal_dac.c ****        (+) Start the DAC peripheral using HAL_DAC_Start()
 125:stm32f4xx-hal-driver/Src/stm32f4xx_hal_dac.c ****        (+) To read the DAC last data output value, use the HAL_DAC_GetValue() function.
 126:stm32f4xx-hal-driver/Src/stm32f4xx_hal_dac.c ****        (+) Stop the DAC peripheral using HAL_DAC_Stop()
 127:stm32f4xx-hal-driver/Src/stm32f4xx_hal_dac.c **** 
 128:stm32f4xx-hal-driver/Src/stm32f4xx_hal_dac.c ****      *** DMA mode IO operation ***
 129:stm32f4xx-hal-driver/Src/stm32f4xx_hal_dac.c ****      ==============================
 130:stm32f4xx-hal-driver/Src/stm32f4xx_hal_dac.c ****      [..]
 131:stm32f4xx-hal-driver/Src/stm32f4xx_hal_dac.c ****        (+) Start the DAC peripheral using HAL_DAC_Start_DMA(), at this stage the user specify the l
 132:stm32f4xx-hal-driver/Src/stm32f4xx_hal_dac.c ****            of data to be transferred at each end of conversion
 133:stm32f4xx-hal-driver/Src/stm32f4xx_hal_dac.c ****            First issued trigger will start the conversion of the value previously set by HAL_DAC_Se
 134:stm32f4xx-hal-driver/Src/stm32f4xx_hal_dac.c ****        (+) At the middle of data transfer HAL_DAC_ConvHalfCpltCallbackCh1() or HAL_DACEx_ConvHalfCp
 135:stm32f4xx-hal-driver/Src/stm32f4xx_hal_dac.c ****            function is executed and user can add his own code by customization of function pointer
 136:stm32f4xx-hal-driver/Src/stm32f4xx_hal_dac.c ****            HAL_DAC_ConvHalfCpltCallbackCh1() or HAL_DACEx_ConvHalfCpltCallbackCh2()
 137:stm32f4xx-hal-driver/Src/stm32f4xx_hal_dac.c ****        (+) At The end of data transfer HAL_DAC_ConvCpltCallbackCh1() or HAL_DACEx_ConvHalfCpltCallb
 138:stm32f4xx-hal-driver/Src/stm32f4xx_hal_dac.c ****            function is executed and user can add his own code by customization of function pointer
 139:stm32f4xx-hal-driver/Src/stm32f4xx_hal_dac.c ****            HAL_DAC_ConvCpltCallbackCh1() or HAL_DACEx_ConvHalfCpltCallbackCh2()
 140:stm32f4xx-hal-driver/Src/stm32f4xx_hal_dac.c ****        (+) In case of transfer Error, HAL_DAC_ErrorCallbackCh1() function is executed and user can
 141:stm32f4xx-hal-driver/Src/stm32f4xx_hal_dac.c ****             add his own code by customization of function pointer HAL_DAC_ErrorCallbackCh1
 142:stm32f4xx-hal-driver/Src/stm32f4xx_hal_dac.c ****        (+) In case of DMA underrun, DAC interruption triggers and execute internal function HAL_DAC
 143:stm32f4xx-hal-driver/Src/stm32f4xx_hal_dac.c ****            HAL_DAC_DMAUnderrunCallbackCh1() or HAL_DACEx_DMAUnderrunCallbackCh2()
ARM GAS  /tmp/cco6h2AZ.s 			page 4


 144:stm32f4xx-hal-driver/Src/stm32f4xx_hal_dac.c ****            function is executed and user can add his own code by customization of function pointer
 145:stm32f4xx-hal-driver/Src/stm32f4xx_hal_dac.c ****            HAL_DAC_DMAUnderrunCallbackCh1() or HAL_DACEx_DMAUnderrunCallbackCh2() and
 146:stm32f4xx-hal-driver/Src/stm32f4xx_hal_dac.c ****            add his own code by customization of function pointer HAL_DAC_ErrorCallbackCh1()
 147:stm32f4xx-hal-driver/Src/stm32f4xx_hal_dac.c ****        (+) Stop the DAC peripheral using HAL_DAC_Stop_DMA()
 148:stm32f4xx-hal-driver/Src/stm32f4xx_hal_dac.c **** 
 149:stm32f4xx-hal-driver/Src/stm32f4xx_hal_dac.c ****     *** Callback registration ***
 150:stm32f4xx-hal-driver/Src/stm32f4xx_hal_dac.c ****     =============================================
 151:stm32f4xx-hal-driver/Src/stm32f4xx_hal_dac.c ****     [..]
 152:stm32f4xx-hal-driver/Src/stm32f4xx_hal_dac.c ****       The compilation define  USE_HAL_DAC_REGISTER_CALLBACKS when set to 1
 153:stm32f4xx-hal-driver/Src/stm32f4xx_hal_dac.c ****       allows the user to configure dynamically the driver callbacks.
 154:stm32f4xx-hal-driver/Src/stm32f4xx_hal_dac.c **** 
 155:stm32f4xx-hal-driver/Src/stm32f4xx_hal_dac.c ****     Use Functions HAL_DAC_RegisterCallback() to register a user callback,
 156:stm32f4xx-hal-driver/Src/stm32f4xx_hal_dac.c ****       it allows to register following callbacks:
 157:stm32f4xx-hal-driver/Src/stm32f4xx_hal_dac.c ****       (+) ConvCpltCallbackCh1     : callback when a half transfer is completed on Ch1.
 158:stm32f4xx-hal-driver/Src/stm32f4xx_hal_dac.c ****       (+) ConvHalfCpltCallbackCh1 : callback when a transfer is completed on Ch1.
 159:stm32f4xx-hal-driver/Src/stm32f4xx_hal_dac.c ****       (+) ErrorCallbackCh1        : callback when an error occurs on Ch1.
 160:stm32f4xx-hal-driver/Src/stm32f4xx_hal_dac.c ****       (+) DMAUnderrunCallbackCh1  : callback when an underrun error occurs on Ch1.
 161:stm32f4xx-hal-driver/Src/stm32f4xx_hal_dac.c ****       (+) ConvCpltCallbackCh2     : callback when a half transfer is completed on Ch2.
 162:stm32f4xx-hal-driver/Src/stm32f4xx_hal_dac.c ****       (+) ConvHalfCpltCallbackCh2 : callback when a transfer is completed on Ch2.
 163:stm32f4xx-hal-driver/Src/stm32f4xx_hal_dac.c ****       (+) ErrorCallbackCh2        : callback when an error occurs on Ch2.
 164:stm32f4xx-hal-driver/Src/stm32f4xx_hal_dac.c ****       (+) DMAUnderrunCallbackCh2  : callback when an underrun error occurs on Ch2.
 165:stm32f4xx-hal-driver/Src/stm32f4xx_hal_dac.c ****       (+) MspInitCallback         : DAC MspInit.
 166:stm32f4xx-hal-driver/Src/stm32f4xx_hal_dac.c ****       (+) MspDeInitCallback       : DAC MspdeInit.
 167:stm32f4xx-hal-driver/Src/stm32f4xx_hal_dac.c ****       This function takes as parameters the HAL peripheral handle, the Callback ID
 168:stm32f4xx-hal-driver/Src/stm32f4xx_hal_dac.c ****       and a pointer to the user callback function.
 169:stm32f4xx-hal-driver/Src/stm32f4xx_hal_dac.c **** 
 170:stm32f4xx-hal-driver/Src/stm32f4xx_hal_dac.c ****     Use function HAL_DAC_UnRegisterCallback() to reset a callback to the default
 171:stm32f4xx-hal-driver/Src/stm32f4xx_hal_dac.c ****       weak (overridden) function. It allows to reset following callbacks:
 172:stm32f4xx-hal-driver/Src/stm32f4xx_hal_dac.c ****       (+) ConvCpltCallbackCh1     : callback when a half transfer is completed on Ch1.
 173:stm32f4xx-hal-driver/Src/stm32f4xx_hal_dac.c ****       (+) ConvHalfCpltCallbackCh1 : callback when a transfer is completed on Ch1.
 174:stm32f4xx-hal-driver/Src/stm32f4xx_hal_dac.c ****       (+) ErrorCallbackCh1        : callback when an error occurs on Ch1.
 175:stm32f4xx-hal-driver/Src/stm32f4xx_hal_dac.c ****       (+) DMAUnderrunCallbackCh1  : callback when an underrun error occurs on Ch1.
 176:stm32f4xx-hal-driver/Src/stm32f4xx_hal_dac.c ****       (+) ConvCpltCallbackCh2     : callback when a half transfer is completed on Ch2.
 177:stm32f4xx-hal-driver/Src/stm32f4xx_hal_dac.c ****       (+) ConvHalfCpltCallbackCh2 : callback when a transfer is completed on Ch2.
 178:stm32f4xx-hal-driver/Src/stm32f4xx_hal_dac.c ****       (+) ErrorCallbackCh2        : callback when an error occurs on Ch2.
 179:stm32f4xx-hal-driver/Src/stm32f4xx_hal_dac.c ****       (+) DMAUnderrunCallbackCh2  : callback when an underrun error occurs on Ch2.
 180:stm32f4xx-hal-driver/Src/stm32f4xx_hal_dac.c ****       (+) MspInitCallback         : DAC MspInit.
 181:stm32f4xx-hal-driver/Src/stm32f4xx_hal_dac.c ****       (+) MspDeInitCallback       : DAC MspdeInit.
 182:stm32f4xx-hal-driver/Src/stm32f4xx_hal_dac.c ****       (+) All Callbacks
 183:stm32f4xx-hal-driver/Src/stm32f4xx_hal_dac.c ****       This function) takes as parameters the HAL peripheral handle and the Callback ID.
 184:stm32f4xx-hal-driver/Src/stm32f4xx_hal_dac.c **** 
 185:stm32f4xx-hal-driver/Src/stm32f4xx_hal_dac.c ****       By default, after the HAL_DAC_Init and if the state is HAL_DAC_STATE_RESET
 186:stm32f4xx-hal-driver/Src/stm32f4xx_hal_dac.c ****       all callbacks are reset to the corresponding legacy weak (overridden) functions.
 187:stm32f4xx-hal-driver/Src/stm32f4xx_hal_dac.c ****       Exception done for MspInit and MspDeInit callbacks that are respectively
 188:stm32f4xx-hal-driver/Src/stm32f4xx_hal_dac.c ****       reset to the legacy weak (overridden) functions in the HAL_DAC_Init
 189:stm32f4xx-hal-driver/Src/stm32f4xx_hal_dac.c ****       and  HAL_DAC_DeInit only when these callbacks are null (not registered beforehand).
 190:stm32f4xx-hal-driver/Src/stm32f4xx_hal_dac.c ****       If not, MspInit or MspDeInit are not null, the HAL_DAC_Init and HAL_DAC_DeInit
 191:stm32f4xx-hal-driver/Src/stm32f4xx_hal_dac.c ****       keep and use the user MspInit/MspDeInit callbacks (registered beforehand)
 192:stm32f4xx-hal-driver/Src/stm32f4xx_hal_dac.c **** 
 193:stm32f4xx-hal-driver/Src/stm32f4xx_hal_dac.c ****       Callbacks can be registered/unregistered in READY state only.
 194:stm32f4xx-hal-driver/Src/stm32f4xx_hal_dac.c ****       Exception done for MspInit/MspDeInit callbacks that can be registered/unregistered
 195:stm32f4xx-hal-driver/Src/stm32f4xx_hal_dac.c ****       in READY or RESET state, thus registered (user) MspInit/DeInit callbacks can be used
 196:stm32f4xx-hal-driver/Src/stm32f4xx_hal_dac.c ****       during the Init/DeInit.
 197:stm32f4xx-hal-driver/Src/stm32f4xx_hal_dac.c ****       In that case first register the MspInit/MspDeInit user callbacks
 198:stm32f4xx-hal-driver/Src/stm32f4xx_hal_dac.c ****       using HAL_DAC_RegisterCallback before calling HAL_DAC_DeInit
 199:stm32f4xx-hal-driver/Src/stm32f4xx_hal_dac.c ****       or HAL_DAC_Init function.
 200:stm32f4xx-hal-driver/Src/stm32f4xx_hal_dac.c **** 
ARM GAS  /tmp/cco6h2AZ.s 			page 5


 201:stm32f4xx-hal-driver/Src/stm32f4xx_hal_dac.c ****       When The compilation define USE_HAL_DAC_REGISTER_CALLBACKS is set to 0 or
 202:stm32f4xx-hal-driver/Src/stm32f4xx_hal_dac.c ****       not defined, the callback registering feature is not available
 203:stm32f4xx-hal-driver/Src/stm32f4xx_hal_dac.c ****       and weak (overridden) callbacks are used.
 204:stm32f4xx-hal-driver/Src/stm32f4xx_hal_dac.c **** 
 205:stm32f4xx-hal-driver/Src/stm32f4xx_hal_dac.c ****      *** DAC HAL driver macros list ***
 206:stm32f4xx-hal-driver/Src/stm32f4xx_hal_dac.c ****      =============================================
 207:stm32f4xx-hal-driver/Src/stm32f4xx_hal_dac.c ****      [..]
 208:stm32f4xx-hal-driver/Src/stm32f4xx_hal_dac.c ****        Below the list of most used macros in DAC HAL driver.
 209:stm32f4xx-hal-driver/Src/stm32f4xx_hal_dac.c **** 
 210:stm32f4xx-hal-driver/Src/stm32f4xx_hal_dac.c ****       (+) __HAL_DAC_ENABLE : Enable the DAC peripheral
 211:stm32f4xx-hal-driver/Src/stm32f4xx_hal_dac.c ****       (+) __HAL_DAC_DISABLE : Disable the DAC peripheral
 212:stm32f4xx-hal-driver/Src/stm32f4xx_hal_dac.c ****       (+) __HAL_DAC_CLEAR_FLAG: Clear the DAC's pending flags
 213:stm32f4xx-hal-driver/Src/stm32f4xx_hal_dac.c ****       (+) __HAL_DAC_GET_FLAG: Get the selected DAC's flag status
 214:stm32f4xx-hal-driver/Src/stm32f4xx_hal_dac.c **** 
 215:stm32f4xx-hal-driver/Src/stm32f4xx_hal_dac.c ****      [..]
 216:stm32f4xx-hal-driver/Src/stm32f4xx_hal_dac.c ****       (@) You can refer to the DAC HAL driver header file for more useful macros
 217:stm32f4xx-hal-driver/Src/stm32f4xx_hal_dac.c **** 
 218:stm32f4xx-hal-driver/Src/stm32f4xx_hal_dac.c **** @endverbatim
 219:stm32f4xx-hal-driver/Src/stm32f4xx_hal_dac.c ****   ******************************************************************************
 220:stm32f4xx-hal-driver/Src/stm32f4xx_hal_dac.c ****   */
 221:stm32f4xx-hal-driver/Src/stm32f4xx_hal_dac.c **** 
 222:stm32f4xx-hal-driver/Src/stm32f4xx_hal_dac.c **** /* Includes ------------------------------------------------------------------*/
 223:stm32f4xx-hal-driver/Src/stm32f4xx_hal_dac.c **** #include "stm32f4xx_hal.h"
 224:stm32f4xx-hal-driver/Src/stm32f4xx_hal_dac.c **** 
 225:stm32f4xx-hal-driver/Src/stm32f4xx_hal_dac.c **** /** @addtogroup STM32F4xx_HAL_Driver
 226:stm32f4xx-hal-driver/Src/stm32f4xx_hal_dac.c ****   * @{
 227:stm32f4xx-hal-driver/Src/stm32f4xx_hal_dac.c ****   */
 228:stm32f4xx-hal-driver/Src/stm32f4xx_hal_dac.c **** 
 229:stm32f4xx-hal-driver/Src/stm32f4xx_hal_dac.c **** #ifdef HAL_DAC_MODULE_ENABLED
 230:stm32f4xx-hal-driver/Src/stm32f4xx_hal_dac.c **** #if defined(DAC)
 231:stm32f4xx-hal-driver/Src/stm32f4xx_hal_dac.c **** 
 232:stm32f4xx-hal-driver/Src/stm32f4xx_hal_dac.c **** /** @defgroup DAC DAC
 233:stm32f4xx-hal-driver/Src/stm32f4xx_hal_dac.c ****   * @brief DAC driver modules
 234:stm32f4xx-hal-driver/Src/stm32f4xx_hal_dac.c ****   * @{
 235:stm32f4xx-hal-driver/Src/stm32f4xx_hal_dac.c ****   */
 236:stm32f4xx-hal-driver/Src/stm32f4xx_hal_dac.c **** 
 237:stm32f4xx-hal-driver/Src/stm32f4xx_hal_dac.c **** /* Private typedef -----------------------------------------------------------*/
 238:stm32f4xx-hal-driver/Src/stm32f4xx_hal_dac.c **** /* Private define ------------------------------------------------------------*/
 239:stm32f4xx-hal-driver/Src/stm32f4xx_hal_dac.c **** /* Private constants ---------------------------------------------------------*/
 240:stm32f4xx-hal-driver/Src/stm32f4xx_hal_dac.c **** /* Private macro -------------------------------------------------------------*/
 241:stm32f4xx-hal-driver/Src/stm32f4xx_hal_dac.c **** /* Private variables ---------------------------------------------------------*/
 242:stm32f4xx-hal-driver/Src/stm32f4xx_hal_dac.c **** /* Private function prototypes -----------------------------------------------*/
 243:stm32f4xx-hal-driver/Src/stm32f4xx_hal_dac.c **** /* Exported functions -------------------------------------------------------*/
 244:stm32f4xx-hal-driver/Src/stm32f4xx_hal_dac.c **** 
 245:stm32f4xx-hal-driver/Src/stm32f4xx_hal_dac.c **** /** @defgroup DAC_Exported_Functions DAC Exported Functions
 246:stm32f4xx-hal-driver/Src/stm32f4xx_hal_dac.c ****   * @{
 247:stm32f4xx-hal-driver/Src/stm32f4xx_hal_dac.c ****   */
 248:stm32f4xx-hal-driver/Src/stm32f4xx_hal_dac.c **** 
 249:stm32f4xx-hal-driver/Src/stm32f4xx_hal_dac.c **** /** @defgroup DAC_Exported_Functions_Group1 Initialization and de-initialization functions
 250:stm32f4xx-hal-driver/Src/stm32f4xx_hal_dac.c ****   *  @brief    Initialization and Configuration functions
 251:stm32f4xx-hal-driver/Src/stm32f4xx_hal_dac.c ****   *
 252:stm32f4xx-hal-driver/Src/stm32f4xx_hal_dac.c **** @verbatim
 253:stm32f4xx-hal-driver/Src/stm32f4xx_hal_dac.c ****   ==============================================================================
 254:stm32f4xx-hal-driver/Src/stm32f4xx_hal_dac.c ****               ##### Initialization and de-initialization functions #####
 255:stm32f4xx-hal-driver/Src/stm32f4xx_hal_dac.c ****   ==============================================================================
 256:stm32f4xx-hal-driver/Src/stm32f4xx_hal_dac.c ****     [..]  This section provides functions allowing to:
 257:stm32f4xx-hal-driver/Src/stm32f4xx_hal_dac.c ****       (+) Initialize and configure the DAC.
ARM GAS  /tmp/cco6h2AZ.s 			page 6


 258:stm32f4xx-hal-driver/Src/stm32f4xx_hal_dac.c ****       (+) De-initialize the DAC.
 259:stm32f4xx-hal-driver/Src/stm32f4xx_hal_dac.c **** 
 260:stm32f4xx-hal-driver/Src/stm32f4xx_hal_dac.c **** @endverbatim
 261:stm32f4xx-hal-driver/Src/stm32f4xx_hal_dac.c ****   * @{
 262:stm32f4xx-hal-driver/Src/stm32f4xx_hal_dac.c ****   */
 263:stm32f4xx-hal-driver/Src/stm32f4xx_hal_dac.c **** 
 264:stm32f4xx-hal-driver/Src/stm32f4xx_hal_dac.c **** /**
 265:stm32f4xx-hal-driver/Src/stm32f4xx_hal_dac.c ****   * @brief  Initialize the DAC peripheral according to the specified parameters
 266:stm32f4xx-hal-driver/Src/stm32f4xx_hal_dac.c ****   *         in the DAC_InitStruct and initialize the associated handle.
 267:stm32f4xx-hal-driver/Src/stm32f4xx_hal_dac.c ****   * @param  hdac pointer to a DAC_HandleTypeDef structure that contains
 268:stm32f4xx-hal-driver/Src/stm32f4xx_hal_dac.c ****   *         the configuration information for the specified DAC.
 269:stm32f4xx-hal-driver/Src/stm32f4xx_hal_dac.c ****   * @retval HAL status
 270:stm32f4xx-hal-driver/Src/stm32f4xx_hal_dac.c ****   */
 271:stm32f4xx-hal-driver/Src/stm32f4xx_hal_dac.c **** HAL_StatusTypeDef HAL_DAC_Init(DAC_HandleTypeDef *hdac)
 272:stm32f4xx-hal-driver/Src/stm32f4xx_hal_dac.c **** {
 273:stm32f4xx-hal-driver/Src/stm32f4xx_hal_dac.c ****   /* Check the DAC peripheral handle */
 274:stm32f4xx-hal-driver/Src/stm32f4xx_hal_dac.c ****   if (hdac == NULL)
 275:stm32f4xx-hal-driver/Src/stm32f4xx_hal_dac.c ****   {
 276:stm32f4xx-hal-driver/Src/stm32f4xx_hal_dac.c ****     return HAL_ERROR;
 277:stm32f4xx-hal-driver/Src/stm32f4xx_hal_dac.c ****   }
 278:stm32f4xx-hal-driver/Src/stm32f4xx_hal_dac.c ****   /* Check the parameters */
 279:stm32f4xx-hal-driver/Src/stm32f4xx_hal_dac.c ****   assert_param(IS_DAC_ALL_INSTANCE(hdac->Instance));
 280:stm32f4xx-hal-driver/Src/stm32f4xx_hal_dac.c **** 
 281:stm32f4xx-hal-driver/Src/stm32f4xx_hal_dac.c ****   if (hdac->State == HAL_DAC_STATE_RESET)
 282:stm32f4xx-hal-driver/Src/stm32f4xx_hal_dac.c ****   {
 283:stm32f4xx-hal-driver/Src/stm32f4xx_hal_dac.c **** #if (USE_HAL_DAC_REGISTER_CALLBACKS == 1)
 284:stm32f4xx-hal-driver/Src/stm32f4xx_hal_dac.c ****     /* Init the DAC Callback settings */
 285:stm32f4xx-hal-driver/Src/stm32f4xx_hal_dac.c ****     hdac->ConvCpltCallbackCh1           = HAL_DAC_ConvCpltCallbackCh1;
 286:stm32f4xx-hal-driver/Src/stm32f4xx_hal_dac.c ****     hdac->ConvHalfCpltCallbackCh1       = HAL_DAC_ConvHalfCpltCallbackCh1;
 287:stm32f4xx-hal-driver/Src/stm32f4xx_hal_dac.c ****     hdac->ErrorCallbackCh1              = HAL_DAC_ErrorCallbackCh1;
 288:stm32f4xx-hal-driver/Src/stm32f4xx_hal_dac.c ****     hdac->DMAUnderrunCallbackCh1        = HAL_DAC_DMAUnderrunCallbackCh1;
 289:stm32f4xx-hal-driver/Src/stm32f4xx_hal_dac.c **** #if defined(DAC_CHANNEL2_SUPPORT)
 290:stm32f4xx-hal-driver/Src/stm32f4xx_hal_dac.c ****     hdac->ConvCpltCallbackCh2           = HAL_DACEx_ConvCpltCallbackCh2;
 291:stm32f4xx-hal-driver/Src/stm32f4xx_hal_dac.c ****     hdac->ConvHalfCpltCallbackCh2       = HAL_DACEx_ConvHalfCpltCallbackCh2;
 292:stm32f4xx-hal-driver/Src/stm32f4xx_hal_dac.c ****     hdac->ErrorCallbackCh2              = HAL_DACEx_ErrorCallbackCh2;
 293:stm32f4xx-hal-driver/Src/stm32f4xx_hal_dac.c ****     hdac->DMAUnderrunCallbackCh2        = HAL_DACEx_DMAUnderrunCallbackCh2;
 294:stm32f4xx-hal-driver/Src/stm32f4xx_hal_dac.c **** #endif /* DAC_CHANNEL2_SUPPORT */
 295:stm32f4xx-hal-driver/Src/stm32f4xx_hal_dac.c ****     if (hdac->MspInitCallback == NULL)
 296:stm32f4xx-hal-driver/Src/stm32f4xx_hal_dac.c ****     {
 297:stm32f4xx-hal-driver/Src/stm32f4xx_hal_dac.c ****       hdac->MspInitCallback             = HAL_DAC_MspInit;
 298:stm32f4xx-hal-driver/Src/stm32f4xx_hal_dac.c ****     }
 299:stm32f4xx-hal-driver/Src/stm32f4xx_hal_dac.c **** #endif /* USE_HAL_DAC_REGISTER_CALLBACKS */
 300:stm32f4xx-hal-driver/Src/stm32f4xx_hal_dac.c **** 
 301:stm32f4xx-hal-driver/Src/stm32f4xx_hal_dac.c ****     /* Allocate lock resource and initialize it */
 302:stm32f4xx-hal-driver/Src/stm32f4xx_hal_dac.c ****     hdac->Lock = HAL_UNLOCKED;
 303:stm32f4xx-hal-driver/Src/stm32f4xx_hal_dac.c **** 
 304:stm32f4xx-hal-driver/Src/stm32f4xx_hal_dac.c **** #if (USE_HAL_DAC_REGISTER_CALLBACKS == 1)
 305:stm32f4xx-hal-driver/Src/stm32f4xx_hal_dac.c ****     /* Init the low level hardware */
 306:stm32f4xx-hal-driver/Src/stm32f4xx_hal_dac.c ****     hdac->MspInitCallback(hdac);
 307:stm32f4xx-hal-driver/Src/stm32f4xx_hal_dac.c **** #else
 308:stm32f4xx-hal-driver/Src/stm32f4xx_hal_dac.c ****     /* Init the low level hardware */
 309:stm32f4xx-hal-driver/Src/stm32f4xx_hal_dac.c ****     HAL_DAC_MspInit(hdac);
 310:stm32f4xx-hal-driver/Src/stm32f4xx_hal_dac.c **** #endif /* USE_HAL_DAC_REGISTER_CALLBACKS */
 311:stm32f4xx-hal-driver/Src/stm32f4xx_hal_dac.c ****   }
 312:stm32f4xx-hal-driver/Src/stm32f4xx_hal_dac.c **** 
 313:stm32f4xx-hal-driver/Src/stm32f4xx_hal_dac.c ****   /* Initialize the DAC state*/
 314:stm32f4xx-hal-driver/Src/stm32f4xx_hal_dac.c ****   hdac->State = HAL_DAC_STATE_BUSY;
ARM GAS  /tmp/cco6h2AZ.s 			page 7


 315:stm32f4xx-hal-driver/Src/stm32f4xx_hal_dac.c **** 
 316:stm32f4xx-hal-driver/Src/stm32f4xx_hal_dac.c ****   /* Set DAC error code to none */
 317:stm32f4xx-hal-driver/Src/stm32f4xx_hal_dac.c ****   hdac->ErrorCode = HAL_DAC_ERROR_NONE;
 318:stm32f4xx-hal-driver/Src/stm32f4xx_hal_dac.c **** 
 319:stm32f4xx-hal-driver/Src/stm32f4xx_hal_dac.c ****   /* Initialize the DAC state*/
 320:stm32f4xx-hal-driver/Src/stm32f4xx_hal_dac.c ****   hdac->State = HAL_DAC_STATE_READY;
 321:stm32f4xx-hal-driver/Src/stm32f4xx_hal_dac.c **** 
 322:stm32f4xx-hal-driver/Src/stm32f4xx_hal_dac.c ****   /* Return function status */
 323:stm32f4xx-hal-driver/Src/stm32f4xx_hal_dac.c ****   return HAL_OK;
 324:stm32f4xx-hal-driver/Src/stm32f4xx_hal_dac.c **** }
 325:stm32f4xx-hal-driver/Src/stm32f4xx_hal_dac.c **** 
 326:stm32f4xx-hal-driver/Src/stm32f4xx_hal_dac.c **** /**
 327:stm32f4xx-hal-driver/Src/stm32f4xx_hal_dac.c ****   * @brief  Deinitialize the DAC peripheral registers to their default reset values.
 328:stm32f4xx-hal-driver/Src/stm32f4xx_hal_dac.c ****   * @param  hdac pointer to a DAC_HandleTypeDef structure that contains
 329:stm32f4xx-hal-driver/Src/stm32f4xx_hal_dac.c ****   *         the configuration information for the specified DAC.
 330:stm32f4xx-hal-driver/Src/stm32f4xx_hal_dac.c ****   * @retval HAL status
 331:stm32f4xx-hal-driver/Src/stm32f4xx_hal_dac.c ****   */
 332:stm32f4xx-hal-driver/Src/stm32f4xx_hal_dac.c **** HAL_StatusTypeDef HAL_DAC_DeInit(DAC_HandleTypeDef *hdac)
 333:stm32f4xx-hal-driver/Src/stm32f4xx_hal_dac.c **** {
 334:stm32f4xx-hal-driver/Src/stm32f4xx_hal_dac.c ****   /* Check the DAC peripheral handle */
 335:stm32f4xx-hal-driver/Src/stm32f4xx_hal_dac.c ****   if (hdac == NULL)
 336:stm32f4xx-hal-driver/Src/stm32f4xx_hal_dac.c ****   {
 337:stm32f4xx-hal-driver/Src/stm32f4xx_hal_dac.c ****     return HAL_ERROR;
 338:stm32f4xx-hal-driver/Src/stm32f4xx_hal_dac.c ****   }
 339:stm32f4xx-hal-driver/Src/stm32f4xx_hal_dac.c **** 
 340:stm32f4xx-hal-driver/Src/stm32f4xx_hal_dac.c ****   /* Check the parameters */
 341:stm32f4xx-hal-driver/Src/stm32f4xx_hal_dac.c ****   assert_param(IS_DAC_ALL_INSTANCE(hdac->Instance));
 342:stm32f4xx-hal-driver/Src/stm32f4xx_hal_dac.c **** 
 343:stm32f4xx-hal-driver/Src/stm32f4xx_hal_dac.c ****   /* Change DAC state */
 344:stm32f4xx-hal-driver/Src/stm32f4xx_hal_dac.c ****   hdac->State = HAL_DAC_STATE_BUSY;
 345:stm32f4xx-hal-driver/Src/stm32f4xx_hal_dac.c **** 
 346:stm32f4xx-hal-driver/Src/stm32f4xx_hal_dac.c **** #if (USE_HAL_DAC_REGISTER_CALLBACKS == 1)
 347:stm32f4xx-hal-driver/Src/stm32f4xx_hal_dac.c ****   if (hdac->MspDeInitCallback == NULL)
 348:stm32f4xx-hal-driver/Src/stm32f4xx_hal_dac.c ****   {
 349:stm32f4xx-hal-driver/Src/stm32f4xx_hal_dac.c ****     hdac->MspDeInitCallback = HAL_DAC_MspDeInit;
 350:stm32f4xx-hal-driver/Src/stm32f4xx_hal_dac.c ****   }
 351:stm32f4xx-hal-driver/Src/stm32f4xx_hal_dac.c ****   /* DeInit the low level hardware */
 352:stm32f4xx-hal-driver/Src/stm32f4xx_hal_dac.c ****   hdac->MspDeInitCallback(hdac);
 353:stm32f4xx-hal-driver/Src/stm32f4xx_hal_dac.c **** #else
 354:stm32f4xx-hal-driver/Src/stm32f4xx_hal_dac.c ****   /* DeInit the low level hardware */
 355:stm32f4xx-hal-driver/Src/stm32f4xx_hal_dac.c ****   HAL_DAC_MspDeInit(hdac);
 356:stm32f4xx-hal-driver/Src/stm32f4xx_hal_dac.c **** #endif /* USE_HAL_DAC_REGISTER_CALLBACKS */
 357:stm32f4xx-hal-driver/Src/stm32f4xx_hal_dac.c **** 
 358:stm32f4xx-hal-driver/Src/stm32f4xx_hal_dac.c ****   /* Set DAC error code to none */
 359:stm32f4xx-hal-driver/Src/stm32f4xx_hal_dac.c ****   hdac->ErrorCode = HAL_DAC_ERROR_NONE;
 360:stm32f4xx-hal-driver/Src/stm32f4xx_hal_dac.c **** 
 361:stm32f4xx-hal-driver/Src/stm32f4xx_hal_dac.c ****   /* Change DAC state */
 362:stm32f4xx-hal-driver/Src/stm32f4xx_hal_dac.c ****   hdac->State = HAL_DAC_STATE_RESET;
 363:stm32f4xx-hal-driver/Src/stm32f4xx_hal_dac.c **** 
 364:stm32f4xx-hal-driver/Src/stm32f4xx_hal_dac.c ****   /* Release Lock */
 365:stm32f4xx-hal-driver/Src/stm32f4xx_hal_dac.c ****   __HAL_UNLOCK(hdac);
 366:stm32f4xx-hal-driver/Src/stm32f4xx_hal_dac.c **** 
 367:stm32f4xx-hal-driver/Src/stm32f4xx_hal_dac.c ****   /* Return function status */
 368:stm32f4xx-hal-driver/Src/stm32f4xx_hal_dac.c ****   return HAL_OK;
 369:stm32f4xx-hal-driver/Src/stm32f4xx_hal_dac.c **** }
 370:stm32f4xx-hal-driver/Src/stm32f4xx_hal_dac.c **** 
 371:stm32f4xx-hal-driver/Src/stm32f4xx_hal_dac.c **** /**
ARM GAS  /tmp/cco6h2AZ.s 			page 8


 372:stm32f4xx-hal-driver/Src/stm32f4xx_hal_dac.c ****   * @brief  Initialize the DAC MSP.
 373:stm32f4xx-hal-driver/Src/stm32f4xx_hal_dac.c ****   * @param  hdac pointer to a DAC_HandleTypeDef structure that contains
 374:stm32f4xx-hal-driver/Src/stm32f4xx_hal_dac.c ****   *         the configuration information for the specified DAC.
 375:stm32f4xx-hal-driver/Src/stm32f4xx_hal_dac.c ****   * @retval None
 376:stm32f4xx-hal-driver/Src/stm32f4xx_hal_dac.c ****   */
 377:stm32f4xx-hal-driver/Src/stm32f4xx_hal_dac.c **** __weak void HAL_DAC_MspInit(DAC_HandleTypeDef *hdac)
 378:stm32f4xx-hal-driver/Src/stm32f4xx_hal_dac.c **** {
  30              		.loc 1 378 1 view -0
  31              		.cfi_startproc
  32              		@ args = 0, pretend = 0, frame = 0
  33              		@ frame_needed = 0, uses_anonymous_args = 0
  34              		@ link register save eliminated.
 379:stm32f4xx-hal-driver/Src/stm32f4xx_hal_dac.c ****   /* Prevent unused argument(s) compilation warning */
 380:stm32f4xx-hal-driver/Src/stm32f4xx_hal_dac.c ****   UNUSED(hdac);
  35              		.loc 1 380 3 view .LVU1
 381:stm32f4xx-hal-driver/Src/stm32f4xx_hal_dac.c **** 
 382:stm32f4xx-hal-driver/Src/stm32f4xx_hal_dac.c ****   /* NOTE : This function should not be modified, when the callback is needed,
 383:stm32f4xx-hal-driver/Src/stm32f4xx_hal_dac.c ****             the HAL_DAC_MspInit could be implemented in the user file
 384:stm32f4xx-hal-driver/Src/stm32f4xx_hal_dac.c ****    */
 385:stm32f4xx-hal-driver/Src/stm32f4xx_hal_dac.c **** }
  36              		.loc 1 385 1 is_stmt 0 view .LVU2
  37 0000 7047     		bx	lr
  38              		.cfi_endproc
  39              	.LFE241:
  41              		.section	.text.HAL_DAC_Init,"ax",%progbits
  42              		.align	1
  43              		.global	HAL_DAC_Init
  44              		.syntax unified
  45              		.thumb
  46              		.thumb_func
  47              		.fpu fpv4-sp-d16
  49              	HAL_DAC_Init:
  50              	.LVL1:
  51              	.LFB239:
 272:stm32f4xx-hal-driver/Src/stm32f4xx_hal_dac.c ****   /* Check the DAC peripheral handle */
  52              		.loc 1 272 1 is_stmt 1 view -0
  53              		.cfi_startproc
  54              		@ args = 0, pretend = 0, frame = 0
  55              		@ frame_needed = 0, uses_anonymous_args = 0
 274:stm32f4xx-hal-driver/Src/stm32f4xx_hal_dac.c ****   {
  56              		.loc 1 274 3 view .LVU4
 274:stm32f4xx-hal-driver/Src/stm32f4xx_hal_dac.c ****   {
  57              		.loc 1 274 6 is_stmt 0 view .LVU5
  58 0000 70B1     		cbz	r0, .L5
 272:stm32f4xx-hal-driver/Src/stm32f4xx_hal_dac.c ****   /* Check the DAC peripheral handle */
  59              		.loc 1 272 1 view .LVU6
  60 0002 10B5     		push	{r4, lr}
  61              	.LCFI0:
  62              		.cfi_def_cfa_offset 8
  63              		.cfi_offset 4, -8
  64              		.cfi_offset 14, -4
  65 0004 0446     		mov	r4, r0
 279:stm32f4xx-hal-driver/Src/stm32f4xx_hal_dac.c **** 
  66              		.loc 1 279 3 is_stmt 1 view .LVU7
 281:stm32f4xx-hal-driver/Src/stm32f4xx_hal_dac.c ****   {
  67              		.loc 1 281 3 view .LVU8
 281:stm32f4xx-hal-driver/Src/stm32f4xx_hal_dac.c ****   {
ARM GAS  /tmp/cco6h2AZ.s 			page 9


  68              		.loc 1 281 11 is_stmt 0 view .LVU9
  69 0006 0379     		ldrb	r3, [r0, #4]	@ zero_extendqisi2
 281:stm32f4xx-hal-driver/Src/stm32f4xx_hal_dac.c ****   {
  70              		.loc 1 281 6 view .LVU10
  71 0008 33B1     		cbz	r3, .L10
  72              	.LVL2:
  73              	.L4:
 314:stm32f4xx-hal-driver/Src/stm32f4xx_hal_dac.c **** 
  74              		.loc 1 314 3 is_stmt 1 view .LVU11
 314:stm32f4xx-hal-driver/Src/stm32f4xx_hal_dac.c **** 
  75              		.loc 1 314 15 is_stmt 0 view .LVU12
  76 000a 0223     		movs	r3, #2
  77 000c 2371     		strb	r3, [r4, #4]
 317:stm32f4xx-hal-driver/Src/stm32f4xx_hal_dac.c **** 
  78              		.loc 1 317 3 is_stmt 1 view .LVU13
 317:stm32f4xx-hal-driver/Src/stm32f4xx_hal_dac.c **** 
  79              		.loc 1 317 19 is_stmt 0 view .LVU14
  80 000e 0020     		movs	r0, #0
  81 0010 2061     		str	r0, [r4, #16]
 320:stm32f4xx-hal-driver/Src/stm32f4xx_hal_dac.c **** 
  82              		.loc 1 320 3 is_stmt 1 view .LVU15
 320:stm32f4xx-hal-driver/Src/stm32f4xx_hal_dac.c **** 
  83              		.loc 1 320 15 is_stmt 0 view .LVU16
  84 0012 0123     		movs	r3, #1
  85 0014 2371     		strb	r3, [r4, #4]
 323:stm32f4xx-hal-driver/Src/stm32f4xx_hal_dac.c **** }
  86              		.loc 1 323 3 is_stmt 1 view .LVU17
 324:stm32f4xx-hal-driver/Src/stm32f4xx_hal_dac.c **** 
  87              		.loc 1 324 1 is_stmt 0 view .LVU18
  88 0016 10BD     		pop	{r4, pc}
  89              	.LVL3:
  90              	.L10:
 302:stm32f4xx-hal-driver/Src/stm32f4xx_hal_dac.c **** 
  91              		.loc 1 302 5 is_stmt 1 view .LVU19
 302:stm32f4xx-hal-driver/Src/stm32f4xx_hal_dac.c **** 
  92              		.loc 1 302 16 is_stmt 0 view .LVU20
  93 0018 4371     		strb	r3, [r0, #5]
 309:stm32f4xx-hal-driver/Src/stm32f4xx_hal_dac.c **** #endif /* USE_HAL_DAC_REGISTER_CALLBACKS */
  94              		.loc 1 309 5 is_stmt 1 view .LVU21
  95 001a FFF7FEFF 		bl	HAL_DAC_MspInit
  96              	.LVL4:
 309:stm32f4xx-hal-driver/Src/stm32f4xx_hal_dac.c **** #endif /* USE_HAL_DAC_REGISTER_CALLBACKS */
  97              		.loc 1 309 5 is_stmt 0 view .LVU22
  98 001e F4E7     		b	.L4
  99              	.LVL5:
 100              	.L5:
 101              	.LCFI1:
 102              		.cfi_def_cfa_offset 0
 103              		.cfi_restore 4
 104              		.cfi_restore 14
 276:stm32f4xx-hal-driver/Src/stm32f4xx_hal_dac.c ****   }
 105              		.loc 1 276 12 view .LVU23
 106 0020 0120     		movs	r0, #1
 107              	.LVL6:
 324:stm32f4xx-hal-driver/Src/stm32f4xx_hal_dac.c **** 
 108              		.loc 1 324 1 view .LVU24
 109 0022 7047     		bx	lr
ARM GAS  /tmp/cco6h2AZ.s 			page 10


 110              		.cfi_endproc
 111              	.LFE239:
 113              		.section	.text.HAL_DAC_MspDeInit,"ax",%progbits
 114              		.align	1
 115              		.weak	HAL_DAC_MspDeInit
 116              		.syntax unified
 117              		.thumb
 118              		.thumb_func
 119              		.fpu fpv4-sp-d16
 121              	HAL_DAC_MspDeInit:
 122              	.LVL7:
 123              	.LFB242:
 386:stm32f4xx-hal-driver/Src/stm32f4xx_hal_dac.c **** 
 387:stm32f4xx-hal-driver/Src/stm32f4xx_hal_dac.c **** /**
 388:stm32f4xx-hal-driver/Src/stm32f4xx_hal_dac.c ****   * @brief  DeInitialize the DAC MSP.
 389:stm32f4xx-hal-driver/Src/stm32f4xx_hal_dac.c ****   * @param  hdac pointer to a DAC_HandleTypeDef structure that contains
 390:stm32f4xx-hal-driver/Src/stm32f4xx_hal_dac.c ****   *         the configuration information for the specified DAC.
 391:stm32f4xx-hal-driver/Src/stm32f4xx_hal_dac.c ****   * @retval None
 392:stm32f4xx-hal-driver/Src/stm32f4xx_hal_dac.c ****   */
 393:stm32f4xx-hal-driver/Src/stm32f4xx_hal_dac.c **** __weak void HAL_DAC_MspDeInit(DAC_HandleTypeDef *hdac)
 394:stm32f4xx-hal-driver/Src/stm32f4xx_hal_dac.c **** {
 124              		.loc 1 394 1 is_stmt 1 view -0
 125              		.cfi_startproc
 126              		@ args = 0, pretend = 0, frame = 0
 127              		@ frame_needed = 0, uses_anonymous_args = 0
 128              		@ link register save eliminated.
 395:stm32f4xx-hal-driver/Src/stm32f4xx_hal_dac.c ****   /* Prevent unused argument(s) compilation warning */
 396:stm32f4xx-hal-driver/Src/stm32f4xx_hal_dac.c ****   UNUSED(hdac);
 129              		.loc 1 396 3 view .LVU26
 397:stm32f4xx-hal-driver/Src/stm32f4xx_hal_dac.c **** 
 398:stm32f4xx-hal-driver/Src/stm32f4xx_hal_dac.c ****   /* NOTE : This function should not be modified, when the callback is needed,
 399:stm32f4xx-hal-driver/Src/stm32f4xx_hal_dac.c ****             the HAL_DAC_MspDeInit could be implemented in the user file
 400:stm32f4xx-hal-driver/Src/stm32f4xx_hal_dac.c ****    */
 401:stm32f4xx-hal-driver/Src/stm32f4xx_hal_dac.c **** }
 130              		.loc 1 401 1 is_stmt 0 view .LVU27
 131 0000 7047     		bx	lr
 132              		.cfi_endproc
 133              	.LFE242:
 135              		.section	.text.HAL_DAC_DeInit,"ax",%progbits
 136              		.align	1
 137              		.global	HAL_DAC_DeInit
 138              		.syntax unified
 139              		.thumb
 140              		.thumb_func
 141              		.fpu fpv4-sp-d16
 143              	HAL_DAC_DeInit:
 144              	.LVL8:
 145              	.LFB240:
 333:stm32f4xx-hal-driver/Src/stm32f4xx_hal_dac.c ****   /* Check the DAC peripheral handle */
 146              		.loc 1 333 1 is_stmt 1 view -0
 147              		.cfi_startproc
 148              		@ args = 0, pretend = 0, frame = 0
 149              		@ frame_needed = 0, uses_anonymous_args = 0
 335:stm32f4xx-hal-driver/Src/stm32f4xx_hal_dac.c ****   {
 150              		.loc 1 335 3 view .LVU29
 335:stm32f4xx-hal-driver/Src/stm32f4xx_hal_dac.c ****   {
 151              		.loc 1 335 6 is_stmt 0 view .LVU30
ARM GAS  /tmp/cco6h2AZ.s 			page 11


 152 0000 50B1     		cbz	r0, .L14
 333:stm32f4xx-hal-driver/Src/stm32f4xx_hal_dac.c ****   /* Check the DAC peripheral handle */
 153              		.loc 1 333 1 view .LVU31
 154 0002 10B5     		push	{r4, lr}
 155              	.LCFI2:
 156              		.cfi_def_cfa_offset 8
 157              		.cfi_offset 4, -8
 158              		.cfi_offset 14, -4
 159 0004 0446     		mov	r4, r0
 341:stm32f4xx-hal-driver/Src/stm32f4xx_hal_dac.c **** 
 160              		.loc 1 341 3 is_stmt 1 view .LVU32
 344:stm32f4xx-hal-driver/Src/stm32f4xx_hal_dac.c **** 
 161              		.loc 1 344 3 view .LVU33
 344:stm32f4xx-hal-driver/Src/stm32f4xx_hal_dac.c **** 
 162              		.loc 1 344 15 is_stmt 0 view .LVU34
 163 0006 0223     		movs	r3, #2
 164 0008 0371     		strb	r3, [r0, #4]
 355:stm32f4xx-hal-driver/Src/stm32f4xx_hal_dac.c **** #endif /* USE_HAL_DAC_REGISTER_CALLBACKS */
 165              		.loc 1 355 3 is_stmt 1 view .LVU35
 166 000a FFF7FEFF 		bl	HAL_DAC_MspDeInit
 167              	.LVL9:
 359:stm32f4xx-hal-driver/Src/stm32f4xx_hal_dac.c **** 
 168              		.loc 1 359 3 view .LVU36
 359:stm32f4xx-hal-driver/Src/stm32f4xx_hal_dac.c **** 
 169              		.loc 1 359 19 is_stmt 0 view .LVU37
 170 000e 0020     		movs	r0, #0
 171 0010 2061     		str	r0, [r4, #16]
 362:stm32f4xx-hal-driver/Src/stm32f4xx_hal_dac.c **** 
 172              		.loc 1 362 3 is_stmt 1 view .LVU38
 362:stm32f4xx-hal-driver/Src/stm32f4xx_hal_dac.c **** 
 173              		.loc 1 362 15 is_stmt 0 view .LVU39
 174 0012 2071     		strb	r0, [r4, #4]
 365:stm32f4xx-hal-driver/Src/stm32f4xx_hal_dac.c **** 
 175              		.loc 1 365 3 is_stmt 1 view .LVU40
 365:stm32f4xx-hal-driver/Src/stm32f4xx_hal_dac.c **** 
 176              		.loc 1 365 3 view .LVU41
 177 0014 6071     		strb	r0, [r4, #5]
 365:stm32f4xx-hal-driver/Src/stm32f4xx_hal_dac.c **** 
 178              		.loc 1 365 3 view .LVU42
 368:stm32f4xx-hal-driver/Src/stm32f4xx_hal_dac.c **** }
 179              		.loc 1 368 3 view .LVU43
 369:stm32f4xx-hal-driver/Src/stm32f4xx_hal_dac.c **** 
 180              		.loc 1 369 1 is_stmt 0 view .LVU44
 181 0016 10BD     		pop	{r4, pc}
 182              	.LVL10:
 183              	.L14:
 184              	.LCFI3:
 185              		.cfi_def_cfa_offset 0
 186              		.cfi_restore 4
 187              		.cfi_restore 14
 337:stm32f4xx-hal-driver/Src/stm32f4xx_hal_dac.c ****   }
 188              		.loc 1 337 12 view .LVU45
 189 0018 0120     		movs	r0, #1
 190              	.LVL11:
 369:stm32f4xx-hal-driver/Src/stm32f4xx_hal_dac.c **** 
 191              		.loc 1 369 1 view .LVU46
 192 001a 7047     		bx	lr
ARM GAS  /tmp/cco6h2AZ.s 			page 12


 193              		.cfi_endproc
 194              	.LFE240:
 196              		.section	.text.HAL_DAC_Start,"ax",%progbits
 197              		.align	1
 198              		.global	HAL_DAC_Start
 199              		.syntax unified
 200              		.thumb
 201              		.thumb_func
 202              		.fpu fpv4-sp-d16
 204              	HAL_DAC_Start:
 205              	.LVL12:
 206              	.LFB243:
 402:stm32f4xx-hal-driver/Src/stm32f4xx_hal_dac.c **** 
 403:stm32f4xx-hal-driver/Src/stm32f4xx_hal_dac.c **** /**
 404:stm32f4xx-hal-driver/Src/stm32f4xx_hal_dac.c ****   * @}
 405:stm32f4xx-hal-driver/Src/stm32f4xx_hal_dac.c ****   */
 406:stm32f4xx-hal-driver/Src/stm32f4xx_hal_dac.c **** 
 407:stm32f4xx-hal-driver/Src/stm32f4xx_hal_dac.c **** /** @defgroup DAC_Exported_Functions_Group2 IO operation functions
 408:stm32f4xx-hal-driver/Src/stm32f4xx_hal_dac.c ****   *  @brief    IO operation functions
 409:stm32f4xx-hal-driver/Src/stm32f4xx_hal_dac.c ****   *
 410:stm32f4xx-hal-driver/Src/stm32f4xx_hal_dac.c **** @verbatim
 411:stm32f4xx-hal-driver/Src/stm32f4xx_hal_dac.c ****   ==============================================================================
 412:stm32f4xx-hal-driver/Src/stm32f4xx_hal_dac.c ****              ##### IO operation functions #####
 413:stm32f4xx-hal-driver/Src/stm32f4xx_hal_dac.c ****   ==============================================================================
 414:stm32f4xx-hal-driver/Src/stm32f4xx_hal_dac.c ****     [..]  This section provides functions allowing to:
 415:stm32f4xx-hal-driver/Src/stm32f4xx_hal_dac.c ****       (+) Start conversion.
 416:stm32f4xx-hal-driver/Src/stm32f4xx_hal_dac.c ****       (+) Stop conversion.
 417:stm32f4xx-hal-driver/Src/stm32f4xx_hal_dac.c ****       (+) Start conversion and enable DMA transfer.
 418:stm32f4xx-hal-driver/Src/stm32f4xx_hal_dac.c ****       (+) Stop conversion and disable DMA transfer.
 419:stm32f4xx-hal-driver/Src/stm32f4xx_hal_dac.c ****       (+) Get result of conversion.
 420:stm32f4xx-hal-driver/Src/stm32f4xx_hal_dac.c **** 
 421:stm32f4xx-hal-driver/Src/stm32f4xx_hal_dac.c **** @endverbatim
 422:stm32f4xx-hal-driver/Src/stm32f4xx_hal_dac.c ****   * @{
 423:stm32f4xx-hal-driver/Src/stm32f4xx_hal_dac.c ****   */
 424:stm32f4xx-hal-driver/Src/stm32f4xx_hal_dac.c **** 
 425:stm32f4xx-hal-driver/Src/stm32f4xx_hal_dac.c **** /**
 426:stm32f4xx-hal-driver/Src/stm32f4xx_hal_dac.c ****   * @brief  Enables DAC and starts conversion of channel.
 427:stm32f4xx-hal-driver/Src/stm32f4xx_hal_dac.c ****   * @param  hdac pointer to a DAC_HandleTypeDef structure that contains
 428:stm32f4xx-hal-driver/Src/stm32f4xx_hal_dac.c ****   *         the configuration information for the specified DAC.
 429:stm32f4xx-hal-driver/Src/stm32f4xx_hal_dac.c ****   * @param  Channel The selected DAC channel.
 430:stm32f4xx-hal-driver/Src/stm32f4xx_hal_dac.c ****   *          This parameter can be one of the following values:
 431:stm32f4xx-hal-driver/Src/stm32f4xx_hal_dac.c ****   *            @arg DAC_CHANNEL_1: DAC Channel1 selected
 432:stm32f4xx-hal-driver/Src/stm32f4xx_hal_dac.c ****   *            @arg DAC_CHANNEL_2: DAC Channel2 selected
 433:stm32f4xx-hal-driver/Src/stm32f4xx_hal_dac.c ****   * @retval HAL status
 434:stm32f4xx-hal-driver/Src/stm32f4xx_hal_dac.c ****   */
 435:stm32f4xx-hal-driver/Src/stm32f4xx_hal_dac.c **** HAL_StatusTypeDef HAL_DAC_Start(DAC_HandleTypeDef *hdac, uint32_t Channel)
 436:stm32f4xx-hal-driver/Src/stm32f4xx_hal_dac.c **** {
 207              		.loc 1 436 1 is_stmt 1 view -0
 208              		.cfi_startproc
 209              		@ args = 0, pretend = 0, frame = 0
 210              		@ frame_needed = 0, uses_anonymous_args = 0
 211              		@ link register save eliminated.
 437:stm32f4xx-hal-driver/Src/stm32f4xx_hal_dac.c ****   /* Check the DAC peripheral handle */
 438:stm32f4xx-hal-driver/Src/stm32f4xx_hal_dac.c ****   if (hdac == NULL)
 212              		.loc 1 438 3 view .LVU48
 213              		.loc 1 438 6 is_stmt 0 view .LVU49
 214 0000 78B3     		cbz	r0, .L23
ARM GAS  /tmp/cco6h2AZ.s 			page 13


 215 0002 0346     		mov	r3, r0
 439:stm32f4xx-hal-driver/Src/stm32f4xx_hal_dac.c ****   {
 440:stm32f4xx-hal-driver/Src/stm32f4xx_hal_dac.c ****     return HAL_ERROR;
 441:stm32f4xx-hal-driver/Src/stm32f4xx_hal_dac.c ****   }
 442:stm32f4xx-hal-driver/Src/stm32f4xx_hal_dac.c **** 
 443:stm32f4xx-hal-driver/Src/stm32f4xx_hal_dac.c ****   /* Check the parameters */
 444:stm32f4xx-hal-driver/Src/stm32f4xx_hal_dac.c ****   assert_param(IS_DAC_CHANNEL(Channel));
 216              		.loc 1 444 3 is_stmt 1 view .LVU50
 445:stm32f4xx-hal-driver/Src/stm32f4xx_hal_dac.c **** 
 446:stm32f4xx-hal-driver/Src/stm32f4xx_hal_dac.c ****   /* Process locked */
 447:stm32f4xx-hal-driver/Src/stm32f4xx_hal_dac.c ****   __HAL_LOCK(hdac);
 217              		.loc 1 447 3 view .LVU51
 218              		.loc 1 447 3 view .LVU52
 219 0004 4279     		ldrb	r2, [r0, #5]	@ zero_extendqisi2
 220 0006 012A     		cmp	r2, #1
 221 0008 2DD0     		beq	.L24
 436:stm32f4xx-hal-driver/Src/stm32f4xx_hal_dac.c ****   /* Check the DAC peripheral handle */
 222              		.loc 1 436 1 is_stmt 0 discriminator 2 view .LVU53
 223 000a 30B4     		push	{r4, r5}
 224              	.LCFI4:
 225              		.cfi_def_cfa_offset 8
 226              		.cfi_offset 4, -8
 227              		.cfi_offset 5, -4
 228              		.loc 1 447 3 is_stmt 1 discriminator 2 view .LVU54
 229 000c 0122     		movs	r2, #1
 230 000e 4271     		strb	r2, [r0, #5]
 231              		.loc 1 447 3 discriminator 2 view .LVU55
 448:stm32f4xx-hal-driver/Src/stm32f4xx_hal_dac.c **** 
 449:stm32f4xx-hal-driver/Src/stm32f4xx_hal_dac.c ****   /* Change DAC state */
 450:stm32f4xx-hal-driver/Src/stm32f4xx_hal_dac.c ****   hdac->State = HAL_DAC_STATE_BUSY;
 232              		.loc 1 450 3 discriminator 2 view .LVU56
 233              		.loc 1 450 15 is_stmt 0 discriminator 2 view .LVU57
 234 0010 0220     		movs	r0, #2
 235              	.LVL13:
 236              		.loc 1 450 15 discriminator 2 view .LVU58
 237 0012 1871     		strb	r0, [r3, #4]
 451:stm32f4xx-hal-driver/Src/stm32f4xx_hal_dac.c **** 
 452:stm32f4xx-hal-driver/Src/stm32f4xx_hal_dac.c ****   /* Enable the Peripheral */
 453:stm32f4xx-hal-driver/Src/stm32f4xx_hal_dac.c ****   __HAL_DAC_ENABLE(hdac, Channel);
 238              		.loc 1 453 3 is_stmt 1 discriminator 2 view .LVU59
 239 0014 1C68     		ldr	r4, [r3]
 240 0016 2068     		ldr	r0, [r4]
 241 0018 01F01005 		and	r5, r1, #16
 242 001c AA40     		lsls	r2, r2, r5
 243 001e 0243     		orrs	r2, r2, r0
 244 0020 2260     		str	r2, [r4]
 454:stm32f4xx-hal-driver/Src/stm32f4xx_hal_dac.c **** 
 455:stm32f4xx-hal-driver/Src/stm32f4xx_hal_dac.c ****   if (Channel == DAC_CHANNEL_1)
 245              		.loc 1 455 3 discriminator 2 view .LVU60
 246              		.loc 1 455 6 is_stmt 0 discriminator 2 view .LVU61
 247 0022 81B9     		cbnz	r1, .L21
 456:stm32f4xx-hal-driver/Src/stm32f4xx_hal_dac.c ****   {
 457:stm32f4xx-hal-driver/Src/stm32f4xx_hal_dac.c ****     /* Check if software trigger enabled */
 458:stm32f4xx-hal-driver/Src/stm32f4xx_hal_dac.c ****     if ((hdac->Instance->CR & (DAC_CR_TEN1 | DAC_CR_TSEL1)) == DAC_TRIGGER_SOFTWARE)
 248              		.loc 1 458 5 is_stmt 1 view .LVU62
 249              		.loc 1 458 14 is_stmt 0 view .LVU63
 250 0024 1968     		ldr	r1, [r3]
ARM GAS  /tmp/cco6h2AZ.s 			page 14


 251              	.LVL14:
 252              		.loc 1 458 24 view .LVU64
 253 0026 0A68     		ldr	r2, [r1]
 254              		.loc 1 458 29 view .LVU65
 255 0028 02F03C02 		and	r2, r2, #60
 256              		.loc 1 458 8 view .LVU66
 257 002c 3C2A     		cmp	r2, #60
 258 002e 05D0     		beq	.L29
 259              	.L22:
 459:stm32f4xx-hal-driver/Src/stm32f4xx_hal_dac.c ****     {
 460:stm32f4xx-hal-driver/Src/stm32f4xx_hal_dac.c ****       /* Enable the selected DAC software conversion */
 461:stm32f4xx-hal-driver/Src/stm32f4xx_hal_dac.c ****       SET_BIT(hdac->Instance->SWTRIGR, DAC_SWTRIGR_SWTRIG1);
 462:stm32f4xx-hal-driver/Src/stm32f4xx_hal_dac.c ****     }
 463:stm32f4xx-hal-driver/Src/stm32f4xx_hal_dac.c ****   }
 464:stm32f4xx-hal-driver/Src/stm32f4xx_hal_dac.c **** #if defined(DAC_CHANNEL2_SUPPORT)
 465:stm32f4xx-hal-driver/Src/stm32f4xx_hal_dac.c ****   else
 466:stm32f4xx-hal-driver/Src/stm32f4xx_hal_dac.c ****   {
 467:stm32f4xx-hal-driver/Src/stm32f4xx_hal_dac.c ****     /* Check if software trigger enabled */
 468:stm32f4xx-hal-driver/Src/stm32f4xx_hal_dac.c ****     if ((hdac->Instance->CR & (DAC_CR_TEN2 | DAC_CR_TSEL2)) == (DAC_TRIGGER_SOFTWARE << (Channel & 
 469:stm32f4xx-hal-driver/Src/stm32f4xx_hal_dac.c ****     {
 470:stm32f4xx-hal-driver/Src/stm32f4xx_hal_dac.c ****       /* Enable the selected DAC software conversion*/
 471:stm32f4xx-hal-driver/Src/stm32f4xx_hal_dac.c ****       SET_BIT(hdac->Instance->SWTRIGR, DAC_SWTRIGR_SWTRIG2);
 472:stm32f4xx-hal-driver/Src/stm32f4xx_hal_dac.c ****     }
 473:stm32f4xx-hal-driver/Src/stm32f4xx_hal_dac.c ****   }
 474:stm32f4xx-hal-driver/Src/stm32f4xx_hal_dac.c **** #endif /* DAC_CHANNEL2_SUPPORT */
 475:stm32f4xx-hal-driver/Src/stm32f4xx_hal_dac.c **** 
 476:stm32f4xx-hal-driver/Src/stm32f4xx_hal_dac.c ****   /* Change DAC state */
 477:stm32f4xx-hal-driver/Src/stm32f4xx_hal_dac.c ****   hdac->State = HAL_DAC_STATE_READY;
 260              		.loc 1 477 3 is_stmt 1 view .LVU67
 261              		.loc 1 477 15 is_stmt 0 view .LVU68
 262 0030 0122     		movs	r2, #1
 263 0032 1A71     		strb	r2, [r3, #4]
 478:stm32f4xx-hal-driver/Src/stm32f4xx_hal_dac.c **** 
 479:stm32f4xx-hal-driver/Src/stm32f4xx_hal_dac.c ****   /* Process unlocked */
 480:stm32f4xx-hal-driver/Src/stm32f4xx_hal_dac.c ****   __HAL_UNLOCK(hdac);
 264              		.loc 1 480 3 is_stmt 1 view .LVU69
 265              		.loc 1 480 3 view .LVU70
 266 0034 0020     		movs	r0, #0
 267 0036 5871     		strb	r0, [r3, #5]
 268              		.loc 1 480 3 view .LVU71
 481:stm32f4xx-hal-driver/Src/stm32f4xx_hal_dac.c **** 
 482:stm32f4xx-hal-driver/Src/stm32f4xx_hal_dac.c ****   /* Return function status */
 483:stm32f4xx-hal-driver/Src/stm32f4xx_hal_dac.c ****   return HAL_OK;
 269              		.loc 1 483 3 view .LVU72
 484:stm32f4xx-hal-driver/Src/stm32f4xx_hal_dac.c **** }
 270              		.loc 1 484 1 is_stmt 0 view .LVU73
 271 0038 30BC     		pop	{r4, r5}
 272              	.LCFI5:
 273              		.cfi_remember_state
 274              		.cfi_restore 5
 275              		.cfi_restore 4
 276              		.cfi_def_cfa_offset 0
 277 003a 7047     		bx	lr
 278              	.L29:
 279              	.LCFI6:
 280              		.cfi_restore_state
 461:stm32f4xx-hal-driver/Src/stm32f4xx_hal_dac.c ****     }
ARM GAS  /tmp/cco6h2AZ.s 			page 15


 281              		.loc 1 461 7 is_stmt 1 view .LVU74
 282 003c 4A68     		ldr	r2, [r1, #4]
 283 003e 42F00102 		orr	r2, r2, #1
 284 0042 4A60     		str	r2, [r1, #4]
 285 0044 F4E7     		b	.L22
 286              	.LVL15:
 287              	.L21:
 468:stm32f4xx-hal-driver/Src/stm32f4xx_hal_dac.c ****     {
 288              		.loc 1 468 5 view .LVU75
 468:stm32f4xx-hal-driver/Src/stm32f4xx_hal_dac.c ****     {
 289              		.loc 1 468 14 is_stmt 0 view .LVU76
 290 0046 1868     		ldr	r0, [r3]
 468:stm32f4xx-hal-driver/Src/stm32f4xx_hal_dac.c ****     {
 291              		.loc 1 468 24 view .LVU77
 292 0048 0168     		ldr	r1, [r0]
 293              	.LVL16:
 468:stm32f4xx-hal-driver/Src/stm32f4xx_hal_dac.c ****     {
 294              		.loc 1 468 29 view .LVU78
 295 004a 01F47011 		and	r1, r1, #3932160
 468:stm32f4xx-hal-driver/Src/stm32f4xx_hal_dac.c ****     {
 296              		.loc 1 468 86 view .LVU79
 297 004e 3C22     		movs	r2, #60
 298 0050 02FA05F5 		lsl	r5, r2, r5
 468:stm32f4xx-hal-driver/Src/stm32f4xx_hal_dac.c ****     {
 299              		.loc 1 468 8 view .LVU80
 300 0054 A942     		cmp	r1, r5
 301 0056 EBD1     		bne	.L22
 471:stm32f4xx-hal-driver/Src/stm32f4xx_hal_dac.c ****     }
 302              		.loc 1 471 7 is_stmt 1 view .LVU81
 303 0058 4268     		ldr	r2, [r0, #4]
 304 005a 42F00202 		orr	r2, r2, #2
 305 005e 4260     		str	r2, [r0, #4]
 306 0060 E6E7     		b	.L22
 307              	.LVL17:
 308              	.L23:
 309              	.LCFI7:
 310              		.cfi_def_cfa_offset 0
 311              		.cfi_restore 4
 312              		.cfi_restore 5
 440:stm32f4xx-hal-driver/Src/stm32f4xx_hal_dac.c ****   }
 313              		.loc 1 440 12 is_stmt 0 view .LVU82
 314 0062 0120     		movs	r0, #1
 315              	.LVL18:
 440:stm32f4xx-hal-driver/Src/stm32f4xx_hal_dac.c ****   }
 316              		.loc 1 440 12 view .LVU83
 317 0064 7047     		bx	lr
 318              	.LVL19:
 319              	.L24:
 447:stm32f4xx-hal-driver/Src/stm32f4xx_hal_dac.c **** 
 320              		.loc 1 447 3 view .LVU84
 321 0066 0220     		movs	r0, #2
 322              	.LVL20:
 323              		.loc 1 484 1 view .LVU85
 324 0068 7047     		bx	lr
 325              		.cfi_endproc
 326              	.LFE243:
 328              		.section	.text.HAL_DAC_Stop,"ax",%progbits
ARM GAS  /tmp/cco6h2AZ.s 			page 16


 329              		.align	1
 330              		.global	HAL_DAC_Stop
 331              		.syntax unified
 332              		.thumb
 333              		.thumb_func
 334              		.fpu fpv4-sp-d16
 336              	HAL_DAC_Stop:
 337              	.LVL21:
 338              	.LFB244:
 485:stm32f4xx-hal-driver/Src/stm32f4xx_hal_dac.c **** 
 486:stm32f4xx-hal-driver/Src/stm32f4xx_hal_dac.c **** /**
 487:stm32f4xx-hal-driver/Src/stm32f4xx_hal_dac.c ****   * @brief  Disables DAC and stop conversion of channel.
 488:stm32f4xx-hal-driver/Src/stm32f4xx_hal_dac.c ****   * @param  hdac pointer to a DAC_HandleTypeDef structure that contains
 489:stm32f4xx-hal-driver/Src/stm32f4xx_hal_dac.c ****   *         the configuration information for the specified DAC.
 490:stm32f4xx-hal-driver/Src/stm32f4xx_hal_dac.c ****   * @param  Channel The selected DAC channel.
 491:stm32f4xx-hal-driver/Src/stm32f4xx_hal_dac.c ****   *          This parameter can be one of the following values:
 492:stm32f4xx-hal-driver/Src/stm32f4xx_hal_dac.c ****   *            @arg DAC_CHANNEL_1: DAC Channel1 selected
 493:stm32f4xx-hal-driver/Src/stm32f4xx_hal_dac.c ****   *            @arg DAC_CHANNEL_2: DAC Channel2 selected
 494:stm32f4xx-hal-driver/Src/stm32f4xx_hal_dac.c ****   * @retval HAL status
 495:stm32f4xx-hal-driver/Src/stm32f4xx_hal_dac.c ****   */
 496:stm32f4xx-hal-driver/Src/stm32f4xx_hal_dac.c **** HAL_StatusTypeDef HAL_DAC_Stop(DAC_HandleTypeDef *hdac, uint32_t Channel)
 497:stm32f4xx-hal-driver/Src/stm32f4xx_hal_dac.c **** {
 339              		.loc 1 497 1 is_stmt 1 view -0
 340              		.cfi_startproc
 341              		@ args = 0, pretend = 0, frame = 0
 342              		@ frame_needed = 0, uses_anonymous_args = 0
 343              		@ link register save eliminated.
 498:stm32f4xx-hal-driver/Src/stm32f4xx_hal_dac.c ****   /* Check the DAC peripheral handle */
 499:stm32f4xx-hal-driver/Src/stm32f4xx_hal_dac.c ****   if (hdac == NULL)
 344              		.loc 1 499 3 view .LVU87
 345              		.loc 1 499 6 is_stmt 0 view .LVU88
 346 0000 80B1     		cbz	r0, .L32
 497:stm32f4xx-hal-driver/Src/stm32f4xx_hal_dac.c ****   /* Check the DAC peripheral handle */
 347              		.loc 1 497 1 view .LVU89
 348 0002 10B4     		push	{r4}
 349              	.LCFI8:
 350              		.cfi_def_cfa_offset 4
 351              		.cfi_offset 4, -4
 352 0004 0246     		mov	r2, r0
 500:stm32f4xx-hal-driver/Src/stm32f4xx_hal_dac.c ****   {
 501:stm32f4xx-hal-driver/Src/stm32f4xx_hal_dac.c ****     return HAL_ERROR;
 502:stm32f4xx-hal-driver/Src/stm32f4xx_hal_dac.c ****   }
 503:stm32f4xx-hal-driver/Src/stm32f4xx_hal_dac.c **** 
 504:stm32f4xx-hal-driver/Src/stm32f4xx_hal_dac.c ****   /* Check the parameters */
 505:stm32f4xx-hal-driver/Src/stm32f4xx_hal_dac.c ****   assert_param(IS_DAC_CHANNEL(Channel));
 353              		.loc 1 505 3 is_stmt 1 view .LVU90
 506:stm32f4xx-hal-driver/Src/stm32f4xx_hal_dac.c **** 
 507:stm32f4xx-hal-driver/Src/stm32f4xx_hal_dac.c ****   /* Disable the Peripheral */
 508:stm32f4xx-hal-driver/Src/stm32f4xx_hal_dac.c ****   __HAL_DAC_DISABLE(hdac, Channel);
 354              		.loc 1 508 3 view .LVU91
 355 0006 0468     		ldr	r4, [r0]
 356 0008 2368     		ldr	r3, [r4]
 357 000a 01F01001 		and	r1, r1, #16
 358              	.LVL22:
 359              		.loc 1 508 3 is_stmt 0 view .LVU92
 360 000e 0120     		movs	r0, #1
 361              	.LVL23:
ARM GAS  /tmp/cco6h2AZ.s 			page 17


 362              		.loc 1 508 3 view .LVU93
 363 0010 00FA01F1 		lsl	r1, r0, r1
 364 0014 23EA0101 		bic	r1, r3, r1
 365 0018 2160     		str	r1, [r4]
 509:stm32f4xx-hal-driver/Src/stm32f4xx_hal_dac.c **** 
 510:stm32f4xx-hal-driver/Src/stm32f4xx_hal_dac.c ****   /* Change DAC state */
 511:stm32f4xx-hal-driver/Src/stm32f4xx_hal_dac.c ****   hdac->State = HAL_DAC_STATE_READY;
 366              		.loc 1 511 3 is_stmt 1 view .LVU94
 367              		.loc 1 511 15 is_stmt 0 view .LVU95
 368 001a 1071     		strb	r0, [r2, #4]
 512:stm32f4xx-hal-driver/Src/stm32f4xx_hal_dac.c **** 
 513:stm32f4xx-hal-driver/Src/stm32f4xx_hal_dac.c ****   /* Return function status */
 514:stm32f4xx-hal-driver/Src/stm32f4xx_hal_dac.c ****   return HAL_OK;
 369              		.loc 1 514 3 is_stmt 1 view .LVU96
 370              		.loc 1 514 10 is_stmt 0 view .LVU97
 371 001c 0020     		movs	r0, #0
 515:stm32f4xx-hal-driver/Src/stm32f4xx_hal_dac.c **** }
 372              		.loc 1 515 1 view .LVU98
 373 001e 5DF8044B 		ldr	r4, [sp], #4
 374              	.LCFI9:
 375              		.cfi_restore 4
 376              		.cfi_def_cfa_offset 0
 377 0022 7047     		bx	lr
 378              	.LVL24:
 379              	.L32:
 501:stm32f4xx-hal-driver/Src/stm32f4xx_hal_dac.c ****   }
 380              		.loc 1 501 12 view .LVU99
 381 0024 0120     		movs	r0, #1
 382              	.LVL25:
 383              		.loc 1 515 1 view .LVU100
 384 0026 7047     		bx	lr
 385              		.cfi_endproc
 386              	.LFE244:
 388              		.section	.text.HAL_DAC_Start_DMA,"ax",%progbits
 389              		.align	1
 390              		.global	HAL_DAC_Start_DMA
 391              		.syntax unified
 392              		.thumb
 393              		.thumb_func
 394              		.fpu fpv4-sp-d16
 396              	HAL_DAC_Start_DMA:
 397              	.LVL26:
 398              	.LFB245:
 516:stm32f4xx-hal-driver/Src/stm32f4xx_hal_dac.c **** 
 517:stm32f4xx-hal-driver/Src/stm32f4xx_hal_dac.c **** /**
 518:stm32f4xx-hal-driver/Src/stm32f4xx_hal_dac.c ****   * @brief  Enables DAC and starts conversion of channel.
 519:stm32f4xx-hal-driver/Src/stm32f4xx_hal_dac.c ****   * @param  hdac pointer to a DAC_HandleTypeDef structure that contains
 520:stm32f4xx-hal-driver/Src/stm32f4xx_hal_dac.c ****   *         the configuration information for the specified DAC.
 521:stm32f4xx-hal-driver/Src/stm32f4xx_hal_dac.c ****   * @param  Channel The selected DAC channel.
 522:stm32f4xx-hal-driver/Src/stm32f4xx_hal_dac.c ****   *          This parameter can be one of the following values:
 523:stm32f4xx-hal-driver/Src/stm32f4xx_hal_dac.c ****   *            @arg DAC_CHANNEL_1: DAC Channel1 selected
 524:stm32f4xx-hal-driver/Src/stm32f4xx_hal_dac.c ****   *            @arg DAC_CHANNEL_2: DAC Channel2 selected
 525:stm32f4xx-hal-driver/Src/stm32f4xx_hal_dac.c ****   * @param  pData The source Buffer address.
 526:stm32f4xx-hal-driver/Src/stm32f4xx_hal_dac.c ****   * @param  Length The length of data to be transferred from memory to DAC peripheral
 527:stm32f4xx-hal-driver/Src/stm32f4xx_hal_dac.c ****   * @param  Alignment Specifies the data alignment for DAC channel.
 528:stm32f4xx-hal-driver/Src/stm32f4xx_hal_dac.c ****   *          This parameter can be one of the following values:
 529:stm32f4xx-hal-driver/Src/stm32f4xx_hal_dac.c ****   *            @arg DAC_ALIGN_8B_R: 8bit right data alignment selected
ARM GAS  /tmp/cco6h2AZ.s 			page 18


 530:stm32f4xx-hal-driver/Src/stm32f4xx_hal_dac.c ****   *            @arg DAC_ALIGN_12B_L: 12bit left data alignment selected
 531:stm32f4xx-hal-driver/Src/stm32f4xx_hal_dac.c ****   *            @arg DAC_ALIGN_12B_R: 12bit right data alignment selected
 532:stm32f4xx-hal-driver/Src/stm32f4xx_hal_dac.c ****   * @retval HAL status
 533:stm32f4xx-hal-driver/Src/stm32f4xx_hal_dac.c ****   */
 534:stm32f4xx-hal-driver/Src/stm32f4xx_hal_dac.c **** HAL_StatusTypeDef HAL_DAC_Start_DMA(DAC_HandleTypeDef *hdac, uint32_t Channel, const uint32_t *pDat
 535:stm32f4xx-hal-driver/Src/stm32f4xx_hal_dac.c ****                                     uint32_t Alignment)
 536:stm32f4xx-hal-driver/Src/stm32f4xx_hal_dac.c **** {
 399              		.loc 1 536 1 is_stmt 1 view -0
 400              		.cfi_startproc
 401              		@ args = 4, pretend = 0, frame = 0
 402              		@ frame_needed = 0, uses_anonymous_args = 0
 403              		.loc 1 536 1 is_stmt 0 view .LVU102
 404 0000 70B5     		push	{r4, r5, r6, lr}
 405              	.LCFI10:
 406              		.cfi_def_cfa_offset 16
 407              		.cfi_offset 4, -16
 408              		.cfi_offset 5, -12
 409              		.cfi_offset 6, -8
 410              		.cfi_offset 14, -4
 411 0002 0D46     		mov	r5, r1
 412 0004 1146     		mov	r1, r2
 413              	.LVL27:
 414              		.loc 1 536 1 view .LVU103
 415 0006 049A     		ldr	r2, [sp, #16]
 416              	.LVL28:
 537:stm32f4xx-hal-driver/Src/stm32f4xx_hal_dac.c **** #if defined(DAC_CHANNEL2_SUPPORT)
 538:stm32f4xx-hal-driver/Src/stm32f4xx_hal_dac.c ****   HAL_StatusTypeDef status;
 417              		.loc 1 538 3 is_stmt 1 view .LVU104
 539:stm32f4xx-hal-driver/Src/stm32f4xx_hal_dac.c **** #else
 540:stm32f4xx-hal-driver/Src/stm32f4xx_hal_dac.c ****   HAL_StatusTypeDef status = HAL_ERROR;
 541:stm32f4xx-hal-driver/Src/stm32f4xx_hal_dac.c **** #endif /* DAC_CHANNEL2_SUPPORT */
 542:stm32f4xx-hal-driver/Src/stm32f4xx_hal_dac.c ****   uint32_t tmpreg;
 418              		.loc 1 542 3 view .LVU105
 543:stm32f4xx-hal-driver/Src/stm32f4xx_hal_dac.c **** 
 544:stm32f4xx-hal-driver/Src/stm32f4xx_hal_dac.c ****   /* Check the DAC peripheral handle */
 545:stm32f4xx-hal-driver/Src/stm32f4xx_hal_dac.c ****   if (hdac == NULL)
 419              		.loc 1 545 3 view .LVU106
 420              		.loc 1 545 6 is_stmt 0 view .LVU107
 421 0008 0028     		cmp	r0, #0
 422 000a 62D0     		beq	.L50
 423 000c 0446     		mov	r4, r0
 546:stm32f4xx-hal-driver/Src/stm32f4xx_hal_dac.c ****   {
 547:stm32f4xx-hal-driver/Src/stm32f4xx_hal_dac.c ****     return HAL_ERROR;
 548:stm32f4xx-hal-driver/Src/stm32f4xx_hal_dac.c ****   }
 549:stm32f4xx-hal-driver/Src/stm32f4xx_hal_dac.c **** 
 550:stm32f4xx-hal-driver/Src/stm32f4xx_hal_dac.c ****   /* Check the parameters */
 551:stm32f4xx-hal-driver/Src/stm32f4xx_hal_dac.c ****   assert_param(IS_DAC_CHANNEL(Channel));
 424              		.loc 1 551 3 is_stmt 1 view .LVU108
 552:stm32f4xx-hal-driver/Src/stm32f4xx_hal_dac.c ****   assert_param(IS_DAC_ALIGN(Alignment));
 425              		.loc 1 552 3 view .LVU109
 553:stm32f4xx-hal-driver/Src/stm32f4xx_hal_dac.c **** 
 554:stm32f4xx-hal-driver/Src/stm32f4xx_hal_dac.c ****   /* Process locked */
 555:stm32f4xx-hal-driver/Src/stm32f4xx_hal_dac.c ****   __HAL_LOCK(hdac);
 426              		.loc 1 555 3 view .LVU110
 427              		.loc 1 555 3 view .LVU111
 428 000e 4079     		ldrb	r0, [r0, #5]	@ zero_extendqisi2
 429              	.LVL29:
ARM GAS  /tmp/cco6h2AZ.s 			page 19


 430              		.loc 1 555 3 is_stmt 0 view .LVU112
 431 0010 0128     		cmp	r0, #1
 432 0012 60D0     		beq	.L51
 433              		.loc 1 555 3 is_stmt 1 discriminator 2 view .LVU113
 434 0014 0120     		movs	r0, #1
 435 0016 6071     		strb	r0, [r4, #5]
 436              		.loc 1 555 3 discriminator 2 view .LVU114
 556:stm32f4xx-hal-driver/Src/stm32f4xx_hal_dac.c **** 
 557:stm32f4xx-hal-driver/Src/stm32f4xx_hal_dac.c ****   /* Change DAC state */
 558:stm32f4xx-hal-driver/Src/stm32f4xx_hal_dac.c ****   hdac->State = HAL_DAC_STATE_BUSY;
 437              		.loc 1 558 3 discriminator 2 view .LVU115
 438              		.loc 1 558 15 is_stmt 0 discriminator 2 view .LVU116
 439 0018 0220     		movs	r0, #2
 440 001a 2071     		strb	r0, [r4, #4]
 559:stm32f4xx-hal-driver/Src/stm32f4xx_hal_dac.c **** 
 560:stm32f4xx-hal-driver/Src/stm32f4xx_hal_dac.c ****   if (Channel == DAC_CHANNEL_1)
 441              		.loc 1 560 3 is_stmt 1 discriminator 2 view .LVU117
 442              		.loc 1 560 6 is_stmt 0 discriminator 2 view .LVU118
 443 001c 002D     		cmp	r5, #0
 444 001e 30D1     		bne	.L39
 561:stm32f4xx-hal-driver/Src/stm32f4xx_hal_dac.c ****   {
 562:stm32f4xx-hal-driver/Src/stm32f4xx_hal_dac.c ****     /* Set the DMA transfer complete callback for channel1 */
 563:stm32f4xx-hal-driver/Src/stm32f4xx_hal_dac.c ****     hdac->DMA_Handle1->XferCpltCallback = DAC_DMAConvCpltCh1;
 445              		.loc 1 563 5 is_stmt 1 view .LVU119
 446              		.loc 1 563 9 is_stmt 0 view .LVU120
 447 0020 A068     		ldr	r0, [r4, #8]
 448              		.loc 1 563 41 view .LVU121
 449 0022 2E4E     		ldr	r6, .L55
 450 0024 C663     		str	r6, [r0, #60]
 564:stm32f4xx-hal-driver/Src/stm32f4xx_hal_dac.c **** 
 565:stm32f4xx-hal-driver/Src/stm32f4xx_hal_dac.c ****     /* Set the DMA half transfer complete callback for channel1 */
 566:stm32f4xx-hal-driver/Src/stm32f4xx_hal_dac.c ****     hdac->DMA_Handle1->XferHalfCpltCallback = DAC_DMAHalfConvCpltCh1;
 451              		.loc 1 566 5 is_stmt 1 view .LVU122
 452              		.loc 1 566 9 is_stmt 0 view .LVU123
 453 0026 A068     		ldr	r0, [r4, #8]
 454              		.loc 1 566 45 view .LVU124
 455 0028 2D4E     		ldr	r6, .L55+4
 456 002a 0664     		str	r6, [r0, #64]
 567:stm32f4xx-hal-driver/Src/stm32f4xx_hal_dac.c **** 
 568:stm32f4xx-hal-driver/Src/stm32f4xx_hal_dac.c ****     /* Set the DMA error callback for channel1 */
 569:stm32f4xx-hal-driver/Src/stm32f4xx_hal_dac.c ****     hdac->DMA_Handle1->XferErrorCallback = DAC_DMAErrorCh1;
 457              		.loc 1 569 5 is_stmt 1 view .LVU125
 458              		.loc 1 569 9 is_stmt 0 view .LVU126
 459 002c A068     		ldr	r0, [r4, #8]
 460              		.loc 1 569 42 view .LVU127
 461 002e 2D4E     		ldr	r6, .L55+8
 462 0030 C664     		str	r6, [r0, #76]
 570:stm32f4xx-hal-driver/Src/stm32f4xx_hal_dac.c **** 
 571:stm32f4xx-hal-driver/Src/stm32f4xx_hal_dac.c ****     /* Enable the selected DAC channel1 DMA request */
 572:stm32f4xx-hal-driver/Src/stm32f4xx_hal_dac.c ****     SET_BIT(hdac->Instance->CR, DAC_CR_DMAEN1);
 463              		.loc 1 572 5 is_stmt 1 view .LVU128
 464 0032 2668     		ldr	r6, [r4]
 465 0034 3068     		ldr	r0, [r6]
 466 0036 40F48050 		orr	r0, r0, #4096
 467 003a 3060     		str	r0, [r6]
 573:stm32f4xx-hal-driver/Src/stm32f4xx_hal_dac.c **** 
 574:stm32f4xx-hal-driver/Src/stm32f4xx_hal_dac.c ****     /* Case of use of channel 1 */
ARM GAS  /tmp/cco6h2AZ.s 			page 20


 575:stm32f4xx-hal-driver/Src/stm32f4xx_hal_dac.c ****     switch (Alignment)
 468              		.loc 1 575 5 view .LVU129
 469 003c 22B1     		cbz	r2, .L40
 470 003e 042A     		cmp	r2, #4
 471 0040 1CD0     		beq	.L41
 576:stm32f4xx-hal-driver/Src/stm32f4xx_hal_dac.c ****     {
 577:stm32f4xx-hal-driver/Src/stm32f4xx_hal_dac.c ****       case DAC_ALIGN_12B_R:
 578:stm32f4xx-hal-driver/Src/stm32f4xx_hal_dac.c ****         /* Get DHR12R1 address */
 579:stm32f4xx-hal-driver/Src/stm32f4xx_hal_dac.c ****         tmpreg = (uint32_t)&hdac->Instance->DHR12R1;
 580:stm32f4xx-hal-driver/Src/stm32f4xx_hal_dac.c ****         break;
 581:stm32f4xx-hal-driver/Src/stm32f4xx_hal_dac.c ****       case DAC_ALIGN_12B_L:
 582:stm32f4xx-hal-driver/Src/stm32f4xx_hal_dac.c ****         /* Get DHR12L1 address */
 583:stm32f4xx-hal-driver/Src/stm32f4xx_hal_dac.c ****         tmpreg = (uint32_t)&hdac->Instance->DHR12L1;
 584:stm32f4xx-hal-driver/Src/stm32f4xx_hal_dac.c ****         break;
 585:stm32f4xx-hal-driver/Src/stm32f4xx_hal_dac.c ****       default: /* case DAC_ALIGN_8B_R */
 586:stm32f4xx-hal-driver/Src/stm32f4xx_hal_dac.c ****         /* Get DHR8R1 address */
 587:stm32f4xx-hal-driver/Src/stm32f4xx_hal_dac.c ****         tmpreg = (uint32_t)&hdac->Instance->DHR8R1;
 472              		.loc 1 587 9 view .LVU130
 473              		.loc 1 587 33 is_stmt 0 view .LVU131
 474 0042 2268     		ldr	r2, [r4]
 475              		.loc 1 587 28 view .LVU132
 476 0044 1032     		adds	r2, r2, #16
 477              	.LVL30:
 588:stm32f4xx-hal-driver/Src/stm32f4xx_hal_dac.c ****         break;
 478              		.loc 1 588 9 is_stmt 1 view .LVU133
 479 0046 01E0     		b	.L43
 480              	.LVL31:
 481              	.L40:
 579:stm32f4xx-hal-driver/Src/stm32f4xx_hal_dac.c ****         break;
 482              		.loc 1 579 9 view .LVU134
 579:stm32f4xx-hal-driver/Src/stm32f4xx_hal_dac.c ****         break;
 483              		.loc 1 579 33 is_stmt 0 view .LVU135
 484 0048 2268     		ldr	r2, [r4]
 579:stm32f4xx-hal-driver/Src/stm32f4xx_hal_dac.c ****         break;
 485              		.loc 1 579 28 view .LVU136
 486 004a 0832     		adds	r2, r2, #8
 487              	.LVL32:
 580:stm32f4xx-hal-driver/Src/stm32f4xx_hal_dac.c ****       case DAC_ALIGN_12B_L:
 488              		.loc 1 580 9 is_stmt 1 view .LVU137
 489              	.L43:
 589:stm32f4xx-hal-driver/Src/stm32f4xx_hal_dac.c ****     }
 590:stm32f4xx-hal-driver/Src/stm32f4xx_hal_dac.c ****   }
 591:stm32f4xx-hal-driver/Src/stm32f4xx_hal_dac.c **** #if defined(DAC_CHANNEL2_SUPPORT)
 592:stm32f4xx-hal-driver/Src/stm32f4xx_hal_dac.c ****   else
 593:stm32f4xx-hal-driver/Src/stm32f4xx_hal_dac.c ****   {
 594:stm32f4xx-hal-driver/Src/stm32f4xx_hal_dac.c ****     /* Set the DMA transfer complete callback for channel2 */
 595:stm32f4xx-hal-driver/Src/stm32f4xx_hal_dac.c ****     hdac->DMA_Handle2->XferCpltCallback = DAC_DMAConvCpltCh2;
 596:stm32f4xx-hal-driver/Src/stm32f4xx_hal_dac.c **** 
 597:stm32f4xx-hal-driver/Src/stm32f4xx_hal_dac.c ****     /* Set the DMA half transfer complete callback for channel2 */
 598:stm32f4xx-hal-driver/Src/stm32f4xx_hal_dac.c ****     hdac->DMA_Handle2->XferHalfCpltCallback = DAC_DMAHalfConvCpltCh2;
 599:stm32f4xx-hal-driver/Src/stm32f4xx_hal_dac.c **** 
 600:stm32f4xx-hal-driver/Src/stm32f4xx_hal_dac.c ****     /* Set the DMA error callback for channel2 */
 601:stm32f4xx-hal-driver/Src/stm32f4xx_hal_dac.c ****     hdac->DMA_Handle2->XferErrorCallback = DAC_DMAErrorCh2;
 602:stm32f4xx-hal-driver/Src/stm32f4xx_hal_dac.c **** 
 603:stm32f4xx-hal-driver/Src/stm32f4xx_hal_dac.c ****     /* Enable the selected DAC channel2 DMA request */
 604:stm32f4xx-hal-driver/Src/stm32f4xx_hal_dac.c ****     SET_BIT(hdac->Instance->CR, DAC_CR_DMAEN2);
 605:stm32f4xx-hal-driver/Src/stm32f4xx_hal_dac.c **** 
ARM GAS  /tmp/cco6h2AZ.s 			page 21


 606:stm32f4xx-hal-driver/Src/stm32f4xx_hal_dac.c ****     /* Case of use of channel 2 */
 607:stm32f4xx-hal-driver/Src/stm32f4xx_hal_dac.c ****     switch (Alignment)
 608:stm32f4xx-hal-driver/Src/stm32f4xx_hal_dac.c ****     {
 609:stm32f4xx-hal-driver/Src/stm32f4xx_hal_dac.c ****       case DAC_ALIGN_12B_R:
 610:stm32f4xx-hal-driver/Src/stm32f4xx_hal_dac.c ****         /* Get DHR12R2 address */
 611:stm32f4xx-hal-driver/Src/stm32f4xx_hal_dac.c ****         tmpreg = (uint32_t)&hdac->Instance->DHR12R2;
 612:stm32f4xx-hal-driver/Src/stm32f4xx_hal_dac.c ****         break;
 613:stm32f4xx-hal-driver/Src/stm32f4xx_hal_dac.c ****       case DAC_ALIGN_12B_L:
 614:stm32f4xx-hal-driver/Src/stm32f4xx_hal_dac.c ****         /* Get DHR12L2 address */
 615:stm32f4xx-hal-driver/Src/stm32f4xx_hal_dac.c ****         tmpreg = (uint32_t)&hdac->Instance->DHR12L2;
 616:stm32f4xx-hal-driver/Src/stm32f4xx_hal_dac.c ****         break;
 617:stm32f4xx-hal-driver/Src/stm32f4xx_hal_dac.c ****       default: /* case DAC_ALIGN_8B_R */
 618:stm32f4xx-hal-driver/Src/stm32f4xx_hal_dac.c ****         /* Get DHR8R2 address */
 619:stm32f4xx-hal-driver/Src/stm32f4xx_hal_dac.c ****         tmpreg = (uint32_t)&hdac->Instance->DHR8R2;
 620:stm32f4xx-hal-driver/Src/stm32f4xx_hal_dac.c ****         break;
 621:stm32f4xx-hal-driver/Src/stm32f4xx_hal_dac.c ****     }
 622:stm32f4xx-hal-driver/Src/stm32f4xx_hal_dac.c ****   }
 623:stm32f4xx-hal-driver/Src/stm32f4xx_hal_dac.c **** #endif /* DAC_CHANNEL2_SUPPORT */
 624:stm32f4xx-hal-driver/Src/stm32f4xx_hal_dac.c ****   if (Channel == DAC_CHANNEL_1)
 490              		.loc 1 624 3 view .LVU138
 491              		.loc 1 624 6 is_stmt 0 view .LVU139
 492 004c 002D     		cmp	r5, #0
 493 004e 32D1     		bne	.L47
 625:stm32f4xx-hal-driver/Src/stm32f4xx_hal_dac.c ****   {
 626:stm32f4xx-hal-driver/Src/stm32f4xx_hal_dac.c ****     /* Enable the DAC DMA underrun interrupt */
 627:stm32f4xx-hal-driver/Src/stm32f4xx_hal_dac.c ****     __HAL_DAC_ENABLE_IT(hdac, DAC_IT_DMAUDR1);
 494              		.loc 1 627 5 is_stmt 1 view .LVU140
 495 0050 2668     		ldr	r6, [r4]
 496 0052 3068     		ldr	r0, [r6]
 497 0054 40F40050 		orr	r0, r0, #8192
 498 0058 3060     		str	r0, [r6]
 628:stm32f4xx-hal-driver/Src/stm32f4xx_hal_dac.c **** 
 629:stm32f4xx-hal-driver/Src/stm32f4xx_hal_dac.c ****     /* Enable the DMA Stream */
 630:stm32f4xx-hal-driver/Src/stm32f4xx_hal_dac.c ****     status = HAL_DMA_Start_IT(hdac->DMA_Handle1, (uint32_t)pData, tmpreg, Length);
 499              		.loc 1 630 5 view .LVU141
 500              		.loc 1 630 14 is_stmt 0 view .LVU142
 501 005a A068     		ldr	r0, [r4, #8]
 502 005c FFF7FEFF 		bl	HAL_DMA_Start_IT
 503              	.LVL33:
 504              	.L48:
 631:stm32f4xx-hal-driver/Src/stm32f4xx_hal_dac.c ****   }
 632:stm32f4xx-hal-driver/Src/stm32f4xx_hal_dac.c **** #if defined(DAC_CHANNEL2_SUPPORT)
 633:stm32f4xx-hal-driver/Src/stm32f4xx_hal_dac.c ****   else
 634:stm32f4xx-hal-driver/Src/stm32f4xx_hal_dac.c ****   {
 635:stm32f4xx-hal-driver/Src/stm32f4xx_hal_dac.c ****     /* Enable the DAC DMA underrun interrupt */
 636:stm32f4xx-hal-driver/Src/stm32f4xx_hal_dac.c ****     __HAL_DAC_ENABLE_IT(hdac, DAC_IT_DMAUDR2);
 637:stm32f4xx-hal-driver/Src/stm32f4xx_hal_dac.c **** 
 638:stm32f4xx-hal-driver/Src/stm32f4xx_hal_dac.c ****     /* Enable the DMA Stream */
 639:stm32f4xx-hal-driver/Src/stm32f4xx_hal_dac.c ****     status = HAL_DMA_Start_IT(hdac->DMA_Handle2, (uint32_t)pData, tmpreg, Length);
 640:stm32f4xx-hal-driver/Src/stm32f4xx_hal_dac.c ****   }
 641:stm32f4xx-hal-driver/Src/stm32f4xx_hal_dac.c **** #endif /* DAC_CHANNEL2_SUPPORT */
 642:stm32f4xx-hal-driver/Src/stm32f4xx_hal_dac.c **** 
 643:stm32f4xx-hal-driver/Src/stm32f4xx_hal_dac.c ****   /* Process Unlocked */
 644:stm32f4xx-hal-driver/Src/stm32f4xx_hal_dac.c ****   __HAL_UNLOCK(hdac);
 505              		.loc 1 644 3 is_stmt 1 view .LVU143
 506              		.loc 1 644 3 view .LVU144
 507 0060 0023     		movs	r3, #0
ARM GAS  /tmp/cco6h2AZ.s 			page 22


 508 0062 6371     		strb	r3, [r4, #5]
 509              		.loc 1 644 3 view .LVU145
 645:stm32f4xx-hal-driver/Src/stm32f4xx_hal_dac.c **** 
 646:stm32f4xx-hal-driver/Src/stm32f4xx_hal_dac.c ****   if (status == HAL_OK)
 510              		.loc 1 646 3 view .LVU146
 511              		.loc 1 646 6 is_stmt 0 view .LVU147
 512 0064 0028     		cmp	r0, #0
 513 0066 2FD1     		bne	.L49
 647:stm32f4xx-hal-driver/Src/stm32f4xx_hal_dac.c ****   {
 648:stm32f4xx-hal-driver/Src/stm32f4xx_hal_dac.c ****     /* Enable the Peripheral */
 649:stm32f4xx-hal-driver/Src/stm32f4xx_hal_dac.c ****     __HAL_DAC_ENABLE(hdac, Channel);
 514              		.loc 1 649 5 is_stmt 1 view .LVU148
 515 0068 2268     		ldr	r2, [r4]
 516 006a 1368     		ldr	r3, [r2]
 517 006c 05F01005 		and	r5, r5, #16
 518              	.LVL34:
 519              		.loc 1 649 5 is_stmt 0 view .LVU149
 520 0070 0121     		movs	r1, #1
 521 0072 01FA05F5 		lsl	r5, r1, r5
 522 0076 1D43     		orrs	r5, r5, r3
 523 0078 1560     		str	r5, [r2]
 524              	.LVL35:
 525              	.L38:
 650:stm32f4xx-hal-driver/Src/stm32f4xx_hal_dac.c ****   }
 651:stm32f4xx-hal-driver/Src/stm32f4xx_hal_dac.c ****   else
 652:stm32f4xx-hal-driver/Src/stm32f4xx_hal_dac.c ****   {
 653:stm32f4xx-hal-driver/Src/stm32f4xx_hal_dac.c ****     hdac->ErrorCode |= HAL_DAC_ERROR_DMA;
 654:stm32f4xx-hal-driver/Src/stm32f4xx_hal_dac.c ****   }
 655:stm32f4xx-hal-driver/Src/stm32f4xx_hal_dac.c **** 
 656:stm32f4xx-hal-driver/Src/stm32f4xx_hal_dac.c ****   /* Return function status */
 657:stm32f4xx-hal-driver/Src/stm32f4xx_hal_dac.c ****   return status;
 658:stm32f4xx-hal-driver/Src/stm32f4xx_hal_dac.c **** }
 526              		.loc 1 658 1 view .LVU150
 527 007a 70BD     		pop	{r4, r5, r6, pc}
 528              	.LVL36:
 529              	.L41:
 583:stm32f4xx-hal-driver/Src/stm32f4xx_hal_dac.c ****         break;
 530              		.loc 1 583 9 is_stmt 1 view .LVU151
 583:stm32f4xx-hal-driver/Src/stm32f4xx_hal_dac.c ****         break;
 531              		.loc 1 583 33 is_stmt 0 view .LVU152
 532 007c 2268     		ldr	r2, [r4]
 583:stm32f4xx-hal-driver/Src/stm32f4xx_hal_dac.c ****         break;
 533              		.loc 1 583 28 view .LVU153
 534 007e 0C32     		adds	r2, r2, #12
 535              	.LVL37:
 584:stm32f4xx-hal-driver/Src/stm32f4xx_hal_dac.c ****       default: /* case DAC_ALIGN_8B_R */
 536              		.loc 1 584 9 is_stmt 1 view .LVU154
 537 0080 E4E7     		b	.L43
 538              	.LVL38:
 539              	.L39:
 595:stm32f4xx-hal-driver/Src/stm32f4xx_hal_dac.c **** 
 540              		.loc 1 595 5 view .LVU155
 595:stm32f4xx-hal-driver/Src/stm32f4xx_hal_dac.c **** 
 541              		.loc 1 595 9 is_stmt 0 view .LVU156
 542 0082 E068     		ldr	r0, [r4, #12]
 595:stm32f4xx-hal-driver/Src/stm32f4xx_hal_dac.c **** 
 543              		.loc 1 595 41 view .LVU157
ARM GAS  /tmp/cco6h2AZ.s 			page 23


 544 0084 184E     		ldr	r6, .L55+12
 545 0086 C663     		str	r6, [r0, #60]
 598:stm32f4xx-hal-driver/Src/stm32f4xx_hal_dac.c **** 
 546              		.loc 1 598 5 is_stmt 1 view .LVU158
 598:stm32f4xx-hal-driver/Src/stm32f4xx_hal_dac.c **** 
 547              		.loc 1 598 9 is_stmt 0 view .LVU159
 548 0088 E068     		ldr	r0, [r4, #12]
 598:stm32f4xx-hal-driver/Src/stm32f4xx_hal_dac.c **** 
 549              		.loc 1 598 45 view .LVU160
 550 008a 184E     		ldr	r6, .L55+16
 551 008c 0664     		str	r6, [r0, #64]
 601:stm32f4xx-hal-driver/Src/stm32f4xx_hal_dac.c **** 
 552              		.loc 1 601 5 is_stmt 1 view .LVU161
 601:stm32f4xx-hal-driver/Src/stm32f4xx_hal_dac.c **** 
 553              		.loc 1 601 9 is_stmt 0 view .LVU162
 554 008e E068     		ldr	r0, [r4, #12]
 601:stm32f4xx-hal-driver/Src/stm32f4xx_hal_dac.c **** 
 555              		.loc 1 601 42 view .LVU163
 556 0090 174E     		ldr	r6, .L55+20
 557 0092 C664     		str	r6, [r0, #76]
 604:stm32f4xx-hal-driver/Src/stm32f4xx_hal_dac.c **** 
 558              		.loc 1 604 5 is_stmt 1 view .LVU164
 559 0094 2668     		ldr	r6, [r4]
 560 0096 3068     		ldr	r0, [r6]
 561 0098 40F08050 		orr	r0, r0, #268435456
 562 009c 3060     		str	r0, [r6]
 607:stm32f4xx-hal-driver/Src/stm32f4xx_hal_dac.c ****     {
 563              		.loc 1 607 5 view .LVU165
 564 009e 22B1     		cbz	r2, .L44
 565 00a0 042A     		cmp	r2, #4
 566 00a2 05D0     		beq	.L45
 619:stm32f4xx-hal-driver/Src/stm32f4xx_hal_dac.c ****         break;
 567              		.loc 1 619 9 view .LVU166
 619:stm32f4xx-hal-driver/Src/stm32f4xx_hal_dac.c ****         break;
 568              		.loc 1 619 33 is_stmt 0 view .LVU167
 569 00a4 2268     		ldr	r2, [r4]
 619:stm32f4xx-hal-driver/Src/stm32f4xx_hal_dac.c ****         break;
 570              		.loc 1 619 28 view .LVU168
 571 00a6 1C32     		adds	r2, r2, #28
 572              	.LVL39:
 620:stm32f4xx-hal-driver/Src/stm32f4xx_hal_dac.c ****     }
 573              		.loc 1 620 9 is_stmt 1 view .LVU169
 574 00a8 D0E7     		b	.L43
 575              	.LVL40:
 576              	.L44:
 611:stm32f4xx-hal-driver/Src/stm32f4xx_hal_dac.c ****         break;
 577              		.loc 1 611 9 view .LVU170
 611:stm32f4xx-hal-driver/Src/stm32f4xx_hal_dac.c ****         break;
 578              		.loc 1 611 33 is_stmt 0 view .LVU171
 579 00aa 2268     		ldr	r2, [r4]
 611:stm32f4xx-hal-driver/Src/stm32f4xx_hal_dac.c ****         break;
 580              		.loc 1 611 28 view .LVU172
 581 00ac 1432     		adds	r2, r2, #20
 582              	.LVL41:
 612:stm32f4xx-hal-driver/Src/stm32f4xx_hal_dac.c ****       case DAC_ALIGN_12B_L:
 583              		.loc 1 612 9 is_stmt 1 view .LVU173
 584 00ae CDE7     		b	.L43
ARM GAS  /tmp/cco6h2AZ.s 			page 24


 585              	.LVL42:
 586              	.L45:
 615:stm32f4xx-hal-driver/Src/stm32f4xx_hal_dac.c ****         break;
 587              		.loc 1 615 9 view .LVU174
 615:stm32f4xx-hal-driver/Src/stm32f4xx_hal_dac.c ****         break;
 588              		.loc 1 615 33 is_stmt 0 view .LVU175
 589 00b0 2268     		ldr	r2, [r4]
 615:stm32f4xx-hal-driver/Src/stm32f4xx_hal_dac.c ****         break;
 590              		.loc 1 615 28 view .LVU176
 591 00b2 1832     		adds	r2, r2, #24
 592              	.LVL43:
 616:stm32f4xx-hal-driver/Src/stm32f4xx_hal_dac.c ****       default: /* case DAC_ALIGN_8B_R */
 593              		.loc 1 616 9 is_stmt 1 view .LVU177
 594 00b4 CAE7     		b	.L43
 595              	.L47:
 636:stm32f4xx-hal-driver/Src/stm32f4xx_hal_dac.c **** 
 596              		.loc 1 636 5 view .LVU178
 597 00b6 2668     		ldr	r6, [r4]
 598 00b8 3068     		ldr	r0, [r6]
 599 00ba 40F00050 		orr	r0, r0, #536870912
 600 00be 3060     		str	r0, [r6]
 639:stm32f4xx-hal-driver/Src/stm32f4xx_hal_dac.c ****   }
 601              		.loc 1 639 5 view .LVU179
 639:stm32f4xx-hal-driver/Src/stm32f4xx_hal_dac.c ****   }
 602              		.loc 1 639 14 is_stmt 0 view .LVU180
 603 00c0 E068     		ldr	r0, [r4, #12]
 604 00c2 FFF7FEFF 		bl	HAL_DMA_Start_IT
 605              	.LVL44:
 639:stm32f4xx-hal-driver/Src/stm32f4xx_hal_dac.c ****   }
 606              		.loc 1 639 14 view .LVU181
 607 00c6 CBE7     		b	.L48
 608              	.L49:
 653:stm32f4xx-hal-driver/Src/stm32f4xx_hal_dac.c ****   }
 609              		.loc 1 653 5 is_stmt 1 view .LVU182
 653:stm32f4xx-hal-driver/Src/stm32f4xx_hal_dac.c ****   }
 610              		.loc 1 653 21 is_stmt 0 view .LVU183
 611 00c8 2369     		ldr	r3, [r4, #16]
 612 00ca 43F00403 		orr	r3, r3, #4
 613 00ce 2361     		str	r3, [r4, #16]
 614 00d0 D3E7     		b	.L38
 615              	.LVL45:
 616              	.L50:
 547:stm32f4xx-hal-driver/Src/stm32f4xx_hal_dac.c ****   }
 617              		.loc 1 547 12 view .LVU184
 618 00d2 0120     		movs	r0, #1
 619              	.LVL46:
 547:stm32f4xx-hal-driver/Src/stm32f4xx_hal_dac.c ****   }
 620              		.loc 1 547 12 view .LVU185
 621 00d4 D1E7     		b	.L38
 622              	.LVL47:
 623              	.L51:
 555:stm32f4xx-hal-driver/Src/stm32f4xx_hal_dac.c **** 
 624              		.loc 1 555 3 view .LVU186
 625 00d6 0220     		movs	r0, #2
 626 00d8 CFE7     		b	.L38
 627              	.L56:
 628 00da 00BF     		.align	2
ARM GAS  /tmp/cco6h2AZ.s 			page 25


 629              	.L55:
 630 00dc 00000000 		.word	DAC_DMAConvCpltCh1
 631 00e0 00000000 		.word	DAC_DMAHalfConvCpltCh1
 632 00e4 00000000 		.word	DAC_DMAErrorCh1
 633 00e8 00000000 		.word	DAC_DMAConvCpltCh2
 634 00ec 00000000 		.word	DAC_DMAHalfConvCpltCh2
 635 00f0 00000000 		.word	DAC_DMAErrorCh2
 636              		.cfi_endproc
 637              	.LFE245:
 639              		.section	.text.HAL_DAC_Stop_DMA,"ax",%progbits
 640              		.align	1
 641              		.global	HAL_DAC_Stop_DMA
 642              		.syntax unified
 643              		.thumb
 644              		.thumb_func
 645              		.fpu fpv4-sp-d16
 647              	HAL_DAC_Stop_DMA:
 648              	.LVL48:
 649              	.LFB246:
 659:stm32f4xx-hal-driver/Src/stm32f4xx_hal_dac.c **** 
 660:stm32f4xx-hal-driver/Src/stm32f4xx_hal_dac.c **** /**
 661:stm32f4xx-hal-driver/Src/stm32f4xx_hal_dac.c ****   * @brief  Disables DAC and stop conversion of channel.
 662:stm32f4xx-hal-driver/Src/stm32f4xx_hal_dac.c ****   * @param  hdac pointer to a DAC_HandleTypeDef structure that contains
 663:stm32f4xx-hal-driver/Src/stm32f4xx_hal_dac.c ****   *         the configuration information for the specified DAC.
 664:stm32f4xx-hal-driver/Src/stm32f4xx_hal_dac.c ****   * @param  Channel The selected DAC channel.
 665:stm32f4xx-hal-driver/Src/stm32f4xx_hal_dac.c ****   *          This parameter can be one of the following values:
 666:stm32f4xx-hal-driver/Src/stm32f4xx_hal_dac.c ****   *            @arg DAC_CHANNEL_1: DAC Channel1 selected
 667:stm32f4xx-hal-driver/Src/stm32f4xx_hal_dac.c ****   *            @arg DAC_CHANNEL_2: DAC Channel2 selected
 668:stm32f4xx-hal-driver/Src/stm32f4xx_hal_dac.c ****   * @retval HAL status
 669:stm32f4xx-hal-driver/Src/stm32f4xx_hal_dac.c ****   */
 670:stm32f4xx-hal-driver/Src/stm32f4xx_hal_dac.c **** HAL_StatusTypeDef HAL_DAC_Stop_DMA(DAC_HandleTypeDef *hdac, uint32_t Channel)
 671:stm32f4xx-hal-driver/Src/stm32f4xx_hal_dac.c **** {
 650              		.loc 1 671 1 is_stmt 1 view -0
 651              		.cfi_startproc
 652              		@ args = 0, pretend = 0, frame = 0
 653              		@ frame_needed = 0, uses_anonymous_args = 0
 672:stm32f4xx-hal-driver/Src/stm32f4xx_hal_dac.c ****   /* Check the DAC peripheral handle */
 673:stm32f4xx-hal-driver/Src/stm32f4xx_hal_dac.c ****   if (hdac == NULL)
 654              		.loc 1 673 3 view .LVU188
 655              		.loc 1 673 6 is_stmt 0 view .LVU189
 656 0000 40B3     		cbz	r0, .L61
 671:stm32f4xx-hal-driver/Src/stm32f4xx_hal_dac.c ****   /* Check the DAC peripheral handle */
 657              		.loc 1 671 1 view .LVU190
 658 0002 70B5     		push	{r4, r5, r6, lr}
 659              	.LCFI11:
 660              		.cfi_def_cfa_offset 16
 661              		.cfi_offset 4, -16
 662              		.cfi_offset 5, -12
 663              		.cfi_offset 6, -8
 664              		.cfi_offset 14, -4
 665 0004 0446     		mov	r4, r0
 674:stm32f4xx-hal-driver/Src/stm32f4xx_hal_dac.c ****   {
 675:stm32f4xx-hal-driver/Src/stm32f4xx_hal_dac.c ****     return HAL_ERROR;
 676:stm32f4xx-hal-driver/Src/stm32f4xx_hal_dac.c ****   }
 677:stm32f4xx-hal-driver/Src/stm32f4xx_hal_dac.c **** 
 678:stm32f4xx-hal-driver/Src/stm32f4xx_hal_dac.c ****   /* Check the parameters */
 679:stm32f4xx-hal-driver/Src/stm32f4xx_hal_dac.c ****   assert_param(IS_DAC_CHANNEL(Channel));
ARM GAS  /tmp/cco6h2AZ.s 			page 26


 666              		.loc 1 679 3 is_stmt 1 view .LVU191
 680:stm32f4xx-hal-driver/Src/stm32f4xx_hal_dac.c **** 
 681:stm32f4xx-hal-driver/Src/stm32f4xx_hal_dac.c ****   /* Disable the selected DAC channel DMA request */
 682:stm32f4xx-hal-driver/Src/stm32f4xx_hal_dac.c ****   hdac->Instance->CR &= ~(DAC_CR_DMAEN1 << (Channel & 0x10UL));
 667              		.loc 1 682 3 view .LVU192
 668              		.loc 1 682 7 is_stmt 0 view .LVU193
 669 0006 0368     		ldr	r3, [r0]
 670              		.loc 1 682 22 view .LVU194
 671 0008 1868     		ldr	r0, [r3]
 672              	.LVL49:
 673              		.loc 1 682 53 view .LVU195
 674 000a 01F01006 		and	r6, r1, #16
 675              		.loc 1 682 41 view .LVU196
 676 000e 4FF48055 		mov	r5, #4096
 677 0012 B540     		lsls	r5, r5, r6
 678              		.loc 1 682 22 view .LVU197
 679 0014 20EA0500 		bic	r0, r0, r5
 680 0018 1860     		str	r0, [r3]
 683:stm32f4xx-hal-driver/Src/stm32f4xx_hal_dac.c **** 
 684:stm32f4xx-hal-driver/Src/stm32f4xx_hal_dac.c ****   /* Disable the Peripheral */
 685:stm32f4xx-hal-driver/Src/stm32f4xx_hal_dac.c ****   __HAL_DAC_DISABLE(hdac, Channel);
 681              		.loc 1 685 3 is_stmt 1 view .LVU198
 682 001a 2068     		ldr	r0, [r4]
 683 001c 0368     		ldr	r3, [r0]
 684 001e 0122     		movs	r2, #1
 685 0020 B240     		lsls	r2, r2, r6
 686 0022 23EA0203 		bic	r3, r3, r2
 687 0026 0360     		str	r3, [r0]
 686:stm32f4xx-hal-driver/Src/stm32f4xx_hal_dac.c **** 
 687:stm32f4xx-hal-driver/Src/stm32f4xx_hal_dac.c ****   /* Disable the DMA Stream */
 688:stm32f4xx-hal-driver/Src/stm32f4xx_hal_dac.c **** 
 689:stm32f4xx-hal-driver/Src/stm32f4xx_hal_dac.c ****   /* Channel1 is used */
 690:stm32f4xx-hal-driver/Src/stm32f4xx_hal_dac.c ****   if (Channel == DAC_CHANNEL_1)
 688              		.loc 1 690 3 view .LVU199
 689              		.loc 1 690 6 is_stmt 0 view .LVU200
 690 0028 59B9     		cbnz	r1, .L59
 691:stm32f4xx-hal-driver/Src/stm32f4xx_hal_dac.c ****   {
 692:stm32f4xx-hal-driver/Src/stm32f4xx_hal_dac.c ****     /* Disable the DMA Stream */
 693:stm32f4xx-hal-driver/Src/stm32f4xx_hal_dac.c ****     (void)HAL_DMA_Abort(hdac->DMA_Handle1);
 691              		.loc 1 693 5 is_stmt 1 view .LVU201
 692              		.loc 1 693 11 is_stmt 0 view .LVU202
 693 002a A068     		ldr	r0, [r4, #8]
 694 002c FFF7FEFF 		bl	HAL_DMA_Abort
 695              	.LVL50:
 694:stm32f4xx-hal-driver/Src/stm32f4xx_hal_dac.c **** 
 695:stm32f4xx-hal-driver/Src/stm32f4xx_hal_dac.c ****     /* Disable the DAC DMA underrun interrupt */
 696:stm32f4xx-hal-driver/Src/stm32f4xx_hal_dac.c ****     __HAL_DAC_DISABLE_IT(hdac, DAC_IT_DMAUDR1);
 696              		.loc 1 696 5 is_stmt 1 view .LVU203
 697 0030 2268     		ldr	r2, [r4]
 698 0032 1368     		ldr	r3, [r2]
 699 0034 23F40053 		bic	r3, r3, #8192
 700 0038 1360     		str	r3, [r2]
 701              	.L60:
 697:stm32f4xx-hal-driver/Src/stm32f4xx_hal_dac.c ****   }
 698:stm32f4xx-hal-driver/Src/stm32f4xx_hal_dac.c **** #if defined(DAC_CHANNEL2_SUPPORT)
 699:stm32f4xx-hal-driver/Src/stm32f4xx_hal_dac.c ****   else /* Channel2 is used for */
 700:stm32f4xx-hal-driver/Src/stm32f4xx_hal_dac.c ****   {
ARM GAS  /tmp/cco6h2AZ.s 			page 27


 701:stm32f4xx-hal-driver/Src/stm32f4xx_hal_dac.c ****     /* Disable the DMA Stream */
 702:stm32f4xx-hal-driver/Src/stm32f4xx_hal_dac.c ****     (void)HAL_DMA_Abort(hdac->DMA_Handle2);
 703:stm32f4xx-hal-driver/Src/stm32f4xx_hal_dac.c **** 
 704:stm32f4xx-hal-driver/Src/stm32f4xx_hal_dac.c ****     /* Disable the DAC DMA underrun interrupt */
 705:stm32f4xx-hal-driver/Src/stm32f4xx_hal_dac.c ****     __HAL_DAC_DISABLE_IT(hdac, DAC_IT_DMAUDR2);
 706:stm32f4xx-hal-driver/Src/stm32f4xx_hal_dac.c ****   }
 707:stm32f4xx-hal-driver/Src/stm32f4xx_hal_dac.c **** #endif /* DAC_CHANNEL2_SUPPORT */
 708:stm32f4xx-hal-driver/Src/stm32f4xx_hal_dac.c **** 
 709:stm32f4xx-hal-driver/Src/stm32f4xx_hal_dac.c ****   /* Change DAC state */
 710:stm32f4xx-hal-driver/Src/stm32f4xx_hal_dac.c ****   hdac->State = HAL_DAC_STATE_READY;
 702              		.loc 1 710 3 view .LVU204
 703              		.loc 1 710 15 is_stmt 0 view .LVU205
 704 003a 0123     		movs	r3, #1
 705 003c 2371     		strb	r3, [r4, #4]
 711:stm32f4xx-hal-driver/Src/stm32f4xx_hal_dac.c **** 
 712:stm32f4xx-hal-driver/Src/stm32f4xx_hal_dac.c ****   /* Return function status */
 713:stm32f4xx-hal-driver/Src/stm32f4xx_hal_dac.c ****   return HAL_OK;
 706              		.loc 1 713 3 is_stmt 1 view .LVU206
 707              		.loc 1 713 10 is_stmt 0 view .LVU207
 708 003e 0020     		movs	r0, #0
 714:stm32f4xx-hal-driver/Src/stm32f4xx_hal_dac.c **** }
 709              		.loc 1 714 1 view .LVU208
 710 0040 70BD     		pop	{r4, r5, r6, pc}
 711              	.LVL51:
 712              	.L59:
 702:stm32f4xx-hal-driver/Src/stm32f4xx_hal_dac.c **** 
 713              		.loc 1 702 5 is_stmt 1 view .LVU209
 702:stm32f4xx-hal-driver/Src/stm32f4xx_hal_dac.c **** 
 714              		.loc 1 702 11 is_stmt 0 view .LVU210
 715 0042 E068     		ldr	r0, [r4, #12]
 716 0044 FFF7FEFF 		bl	HAL_DMA_Abort
 717              	.LVL52:
 705:stm32f4xx-hal-driver/Src/stm32f4xx_hal_dac.c ****   }
 718              		.loc 1 705 5 is_stmt 1 view .LVU211
 719 0048 2268     		ldr	r2, [r4]
 720 004a 1368     		ldr	r3, [r2]
 721 004c 23F00053 		bic	r3, r3, #536870912
 722 0050 1360     		str	r3, [r2]
 723 0052 F2E7     		b	.L60
 724              	.LVL53:
 725              	.L61:
 726              	.LCFI12:
 727              		.cfi_def_cfa_offset 0
 728              		.cfi_restore 4
 729              		.cfi_restore 5
 730              		.cfi_restore 6
 731              		.cfi_restore 14
 675:stm32f4xx-hal-driver/Src/stm32f4xx_hal_dac.c ****   }
 732              		.loc 1 675 12 is_stmt 0 view .LVU212
 733 0054 0120     		movs	r0, #1
 734              	.LVL54:
 735              		.loc 1 714 1 view .LVU213
 736 0056 7047     		bx	lr
 737              		.cfi_endproc
 738              	.LFE246:
 740              		.section	.text.HAL_DAC_SetValue,"ax",%progbits
 741              		.align	1
ARM GAS  /tmp/cco6h2AZ.s 			page 28


 742              		.global	HAL_DAC_SetValue
 743              		.syntax unified
 744              		.thumb
 745              		.thumb_func
 746              		.fpu fpv4-sp-d16
 748              	HAL_DAC_SetValue:
 749              	.LVL55:
 750              	.LFB248:
 715:stm32f4xx-hal-driver/Src/stm32f4xx_hal_dac.c **** 
 716:stm32f4xx-hal-driver/Src/stm32f4xx_hal_dac.c **** /**
 717:stm32f4xx-hal-driver/Src/stm32f4xx_hal_dac.c ****   * @brief  Handles DAC interrupt request
 718:stm32f4xx-hal-driver/Src/stm32f4xx_hal_dac.c ****   *         This function uses the interruption of DMA
 719:stm32f4xx-hal-driver/Src/stm32f4xx_hal_dac.c ****   *         underrun.
 720:stm32f4xx-hal-driver/Src/stm32f4xx_hal_dac.c ****   * @param  hdac pointer to a DAC_HandleTypeDef structure that contains
 721:stm32f4xx-hal-driver/Src/stm32f4xx_hal_dac.c ****   *         the configuration information for the specified DAC.
 722:stm32f4xx-hal-driver/Src/stm32f4xx_hal_dac.c ****   * @retval None
 723:stm32f4xx-hal-driver/Src/stm32f4xx_hal_dac.c ****   */
 724:stm32f4xx-hal-driver/Src/stm32f4xx_hal_dac.c **** void HAL_DAC_IRQHandler(DAC_HandleTypeDef *hdac)
 725:stm32f4xx-hal-driver/Src/stm32f4xx_hal_dac.c **** {
 726:stm32f4xx-hal-driver/Src/stm32f4xx_hal_dac.c ****   uint32_t itsource = hdac->Instance->CR;
 727:stm32f4xx-hal-driver/Src/stm32f4xx_hal_dac.c ****   uint32_t itflag   = hdac->Instance->SR;
 728:stm32f4xx-hal-driver/Src/stm32f4xx_hal_dac.c **** 
 729:stm32f4xx-hal-driver/Src/stm32f4xx_hal_dac.c ****   if ((itsource & DAC_IT_DMAUDR1) == DAC_IT_DMAUDR1)
 730:stm32f4xx-hal-driver/Src/stm32f4xx_hal_dac.c ****   {
 731:stm32f4xx-hal-driver/Src/stm32f4xx_hal_dac.c ****     /* Check underrun flag of DAC channel 1 */
 732:stm32f4xx-hal-driver/Src/stm32f4xx_hal_dac.c ****     if ((itflag & DAC_FLAG_DMAUDR1) == DAC_FLAG_DMAUDR1)
 733:stm32f4xx-hal-driver/Src/stm32f4xx_hal_dac.c ****     {
 734:stm32f4xx-hal-driver/Src/stm32f4xx_hal_dac.c ****       /* Change DAC state to error state */
 735:stm32f4xx-hal-driver/Src/stm32f4xx_hal_dac.c ****       hdac->State = HAL_DAC_STATE_ERROR;
 736:stm32f4xx-hal-driver/Src/stm32f4xx_hal_dac.c **** 
 737:stm32f4xx-hal-driver/Src/stm32f4xx_hal_dac.c ****       /* Set DAC error code to channel1 DMA underrun error */
 738:stm32f4xx-hal-driver/Src/stm32f4xx_hal_dac.c ****       SET_BIT(hdac->ErrorCode, HAL_DAC_ERROR_DMAUNDERRUNCH1);
 739:stm32f4xx-hal-driver/Src/stm32f4xx_hal_dac.c **** 
 740:stm32f4xx-hal-driver/Src/stm32f4xx_hal_dac.c ****       /* Clear the underrun flag */
 741:stm32f4xx-hal-driver/Src/stm32f4xx_hal_dac.c ****       __HAL_DAC_CLEAR_FLAG(hdac, DAC_FLAG_DMAUDR1);
 742:stm32f4xx-hal-driver/Src/stm32f4xx_hal_dac.c **** 
 743:stm32f4xx-hal-driver/Src/stm32f4xx_hal_dac.c ****       /* Disable the selected DAC channel1 DMA request */
 744:stm32f4xx-hal-driver/Src/stm32f4xx_hal_dac.c ****       __HAL_DAC_DISABLE_IT(hdac, DAC_CR_DMAEN1);
 745:stm32f4xx-hal-driver/Src/stm32f4xx_hal_dac.c **** 
 746:stm32f4xx-hal-driver/Src/stm32f4xx_hal_dac.c ****       /* Error callback */
 747:stm32f4xx-hal-driver/Src/stm32f4xx_hal_dac.c **** #if (USE_HAL_DAC_REGISTER_CALLBACKS == 1)
 748:stm32f4xx-hal-driver/Src/stm32f4xx_hal_dac.c ****       hdac->DMAUnderrunCallbackCh1(hdac);
 749:stm32f4xx-hal-driver/Src/stm32f4xx_hal_dac.c **** #else
 750:stm32f4xx-hal-driver/Src/stm32f4xx_hal_dac.c ****       HAL_DAC_DMAUnderrunCallbackCh1(hdac);
 751:stm32f4xx-hal-driver/Src/stm32f4xx_hal_dac.c **** #endif /* USE_HAL_DAC_REGISTER_CALLBACKS */
 752:stm32f4xx-hal-driver/Src/stm32f4xx_hal_dac.c ****     }
 753:stm32f4xx-hal-driver/Src/stm32f4xx_hal_dac.c ****   }
 754:stm32f4xx-hal-driver/Src/stm32f4xx_hal_dac.c **** 
 755:stm32f4xx-hal-driver/Src/stm32f4xx_hal_dac.c **** #if defined(DAC_CHANNEL2_SUPPORT)
 756:stm32f4xx-hal-driver/Src/stm32f4xx_hal_dac.c ****   if ((itsource & DAC_IT_DMAUDR2) == DAC_IT_DMAUDR2)
 757:stm32f4xx-hal-driver/Src/stm32f4xx_hal_dac.c ****   {
 758:stm32f4xx-hal-driver/Src/stm32f4xx_hal_dac.c ****     /* Check underrun flag of DAC channel 2 */
 759:stm32f4xx-hal-driver/Src/stm32f4xx_hal_dac.c ****     if ((itflag & DAC_FLAG_DMAUDR2) == DAC_FLAG_DMAUDR2)
 760:stm32f4xx-hal-driver/Src/stm32f4xx_hal_dac.c ****     {
 761:stm32f4xx-hal-driver/Src/stm32f4xx_hal_dac.c ****       /* Change DAC state to error state */
 762:stm32f4xx-hal-driver/Src/stm32f4xx_hal_dac.c ****       hdac->State = HAL_DAC_STATE_ERROR;
 763:stm32f4xx-hal-driver/Src/stm32f4xx_hal_dac.c **** 
ARM GAS  /tmp/cco6h2AZ.s 			page 29


 764:stm32f4xx-hal-driver/Src/stm32f4xx_hal_dac.c ****       /* Set DAC error code to channel2 DMA underrun error */
 765:stm32f4xx-hal-driver/Src/stm32f4xx_hal_dac.c ****       SET_BIT(hdac->ErrorCode, HAL_DAC_ERROR_DMAUNDERRUNCH2);
 766:stm32f4xx-hal-driver/Src/stm32f4xx_hal_dac.c **** 
 767:stm32f4xx-hal-driver/Src/stm32f4xx_hal_dac.c ****       /* Clear the underrun flag */
 768:stm32f4xx-hal-driver/Src/stm32f4xx_hal_dac.c ****       __HAL_DAC_CLEAR_FLAG(hdac, DAC_FLAG_DMAUDR2);
 769:stm32f4xx-hal-driver/Src/stm32f4xx_hal_dac.c **** 
 770:stm32f4xx-hal-driver/Src/stm32f4xx_hal_dac.c ****       /* Disable the selected DAC channel2 DMA request */
 771:stm32f4xx-hal-driver/Src/stm32f4xx_hal_dac.c ****       __HAL_DAC_DISABLE_IT(hdac, DAC_CR_DMAEN2);
 772:stm32f4xx-hal-driver/Src/stm32f4xx_hal_dac.c **** 
 773:stm32f4xx-hal-driver/Src/stm32f4xx_hal_dac.c ****       /* Error callback */
 774:stm32f4xx-hal-driver/Src/stm32f4xx_hal_dac.c **** #if (USE_HAL_DAC_REGISTER_CALLBACKS == 1)
 775:stm32f4xx-hal-driver/Src/stm32f4xx_hal_dac.c ****       hdac->DMAUnderrunCallbackCh2(hdac);
 776:stm32f4xx-hal-driver/Src/stm32f4xx_hal_dac.c **** #else
 777:stm32f4xx-hal-driver/Src/stm32f4xx_hal_dac.c ****       HAL_DACEx_DMAUnderrunCallbackCh2(hdac);
 778:stm32f4xx-hal-driver/Src/stm32f4xx_hal_dac.c **** #endif /* USE_HAL_DAC_REGISTER_CALLBACKS */
 779:stm32f4xx-hal-driver/Src/stm32f4xx_hal_dac.c ****     }
 780:stm32f4xx-hal-driver/Src/stm32f4xx_hal_dac.c ****   }
 781:stm32f4xx-hal-driver/Src/stm32f4xx_hal_dac.c **** #endif /* DAC_CHANNEL2_SUPPORT */
 782:stm32f4xx-hal-driver/Src/stm32f4xx_hal_dac.c **** }
 783:stm32f4xx-hal-driver/Src/stm32f4xx_hal_dac.c **** 
 784:stm32f4xx-hal-driver/Src/stm32f4xx_hal_dac.c **** /**
 785:stm32f4xx-hal-driver/Src/stm32f4xx_hal_dac.c ****   * @brief  Set the specified data holding register value for DAC channel.
 786:stm32f4xx-hal-driver/Src/stm32f4xx_hal_dac.c ****   * @param  hdac pointer to a DAC_HandleTypeDef structure that contains
 787:stm32f4xx-hal-driver/Src/stm32f4xx_hal_dac.c ****   *         the configuration information for the specified DAC.
 788:stm32f4xx-hal-driver/Src/stm32f4xx_hal_dac.c ****   * @param  Channel The selected DAC channel.
 789:stm32f4xx-hal-driver/Src/stm32f4xx_hal_dac.c ****   *          This parameter can be one of the following values:
 790:stm32f4xx-hal-driver/Src/stm32f4xx_hal_dac.c ****   *            @arg DAC_CHANNEL_1: DAC Channel1 selected
 791:stm32f4xx-hal-driver/Src/stm32f4xx_hal_dac.c ****   *            @arg DAC_CHANNEL_2: DAC Channel2 selected
 792:stm32f4xx-hal-driver/Src/stm32f4xx_hal_dac.c ****   * @param  Alignment Specifies the data alignment.
 793:stm32f4xx-hal-driver/Src/stm32f4xx_hal_dac.c ****   *          This parameter can be one of the following values:
 794:stm32f4xx-hal-driver/Src/stm32f4xx_hal_dac.c ****   *            @arg DAC_ALIGN_8B_R: 8bit right data alignment selected
 795:stm32f4xx-hal-driver/Src/stm32f4xx_hal_dac.c ****   *            @arg DAC_ALIGN_12B_L: 12bit left data alignment selected
 796:stm32f4xx-hal-driver/Src/stm32f4xx_hal_dac.c ****   *            @arg DAC_ALIGN_12B_R: 12bit right data alignment selected
 797:stm32f4xx-hal-driver/Src/stm32f4xx_hal_dac.c ****   * @param  Data Data to be loaded in the selected data holding register.
 798:stm32f4xx-hal-driver/Src/stm32f4xx_hal_dac.c ****   * @retval HAL status
 799:stm32f4xx-hal-driver/Src/stm32f4xx_hal_dac.c ****   */
 800:stm32f4xx-hal-driver/Src/stm32f4xx_hal_dac.c **** HAL_StatusTypeDef HAL_DAC_SetValue(DAC_HandleTypeDef *hdac, uint32_t Channel, uint32_t Alignment, u
 801:stm32f4xx-hal-driver/Src/stm32f4xx_hal_dac.c **** {
 751              		.loc 1 801 1 is_stmt 1 view -0
 752              		.cfi_startproc
 753              		@ args = 0, pretend = 0, frame = 8
 754              		@ frame_needed = 0, uses_anonymous_args = 0
 755              		@ link register save eliminated.
 756              		.loc 1 801 1 is_stmt 0 view .LVU215
 757 0000 10B4     		push	{r4}
 758              	.LCFI13:
 759              		.cfi_def_cfa_offset 4
 760              		.cfi_offset 4, -4
 761 0002 83B0     		sub	sp, sp, #12
 762              	.LCFI14:
 763              		.cfi_def_cfa_offset 16
 802:stm32f4xx-hal-driver/Src/stm32f4xx_hal_dac.c ****   __IO uint32_t tmp = 0UL;
 764              		.loc 1 802 3 is_stmt 1 view .LVU216
 765              		.loc 1 802 17 is_stmt 0 view .LVU217
 766 0004 0024     		movs	r4, #0
 767 0006 0194     		str	r4, [sp, #4]
 803:stm32f4xx-hal-driver/Src/stm32f4xx_hal_dac.c **** 
ARM GAS  /tmp/cco6h2AZ.s 			page 30


 804:stm32f4xx-hal-driver/Src/stm32f4xx_hal_dac.c ****   /* Check the DAC peripheral handle */
 805:stm32f4xx-hal-driver/Src/stm32f4xx_hal_dac.c ****   if (hdac == NULL)
 768              		.loc 1 805 3 is_stmt 1 view .LVU218
 769              		.loc 1 805 6 is_stmt 0 view .LVU219
 770 0008 90B1     		cbz	r0, .L70
 806:stm32f4xx-hal-driver/Src/stm32f4xx_hal_dac.c ****   {
 807:stm32f4xx-hal-driver/Src/stm32f4xx_hal_dac.c ****     return HAL_ERROR;
 808:stm32f4xx-hal-driver/Src/stm32f4xx_hal_dac.c ****   }
 809:stm32f4xx-hal-driver/Src/stm32f4xx_hal_dac.c **** 
 810:stm32f4xx-hal-driver/Src/stm32f4xx_hal_dac.c ****   /* Check the parameters */
 811:stm32f4xx-hal-driver/Src/stm32f4xx_hal_dac.c ****   assert_param(IS_DAC_CHANNEL(Channel));
 771              		.loc 1 811 3 is_stmt 1 view .LVU220
 812:stm32f4xx-hal-driver/Src/stm32f4xx_hal_dac.c ****   assert_param(IS_DAC_ALIGN(Alignment));
 772              		.loc 1 812 3 view .LVU221
 813:stm32f4xx-hal-driver/Src/stm32f4xx_hal_dac.c ****   assert_param(IS_DAC_DATA(Data));
 773              		.loc 1 813 3 view .LVU222
 814:stm32f4xx-hal-driver/Src/stm32f4xx_hal_dac.c **** 
 815:stm32f4xx-hal-driver/Src/stm32f4xx_hal_dac.c ****   tmp = (uint32_t)hdac->Instance;
 774              		.loc 1 815 3 view .LVU223
 775              		.loc 1 815 23 is_stmt 0 view .LVU224
 776 000a 0068     		ldr	r0, [r0]
 777              	.LVL56:
 778              		.loc 1 815 7 view .LVU225
 779 000c 0190     		str	r0, [sp, #4]
 816:stm32f4xx-hal-driver/Src/stm32f4xx_hal_dac.c ****   if (Channel == DAC_CHANNEL_1)
 780              		.loc 1 816 3 is_stmt 1 view .LVU226
 781              		.loc 1 816 6 is_stmt 0 view .LVU227
 782 000e 51B9     		cbnz	r1, .L68
 817:stm32f4xx-hal-driver/Src/stm32f4xx_hal_dac.c ****   {
 818:stm32f4xx-hal-driver/Src/stm32f4xx_hal_dac.c ****     tmp += DAC_DHR12R1_ALIGNMENT(Alignment);
 783              		.loc 1 818 5 is_stmt 1 view .LVU228
 784              		.loc 1 818 9 is_stmt 0 view .LVU229
 785 0010 0199     		ldr	r1, [sp, #4]
 786              	.LVL57:
 787              		.loc 1 818 9 view .LVU230
 788 0012 0A44     		add	r2, r2, r1
 789              	.LVL58:
 790              		.loc 1 818 9 view .LVU231
 791 0014 0832     		adds	r2, r2, #8
 792 0016 0192     		str	r2, [sp, #4]
 793              	.L69:
 819:stm32f4xx-hal-driver/Src/stm32f4xx_hal_dac.c ****   }
 820:stm32f4xx-hal-driver/Src/stm32f4xx_hal_dac.c **** #if defined(DAC_CHANNEL2_SUPPORT)
 821:stm32f4xx-hal-driver/Src/stm32f4xx_hal_dac.c ****   else
 822:stm32f4xx-hal-driver/Src/stm32f4xx_hal_dac.c ****   {
 823:stm32f4xx-hal-driver/Src/stm32f4xx_hal_dac.c ****     tmp += DAC_DHR12R2_ALIGNMENT(Alignment);
 824:stm32f4xx-hal-driver/Src/stm32f4xx_hal_dac.c ****   }
 825:stm32f4xx-hal-driver/Src/stm32f4xx_hal_dac.c **** #endif /* DAC_CHANNEL2_SUPPORT */
 826:stm32f4xx-hal-driver/Src/stm32f4xx_hal_dac.c **** 
 827:stm32f4xx-hal-driver/Src/stm32f4xx_hal_dac.c ****   /* Set the DAC channel selected data holding register */
 828:stm32f4xx-hal-driver/Src/stm32f4xx_hal_dac.c ****   *(__IO uint32_t *) tmp = Data;
 794              		.loc 1 828 3 is_stmt 1 view .LVU232
 795              		.loc 1 828 4 is_stmt 0 view .LVU233
 796 0018 019A     		ldr	r2, [sp, #4]
 797              		.loc 1 828 26 view .LVU234
 798 001a 1360     		str	r3, [r2]
 829:stm32f4xx-hal-driver/Src/stm32f4xx_hal_dac.c **** 
ARM GAS  /tmp/cco6h2AZ.s 			page 31


 830:stm32f4xx-hal-driver/Src/stm32f4xx_hal_dac.c ****   /* Return function status */
 831:stm32f4xx-hal-driver/Src/stm32f4xx_hal_dac.c ****   return HAL_OK;
 799              		.loc 1 831 3 is_stmt 1 view .LVU235
 800              		.loc 1 831 10 is_stmt 0 view .LVU236
 801 001c 0020     		movs	r0, #0
 802              	.L67:
 832:stm32f4xx-hal-driver/Src/stm32f4xx_hal_dac.c **** }
 803              		.loc 1 832 1 view .LVU237
 804 001e 03B0     		add	sp, sp, #12
 805              	.LCFI15:
 806              		.cfi_remember_state
 807              		.cfi_def_cfa_offset 4
 808              		@ sp needed
 809 0020 5DF8044B 		ldr	r4, [sp], #4
 810              	.LCFI16:
 811              		.cfi_restore 4
 812              		.cfi_def_cfa_offset 0
 813 0024 7047     		bx	lr
 814              	.LVL59:
 815              	.L68:
 816              	.LCFI17:
 817              		.cfi_restore_state
 823:stm32f4xx-hal-driver/Src/stm32f4xx_hal_dac.c ****   }
 818              		.loc 1 823 5 is_stmt 1 view .LVU238
 823:stm32f4xx-hal-driver/Src/stm32f4xx_hal_dac.c ****   }
 819              		.loc 1 823 9 is_stmt 0 view .LVU239
 820 0026 0199     		ldr	r1, [sp, #4]
 821              	.LVL60:
 823:stm32f4xx-hal-driver/Src/stm32f4xx_hal_dac.c ****   }
 822              		.loc 1 823 9 view .LVU240
 823 0028 0A44     		add	r2, r2, r1
 824              	.LVL61:
 823:stm32f4xx-hal-driver/Src/stm32f4xx_hal_dac.c ****   }
 825              		.loc 1 823 9 view .LVU241
 826 002a 1432     		adds	r2, r2, #20
 827 002c 0192     		str	r2, [sp, #4]
 828 002e F3E7     		b	.L69
 829              	.LVL62:
 830              	.L70:
 807:stm32f4xx-hal-driver/Src/stm32f4xx_hal_dac.c ****   }
 831              		.loc 1 807 12 view .LVU242
 832 0030 0120     		movs	r0, #1
 833              	.LVL63:
 807:stm32f4xx-hal-driver/Src/stm32f4xx_hal_dac.c ****   }
 834              		.loc 1 807 12 view .LVU243
 835 0032 F4E7     		b	.L67
 836              		.cfi_endproc
 837              	.LFE248:
 839              		.section	.text.HAL_DAC_ConvCpltCallbackCh1,"ax",%progbits
 840              		.align	1
 841              		.weak	HAL_DAC_ConvCpltCallbackCh1
 842              		.syntax unified
 843              		.thumb
 844              		.thumb_func
 845              		.fpu fpv4-sp-d16
 847              	HAL_DAC_ConvCpltCallbackCh1:
 848              	.LVL64:
ARM GAS  /tmp/cco6h2AZ.s 			page 32


 849              	.LFB249:
 833:stm32f4xx-hal-driver/Src/stm32f4xx_hal_dac.c **** 
 834:stm32f4xx-hal-driver/Src/stm32f4xx_hal_dac.c **** /**
 835:stm32f4xx-hal-driver/Src/stm32f4xx_hal_dac.c ****   * @brief  Conversion complete callback in non-blocking mode for Channel1
 836:stm32f4xx-hal-driver/Src/stm32f4xx_hal_dac.c ****   * @param  hdac pointer to a DAC_HandleTypeDef structure that contains
 837:stm32f4xx-hal-driver/Src/stm32f4xx_hal_dac.c ****   *         the configuration information for the specified DAC.
 838:stm32f4xx-hal-driver/Src/stm32f4xx_hal_dac.c ****   * @retval None
 839:stm32f4xx-hal-driver/Src/stm32f4xx_hal_dac.c ****   */
 840:stm32f4xx-hal-driver/Src/stm32f4xx_hal_dac.c **** __weak void HAL_DAC_ConvCpltCallbackCh1(DAC_HandleTypeDef *hdac)
 841:stm32f4xx-hal-driver/Src/stm32f4xx_hal_dac.c **** {
 850              		.loc 1 841 1 is_stmt 1 view -0
 851              		.cfi_startproc
 852              		@ args = 0, pretend = 0, frame = 0
 853              		@ frame_needed = 0, uses_anonymous_args = 0
 854              		@ link register save eliminated.
 842:stm32f4xx-hal-driver/Src/stm32f4xx_hal_dac.c ****   /* Prevent unused argument(s) compilation warning */
 843:stm32f4xx-hal-driver/Src/stm32f4xx_hal_dac.c ****   UNUSED(hdac);
 855              		.loc 1 843 3 view .LVU245
 844:stm32f4xx-hal-driver/Src/stm32f4xx_hal_dac.c **** 
 845:stm32f4xx-hal-driver/Src/stm32f4xx_hal_dac.c ****   /* NOTE : This function should not be modified, when the callback is needed,
 846:stm32f4xx-hal-driver/Src/stm32f4xx_hal_dac.c ****             the HAL_DAC_ConvCpltCallbackCh1 could be implemented in the user file
 847:stm32f4xx-hal-driver/Src/stm32f4xx_hal_dac.c ****    */
 848:stm32f4xx-hal-driver/Src/stm32f4xx_hal_dac.c **** }
 856              		.loc 1 848 1 is_stmt 0 view .LVU246
 857 0000 7047     		bx	lr
 858              		.cfi_endproc
 859              	.LFE249:
 861              		.section	.text.DAC_DMAConvCpltCh1,"ax",%progbits
 862              		.align	1
 863              		.global	DAC_DMAConvCpltCh1
 864              		.syntax unified
 865              		.thumb
 866              		.thumb_func
 867              		.fpu fpv4-sp-d16
 869              	DAC_DMAConvCpltCh1:
 870              	.LVL65:
 871              	.LFB257:
 849:stm32f4xx-hal-driver/Src/stm32f4xx_hal_dac.c **** 
 850:stm32f4xx-hal-driver/Src/stm32f4xx_hal_dac.c **** /**
 851:stm32f4xx-hal-driver/Src/stm32f4xx_hal_dac.c ****   * @brief  Conversion half DMA transfer callback in non-blocking mode for Channel1
 852:stm32f4xx-hal-driver/Src/stm32f4xx_hal_dac.c ****   * @param  hdac pointer to a DAC_HandleTypeDef structure that contains
 853:stm32f4xx-hal-driver/Src/stm32f4xx_hal_dac.c ****   *         the configuration information for the specified DAC.
 854:stm32f4xx-hal-driver/Src/stm32f4xx_hal_dac.c ****   * @retval None
 855:stm32f4xx-hal-driver/Src/stm32f4xx_hal_dac.c ****   */
 856:stm32f4xx-hal-driver/Src/stm32f4xx_hal_dac.c **** __weak void HAL_DAC_ConvHalfCpltCallbackCh1(DAC_HandleTypeDef *hdac)
 857:stm32f4xx-hal-driver/Src/stm32f4xx_hal_dac.c **** {
 858:stm32f4xx-hal-driver/Src/stm32f4xx_hal_dac.c ****   /* Prevent unused argument(s) compilation warning */
 859:stm32f4xx-hal-driver/Src/stm32f4xx_hal_dac.c ****   UNUSED(hdac);
 860:stm32f4xx-hal-driver/Src/stm32f4xx_hal_dac.c **** 
 861:stm32f4xx-hal-driver/Src/stm32f4xx_hal_dac.c ****   /* NOTE : This function should not be modified, when the callback is needed,
 862:stm32f4xx-hal-driver/Src/stm32f4xx_hal_dac.c ****             the HAL_DAC_ConvHalfCpltCallbackCh1 could be implemented in the user file
 863:stm32f4xx-hal-driver/Src/stm32f4xx_hal_dac.c ****    */
 864:stm32f4xx-hal-driver/Src/stm32f4xx_hal_dac.c **** }
 865:stm32f4xx-hal-driver/Src/stm32f4xx_hal_dac.c **** 
 866:stm32f4xx-hal-driver/Src/stm32f4xx_hal_dac.c **** /**
 867:stm32f4xx-hal-driver/Src/stm32f4xx_hal_dac.c ****   * @brief  Error DAC callback for Channel1.
 868:stm32f4xx-hal-driver/Src/stm32f4xx_hal_dac.c ****   * @param  hdac pointer to a DAC_HandleTypeDef structure that contains
ARM GAS  /tmp/cco6h2AZ.s 			page 33


 869:stm32f4xx-hal-driver/Src/stm32f4xx_hal_dac.c ****   *         the configuration information for the specified DAC.
 870:stm32f4xx-hal-driver/Src/stm32f4xx_hal_dac.c ****   * @retval None
 871:stm32f4xx-hal-driver/Src/stm32f4xx_hal_dac.c ****   */
 872:stm32f4xx-hal-driver/Src/stm32f4xx_hal_dac.c **** __weak void HAL_DAC_ErrorCallbackCh1(DAC_HandleTypeDef *hdac)
 873:stm32f4xx-hal-driver/Src/stm32f4xx_hal_dac.c **** {
 874:stm32f4xx-hal-driver/Src/stm32f4xx_hal_dac.c ****   /* Prevent unused argument(s) compilation warning */
 875:stm32f4xx-hal-driver/Src/stm32f4xx_hal_dac.c ****   UNUSED(hdac);
 876:stm32f4xx-hal-driver/Src/stm32f4xx_hal_dac.c **** 
 877:stm32f4xx-hal-driver/Src/stm32f4xx_hal_dac.c ****   /* NOTE : This function should not be modified, when the callback is needed,
 878:stm32f4xx-hal-driver/Src/stm32f4xx_hal_dac.c ****             the HAL_DAC_ErrorCallbackCh1 could be implemented in the user file
 879:stm32f4xx-hal-driver/Src/stm32f4xx_hal_dac.c ****    */
 880:stm32f4xx-hal-driver/Src/stm32f4xx_hal_dac.c **** }
 881:stm32f4xx-hal-driver/Src/stm32f4xx_hal_dac.c **** 
 882:stm32f4xx-hal-driver/Src/stm32f4xx_hal_dac.c **** /**
 883:stm32f4xx-hal-driver/Src/stm32f4xx_hal_dac.c ****   * @brief  DMA underrun DAC callback for channel1.
 884:stm32f4xx-hal-driver/Src/stm32f4xx_hal_dac.c ****   * @param  hdac pointer to a DAC_HandleTypeDef structure that contains
 885:stm32f4xx-hal-driver/Src/stm32f4xx_hal_dac.c ****   *         the configuration information for the specified DAC.
 886:stm32f4xx-hal-driver/Src/stm32f4xx_hal_dac.c ****   * @retval None
 887:stm32f4xx-hal-driver/Src/stm32f4xx_hal_dac.c ****   */
 888:stm32f4xx-hal-driver/Src/stm32f4xx_hal_dac.c **** __weak void HAL_DAC_DMAUnderrunCallbackCh1(DAC_HandleTypeDef *hdac)
 889:stm32f4xx-hal-driver/Src/stm32f4xx_hal_dac.c **** {
 890:stm32f4xx-hal-driver/Src/stm32f4xx_hal_dac.c ****   /* Prevent unused argument(s) compilation warning */
 891:stm32f4xx-hal-driver/Src/stm32f4xx_hal_dac.c ****   UNUSED(hdac);
 892:stm32f4xx-hal-driver/Src/stm32f4xx_hal_dac.c **** 
 893:stm32f4xx-hal-driver/Src/stm32f4xx_hal_dac.c ****   /* NOTE : This function should not be modified, when the callback is needed,
 894:stm32f4xx-hal-driver/Src/stm32f4xx_hal_dac.c ****             the HAL_DAC_DMAUnderrunCallbackCh1 could be implemented in the user file
 895:stm32f4xx-hal-driver/Src/stm32f4xx_hal_dac.c ****    */
 896:stm32f4xx-hal-driver/Src/stm32f4xx_hal_dac.c **** }
 897:stm32f4xx-hal-driver/Src/stm32f4xx_hal_dac.c **** 
 898:stm32f4xx-hal-driver/Src/stm32f4xx_hal_dac.c **** /**
 899:stm32f4xx-hal-driver/Src/stm32f4xx_hal_dac.c ****   * @}
 900:stm32f4xx-hal-driver/Src/stm32f4xx_hal_dac.c ****   */
 901:stm32f4xx-hal-driver/Src/stm32f4xx_hal_dac.c **** 
 902:stm32f4xx-hal-driver/Src/stm32f4xx_hal_dac.c **** /** @defgroup DAC_Exported_Functions_Group3 Peripheral Control functions
 903:stm32f4xx-hal-driver/Src/stm32f4xx_hal_dac.c ****   *  @brief    Peripheral Control functions
 904:stm32f4xx-hal-driver/Src/stm32f4xx_hal_dac.c ****   *
 905:stm32f4xx-hal-driver/Src/stm32f4xx_hal_dac.c **** @verbatim
 906:stm32f4xx-hal-driver/Src/stm32f4xx_hal_dac.c ****   ==============================================================================
 907:stm32f4xx-hal-driver/Src/stm32f4xx_hal_dac.c ****              ##### Peripheral Control functions #####
 908:stm32f4xx-hal-driver/Src/stm32f4xx_hal_dac.c ****   ==============================================================================
 909:stm32f4xx-hal-driver/Src/stm32f4xx_hal_dac.c ****     [..]  This section provides functions allowing to:
 910:stm32f4xx-hal-driver/Src/stm32f4xx_hal_dac.c ****       (+) Configure channels.
 911:stm32f4xx-hal-driver/Src/stm32f4xx_hal_dac.c ****       (+) Set the specified data holding register value for DAC channel.
 912:stm32f4xx-hal-driver/Src/stm32f4xx_hal_dac.c **** 
 913:stm32f4xx-hal-driver/Src/stm32f4xx_hal_dac.c **** @endverbatim
 914:stm32f4xx-hal-driver/Src/stm32f4xx_hal_dac.c ****   * @{
 915:stm32f4xx-hal-driver/Src/stm32f4xx_hal_dac.c ****   */
 916:stm32f4xx-hal-driver/Src/stm32f4xx_hal_dac.c **** 
 917:stm32f4xx-hal-driver/Src/stm32f4xx_hal_dac.c **** /**
 918:stm32f4xx-hal-driver/Src/stm32f4xx_hal_dac.c ****   * @brief  Returns the last data output value of the selected DAC channel.
 919:stm32f4xx-hal-driver/Src/stm32f4xx_hal_dac.c ****   * @param  hdac pointer to a DAC_HandleTypeDef structure that contains
 920:stm32f4xx-hal-driver/Src/stm32f4xx_hal_dac.c ****   *         the configuration information for the specified DAC.
 921:stm32f4xx-hal-driver/Src/stm32f4xx_hal_dac.c ****   * @param  Channel The selected DAC channel.
 922:stm32f4xx-hal-driver/Src/stm32f4xx_hal_dac.c ****   *          This parameter can be one of the following values:
 923:stm32f4xx-hal-driver/Src/stm32f4xx_hal_dac.c ****   *            @arg DAC_CHANNEL_1: DAC Channel1 selected
 924:stm32f4xx-hal-driver/Src/stm32f4xx_hal_dac.c ****   *            @arg DAC_CHANNEL_2: DAC Channel2 selected
 925:stm32f4xx-hal-driver/Src/stm32f4xx_hal_dac.c ****   * @retval The selected DAC channel data output value.
ARM GAS  /tmp/cco6h2AZ.s 			page 34


 926:stm32f4xx-hal-driver/Src/stm32f4xx_hal_dac.c ****   */
 927:stm32f4xx-hal-driver/Src/stm32f4xx_hal_dac.c **** uint32_t HAL_DAC_GetValue(const DAC_HandleTypeDef *hdac, uint32_t Channel)
 928:stm32f4xx-hal-driver/Src/stm32f4xx_hal_dac.c **** {
 929:stm32f4xx-hal-driver/Src/stm32f4xx_hal_dac.c ****   uint32_t result = 0;
 930:stm32f4xx-hal-driver/Src/stm32f4xx_hal_dac.c **** 
 931:stm32f4xx-hal-driver/Src/stm32f4xx_hal_dac.c ****   /* Check the DAC peripheral handle */
 932:stm32f4xx-hal-driver/Src/stm32f4xx_hal_dac.c ****   assert_param(hdac != NULL);
 933:stm32f4xx-hal-driver/Src/stm32f4xx_hal_dac.c **** 
 934:stm32f4xx-hal-driver/Src/stm32f4xx_hal_dac.c ****   /* Check the parameters */
 935:stm32f4xx-hal-driver/Src/stm32f4xx_hal_dac.c ****   assert_param(IS_DAC_CHANNEL(Channel));
 936:stm32f4xx-hal-driver/Src/stm32f4xx_hal_dac.c **** 
 937:stm32f4xx-hal-driver/Src/stm32f4xx_hal_dac.c ****   if (Channel == DAC_CHANNEL_1)
 938:stm32f4xx-hal-driver/Src/stm32f4xx_hal_dac.c ****   {
 939:stm32f4xx-hal-driver/Src/stm32f4xx_hal_dac.c ****     result = hdac->Instance->DOR1;
 940:stm32f4xx-hal-driver/Src/stm32f4xx_hal_dac.c ****   }
 941:stm32f4xx-hal-driver/Src/stm32f4xx_hal_dac.c **** #if defined(DAC_CHANNEL2_SUPPORT)
 942:stm32f4xx-hal-driver/Src/stm32f4xx_hal_dac.c ****   else
 943:stm32f4xx-hal-driver/Src/stm32f4xx_hal_dac.c ****   {
 944:stm32f4xx-hal-driver/Src/stm32f4xx_hal_dac.c ****     result = hdac->Instance->DOR2;
 945:stm32f4xx-hal-driver/Src/stm32f4xx_hal_dac.c ****   }
 946:stm32f4xx-hal-driver/Src/stm32f4xx_hal_dac.c **** #endif /* DAC_CHANNEL2_SUPPORT */
 947:stm32f4xx-hal-driver/Src/stm32f4xx_hal_dac.c ****   /* Returns the DAC channel data output register value */
 948:stm32f4xx-hal-driver/Src/stm32f4xx_hal_dac.c ****   return result;
 949:stm32f4xx-hal-driver/Src/stm32f4xx_hal_dac.c **** }
 950:stm32f4xx-hal-driver/Src/stm32f4xx_hal_dac.c **** 
 951:stm32f4xx-hal-driver/Src/stm32f4xx_hal_dac.c **** /**
 952:stm32f4xx-hal-driver/Src/stm32f4xx_hal_dac.c ****   * @brief  Configures the selected DAC channel.
 953:stm32f4xx-hal-driver/Src/stm32f4xx_hal_dac.c ****   * @param  hdac pointer to a DAC_HandleTypeDef structure that contains
 954:stm32f4xx-hal-driver/Src/stm32f4xx_hal_dac.c ****   *         the configuration information for the specified DAC.
 955:stm32f4xx-hal-driver/Src/stm32f4xx_hal_dac.c ****   * @param  sConfig DAC configuration structure.
 956:stm32f4xx-hal-driver/Src/stm32f4xx_hal_dac.c ****   * @param  Channel The selected DAC channel.
 957:stm32f4xx-hal-driver/Src/stm32f4xx_hal_dac.c ****   *          This parameter can be one of the following values:
 958:stm32f4xx-hal-driver/Src/stm32f4xx_hal_dac.c ****   *            @arg DAC_CHANNEL_1: DAC Channel1 selected
 959:stm32f4xx-hal-driver/Src/stm32f4xx_hal_dac.c ****   *            @arg DAC_CHANNEL_2: DAC Channel2 selected
 960:stm32f4xx-hal-driver/Src/stm32f4xx_hal_dac.c ****   * @retval HAL status
 961:stm32f4xx-hal-driver/Src/stm32f4xx_hal_dac.c ****   */
 962:stm32f4xx-hal-driver/Src/stm32f4xx_hal_dac.c **** HAL_StatusTypeDef HAL_DAC_ConfigChannel(DAC_HandleTypeDef *hdac,
 963:stm32f4xx-hal-driver/Src/stm32f4xx_hal_dac.c ****                                         const DAC_ChannelConfTypeDef *sConfig, uint32_t Channel)
 964:stm32f4xx-hal-driver/Src/stm32f4xx_hal_dac.c **** {
 965:stm32f4xx-hal-driver/Src/stm32f4xx_hal_dac.c ****   HAL_StatusTypeDef status = HAL_OK;
 966:stm32f4xx-hal-driver/Src/stm32f4xx_hal_dac.c ****   uint32_t tmpreg1;
 967:stm32f4xx-hal-driver/Src/stm32f4xx_hal_dac.c ****   uint32_t tmpreg2;
 968:stm32f4xx-hal-driver/Src/stm32f4xx_hal_dac.c **** 
 969:stm32f4xx-hal-driver/Src/stm32f4xx_hal_dac.c ****   /* Check the DAC peripheral handle and channel configuration struct */
 970:stm32f4xx-hal-driver/Src/stm32f4xx_hal_dac.c ****   if ((hdac == NULL) || (sConfig == NULL))
 971:stm32f4xx-hal-driver/Src/stm32f4xx_hal_dac.c ****   {
 972:stm32f4xx-hal-driver/Src/stm32f4xx_hal_dac.c ****     return HAL_ERROR;
 973:stm32f4xx-hal-driver/Src/stm32f4xx_hal_dac.c ****   }
 974:stm32f4xx-hal-driver/Src/stm32f4xx_hal_dac.c **** 
 975:stm32f4xx-hal-driver/Src/stm32f4xx_hal_dac.c ****   /* Check the DAC parameters */
 976:stm32f4xx-hal-driver/Src/stm32f4xx_hal_dac.c ****   assert_param(IS_DAC_TRIGGER(sConfig->DAC_Trigger));
 977:stm32f4xx-hal-driver/Src/stm32f4xx_hal_dac.c ****   assert_param(IS_DAC_OUTPUT_BUFFER_STATE(sConfig->DAC_OutputBuffer));
 978:stm32f4xx-hal-driver/Src/stm32f4xx_hal_dac.c ****   assert_param(IS_DAC_CHANNEL(Channel));
 979:stm32f4xx-hal-driver/Src/stm32f4xx_hal_dac.c **** 
 980:stm32f4xx-hal-driver/Src/stm32f4xx_hal_dac.c ****   /* Process locked */
 981:stm32f4xx-hal-driver/Src/stm32f4xx_hal_dac.c ****   __HAL_LOCK(hdac);
 982:stm32f4xx-hal-driver/Src/stm32f4xx_hal_dac.c **** 
ARM GAS  /tmp/cco6h2AZ.s 			page 35


 983:stm32f4xx-hal-driver/Src/stm32f4xx_hal_dac.c ****   /* Change DAC state */
 984:stm32f4xx-hal-driver/Src/stm32f4xx_hal_dac.c ****   hdac->State = HAL_DAC_STATE_BUSY;
 985:stm32f4xx-hal-driver/Src/stm32f4xx_hal_dac.c **** 
 986:stm32f4xx-hal-driver/Src/stm32f4xx_hal_dac.c ****   /* Get the DAC CR value */
 987:stm32f4xx-hal-driver/Src/stm32f4xx_hal_dac.c ****   tmpreg1 = hdac->Instance->CR;
 988:stm32f4xx-hal-driver/Src/stm32f4xx_hal_dac.c ****   /* Clear BOFFx, TENx, TSELx, WAVEx and MAMPx bits */
 989:stm32f4xx-hal-driver/Src/stm32f4xx_hal_dac.c ****   tmpreg1 &= ~(((uint32_t)(DAC_CR_MAMP1 | DAC_CR_WAVE1 | DAC_CR_TSEL1 | DAC_CR_TEN1 | DAC_CR_BOFF1)
 990:stm32f4xx-hal-driver/Src/stm32f4xx_hal_dac.c ****                << (Channel & 0x10UL));
 991:stm32f4xx-hal-driver/Src/stm32f4xx_hal_dac.c ****   /* Configure for the selected DAC channel: buffer output, trigger */
 992:stm32f4xx-hal-driver/Src/stm32f4xx_hal_dac.c ****   /* Set TSELx and TENx bits according to DAC_Trigger value */
 993:stm32f4xx-hal-driver/Src/stm32f4xx_hal_dac.c ****   /* Set BOFFx bit according to DAC_OutputBuffer value */
 994:stm32f4xx-hal-driver/Src/stm32f4xx_hal_dac.c ****   tmpreg2 = (sConfig->DAC_Trigger | sConfig->DAC_OutputBuffer);
 995:stm32f4xx-hal-driver/Src/stm32f4xx_hal_dac.c ****   /* Calculate CR register value depending on DAC_Channel */
 996:stm32f4xx-hal-driver/Src/stm32f4xx_hal_dac.c ****   tmpreg1 |= tmpreg2 << (Channel & 0x10UL);
 997:stm32f4xx-hal-driver/Src/stm32f4xx_hal_dac.c ****   /* Write to DAC CR */
 998:stm32f4xx-hal-driver/Src/stm32f4xx_hal_dac.c ****   hdac->Instance->CR = tmpreg1;
 999:stm32f4xx-hal-driver/Src/stm32f4xx_hal_dac.c ****   /* Disable wave generation */
1000:stm32f4xx-hal-driver/Src/stm32f4xx_hal_dac.c ****   CLEAR_BIT(hdac->Instance->CR, (DAC_CR_WAVE1 << (Channel & 0x10UL)));
1001:stm32f4xx-hal-driver/Src/stm32f4xx_hal_dac.c **** 
1002:stm32f4xx-hal-driver/Src/stm32f4xx_hal_dac.c ****   /* Change DAC state */
1003:stm32f4xx-hal-driver/Src/stm32f4xx_hal_dac.c ****   hdac->State = HAL_DAC_STATE_READY;
1004:stm32f4xx-hal-driver/Src/stm32f4xx_hal_dac.c **** 
1005:stm32f4xx-hal-driver/Src/stm32f4xx_hal_dac.c ****   /* Process unlocked */
1006:stm32f4xx-hal-driver/Src/stm32f4xx_hal_dac.c ****   __HAL_UNLOCK(hdac);
1007:stm32f4xx-hal-driver/Src/stm32f4xx_hal_dac.c **** 
1008:stm32f4xx-hal-driver/Src/stm32f4xx_hal_dac.c ****   /* Return function status */
1009:stm32f4xx-hal-driver/Src/stm32f4xx_hal_dac.c ****   return status;
1010:stm32f4xx-hal-driver/Src/stm32f4xx_hal_dac.c **** }
1011:stm32f4xx-hal-driver/Src/stm32f4xx_hal_dac.c **** 
1012:stm32f4xx-hal-driver/Src/stm32f4xx_hal_dac.c **** /**
1013:stm32f4xx-hal-driver/Src/stm32f4xx_hal_dac.c ****   * @}
1014:stm32f4xx-hal-driver/Src/stm32f4xx_hal_dac.c ****   */
1015:stm32f4xx-hal-driver/Src/stm32f4xx_hal_dac.c **** 
1016:stm32f4xx-hal-driver/Src/stm32f4xx_hal_dac.c **** /** @defgroup DAC_Exported_Functions_Group4 Peripheral State and Errors functions
1017:stm32f4xx-hal-driver/Src/stm32f4xx_hal_dac.c ****   *  @brief   Peripheral State and Errors functions
1018:stm32f4xx-hal-driver/Src/stm32f4xx_hal_dac.c ****   *
1019:stm32f4xx-hal-driver/Src/stm32f4xx_hal_dac.c **** @verbatim
1020:stm32f4xx-hal-driver/Src/stm32f4xx_hal_dac.c ****   ==============================================================================
1021:stm32f4xx-hal-driver/Src/stm32f4xx_hal_dac.c ****             ##### Peripheral State and Errors functions #####
1022:stm32f4xx-hal-driver/Src/stm32f4xx_hal_dac.c ****   ==============================================================================
1023:stm32f4xx-hal-driver/Src/stm32f4xx_hal_dac.c ****     [..]
1024:stm32f4xx-hal-driver/Src/stm32f4xx_hal_dac.c ****     This subsection provides functions allowing to
1025:stm32f4xx-hal-driver/Src/stm32f4xx_hal_dac.c ****       (+) Check the DAC state.
1026:stm32f4xx-hal-driver/Src/stm32f4xx_hal_dac.c ****       (+) Check the DAC Errors.
1027:stm32f4xx-hal-driver/Src/stm32f4xx_hal_dac.c **** 
1028:stm32f4xx-hal-driver/Src/stm32f4xx_hal_dac.c **** @endverbatim
1029:stm32f4xx-hal-driver/Src/stm32f4xx_hal_dac.c ****   * @{
1030:stm32f4xx-hal-driver/Src/stm32f4xx_hal_dac.c ****   */
1031:stm32f4xx-hal-driver/Src/stm32f4xx_hal_dac.c **** 
1032:stm32f4xx-hal-driver/Src/stm32f4xx_hal_dac.c **** /**
1033:stm32f4xx-hal-driver/Src/stm32f4xx_hal_dac.c ****   * @brief  return the DAC handle state
1034:stm32f4xx-hal-driver/Src/stm32f4xx_hal_dac.c ****   * @param  hdac pointer to a DAC_HandleTypeDef structure that contains
1035:stm32f4xx-hal-driver/Src/stm32f4xx_hal_dac.c ****   *         the configuration information for the specified DAC.
1036:stm32f4xx-hal-driver/Src/stm32f4xx_hal_dac.c ****   * @retval HAL state
1037:stm32f4xx-hal-driver/Src/stm32f4xx_hal_dac.c ****   */
1038:stm32f4xx-hal-driver/Src/stm32f4xx_hal_dac.c **** HAL_DAC_StateTypeDef HAL_DAC_GetState(const DAC_HandleTypeDef *hdac)
1039:stm32f4xx-hal-driver/Src/stm32f4xx_hal_dac.c **** {
ARM GAS  /tmp/cco6h2AZ.s 			page 36


1040:stm32f4xx-hal-driver/Src/stm32f4xx_hal_dac.c ****   /* Return DAC handle state */
1041:stm32f4xx-hal-driver/Src/stm32f4xx_hal_dac.c ****   return hdac->State;
1042:stm32f4xx-hal-driver/Src/stm32f4xx_hal_dac.c **** }
1043:stm32f4xx-hal-driver/Src/stm32f4xx_hal_dac.c **** 
1044:stm32f4xx-hal-driver/Src/stm32f4xx_hal_dac.c **** 
1045:stm32f4xx-hal-driver/Src/stm32f4xx_hal_dac.c **** /**
1046:stm32f4xx-hal-driver/Src/stm32f4xx_hal_dac.c ****   * @brief  Return the DAC error code
1047:stm32f4xx-hal-driver/Src/stm32f4xx_hal_dac.c ****   * @param  hdac pointer to a DAC_HandleTypeDef structure that contains
1048:stm32f4xx-hal-driver/Src/stm32f4xx_hal_dac.c ****   *         the configuration information for the specified DAC.
1049:stm32f4xx-hal-driver/Src/stm32f4xx_hal_dac.c ****   * @retval DAC Error Code
1050:stm32f4xx-hal-driver/Src/stm32f4xx_hal_dac.c ****   */
1051:stm32f4xx-hal-driver/Src/stm32f4xx_hal_dac.c **** uint32_t HAL_DAC_GetError(const DAC_HandleTypeDef *hdac)
1052:stm32f4xx-hal-driver/Src/stm32f4xx_hal_dac.c **** {
1053:stm32f4xx-hal-driver/Src/stm32f4xx_hal_dac.c ****   return hdac->ErrorCode;
1054:stm32f4xx-hal-driver/Src/stm32f4xx_hal_dac.c **** }
1055:stm32f4xx-hal-driver/Src/stm32f4xx_hal_dac.c **** 
1056:stm32f4xx-hal-driver/Src/stm32f4xx_hal_dac.c **** /**
1057:stm32f4xx-hal-driver/Src/stm32f4xx_hal_dac.c ****   * @}
1058:stm32f4xx-hal-driver/Src/stm32f4xx_hal_dac.c ****   */
1059:stm32f4xx-hal-driver/Src/stm32f4xx_hal_dac.c **** 
1060:stm32f4xx-hal-driver/Src/stm32f4xx_hal_dac.c **** /**
1061:stm32f4xx-hal-driver/Src/stm32f4xx_hal_dac.c ****   * @}
1062:stm32f4xx-hal-driver/Src/stm32f4xx_hal_dac.c ****   */
1063:stm32f4xx-hal-driver/Src/stm32f4xx_hal_dac.c **** 
1064:stm32f4xx-hal-driver/Src/stm32f4xx_hal_dac.c **** /** @addtogroup DAC_Exported_Functions
1065:stm32f4xx-hal-driver/Src/stm32f4xx_hal_dac.c ****   * @{
1066:stm32f4xx-hal-driver/Src/stm32f4xx_hal_dac.c ****   */
1067:stm32f4xx-hal-driver/Src/stm32f4xx_hal_dac.c **** 
1068:stm32f4xx-hal-driver/Src/stm32f4xx_hal_dac.c **** /** @addtogroup DAC_Exported_Functions_Group1
1069:stm32f4xx-hal-driver/Src/stm32f4xx_hal_dac.c ****   * @{
1070:stm32f4xx-hal-driver/Src/stm32f4xx_hal_dac.c ****   */
1071:stm32f4xx-hal-driver/Src/stm32f4xx_hal_dac.c **** #if (USE_HAL_DAC_REGISTER_CALLBACKS == 1)
1072:stm32f4xx-hal-driver/Src/stm32f4xx_hal_dac.c **** /**
1073:stm32f4xx-hal-driver/Src/stm32f4xx_hal_dac.c ****   * @brief  Register a User DAC Callback
1074:stm32f4xx-hal-driver/Src/stm32f4xx_hal_dac.c ****   *         To be used instead of the weak (overridden) predefined callback
1075:stm32f4xx-hal-driver/Src/stm32f4xx_hal_dac.c ****   * @note   The HAL_DAC_RegisterCallback() may be called before HAL_DAC_Init() in HAL_DAC_STATE_RES
1076:stm32f4xx-hal-driver/Src/stm32f4xx_hal_dac.c ****   *         callbacks for HAL_DAC_MSPINIT_CB_ID and HAL_DAC_MSPDEINIT_CB_ID
1077:stm32f4xx-hal-driver/Src/stm32f4xx_hal_dac.c ****   * @param  hdac DAC handle
1078:stm32f4xx-hal-driver/Src/stm32f4xx_hal_dac.c ****   * @param  CallbackID ID of the callback to be registered
1079:stm32f4xx-hal-driver/Src/stm32f4xx_hal_dac.c ****   *         This parameter can be one of the following values:
1080:stm32f4xx-hal-driver/Src/stm32f4xx_hal_dac.c ****   *          @arg @ref HAL_DAC_ERROR_INVALID_CALLBACK   DAC Error Callback ID
1081:stm32f4xx-hal-driver/Src/stm32f4xx_hal_dac.c ****   *          @arg @ref HAL_DAC_CH1_COMPLETE_CB_ID       DAC CH1 Complete Callback ID
1082:stm32f4xx-hal-driver/Src/stm32f4xx_hal_dac.c ****   *          @arg @ref HAL_DAC_CH1_HALF_COMPLETE_CB_ID  DAC CH1 Half Complete Callback ID
1083:stm32f4xx-hal-driver/Src/stm32f4xx_hal_dac.c ****   *          @arg @ref HAL_DAC_CH1_ERROR_ID             DAC CH1 Error Callback ID
1084:stm32f4xx-hal-driver/Src/stm32f4xx_hal_dac.c ****   *          @arg @ref HAL_DAC_CH1_UNDERRUN_CB_ID       DAC CH1 UnderRun Callback ID
1085:stm32f4xx-hal-driver/Src/stm32f4xx_hal_dac.c ****   *          @arg @ref HAL_DAC_CH2_COMPLETE_CB_ID       DAC CH2 Complete Callback ID
1086:stm32f4xx-hal-driver/Src/stm32f4xx_hal_dac.c ****   *          @arg @ref HAL_DAC_CH2_HALF_COMPLETE_CB_ID  DAC CH2 Half Complete Callback ID
1087:stm32f4xx-hal-driver/Src/stm32f4xx_hal_dac.c ****   *          @arg @ref HAL_DAC_CH2_ERROR_ID             DAC CH2 Error Callback ID
1088:stm32f4xx-hal-driver/Src/stm32f4xx_hal_dac.c ****   *          @arg @ref HAL_DAC_CH2_UNDERRUN_CB_ID       DAC CH2 UnderRun Callback ID
1089:stm32f4xx-hal-driver/Src/stm32f4xx_hal_dac.c ****   *          @arg @ref HAL_DAC_MSPINIT_CB_ID            DAC MSP Init Callback ID
1090:stm32f4xx-hal-driver/Src/stm32f4xx_hal_dac.c ****   *          @arg @ref HAL_DAC_MSPDEINIT_CB_ID          DAC MSP DeInit Callback ID
1091:stm32f4xx-hal-driver/Src/stm32f4xx_hal_dac.c ****   *
1092:stm32f4xx-hal-driver/Src/stm32f4xx_hal_dac.c ****   * @param  pCallback pointer to the Callback function
1093:stm32f4xx-hal-driver/Src/stm32f4xx_hal_dac.c ****   * @retval status
1094:stm32f4xx-hal-driver/Src/stm32f4xx_hal_dac.c ****   */
1095:stm32f4xx-hal-driver/Src/stm32f4xx_hal_dac.c **** HAL_StatusTypeDef HAL_DAC_RegisterCallback(DAC_HandleTypeDef *hdac, HAL_DAC_CallbackIDTypeDef Callb
1096:stm32f4xx-hal-driver/Src/stm32f4xx_hal_dac.c ****                                            pDAC_CallbackTypeDef pCallback)
ARM GAS  /tmp/cco6h2AZ.s 			page 37


1097:stm32f4xx-hal-driver/Src/stm32f4xx_hal_dac.c **** {
1098:stm32f4xx-hal-driver/Src/stm32f4xx_hal_dac.c ****   HAL_StatusTypeDef status = HAL_OK;
1099:stm32f4xx-hal-driver/Src/stm32f4xx_hal_dac.c **** 
1100:stm32f4xx-hal-driver/Src/stm32f4xx_hal_dac.c ****   /* Check the DAC peripheral handle */
1101:stm32f4xx-hal-driver/Src/stm32f4xx_hal_dac.c ****   if (hdac == NULL)
1102:stm32f4xx-hal-driver/Src/stm32f4xx_hal_dac.c ****   {
1103:stm32f4xx-hal-driver/Src/stm32f4xx_hal_dac.c ****     return HAL_ERROR;
1104:stm32f4xx-hal-driver/Src/stm32f4xx_hal_dac.c ****   }
1105:stm32f4xx-hal-driver/Src/stm32f4xx_hal_dac.c **** 
1106:stm32f4xx-hal-driver/Src/stm32f4xx_hal_dac.c ****   if (pCallback == NULL)
1107:stm32f4xx-hal-driver/Src/stm32f4xx_hal_dac.c ****   {
1108:stm32f4xx-hal-driver/Src/stm32f4xx_hal_dac.c ****     /* Update the error code */
1109:stm32f4xx-hal-driver/Src/stm32f4xx_hal_dac.c ****     hdac->ErrorCode |= HAL_DAC_ERROR_INVALID_CALLBACK;
1110:stm32f4xx-hal-driver/Src/stm32f4xx_hal_dac.c ****     return HAL_ERROR;
1111:stm32f4xx-hal-driver/Src/stm32f4xx_hal_dac.c ****   }
1112:stm32f4xx-hal-driver/Src/stm32f4xx_hal_dac.c **** 
1113:stm32f4xx-hal-driver/Src/stm32f4xx_hal_dac.c ****   if (hdac->State == HAL_DAC_STATE_READY)
1114:stm32f4xx-hal-driver/Src/stm32f4xx_hal_dac.c ****   {
1115:stm32f4xx-hal-driver/Src/stm32f4xx_hal_dac.c ****     switch (CallbackID)
1116:stm32f4xx-hal-driver/Src/stm32f4xx_hal_dac.c ****     {
1117:stm32f4xx-hal-driver/Src/stm32f4xx_hal_dac.c ****       case HAL_DAC_CH1_COMPLETE_CB_ID :
1118:stm32f4xx-hal-driver/Src/stm32f4xx_hal_dac.c ****         hdac->ConvCpltCallbackCh1 = pCallback;
1119:stm32f4xx-hal-driver/Src/stm32f4xx_hal_dac.c ****         break;
1120:stm32f4xx-hal-driver/Src/stm32f4xx_hal_dac.c ****       case HAL_DAC_CH1_HALF_COMPLETE_CB_ID :
1121:stm32f4xx-hal-driver/Src/stm32f4xx_hal_dac.c ****         hdac->ConvHalfCpltCallbackCh1 = pCallback;
1122:stm32f4xx-hal-driver/Src/stm32f4xx_hal_dac.c ****         break;
1123:stm32f4xx-hal-driver/Src/stm32f4xx_hal_dac.c ****       case HAL_DAC_CH1_ERROR_ID :
1124:stm32f4xx-hal-driver/Src/stm32f4xx_hal_dac.c ****         hdac->ErrorCallbackCh1 = pCallback;
1125:stm32f4xx-hal-driver/Src/stm32f4xx_hal_dac.c ****         break;
1126:stm32f4xx-hal-driver/Src/stm32f4xx_hal_dac.c ****       case HAL_DAC_CH1_UNDERRUN_CB_ID :
1127:stm32f4xx-hal-driver/Src/stm32f4xx_hal_dac.c ****         hdac->DMAUnderrunCallbackCh1 = pCallback;
1128:stm32f4xx-hal-driver/Src/stm32f4xx_hal_dac.c ****         break;
1129:stm32f4xx-hal-driver/Src/stm32f4xx_hal_dac.c **** #if defined(DAC_CHANNEL2_SUPPORT)
1130:stm32f4xx-hal-driver/Src/stm32f4xx_hal_dac.c ****       case HAL_DAC_CH2_COMPLETE_CB_ID :
1131:stm32f4xx-hal-driver/Src/stm32f4xx_hal_dac.c ****         hdac->ConvCpltCallbackCh2 = pCallback;
1132:stm32f4xx-hal-driver/Src/stm32f4xx_hal_dac.c ****         break;
1133:stm32f4xx-hal-driver/Src/stm32f4xx_hal_dac.c ****       case HAL_DAC_CH2_HALF_COMPLETE_CB_ID :
1134:stm32f4xx-hal-driver/Src/stm32f4xx_hal_dac.c ****         hdac->ConvHalfCpltCallbackCh2 = pCallback;
1135:stm32f4xx-hal-driver/Src/stm32f4xx_hal_dac.c ****         break;
1136:stm32f4xx-hal-driver/Src/stm32f4xx_hal_dac.c ****       case HAL_DAC_CH2_ERROR_ID :
1137:stm32f4xx-hal-driver/Src/stm32f4xx_hal_dac.c ****         hdac->ErrorCallbackCh2 = pCallback;
1138:stm32f4xx-hal-driver/Src/stm32f4xx_hal_dac.c ****         break;
1139:stm32f4xx-hal-driver/Src/stm32f4xx_hal_dac.c ****       case HAL_DAC_CH2_UNDERRUN_CB_ID :
1140:stm32f4xx-hal-driver/Src/stm32f4xx_hal_dac.c ****         hdac->DMAUnderrunCallbackCh2 = pCallback;
1141:stm32f4xx-hal-driver/Src/stm32f4xx_hal_dac.c ****         break;
1142:stm32f4xx-hal-driver/Src/stm32f4xx_hal_dac.c **** #endif /* DAC_CHANNEL2_SUPPORT */
1143:stm32f4xx-hal-driver/Src/stm32f4xx_hal_dac.c ****       case HAL_DAC_MSPINIT_CB_ID :
1144:stm32f4xx-hal-driver/Src/stm32f4xx_hal_dac.c ****         hdac->MspInitCallback = pCallback;
1145:stm32f4xx-hal-driver/Src/stm32f4xx_hal_dac.c ****         break;
1146:stm32f4xx-hal-driver/Src/stm32f4xx_hal_dac.c ****       case HAL_DAC_MSPDEINIT_CB_ID :
1147:stm32f4xx-hal-driver/Src/stm32f4xx_hal_dac.c ****         hdac->MspDeInitCallback = pCallback;
1148:stm32f4xx-hal-driver/Src/stm32f4xx_hal_dac.c ****         break;
1149:stm32f4xx-hal-driver/Src/stm32f4xx_hal_dac.c ****       default :
1150:stm32f4xx-hal-driver/Src/stm32f4xx_hal_dac.c ****         /* Update the error code */
1151:stm32f4xx-hal-driver/Src/stm32f4xx_hal_dac.c ****         hdac->ErrorCode |= HAL_DAC_ERROR_INVALID_CALLBACK;
1152:stm32f4xx-hal-driver/Src/stm32f4xx_hal_dac.c ****         /* update return status */
1153:stm32f4xx-hal-driver/Src/stm32f4xx_hal_dac.c ****         status =  HAL_ERROR;
ARM GAS  /tmp/cco6h2AZ.s 			page 38


1154:stm32f4xx-hal-driver/Src/stm32f4xx_hal_dac.c ****         break;
1155:stm32f4xx-hal-driver/Src/stm32f4xx_hal_dac.c ****     }
1156:stm32f4xx-hal-driver/Src/stm32f4xx_hal_dac.c ****   }
1157:stm32f4xx-hal-driver/Src/stm32f4xx_hal_dac.c ****   else if (hdac->State == HAL_DAC_STATE_RESET)
1158:stm32f4xx-hal-driver/Src/stm32f4xx_hal_dac.c ****   {
1159:stm32f4xx-hal-driver/Src/stm32f4xx_hal_dac.c ****     switch (CallbackID)
1160:stm32f4xx-hal-driver/Src/stm32f4xx_hal_dac.c ****     {
1161:stm32f4xx-hal-driver/Src/stm32f4xx_hal_dac.c ****       case HAL_DAC_MSPINIT_CB_ID :
1162:stm32f4xx-hal-driver/Src/stm32f4xx_hal_dac.c ****         hdac->MspInitCallback = pCallback;
1163:stm32f4xx-hal-driver/Src/stm32f4xx_hal_dac.c ****         break;
1164:stm32f4xx-hal-driver/Src/stm32f4xx_hal_dac.c ****       case HAL_DAC_MSPDEINIT_CB_ID :
1165:stm32f4xx-hal-driver/Src/stm32f4xx_hal_dac.c ****         hdac->MspDeInitCallback = pCallback;
1166:stm32f4xx-hal-driver/Src/stm32f4xx_hal_dac.c ****         break;
1167:stm32f4xx-hal-driver/Src/stm32f4xx_hal_dac.c ****       default :
1168:stm32f4xx-hal-driver/Src/stm32f4xx_hal_dac.c ****         /* Update the error code */
1169:stm32f4xx-hal-driver/Src/stm32f4xx_hal_dac.c ****         hdac->ErrorCode |= HAL_DAC_ERROR_INVALID_CALLBACK;
1170:stm32f4xx-hal-driver/Src/stm32f4xx_hal_dac.c ****         /* update return status */
1171:stm32f4xx-hal-driver/Src/stm32f4xx_hal_dac.c ****         status =  HAL_ERROR;
1172:stm32f4xx-hal-driver/Src/stm32f4xx_hal_dac.c ****         break;
1173:stm32f4xx-hal-driver/Src/stm32f4xx_hal_dac.c ****     }
1174:stm32f4xx-hal-driver/Src/stm32f4xx_hal_dac.c ****   }
1175:stm32f4xx-hal-driver/Src/stm32f4xx_hal_dac.c ****   else
1176:stm32f4xx-hal-driver/Src/stm32f4xx_hal_dac.c ****   {
1177:stm32f4xx-hal-driver/Src/stm32f4xx_hal_dac.c ****     /* Update the error code */
1178:stm32f4xx-hal-driver/Src/stm32f4xx_hal_dac.c ****     hdac->ErrorCode |= HAL_DAC_ERROR_INVALID_CALLBACK;
1179:stm32f4xx-hal-driver/Src/stm32f4xx_hal_dac.c ****     /* update return status */
1180:stm32f4xx-hal-driver/Src/stm32f4xx_hal_dac.c ****     status =  HAL_ERROR;
1181:stm32f4xx-hal-driver/Src/stm32f4xx_hal_dac.c ****   }
1182:stm32f4xx-hal-driver/Src/stm32f4xx_hal_dac.c **** 
1183:stm32f4xx-hal-driver/Src/stm32f4xx_hal_dac.c ****   return status;
1184:stm32f4xx-hal-driver/Src/stm32f4xx_hal_dac.c **** }
1185:stm32f4xx-hal-driver/Src/stm32f4xx_hal_dac.c **** 
1186:stm32f4xx-hal-driver/Src/stm32f4xx_hal_dac.c **** /**
1187:stm32f4xx-hal-driver/Src/stm32f4xx_hal_dac.c ****   * @brief  Unregister a User DAC Callback
1188:stm32f4xx-hal-driver/Src/stm32f4xx_hal_dac.c ****   *         DAC Callback is redirected to the weak (overridden) predefined callback
1189:stm32f4xx-hal-driver/Src/stm32f4xx_hal_dac.c ****   * @note   The HAL_DAC_UnRegisterCallback() may be called before HAL_DAC_Init() in HAL_DAC_STATE_R
1190:stm32f4xx-hal-driver/Src/stm32f4xx_hal_dac.c ****   *         callbacks for HAL_DAC_MSPINIT_CB_ID and HAL_DAC_MSPDEINIT_CB_ID
1191:stm32f4xx-hal-driver/Src/stm32f4xx_hal_dac.c ****   * @param  hdac DAC handle
1192:stm32f4xx-hal-driver/Src/stm32f4xx_hal_dac.c ****   * @param  CallbackID ID of the callback to be unregistered
1193:stm32f4xx-hal-driver/Src/stm32f4xx_hal_dac.c ****   *         This parameter can be one of the following values:
1194:stm32f4xx-hal-driver/Src/stm32f4xx_hal_dac.c ****   *          @arg @ref HAL_DAC_CH1_COMPLETE_CB_ID          DAC CH1 transfer Complete Callback ID
1195:stm32f4xx-hal-driver/Src/stm32f4xx_hal_dac.c ****   *          @arg @ref HAL_DAC_CH1_HALF_COMPLETE_CB_ID     DAC CH1 Half Complete Callback ID
1196:stm32f4xx-hal-driver/Src/stm32f4xx_hal_dac.c ****   *          @arg @ref HAL_DAC_CH1_ERROR_ID                DAC CH1 Error Callback ID
1197:stm32f4xx-hal-driver/Src/stm32f4xx_hal_dac.c ****   *          @arg @ref HAL_DAC_CH1_UNDERRUN_CB_ID          DAC CH1 UnderRun Callback ID
1198:stm32f4xx-hal-driver/Src/stm32f4xx_hal_dac.c ****   *          @arg @ref HAL_DAC_CH2_COMPLETE_CB_ID          DAC CH2 Complete Callback ID
1199:stm32f4xx-hal-driver/Src/stm32f4xx_hal_dac.c ****   *          @arg @ref HAL_DAC_CH2_HALF_COMPLETE_CB_ID     DAC CH2 Half Complete Callback ID
1200:stm32f4xx-hal-driver/Src/stm32f4xx_hal_dac.c ****   *          @arg @ref HAL_DAC_CH2_ERROR_ID                DAC CH2 Error Callback ID
1201:stm32f4xx-hal-driver/Src/stm32f4xx_hal_dac.c ****   *          @arg @ref HAL_DAC_CH2_UNDERRUN_CB_ID          DAC CH2 UnderRun Callback ID
1202:stm32f4xx-hal-driver/Src/stm32f4xx_hal_dac.c ****   *          @arg @ref HAL_DAC_MSPINIT_CB_ID               DAC MSP Init Callback ID
1203:stm32f4xx-hal-driver/Src/stm32f4xx_hal_dac.c ****   *          @arg @ref HAL_DAC_MSPDEINIT_CB_ID             DAC MSP DeInit Callback ID
1204:stm32f4xx-hal-driver/Src/stm32f4xx_hal_dac.c ****   *          @arg @ref HAL_DAC_ALL_CB_ID                   DAC All callbacks
1205:stm32f4xx-hal-driver/Src/stm32f4xx_hal_dac.c ****   * @retval status
1206:stm32f4xx-hal-driver/Src/stm32f4xx_hal_dac.c ****   */
1207:stm32f4xx-hal-driver/Src/stm32f4xx_hal_dac.c **** HAL_StatusTypeDef HAL_DAC_UnRegisterCallback(DAC_HandleTypeDef *hdac, HAL_DAC_CallbackIDTypeDef Cal
1208:stm32f4xx-hal-driver/Src/stm32f4xx_hal_dac.c **** {
1209:stm32f4xx-hal-driver/Src/stm32f4xx_hal_dac.c ****   HAL_StatusTypeDef status = HAL_OK;
1210:stm32f4xx-hal-driver/Src/stm32f4xx_hal_dac.c **** 
ARM GAS  /tmp/cco6h2AZ.s 			page 39


1211:stm32f4xx-hal-driver/Src/stm32f4xx_hal_dac.c ****   /* Check the DAC peripheral handle */
1212:stm32f4xx-hal-driver/Src/stm32f4xx_hal_dac.c ****   if (hdac == NULL)
1213:stm32f4xx-hal-driver/Src/stm32f4xx_hal_dac.c ****   {
1214:stm32f4xx-hal-driver/Src/stm32f4xx_hal_dac.c ****     return HAL_ERROR;
1215:stm32f4xx-hal-driver/Src/stm32f4xx_hal_dac.c ****   }
1216:stm32f4xx-hal-driver/Src/stm32f4xx_hal_dac.c **** 
1217:stm32f4xx-hal-driver/Src/stm32f4xx_hal_dac.c ****   if (hdac->State == HAL_DAC_STATE_READY)
1218:stm32f4xx-hal-driver/Src/stm32f4xx_hal_dac.c ****   {
1219:stm32f4xx-hal-driver/Src/stm32f4xx_hal_dac.c ****     switch (CallbackID)
1220:stm32f4xx-hal-driver/Src/stm32f4xx_hal_dac.c ****     {
1221:stm32f4xx-hal-driver/Src/stm32f4xx_hal_dac.c ****       case HAL_DAC_CH1_COMPLETE_CB_ID :
1222:stm32f4xx-hal-driver/Src/stm32f4xx_hal_dac.c ****         hdac->ConvCpltCallbackCh1 = HAL_DAC_ConvCpltCallbackCh1;
1223:stm32f4xx-hal-driver/Src/stm32f4xx_hal_dac.c ****         break;
1224:stm32f4xx-hal-driver/Src/stm32f4xx_hal_dac.c ****       case HAL_DAC_CH1_HALF_COMPLETE_CB_ID :
1225:stm32f4xx-hal-driver/Src/stm32f4xx_hal_dac.c ****         hdac->ConvHalfCpltCallbackCh1 = HAL_DAC_ConvHalfCpltCallbackCh1;
1226:stm32f4xx-hal-driver/Src/stm32f4xx_hal_dac.c ****         break;
1227:stm32f4xx-hal-driver/Src/stm32f4xx_hal_dac.c ****       case HAL_DAC_CH1_ERROR_ID :
1228:stm32f4xx-hal-driver/Src/stm32f4xx_hal_dac.c ****         hdac->ErrorCallbackCh1 = HAL_DAC_ErrorCallbackCh1;
1229:stm32f4xx-hal-driver/Src/stm32f4xx_hal_dac.c ****         break;
1230:stm32f4xx-hal-driver/Src/stm32f4xx_hal_dac.c ****       case HAL_DAC_CH1_UNDERRUN_CB_ID :
1231:stm32f4xx-hal-driver/Src/stm32f4xx_hal_dac.c ****         hdac->DMAUnderrunCallbackCh1 = HAL_DAC_DMAUnderrunCallbackCh1;
1232:stm32f4xx-hal-driver/Src/stm32f4xx_hal_dac.c ****         break;
1233:stm32f4xx-hal-driver/Src/stm32f4xx_hal_dac.c **** #if defined(DAC_CHANNEL2_SUPPORT)
1234:stm32f4xx-hal-driver/Src/stm32f4xx_hal_dac.c ****       case HAL_DAC_CH2_COMPLETE_CB_ID :
1235:stm32f4xx-hal-driver/Src/stm32f4xx_hal_dac.c ****         hdac->ConvCpltCallbackCh2 = HAL_DACEx_ConvCpltCallbackCh2;
1236:stm32f4xx-hal-driver/Src/stm32f4xx_hal_dac.c ****         break;
1237:stm32f4xx-hal-driver/Src/stm32f4xx_hal_dac.c ****       case HAL_DAC_CH2_HALF_COMPLETE_CB_ID :
1238:stm32f4xx-hal-driver/Src/stm32f4xx_hal_dac.c ****         hdac->ConvHalfCpltCallbackCh2 = HAL_DACEx_ConvHalfCpltCallbackCh2;
1239:stm32f4xx-hal-driver/Src/stm32f4xx_hal_dac.c ****         break;
1240:stm32f4xx-hal-driver/Src/stm32f4xx_hal_dac.c ****       case HAL_DAC_CH2_ERROR_ID :
1241:stm32f4xx-hal-driver/Src/stm32f4xx_hal_dac.c ****         hdac->ErrorCallbackCh2 = HAL_DACEx_ErrorCallbackCh2;
1242:stm32f4xx-hal-driver/Src/stm32f4xx_hal_dac.c ****         break;
1243:stm32f4xx-hal-driver/Src/stm32f4xx_hal_dac.c ****       case HAL_DAC_CH2_UNDERRUN_CB_ID :
1244:stm32f4xx-hal-driver/Src/stm32f4xx_hal_dac.c ****         hdac->DMAUnderrunCallbackCh2 = HAL_DACEx_DMAUnderrunCallbackCh2;
1245:stm32f4xx-hal-driver/Src/stm32f4xx_hal_dac.c ****         break;
1246:stm32f4xx-hal-driver/Src/stm32f4xx_hal_dac.c **** #endif /* DAC_CHANNEL2_SUPPORT */
1247:stm32f4xx-hal-driver/Src/stm32f4xx_hal_dac.c ****       case HAL_DAC_MSPINIT_CB_ID :
1248:stm32f4xx-hal-driver/Src/stm32f4xx_hal_dac.c ****         hdac->MspInitCallback = HAL_DAC_MspInit;
1249:stm32f4xx-hal-driver/Src/stm32f4xx_hal_dac.c ****         break;
1250:stm32f4xx-hal-driver/Src/stm32f4xx_hal_dac.c ****       case HAL_DAC_MSPDEINIT_CB_ID :
1251:stm32f4xx-hal-driver/Src/stm32f4xx_hal_dac.c ****         hdac->MspDeInitCallback = HAL_DAC_MspDeInit;
1252:stm32f4xx-hal-driver/Src/stm32f4xx_hal_dac.c ****         break;
1253:stm32f4xx-hal-driver/Src/stm32f4xx_hal_dac.c ****       case HAL_DAC_ALL_CB_ID :
1254:stm32f4xx-hal-driver/Src/stm32f4xx_hal_dac.c ****         hdac->ConvCpltCallbackCh1 = HAL_DAC_ConvCpltCallbackCh1;
1255:stm32f4xx-hal-driver/Src/stm32f4xx_hal_dac.c ****         hdac->ConvHalfCpltCallbackCh1 = HAL_DAC_ConvHalfCpltCallbackCh1;
1256:stm32f4xx-hal-driver/Src/stm32f4xx_hal_dac.c ****         hdac->ErrorCallbackCh1 = HAL_DAC_ErrorCallbackCh1;
1257:stm32f4xx-hal-driver/Src/stm32f4xx_hal_dac.c ****         hdac->DMAUnderrunCallbackCh1 = HAL_DAC_DMAUnderrunCallbackCh1;
1258:stm32f4xx-hal-driver/Src/stm32f4xx_hal_dac.c **** #if defined(DAC_CHANNEL2_SUPPORT)
1259:stm32f4xx-hal-driver/Src/stm32f4xx_hal_dac.c ****         hdac->ConvCpltCallbackCh2 = HAL_DACEx_ConvCpltCallbackCh2;
1260:stm32f4xx-hal-driver/Src/stm32f4xx_hal_dac.c ****         hdac->ConvHalfCpltCallbackCh2 = HAL_DACEx_ConvHalfCpltCallbackCh2;
1261:stm32f4xx-hal-driver/Src/stm32f4xx_hal_dac.c ****         hdac->ErrorCallbackCh2 = HAL_DACEx_ErrorCallbackCh2;
1262:stm32f4xx-hal-driver/Src/stm32f4xx_hal_dac.c ****         hdac->DMAUnderrunCallbackCh2 = HAL_DACEx_DMAUnderrunCallbackCh2;
1263:stm32f4xx-hal-driver/Src/stm32f4xx_hal_dac.c **** #endif /* DAC_CHANNEL2_SUPPORT */
1264:stm32f4xx-hal-driver/Src/stm32f4xx_hal_dac.c ****         hdac->MspInitCallback = HAL_DAC_MspInit;
1265:stm32f4xx-hal-driver/Src/stm32f4xx_hal_dac.c ****         hdac->MspDeInitCallback = HAL_DAC_MspDeInit;
1266:stm32f4xx-hal-driver/Src/stm32f4xx_hal_dac.c ****         break;
1267:stm32f4xx-hal-driver/Src/stm32f4xx_hal_dac.c ****       default :
ARM GAS  /tmp/cco6h2AZ.s 			page 40


1268:stm32f4xx-hal-driver/Src/stm32f4xx_hal_dac.c ****         /* Update the error code */
1269:stm32f4xx-hal-driver/Src/stm32f4xx_hal_dac.c ****         hdac->ErrorCode |= HAL_DAC_ERROR_INVALID_CALLBACK;
1270:stm32f4xx-hal-driver/Src/stm32f4xx_hal_dac.c ****         /* update return status */
1271:stm32f4xx-hal-driver/Src/stm32f4xx_hal_dac.c ****         status =  HAL_ERROR;
1272:stm32f4xx-hal-driver/Src/stm32f4xx_hal_dac.c ****         break;
1273:stm32f4xx-hal-driver/Src/stm32f4xx_hal_dac.c ****     }
1274:stm32f4xx-hal-driver/Src/stm32f4xx_hal_dac.c ****   }
1275:stm32f4xx-hal-driver/Src/stm32f4xx_hal_dac.c ****   else if (hdac->State == HAL_DAC_STATE_RESET)
1276:stm32f4xx-hal-driver/Src/stm32f4xx_hal_dac.c ****   {
1277:stm32f4xx-hal-driver/Src/stm32f4xx_hal_dac.c ****     switch (CallbackID)
1278:stm32f4xx-hal-driver/Src/stm32f4xx_hal_dac.c ****     {
1279:stm32f4xx-hal-driver/Src/stm32f4xx_hal_dac.c ****       case HAL_DAC_MSPINIT_CB_ID :
1280:stm32f4xx-hal-driver/Src/stm32f4xx_hal_dac.c ****         hdac->MspInitCallback = HAL_DAC_MspInit;
1281:stm32f4xx-hal-driver/Src/stm32f4xx_hal_dac.c ****         break;
1282:stm32f4xx-hal-driver/Src/stm32f4xx_hal_dac.c ****       case HAL_DAC_MSPDEINIT_CB_ID :
1283:stm32f4xx-hal-driver/Src/stm32f4xx_hal_dac.c ****         hdac->MspDeInitCallback = HAL_DAC_MspDeInit;
1284:stm32f4xx-hal-driver/Src/stm32f4xx_hal_dac.c ****         break;
1285:stm32f4xx-hal-driver/Src/stm32f4xx_hal_dac.c ****       default :
1286:stm32f4xx-hal-driver/Src/stm32f4xx_hal_dac.c ****         /* Update the error code */
1287:stm32f4xx-hal-driver/Src/stm32f4xx_hal_dac.c ****         hdac->ErrorCode |= HAL_DAC_ERROR_INVALID_CALLBACK;
1288:stm32f4xx-hal-driver/Src/stm32f4xx_hal_dac.c ****         /* update return status */
1289:stm32f4xx-hal-driver/Src/stm32f4xx_hal_dac.c ****         status =  HAL_ERROR;
1290:stm32f4xx-hal-driver/Src/stm32f4xx_hal_dac.c ****         break;
1291:stm32f4xx-hal-driver/Src/stm32f4xx_hal_dac.c ****     }
1292:stm32f4xx-hal-driver/Src/stm32f4xx_hal_dac.c ****   }
1293:stm32f4xx-hal-driver/Src/stm32f4xx_hal_dac.c ****   else
1294:stm32f4xx-hal-driver/Src/stm32f4xx_hal_dac.c ****   {
1295:stm32f4xx-hal-driver/Src/stm32f4xx_hal_dac.c ****     /* Update the error code */
1296:stm32f4xx-hal-driver/Src/stm32f4xx_hal_dac.c ****     hdac->ErrorCode |= HAL_DAC_ERROR_INVALID_CALLBACK;
1297:stm32f4xx-hal-driver/Src/stm32f4xx_hal_dac.c ****     /* update return status */
1298:stm32f4xx-hal-driver/Src/stm32f4xx_hal_dac.c ****     status =  HAL_ERROR;
1299:stm32f4xx-hal-driver/Src/stm32f4xx_hal_dac.c ****   }
1300:stm32f4xx-hal-driver/Src/stm32f4xx_hal_dac.c **** 
1301:stm32f4xx-hal-driver/Src/stm32f4xx_hal_dac.c ****   return status;
1302:stm32f4xx-hal-driver/Src/stm32f4xx_hal_dac.c **** }
1303:stm32f4xx-hal-driver/Src/stm32f4xx_hal_dac.c **** #endif /* USE_HAL_DAC_REGISTER_CALLBACKS */
1304:stm32f4xx-hal-driver/Src/stm32f4xx_hal_dac.c **** 
1305:stm32f4xx-hal-driver/Src/stm32f4xx_hal_dac.c **** /**
1306:stm32f4xx-hal-driver/Src/stm32f4xx_hal_dac.c ****   * @}
1307:stm32f4xx-hal-driver/Src/stm32f4xx_hal_dac.c ****   */
1308:stm32f4xx-hal-driver/Src/stm32f4xx_hal_dac.c **** 
1309:stm32f4xx-hal-driver/Src/stm32f4xx_hal_dac.c **** /**
1310:stm32f4xx-hal-driver/Src/stm32f4xx_hal_dac.c ****   * @}
1311:stm32f4xx-hal-driver/Src/stm32f4xx_hal_dac.c ****   */
1312:stm32f4xx-hal-driver/Src/stm32f4xx_hal_dac.c **** 
1313:stm32f4xx-hal-driver/Src/stm32f4xx_hal_dac.c **** /** @addtogroup DAC_Private_Functions
1314:stm32f4xx-hal-driver/Src/stm32f4xx_hal_dac.c ****   * @{
1315:stm32f4xx-hal-driver/Src/stm32f4xx_hal_dac.c ****   */
1316:stm32f4xx-hal-driver/Src/stm32f4xx_hal_dac.c **** 
1317:stm32f4xx-hal-driver/Src/stm32f4xx_hal_dac.c **** /**
1318:stm32f4xx-hal-driver/Src/stm32f4xx_hal_dac.c ****   * @brief  DMA conversion complete callback.
1319:stm32f4xx-hal-driver/Src/stm32f4xx_hal_dac.c ****   * @param  hdma pointer to a DMA_HandleTypeDef structure that contains
1320:stm32f4xx-hal-driver/Src/stm32f4xx_hal_dac.c ****   *                the configuration information for the specified DMA module.
1321:stm32f4xx-hal-driver/Src/stm32f4xx_hal_dac.c ****   * @retval None
1322:stm32f4xx-hal-driver/Src/stm32f4xx_hal_dac.c ****   */
1323:stm32f4xx-hal-driver/Src/stm32f4xx_hal_dac.c **** void DAC_DMAConvCpltCh1(DMA_HandleTypeDef *hdma)
1324:stm32f4xx-hal-driver/Src/stm32f4xx_hal_dac.c **** {
ARM GAS  /tmp/cco6h2AZ.s 			page 41


 872              		.loc 1 1324 1 is_stmt 1 view -0
 873              		.cfi_startproc
 874              		@ args = 0, pretend = 0, frame = 0
 875              		@ frame_needed = 0, uses_anonymous_args = 0
 876              		.loc 1 1324 1 is_stmt 0 view .LVU248
 877 0000 10B5     		push	{r4, lr}
 878              	.LCFI18:
 879              		.cfi_def_cfa_offset 8
 880              		.cfi_offset 4, -8
 881              		.cfi_offset 14, -4
1325:stm32f4xx-hal-driver/Src/stm32f4xx_hal_dac.c ****   DAC_HandleTypeDef *hdac = (DAC_HandleTypeDef *)((DMA_HandleTypeDef *)hdma)->Parent;
 882              		.loc 1 1325 3 is_stmt 1 view .LVU249
 883              		.loc 1 1325 22 is_stmt 0 view .LVU250
 884 0002 846B     		ldr	r4, [r0, #56]
 885              	.LVL66:
1326:stm32f4xx-hal-driver/Src/stm32f4xx_hal_dac.c **** 
1327:stm32f4xx-hal-driver/Src/stm32f4xx_hal_dac.c **** #if (USE_HAL_DAC_REGISTER_CALLBACKS == 1)
1328:stm32f4xx-hal-driver/Src/stm32f4xx_hal_dac.c ****   hdac->ConvCpltCallbackCh1(hdac);
1329:stm32f4xx-hal-driver/Src/stm32f4xx_hal_dac.c **** #else
1330:stm32f4xx-hal-driver/Src/stm32f4xx_hal_dac.c ****   HAL_DAC_ConvCpltCallbackCh1(hdac);
 886              		.loc 1 1330 3 is_stmt 1 view .LVU251
 887 0004 2046     		mov	r0, r4
 888              	.LVL67:
 889              		.loc 1 1330 3 is_stmt 0 view .LVU252
 890 0006 FFF7FEFF 		bl	HAL_DAC_ConvCpltCallbackCh1
 891              	.LVL68:
1331:stm32f4xx-hal-driver/Src/stm32f4xx_hal_dac.c **** #endif /* USE_HAL_DAC_REGISTER_CALLBACKS */
1332:stm32f4xx-hal-driver/Src/stm32f4xx_hal_dac.c **** 
1333:stm32f4xx-hal-driver/Src/stm32f4xx_hal_dac.c ****   hdac->State = HAL_DAC_STATE_READY;
 892              		.loc 1 1333 3 is_stmt 1 view .LVU253
 893              		.loc 1 1333 15 is_stmt 0 view .LVU254
 894 000a 0123     		movs	r3, #1
 895 000c 2371     		strb	r3, [r4, #4]
1334:stm32f4xx-hal-driver/Src/stm32f4xx_hal_dac.c **** }
 896              		.loc 1 1334 1 view .LVU255
 897 000e 10BD     		pop	{r4, pc}
 898              		.loc 1 1334 1 view .LVU256
 899              		.cfi_endproc
 900              	.LFE257:
 902              		.section	.text.HAL_DAC_ConvHalfCpltCallbackCh1,"ax",%progbits
 903              		.align	1
 904              		.weak	HAL_DAC_ConvHalfCpltCallbackCh1
 905              		.syntax unified
 906              		.thumb
 907              		.thumb_func
 908              		.fpu fpv4-sp-d16
 910              	HAL_DAC_ConvHalfCpltCallbackCh1:
 911              	.LVL69:
 912              	.LFB250:
 857:stm32f4xx-hal-driver/Src/stm32f4xx_hal_dac.c ****   /* Prevent unused argument(s) compilation warning */
 913              		.loc 1 857 1 is_stmt 1 view -0
 914              		.cfi_startproc
 915              		@ args = 0, pretend = 0, frame = 0
 916              		@ frame_needed = 0, uses_anonymous_args = 0
 917              		@ link register save eliminated.
 859:stm32f4xx-hal-driver/Src/stm32f4xx_hal_dac.c **** 
 918              		.loc 1 859 3 view .LVU258
ARM GAS  /tmp/cco6h2AZ.s 			page 42


 864:stm32f4xx-hal-driver/Src/stm32f4xx_hal_dac.c **** 
 919              		.loc 1 864 1 is_stmt 0 view .LVU259
 920 0000 7047     		bx	lr
 921              		.cfi_endproc
 922              	.LFE250:
 924              		.section	.text.DAC_DMAHalfConvCpltCh1,"ax",%progbits
 925              		.align	1
 926              		.global	DAC_DMAHalfConvCpltCh1
 927              		.syntax unified
 928              		.thumb
 929              		.thumb_func
 930              		.fpu fpv4-sp-d16
 932              	DAC_DMAHalfConvCpltCh1:
 933              	.LVL70:
 934              	.LFB258:
1335:stm32f4xx-hal-driver/Src/stm32f4xx_hal_dac.c **** 
1336:stm32f4xx-hal-driver/Src/stm32f4xx_hal_dac.c **** /**
1337:stm32f4xx-hal-driver/Src/stm32f4xx_hal_dac.c ****   * @brief  DMA half transfer complete callback.
1338:stm32f4xx-hal-driver/Src/stm32f4xx_hal_dac.c ****   * @param  hdma pointer to a DMA_HandleTypeDef structure that contains
1339:stm32f4xx-hal-driver/Src/stm32f4xx_hal_dac.c ****   *                the configuration information for the specified DMA module.
1340:stm32f4xx-hal-driver/Src/stm32f4xx_hal_dac.c ****   * @retval None
1341:stm32f4xx-hal-driver/Src/stm32f4xx_hal_dac.c ****   */
1342:stm32f4xx-hal-driver/Src/stm32f4xx_hal_dac.c **** void DAC_DMAHalfConvCpltCh1(DMA_HandleTypeDef *hdma)
1343:stm32f4xx-hal-driver/Src/stm32f4xx_hal_dac.c **** {
 935              		.loc 1 1343 1 is_stmt 1 view -0
 936              		.cfi_startproc
 937              		@ args = 0, pretend = 0, frame = 0
 938              		@ frame_needed = 0, uses_anonymous_args = 0
 939              		.loc 1 1343 1 is_stmt 0 view .LVU261
 940 0000 08B5     		push	{r3, lr}
 941              	.LCFI19:
 942              		.cfi_def_cfa_offset 8
 943              		.cfi_offset 3, -8
 944              		.cfi_offset 14, -4
1344:stm32f4xx-hal-driver/Src/stm32f4xx_hal_dac.c ****   DAC_HandleTypeDef *hdac = (DAC_HandleTypeDef *)((DMA_HandleTypeDef *)hdma)->Parent;
 945              		.loc 1 1344 3 is_stmt 1 view .LVU262
 946              	.LVL71:
1345:stm32f4xx-hal-driver/Src/stm32f4xx_hal_dac.c ****   /* Conversion complete callback */
1346:stm32f4xx-hal-driver/Src/stm32f4xx_hal_dac.c **** #if (USE_HAL_DAC_REGISTER_CALLBACKS == 1)
1347:stm32f4xx-hal-driver/Src/stm32f4xx_hal_dac.c ****   hdac->ConvHalfCpltCallbackCh1(hdac);
1348:stm32f4xx-hal-driver/Src/stm32f4xx_hal_dac.c **** #else
1349:stm32f4xx-hal-driver/Src/stm32f4xx_hal_dac.c ****   HAL_DAC_ConvHalfCpltCallbackCh1(hdac);
 947              		.loc 1 1349 3 view .LVU263
 948 0002 806B     		ldr	r0, [r0, #56]
 949              	.LVL72:
 950              		.loc 1 1349 3 is_stmt 0 view .LVU264
 951 0004 FFF7FEFF 		bl	HAL_DAC_ConvHalfCpltCallbackCh1
 952              	.LVL73:
1350:stm32f4xx-hal-driver/Src/stm32f4xx_hal_dac.c **** #endif  /* USE_HAL_DAC_REGISTER_CALLBACKS */
1351:stm32f4xx-hal-driver/Src/stm32f4xx_hal_dac.c **** }
 953              		.loc 1 1351 1 view .LVU265
 954 0008 08BD     		pop	{r3, pc}
 955              		.cfi_endproc
 956              	.LFE258:
 958              		.section	.text.HAL_DAC_ErrorCallbackCh1,"ax",%progbits
 959              		.align	1
 960              		.weak	HAL_DAC_ErrorCallbackCh1
ARM GAS  /tmp/cco6h2AZ.s 			page 43


 961              		.syntax unified
 962              		.thumb
 963              		.thumb_func
 964              		.fpu fpv4-sp-d16
 966              	HAL_DAC_ErrorCallbackCh1:
 967              	.LVL74:
 968              	.LFB251:
 873:stm32f4xx-hal-driver/Src/stm32f4xx_hal_dac.c ****   /* Prevent unused argument(s) compilation warning */
 969              		.loc 1 873 1 is_stmt 1 view -0
 970              		.cfi_startproc
 971              		@ args = 0, pretend = 0, frame = 0
 972              		@ frame_needed = 0, uses_anonymous_args = 0
 973              		@ link register save eliminated.
 875:stm32f4xx-hal-driver/Src/stm32f4xx_hal_dac.c **** 
 974              		.loc 1 875 3 view .LVU267
 880:stm32f4xx-hal-driver/Src/stm32f4xx_hal_dac.c **** 
 975              		.loc 1 880 1 is_stmt 0 view .LVU268
 976 0000 7047     		bx	lr
 977              		.cfi_endproc
 978              	.LFE251:
 980              		.section	.text.DAC_DMAErrorCh1,"ax",%progbits
 981              		.align	1
 982              		.global	DAC_DMAErrorCh1
 983              		.syntax unified
 984              		.thumb
 985              		.thumb_func
 986              		.fpu fpv4-sp-d16
 988              	DAC_DMAErrorCh1:
 989              	.LVL75:
 990              	.LFB259:
1352:stm32f4xx-hal-driver/Src/stm32f4xx_hal_dac.c **** 
1353:stm32f4xx-hal-driver/Src/stm32f4xx_hal_dac.c **** /**
1354:stm32f4xx-hal-driver/Src/stm32f4xx_hal_dac.c ****   * @brief  DMA error callback
1355:stm32f4xx-hal-driver/Src/stm32f4xx_hal_dac.c ****   * @param  hdma pointer to a DMA_HandleTypeDef structure that contains
1356:stm32f4xx-hal-driver/Src/stm32f4xx_hal_dac.c ****   *                the configuration information for the specified DMA module.
1357:stm32f4xx-hal-driver/Src/stm32f4xx_hal_dac.c ****   * @retval None
1358:stm32f4xx-hal-driver/Src/stm32f4xx_hal_dac.c ****   */
1359:stm32f4xx-hal-driver/Src/stm32f4xx_hal_dac.c **** void DAC_DMAErrorCh1(DMA_HandleTypeDef *hdma)
1360:stm32f4xx-hal-driver/Src/stm32f4xx_hal_dac.c **** {
 991              		.loc 1 1360 1 is_stmt 1 view -0
 992              		.cfi_startproc
 993              		@ args = 0, pretend = 0, frame = 0
 994              		@ frame_needed = 0, uses_anonymous_args = 0
 995              		.loc 1 1360 1 is_stmt 0 view .LVU270
 996 0000 10B5     		push	{r4, lr}
 997              	.LCFI20:
 998              		.cfi_def_cfa_offset 8
 999              		.cfi_offset 4, -8
 1000              		.cfi_offset 14, -4
1361:stm32f4xx-hal-driver/Src/stm32f4xx_hal_dac.c ****   DAC_HandleTypeDef *hdac = (DAC_HandleTypeDef *)((DMA_HandleTypeDef *)hdma)->Parent;
 1001              		.loc 1 1361 3 is_stmt 1 view .LVU271
 1002              		.loc 1 1361 22 is_stmt 0 view .LVU272
 1003 0002 846B     		ldr	r4, [r0, #56]
 1004              	.LVL76:
1362:stm32f4xx-hal-driver/Src/stm32f4xx_hal_dac.c **** 
1363:stm32f4xx-hal-driver/Src/stm32f4xx_hal_dac.c ****   /* Set DAC error code to DMA error */
1364:stm32f4xx-hal-driver/Src/stm32f4xx_hal_dac.c ****   hdac->ErrorCode |= HAL_DAC_ERROR_DMA;
ARM GAS  /tmp/cco6h2AZ.s 			page 44


 1005              		.loc 1 1364 3 is_stmt 1 view .LVU273
 1006              		.loc 1 1364 19 is_stmt 0 view .LVU274
 1007 0004 2369     		ldr	r3, [r4, #16]
 1008 0006 43F00403 		orr	r3, r3, #4
 1009 000a 2361     		str	r3, [r4, #16]
1365:stm32f4xx-hal-driver/Src/stm32f4xx_hal_dac.c **** 
1366:stm32f4xx-hal-driver/Src/stm32f4xx_hal_dac.c **** #if (USE_HAL_DAC_REGISTER_CALLBACKS == 1)
1367:stm32f4xx-hal-driver/Src/stm32f4xx_hal_dac.c ****   hdac->ErrorCallbackCh1(hdac);
1368:stm32f4xx-hal-driver/Src/stm32f4xx_hal_dac.c **** #else
1369:stm32f4xx-hal-driver/Src/stm32f4xx_hal_dac.c ****   HAL_DAC_ErrorCallbackCh1(hdac);
 1010              		.loc 1 1369 3 is_stmt 1 view .LVU275
 1011 000c 2046     		mov	r0, r4
 1012              	.LVL77:
 1013              		.loc 1 1369 3 is_stmt 0 view .LVU276
 1014 000e FFF7FEFF 		bl	HAL_DAC_ErrorCallbackCh1
 1015              	.LVL78:
1370:stm32f4xx-hal-driver/Src/stm32f4xx_hal_dac.c **** #endif /* USE_HAL_DAC_REGISTER_CALLBACKS */
1371:stm32f4xx-hal-driver/Src/stm32f4xx_hal_dac.c **** 
1372:stm32f4xx-hal-driver/Src/stm32f4xx_hal_dac.c ****   hdac->State = HAL_DAC_STATE_READY;
 1016              		.loc 1 1372 3 is_stmt 1 view .LVU277
 1017              		.loc 1 1372 15 is_stmt 0 view .LVU278
 1018 0012 0123     		movs	r3, #1
 1019 0014 2371     		strb	r3, [r4, #4]
1373:stm32f4xx-hal-driver/Src/stm32f4xx_hal_dac.c **** }
 1020              		.loc 1 1373 1 view .LVU279
 1021 0016 10BD     		pop	{r4, pc}
 1022              		.loc 1 1373 1 view .LVU280
 1023              		.cfi_endproc
 1024              	.LFE259:
 1026              		.section	.text.HAL_DAC_DMAUnderrunCallbackCh1,"ax",%progbits
 1027              		.align	1
 1028              		.weak	HAL_DAC_DMAUnderrunCallbackCh1
 1029              		.syntax unified
 1030              		.thumb
 1031              		.thumb_func
 1032              		.fpu fpv4-sp-d16
 1034              	HAL_DAC_DMAUnderrunCallbackCh1:
 1035              	.LVL79:
 1036              	.LFB252:
 889:stm32f4xx-hal-driver/Src/stm32f4xx_hal_dac.c ****   /* Prevent unused argument(s) compilation warning */
 1037              		.loc 1 889 1 is_stmt 1 view -0
 1038              		.cfi_startproc
 1039              		@ args = 0, pretend = 0, frame = 0
 1040              		@ frame_needed = 0, uses_anonymous_args = 0
 1041              		@ link register save eliminated.
 891:stm32f4xx-hal-driver/Src/stm32f4xx_hal_dac.c **** 
 1042              		.loc 1 891 3 view .LVU282
 896:stm32f4xx-hal-driver/Src/stm32f4xx_hal_dac.c **** 
 1043              		.loc 1 896 1 is_stmt 0 view .LVU283
 1044 0000 7047     		bx	lr
 1045              		.cfi_endproc
 1046              	.LFE252:
 1048              		.section	.text.HAL_DAC_IRQHandler,"ax",%progbits
 1049              		.align	1
 1050              		.global	HAL_DAC_IRQHandler
 1051              		.syntax unified
 1052              		.thumb
ARM GAS  /tmp/cco6h2AZ.s 			page 45


 1053              		.thumb_func
 1054              		.fpu fpv4-sp-d16
 1056              	HAL_DAC_IRQHandler:
 1057              	.LVL80:
 1058              	.LFB247:
 725:stm32f4xx-hal-driver/Src/stm32f4xx_hal_dac.c ****   uint32_t itsource = hdac->Instance->CR;
 1059              		.loc 1 725 1 is_stmt 1 view -0
 1060              		.cfi_startproc
 1061              		@ args = 0, pretend = 0, frame = 0
 1062              		@ frame_needed = 0, uses_anonymous_args = 0
 725:stm32f4xx-hal-driver/Src/stm32f4xx_hal_dac.c ****   uint32_t itsource = hdac->Instance->CR;
 1063              		.loc 1 725 1 is_stmt 0 view .LVU285
 1064 0000 70B5     		push	{r4, r5, r6, lr}
 1065              	.LCFI21:
 1066              		.cfi_def_cfa_offset 16
 1067              		.cfi_offset 4, -16
 1068              		.cfi_offset 5, -12
 1069              		.cfi_offset 6, -8
 1070              		.cfi_offset 14, -4
 1071 0002 0446     		mov	r4, r0
 726:stm32f4xx-hal-driver/Src/stm32f4xx_hal_dac.c ****   uint32_t itflag   = hdac->Instance->SR;
 1072              		.loc 1 726 3 is_stmt 1 view .LVU286
 726:stm32f4xx-hal-driver/Src/stm32f4xx_hal_dac.c ****   uint32_t itflag   = hdac->Instance->SR;
 1073              		.loc 1 726 27 is_stmt 0 view .LVU287
 1074 0004 0368     		ldr	r3, [r0]
 726:stm32f4xx-hal-driver/Src/stm32f4xx_hal_dac.c ****   uint32_t itflag   = hdac->Instance->SR;
 1075              		.loc 1 726 12 view .LVU288
 1076 0006 1D68     		ldr	r5, [r3]
 1077              	.LVL81:
 727:stm32f4xx-hal-driver/Src/stm32f4xx_hal_dac.c **** 
 1078              		.loc 1 727 3 is_stmt 1 view .LVU289
 727:stm32f4xx-hal-driver/Src/stm32f4xx_hal_dac.c **** 
 1079              		.loc 1 727 12 is_stmt 0 view .LVU290
 1080 0008 5E6B     		ldr	r6, [r3, #52]
 1081              	.LVL82:
 729:stm32f4xx-hal-driver/Src/stm32f4xx_hal_dac.c ****   {
 1082              		.loc 1 729 3 is_stmt 1 view .LVU291
 729:stm32f4xx-hal-driver/Src/stm32f4xx_hal_dac.c ****   {
 1083              		.loc 1 729 6 is_stmt 0 view .LVU292
 1084 000a 15F4005F 		tst	r5, #8192
 1085 000e 02D0     		beq	.L83
 732:stm32f4xx-hal-driver/Src/stm32f4xx_hal_dac.c ****     {
 1086              		.loc 1 732 5 is_stmt 1 view .LVU293
 732:stm32f4xx-hal-driver/Src/stm32f4xx_hal_dac.c ****     {
 1087              		.loc 1 732 8 is_stmt 0 view .LVU294
 1088 0010 16F4005F 		tst	r6, #8192
 1089 0014 06D1     		bne	.L86
 1090              	.LVL83:
 1091              	.L83:
 756:stm32f4xx-hal-driver/Src/stm32f4xx_hal_dac.c ****   {
 1092              		.loc 1 756 3 is_stmt 1 view .LVU295
 756:stm32f4xx-hal-driver/Src/stm32f4xx_hal_dac.c ****   {
 1093              		.loc 1 756 6 is_stmt 0 view .LVU296
 1094 0016 15F0005F 		tst	r5, #536870912
 1095 001a 02D0     		beq	.L82
 759:stm32f4xx-hal-driver/Src/stm32f4xx_hal_dac.c ****     {
 1096              		.loc 1 759 5 is_stmt 1 view .LVU297
ARM GAS  /tmp/cco6h2AZ.s 			page 46


 759:stm32f4xx-hal-driver/Src/stm32f4xx_hal_dac.c ****     {
 1097              		.loc 1 759 8 is_stmt 0 view .LVU298
 1098 001c 16F0005F 		tst	r6, #536870912
 1099 0020 11D1     		bne	.L87
 1100              	.L82:
 782:stm32f4xx-hal-driver/Src/stm32f4xx_hal_dac.c **** 
 1101              		.loc 1 782 1 view .LVU299
 1102 0022 70BD     		pop	{r4, r5, r6, pc}
 1103              	.LVL84:
 1104              	.L86:
 735:stm32f4xx-hal-driver/Src/stm32f4xx_hal_dac.c **** 
 1105              		.loc 1 735 7 is_stmt 1 view .LVU300
 735:stm32f4xx-hal-driver/Src/stm32f4xx_hal_dac.c **** 
 1106              		.loc 1 735 19 is_stmt 0 view .LVU301
 1107 0024 0422     		movs	r2, #4
 1108 0026 0271     		strb	r2, [r0, #4]
 738:stm32f4xx-hal-driver/Src/stm32f4xx_hal_dac.c **** 
 1109              		.loc 1 738 7 is_stmt 1 view .LVU302
 1110 0028 0269     		ldr	r2, [r0, #16]
 1111 002a 42F00102 		orr	r2, r2, #1
 1112 002e 0261     		str	r2, [r0, #16]
 741:stm32f4xx-hal-driver/Src/stm32f4xx_hal_dac.c **** 
 1113              		.loc 1 741 7 view .LVU303
 1114 0030 4FF40052 		mov	r2, #8192
 1115 0034 5A63     		str	r2, [r3, #52]
 744:stm32f4xx-hal-driver/Src/stm32f4xx_hal_dac.c **** 
 1116              		.loc 1 744 7 view .LVU304
 1117 0036 0268     		ldr	r2, [r0]
 1118 0038 1368     		ldr	r3, [r2]
 1119 003a 23F48053 		bic	r3, r3, #4096
 1120 003e 1360     		str	r3, [r2]
 750:stm32f4xx-hal-driver/Src/stm32f4xx_hal_dac.c **** #endif /* USE_HAL_DAC_REGISTER_CALLBACKS */
 1121              		.loc 1 750 7 view .LVU305
 1122 0040 FFF7FEFF 		bl	HAL_DAC_DMAUnderrunCallbackCh1
 1123              	.LVL85:
 750:stm32f4xx-hal-driver/Src/stm32f4xx_hal_dac.c **** #endif /* USE_HAL_DAC_REGISTER_CALLBACKS */
 1124              		.loc 1 750 7 is_stmt 0 view .LVU306
 1125 0044 E7E7     		b	.L83
 1126              	.L87:
 762:stm32f4xx-hal-driver/Src/stm32f4xx_hal_dac.c **** 
 1127              		.loc 1 762 7 is_stmt 1 view .LVU307
 762:stm32f4xx-hal-driver/Src/stm32f4xx_hal_dac.c **** 
 1128              		.loc 1 762 19 is_stmt 0 view .LVU308
 1129 0046 0423     		movs	r3, #4
 1130 0048 2371     		strb	r3, [r4, #4]
 765:stm32f4xx-hal-driver/Src/stm32f4xx_hal_dac.c **** 
 1131              		.loc 1 765 7 is_stmt 1 view .LVU309
 1132 004a 2369     		ldr	r3, [r4, #16]
 1133 004c 43F00203 		orr	r3, r3, #2
 1134 0050 2361     		str	r3, [r4, #16]
 768:stm32f4xx-hal-driver/Src/stm32f4xx_hal_dac.c **** 
 1135              		.loc 1 768 7 view .LVU310
 1136 0052 2368     		ldr	r3, [r4]
 1137 0054 4FF00052 		mov	r2, #536870912
 1138 0058 5A63     		str	r2, [r3, #52]
 771:stm32f4xx-hal-driver/Src/stm32f4xx_hal_dac.c **** 
 1139              		.loc 1 771 7 view .LVU311
ARM GAS  /tmp/cco6h2AZ.s 			page 47


 1140 005a 2268     		ldr	r2, [r4]
 1141 005c 1368     		ldr	r3, [r2]
 1142 005e 23F08053 		bic	r3, r3, #268435456
 1143 0062 1360     		str	r3, [r2]
 777:stm32f4xx-hal-driver/Src/stm32f4xx_hal_dac.c **** #endif /* USE_HAL_DAC_REGISTER_CALLBACKS */
 1144              		.loc 1 777 7 view .LVU312
 1145 0064 2046     		mov	r0, r4
 1146 0066 FFF7FEFF 		bl	HAL_DACEx_DMAUnderrunCallbackCh2
 1147              	.LVL86:
 782:stm32f4xx-hal-driver/Src/stm32f4xx_hal_dac.c **** 
 1148              		.loc 1 782 1 is_stmt 0 view .LVU313
 1149 006a DAE7     		b	.L82
 1150              		.cfi_endproc
 1151              	.LFE247:
 1153              		.section	.text.HAL_DAC_GetValue,"ax",%progbits
 1154              		.align	1
 1155              		.global	HAL_DAC_GetValue
 1156              		.syntax unified
 1157              		.thumb
 1158              		.thumb_func
 1159              		.fpu fpv4-sp-d16
 1161              	HAL_DAC_GetValue:
 1162              	.LVL87:
 1163              	.LFB253:
 928:stm32f4xx-hal-driver/Src/stm32f4xx_hal_dac.c ****   uint32_t result = 0;
 1164              		.loc 1 928 1 is_stmt 1 view -0
 1165              		.cfi_startproc
 1166              		@ args = 0, pretend = 0, frame = 0
 1167              		@ frame_needed = 0, uses_anonymous_args = 0
 1168              		@ link register save eliminated.
 929:stm32f4xx-hal-driver/Src/stm32f4xx_hal_dac.c **** 
 1169              		.loc 1 929 3 view .LVU315
 932:stm32f4xx-hal-driver/Src/stm32f4xx_hal_dac.c **** 
 1170              		.loc 1 932 3 view .LVU316
 935:stm32f4xx-hal-driver/Src/stm32f4xx_hal_dac.c **** 
 1171              		.loc 1 935 3 view .LVU317
 937:stm32f4xx-hal-driver/Src/stm32f4xx_hal_dac.c ****   {
 1172              		.loc 1 937 3 view .LVU318
 937:stm32f4xx-hal-driver/Src/stm32f4xx_hal_dac.c ****   {
 1173              		.loc 1 937 6 is_stmt 0 view .LVU319
 1174 0000 11B9     		cbnz	r1, .L89
 939:stm32f4xx-hal-driver/Src/stm32f4xx_hal_dac.c ****   }
 1175              		.loc 1 939 5 is_stmt 1 view .LVU320
 939:stm32f4xx-hal-driver/Src/stm32f4xx_hal_dac.c ****   }
 1176              		.loc 1 939 18 is_stmt 0 view .LVU321
 1177 0002 0368     		ldr	r3, [r0]
 939:stm32f4xx-hal-driver/Src/stm32f4xx_hal_dac.c ****   }
 1178              		.loc 1 939 12 view .LVU322
 1179 0004 D86A     		ldr	r0, [r3, #44]
 1180              	.LVL88:
 939:stm32f4xx-hal-driver/Src/stm32f4xx_hal_dac.c ****   }
 1181              		.loc 1 939 12 view .LVU323
 1182 0006 7047     		bx	lr
 1183              	.LVL89:
 1184              	.L89:
 944:stm32f4xx-hal-driver/Src/stm32f4xx_hal_dac.c ****   }
 1185              		.loc 1 944 5 is_stmt 1 view .LVU324
ARM GAS  /tmp/cco6h2AZ.s 			page 48


 944:stm32f4xx-hal-driver/Src/stm32f4xx_hal_dac.c ****   }
 1186              		.loc 1 944 18 is_stmt 0 view .LVU325
 1187 0008 0368     		ldr	r3, [r0]
 944:stm32f4xx-hal-driver/Src/stm32f4xx_hal_dac.c ****   }
 1188              		.loc 1 944 12 view .LVU326
 1189 000a 186B     		ldr	r0, [r3, #48]
 1190              	.LVL90:
 948:stm32f4xx-hal-driver/Src/stm32f4xx_hal_dac.c **** }
 1191              		.loc 1 948 3 is_stmt 1 view .LVU327
 949:stm32f4xx-hal-driver/Src/stm32f4xx_hal_dac.c **** 
 1192              		.loc 1 949 1 is_stmt 0 view .LVU328
 1193 000c 7047     		bx	lr
 1194              		.cfi_endproc
 1195              	.LFE253:
 1197              		.section	.text.HAL_DAC_ConfigChannel,"ax",%progbits
 1198              		.align	1
 1199              		.global	HAL_DAC_ConfigChannel
 1200              		.syntax unified
 1201              		.thumb
 1202              		.thumb_func
 1203              		.fpu fpv4-sp-d16
 1205              	HAL_DAC_ConfigChannel:
 1206              	.LVL91:
 1207              	.LFB254:
 964:stm32f4xx-hal-driver/Src/stm32f4xx_hal_dac.c ****   HAL_StatusTypeDef status = HAL_OK;
 1208              		.loc 1 964 1 is_stmt 1 view -0
 1209              		.cfi_startproc
 1210              		@ args = 0, pretend = 0, frame = 0
 1211              		@ frame_needed = 0, uses_anonymous_args = 0
 1212              		@ link register save eliminated.
 965:stm32f4xx-hal-driver/Src/stm32f4xx_hal_dac.c ****   uint32_t tmpreg1;
 1213              		.loc 1 965 3 view .LVU330
 966:stm32f4xx-hal-driver/Src/stm32f4xx_hal_dac.c ****   uint32_t tmpreg2;
 1214              		.loc 1 966 3 view .LVU331
 967:stm32f4xx-hal-driver/Src/stm32f4xx_hal_dac.c **** 
 1215              		.loc 1 967 3 view .LVU332
 970:stm32f4xx-hal-driver/Src/stm32f4xx_hal_dac.c ****   {
 1216              		.loc 1 970 3 view .LVU333
 970:stm32f4xx-hal-driver/Src/stm32f4xx_hal_dac.c ****   {
 1217              		.loc 1 970 6 is_stmt 0 view .LVU334
 1218 0000 28B3     		cbz	r0, .L93
 964:stm32f4xx-hal-driver/Src/stm32f4xx_hal_dac.c ****   HAL_StatusTypeDef status = HAL_OK;
 1219              		.loc 1 964 1 discriminator 1 view .LVU335
 1220 0002 70B4     		push	{r4, r5, r6}
 1221              	.LCFI22:
 1222              		.cfi_def_cfa_offset 12
 1223              		.cfi_offset 4, -12
 1224              		.cfi_offset 5, -8
 1225              		.cfi_offset 6, -4
 1226 0004 0446     		mov	r4, r0
 970:stm32f4xx-hal-driver/Src/stm32f4xx_hal_dac.c ****   {
 1227              		.loc 1 970 22 discriminator 1 view .LVU336
 1228 0006 21B3     		cbz	r1, .L94
 976:stm32f4xx-hal-driver/Src/stm32f4xx_hal_dac.c ****   assert_param(IS_DAC_OUTPUT_BUFFER_STATE(sConfig->DAC_OutputBuffer));
 1229              		.loc 1 976 3 is_stmt 1 view .LVU337
 977:stm32f4xx-hal-driver/Src/stm32f4xx_hal_dac.c ****   assert_param(IS_DAC_CHANNEL(Channel));
 1230              		.loc 1 977 3 view .LVU338
ARM GAS  /tmp/cco6h2AZ.s 			page 49


 978:stm32f4xx-hal-driver/Src/stm32f4xx_hal_dac.c **** 
 1231              		.loc 1 978 3 view .LVU339
 981:stm32f4xx-hal-driver/Src/stm32f4xx_hal_dac.c **** 
 1232              		.loc 1 981 3 view .LVU340
 981:stm32f4xx-hal-driver/Src/stm32f4xx_hal_dac.c **** 
 1233              		.loc 1 981 3 view .LVU341
 1234 0008 4379     		ldrb	r3, [r0, #5]	@ zero_extendqisi2
 1235 000a 012B     		cmp	r3, #1
 1236 000c 23D0     		beq	.L95
 981:stm32f4xx-hal-driver/Src/stm32f4xx_hal_dac.c **** 
 1237              		.loc 1 981 3 discriminator 2 view .LVU342
 1238 000e 0125     		movs	r5, #1
 1239 0010 4571     		strb	r5, [r0, #5]
 981:stm32f4xx-hal-driver/Src/stm32f4xx_hal_dac.c **** 
 1240              		.loc 1 981 3 discriminator 2 view .LVU343
 984:stm32f4xx-hal-driver/Src/stm32f4xx_hal_dac.c **** 
 1241              		.loc 1 984 3 discriminator 2 view .LVU344
 984:stm32f4xx-hal-driver/Src/stm32f4xx_hal_dac.c **** 
 1242              		.loc 1 984 15 is_stmt 0 discriminator 2 view .LVU345
 1243 0012 0223     		movs	r3, #2
 1244 0014 0371     		strb	r3, [r0, #4]
 987:stm32f4xx-hal-driver/Src/stm32f4xx_hal_dac.c ****   /* Clear BOFFx, TENx, TSELx, WAVEx and MAMPx bits */
 1245              		.loc 1 987 3 is_stmt 1 discriminator 2 view .LVU346
 987:stm32f4xx-hal-driver/Src/stm32f4xx_hal_dac.c ****   /* Clear BOFFx, TENx, TSELx, WAVEx and MAMPx bits */
 1246              		.loc 1 987 17 is_stmt 0 discriminator 2 view .LVU347
 1247 0016 0668     		ldr	r6, [r0]
 987:stm32f4xx-hal-driver/Src/stm32f4xx_hal_dac.c ****   /* Clear BOFFx, TENx, TSELx, WAVEx and MAMPx bits */
 1248              		.loc 1 987 11 discriminator 2 view .LVU348
 1249 0018 3368     		ldr	r3, [r6]
 1250              	.LVL92:
 989:stm32f4xx-hal-driver/Src/stm32f4xx_hal_dac.c ****                << (Channel & 0x10UL));
 1251              		.loc 1 989 3 is_stmt 1 discriminator 2 view .LVU349
 990:stm32f4xx-hal-driver/Src/stm32f4xx_hal_dac.c ****   /* Configure for the selected DAC channel: buffer output, trigger */
 1252              		.loc 1 990 28 is_stmt 0 discriminator 2 view .LVU350
 1253 001a 02F01002 		and	r2, r2, #16
 1254              	.LVL93:
 990:stm32f4xx-hal-driver/Src/stm32f4xx_hal_dac.c ****   /* Configure for the selected DAC channel: buffer output, trigger */
 1255              		.loc 1 990 16 discriminator 2 view .LVU351
 1256 001e 40F6FE70 		movw	r0, #4094
 1257              	.LVL94:
 990:stm32f4xx-hal-driver/Src/stm32f4xx_hal_dac.c ****   /* Configure for the selected DAC channel: buffer output, trigger */
 1258              		.loc 1 990 16 discriminator 2 view .LVU352
 1259 0022 9040     		lsls	r0, r0, r2
 989:stm32f4xx-hal-driver/Src/stm32f4xx_hal_dac.c ****                << (Channel & 0x10UL));
 1260              		.loc 1 989 11 discriminator 2 view .LVU353
 1261 0024 23EA0000 		bic	r0, r3, r0
 1262              	.LVL95:
 994:stm32f4xx-hal-driver/Src/stm32f4xx_hal_dac.c ****   /* Calculate CR register value depending on DAC_Channel */
 1263              		.loc 1 994 3 is_stmt 1 discriminator 2 view .LVU354
 994:stm32f4xx-hal-driver/Src/stm32f4xx_hal_dac.c ****   /* Calculate CR register value depending on DAC_Channel */
 1264              		.loc 1 994 21 is_stmt 0 discriminator 2 view .LVU355
 1265 0028 0B68     		ldr	r3, [r1]
 994:stm32f4xx-hal-driver/Src/stm32f4xx_hal_dac.c ****   /* Calculate CR register value depending on DAC_Channel */
 1266              		.loc 1 994 44 discriminator 2 view .LVU356
 1267 002a 4968     		ldr	r1, [r1, #4]
 1268              	.LVL96:
 994:stm32f4xx-hal-driver/Src/stm32f4xx_hal_dac.c ****   /* Calculate CR register value depending on DAC_Channel */
ARM GAS  /tmp/cco6h2AZ.s 			page 50


 1269              		.loc 1 994 11 discriminator 2 view .LVU357
 1270 002c 0B43     		orrs	r3, r3, r1
 1271              	.LVL97:
 996:stm32f4xx-hal-driver/Src/stm32f4xx_hal_dac.c ****   /* Write to DAC CR */
 1272              		.loc 1 996 3 is_stmt 1 discriminator 2 view .LVU358
 996:stm32f4xx-hal-driver/Src/stm32f4xx_hal_dac.c ****   /* Write to DAC CR */
 1273              		.loc 1 996 22 is_stmt 0 discriminator 2 view .LVU359
 1274 002e 9340     		lsls	r3, r3, r2
 1275              	.LVL98:
 996:stm32f4xx-hal-driver/Src/stm32f4xx_hal_dac.c ****   /* Write to DAC CR */
 1276              		.loc 1 996 11 discriminator 2 view .LVU360
 1277 0030 0343     		orrs	r3, r3, r0
 1278              	.LVL99:
 998:stm32f4xx-hal-driver/Src/stm32f4xx_hal_dac.c ****   /* Disable wave generation */
 1279              		.loc 1 998 3 is_stmt 1 discriminator 2 view .LVU361
 998:stm32f4xx-hal-driver/Src/stm32f4xx_hal_dac.c ****   /* Disable wave generation */
 1280              		.loc 1 998 22 is_stmt 0 discriminator 2 view .LVU362
 1281 0032 3360     		str	r3, [r6]
 1282              	.LVL100:
1000:stm32f4xx-hal-driver/Src/stm32f4xx_hal_dac.c **** 
 1283              		.loc 1 1000 3 is_stmt 1 discriminator 2 view .LVU363
 1284 0034 2068     		ldr	r0, [r4]
 1285 0036 0368     		ldr	r3, [r0]
 1286              	.LVL101:
1000:stm32f4xx-hal-driver/Src/stm32f4xx_hal_dac.c **** 
 1287              		.loc 1 1000 3 is_stmt 0 discriminator 2 view .LVU364
 1288 0038 C021     		movs	r1, #192
 1289 003a 01FA02F2 		lsl	r2, r1, r2
 1290 003e 23EA0202 		bic	r2, r3, r2
 1291 0042 0260     		str	r2, [r0]
 1292              	.LVL102:
1003:stm32f4xx-hal-driver/Src/stm32f4xx_hal_dac.c **** 
 1293              		.loc 1 1003 3 is_stmt 1 discriminator 2 view .LVU365
1003:stm32f4xx-hal-driver/Src/stm32f4xx_hal_dac.c **** 
 1294              		.loc 1 1003 15 is_stmt 0 discriminator 2 view .LVU366
 1295 0044 2571     		strb	r5, [r4, #4]
1006:stm32f4xx-hal-driver/Src/stm32f4xx_hal_dac.c **** 
 1296              		.loc 1 1006 3 is_stmt 1 discriminator 2 view .LVU367
1006:stm32f4xx-hal-driver/Src/stm32f4xx_hal_dac.c **** 
 1297              		.loc 1 1006 3 discriminator 2 view .LVU368
 1298 0046 0020     		movs	r0, #0
 1299 0048 6071     		strb	r0, [r4, #5]
1006:stm32f4xx-hal-driver/Src/stm32f4xx_hal_dac.c **** 
 1300              		.loc 1 1006 3 discriminator 2 view .LVU369
1009:stm32f4xx-hal-driver/Src/stm32f4xx_hal_dac.c **** }
 1301              		.loc 1 1009 3 discriminator 2 view .LVU370
 1302              	.L92:
1010:stm32f4xx-hal-driver/Src/stm32f4xx_hal_dac.c **** 
 1303              		.loc 1 1010 1 is_stmt 0 view .LVU371
 1304 004a 70BC     		pop	{r4, r5, r6}
 1305              	.LCFI23:
 1306              		.cfi_restore 6
 1307              		.cfi_restore 5
 1308              		.cfi_restore 4
 1309              		.cfi_def_cfa_offset 0
 1310              	.LVL103:
1010:stm32f4xx-hal-driver/Src/stm32f4xx_hal_dac.c **** 
ARM GAS  /tmp/cco6h2AZ.s 			page 51


 1311              		.loc 1 1010 1 view .LVU372
 1312 004c 7047     		bx	lr
 1313              	.LVL104:
 1314              	.L93:
 972:stm32f4xx-hal-driver/Src/stm32f4xx_hal_dac.c ****   }
 1315              		.loc 1 972 12 view .LVU373
 1316 004e 0120     		movs	r0, #1
 1317              	.LVL105:
1010:stm32f4xx-hal-driver/Src/stm32f4xx_hal_dac.c **** 
 1318              		.loc 1 1010 1 view .LVU374
 1319 0050 7047     		bx	lr
 1320              	.LVL106:
 1321              	.L94:
 1322              	.LCFI24:
 1323              		.cfi_def_cfa_offset 12
 1324              		.cfi_offset 4, -12
 1325              		.cfi_offset 5, -8
 1326              		.cfi_offset 6, -4
 972:stm32f4xx-hal-driver/Src/stm32f4xx_hal_dac.c ****   }
 1327              		.loc 1 972 12 view .LVU375
 1328 0052 0120     		movs	r0, #1
 1329              	.LVL107:
 972:stm32f4xx-hal-driver/Src/stm32f4xx_hal_dac.c ****   }
 1330              		.loc 1 972 12 view .LVU376
 1331 0054 F9E7     		b	.L92
 1332              	.LVL108:
 1333              	.L95:
 981:stm32f4xx-hal-driver/Src/stm32f4xx_hal_dac.c **** 
 1334              		.loc 1 981 3 view .LVU377
 1335 0056 0220     		movs	r0, #2
 1336              	.LVL109:
 981:stm32f4xx-hal-driver/Src/stm32f4xx_hal_dac.c **** 
 1337              		.loc 1 981 3 view .LVU378
 1338 0058 F7E7     		b	.L92
 1339              		.cfi_endproc
 1340              	.LFE254:
 1342              		.section	.text.HAL_DAC_GetState,"ax",%progbits
 1343              		.align	1
 1344              		.global	HAL_DAC_GetState
 1345              		.syntax unified
 1346              		.thumb
 1347              		.thumb_func
 1348              		.fpu fpv4-sp-d16
 1350              	HAL_DAC_GetState:
 1351              	.LVL110:
 1352              	.LFB255:
1039:stm32f4xx-hal-driver/Src/stm32f4xx_hal_dac.c ****   /* Return DAC handle state */
 1353              		.loc 1 1039 1 is_stmt 1 view -0
 1354              		.cfi_startproc
 1355              		@ args = 0, pretend = 0, frame = 0
 1356              		@ frame_needed = 0, uses_anonymous_args = 0
 1357              		@ link register save eliminated.
1041:stm32f4xx-hal-driver/Src/stm32f4xx_hal_dac.c **** }
 1358              		.loc 1 1041 3 view .LVU380
1041:stm32f4xx-hal-driver/Src/stm32f4xx_hal_dac.c **** }
 1359              		.loc 1 1041 14 is_stmt 0 view .LVU381
 1360 0000 0079     		ldrb	r0, [r0, #4]	@ zero_extendqisi2
ARM GAS  /tmp/cco6h2AZ.s 			page 52


 1361              	.LVL111:
1042:stm32f4xx-hal-driver/Src/stm32f4xx_hal_dac.c **** 
 1362              		.loc 1 1042 1 view .LVU382
 1363 0002 7047     		bx	lr
 1364              		.cfi_endproc
 1365              	.LFE255:
 1367              		.section	.text.HAL_DAC_GetError,"ax",%progbits
 1368              		.align	1
 1369              		.global	HAL_DAC_GetError
 1370              		.syntax unified
 1371              		.thumb
 1372              		.thumb_func
 1373              		.fpu fpv4-sp-d16
 1375              	HAL_DAC_GetError:
 1376              	.LVL112:
 1377              	.LFB256:
1052:stm32f4xx-hal-driver/Src/stm32f4xx_hal_dac.c ****   return hdac->ErrorCode;
 1378              		.loc 1 1052 1 is_stmt 1 view -0
 1379              		.cfi_startproc
 1380              		@ args = 0, pretend = 0, frame = 0
 1381              		@ frame_needed = 0, uses_anonymous_args = 0
 1382              		@ link register save eliminated.
1053:stm32f4xx-hal-driver/Src/stm32f4xx_hal_dac.c **** }
 1383              		.loc 1 1053 3 view .LVU384
1053:stm32f4xx-hal-driver/Src/stm32f4xx_hal_dac.c **** }
 1384              		.loc 1 1053 14 is_stmt 0 view .LVU385
 1385 0000 0069     		ldr	r0, [r0, #16]
 1386              	.LVL113:
1054:stm32f4xx-hal-driver/Src/stm32f4xx_hal_dac.c **** 
 1387              		.loc 1 1054 1 view .LVU386
 1388 0002 7047     		bx	lr
 1389              		.cfi_endproc
 1390              	.LFE256:
 1392              		.text
 1393              	.Letext0:
 1394              		.file 2 "/opt/gcc_arm/gcc-arm-none-eabi-9-2019-q4-major/arm-none-eabi/include/machine/_default_typ
 1395              		.file 3 "/opt/gcc_arm/gcc-arm-none-eabi-9-2019-q4-major/arm-none-eabi/include/sys/_stdint.h"
 1396              		.file 4 "CMSIS_5/CMSIS/Core/Include/core_cm4.h"
 1397              		.file 5 "cmsis-device-f4/Include/system_stm32f4xx.h"
 1398              		.file 6 "cmsis-device-f4/Include/stm32f407xx.h"
 1399              		.file 7 "stm32f4xx-hal-driver/Inc/stm32f4xx_hal_def.h"
 1400              		.file 8 "stm32f4xx-hal-driver/Inc/stm32f4xx_hal_dma.h"
 1401              		.file 9 "stm32f4xx-hal-driver/Inc/stm32f4xx_hal_dac.h"
 1402              		.file 10 "stm32f4xx-hal-driver/Inc/stm32f4xx_hal.h"
 1403              		.file 11 "stm32f4xx-hal-driver/Inc/stm32f4xx_hal_dac_ex.h"
ARM GAS  /tmp/cco6h2AZ.s 			page 53

