ARM GAS  /tmp/ccEpvYTV.s 			page 1


   1              		.cpu cortex-m4
   2              		.eabi_attribute 27, 1
   3              		.eabi_attribute 28, 1
   4              		.eabi_attribute 20, 1
   5              		.eabi_attribute 21, 1
   6              		.eabi_attribute 23, 3
   7              		.eabi_attribute 24, 1
   8              		.eabi_attribute 25, 1
   9              		.eabi_attribute 26, 1
  10              		.eabi_attribute 30, 1
  11              		.eabi_attribute 34, 1
  12              		.eabi_attribute 18, 4
  13              		.file	"stm32f4xx_hal_nor.c"
  14              		.text
  15              	.Ltext0:
  16              		.cfi_sections	.debug_frame
  17              		.section	.text.HAL_NOR_MspInit,"ax",%progbits
  18              		.align	1
  19              		.weak	HAL_NOR_MspInit
  20              		.arch armv7e-m
  21              		.syntax unified
  22              		.thumb
  23              		.thumb_func
  24              		.fpu fpv4-sp-d16
  26              	HAL_NOR_MspInit:
  27              	.LVL0:
  28              	.LFB241:
  29              		.file 1 "stm32f4xx-hal-driver/Src/stm32f4xx_hal_nor.c"
   1:stm32f4xx-hal-driver/Src/stm32f4xx_hal_nor.c **** /**
   2:stm32f4xx-hal-driver/Src/stm32f4xx_hal_nor.c ****   ******************************************************************************
   3:stm32f4xx-hal-driver/Src/stm32f4xx_hal_nor.c ****   * @file    stm32f4xx_hal_nor.c
   4:stm32f4xx-hal-driver/Src/stm32f4xx_hal_nor.c ****   * @author  MCD Application Team
   5:stm32f4xx-hal-driver/Src/stm32f4xx_hal_nor.c ****   * @brief   NOR HAL module driver.
   6:stm32f4xx-hal-driver/Src/stm32f4xx_hal_nor.c ****   *          This file provides a generic firmware to drive NOR memories mounted
   7:stm32f4xx-hal-driver/Src/stm32f4xx_hal_nor.c ****   *          as external device.
   8:stm32f4xx-hal-driver/Src/stm32f4xx_hal_nor.c ****   *
   9:stm32f4xx-hal-driver/Src/stm32f4xx_hal_nor.c ****   ******************************************************************************
  10:stm32f4xx-hal-driver/Src/stm32f4xx_hal_nor.c ****   * @attention
  11:stm32f4xx-hal-driver/Src/stm32f4xx_hal_nor.c ****   *
  12:stm32f4xx-hal-driver/Src/stm32f4xx_hal_nor.c ****   * Copyright (c) 2016 STMicroelectronics.
  13:stm32f4xx-hal-driver/Src/stm32f4xx_hal_nor.c ****   * All rights reserved.
  14:stm32f4xx-hal-driver/Src/stm32f4xx_hal_nor.c ****   *
  15:stm32f4xx-hal-driver/Src/stm32f4xx_hal_nor.c ****   * This software is licensed under terms that can be found in the LICENSE file
  16:stm32f4xx-hal-driver/Src/stm32f4xx_hal_nor.c ****   * in the root directory of this software component.
  17:stm32f4xx-hal-driver/Src/stm32f4xx_hal_nor.c ****   * If no LICENSE file comes with this software, it is provided AS-IS.
  18:stm32f4xx-hal-driver/Src/stm32f4xx_hal_nor.c ****   *
  19:stm32f4xx-hal-driver/Src/stm32f4xx_hal_nor.c ****   ******************************************************************************
  20:stm32f4xx-hal-driver/Src/stm32f4xx_hal_nor.c ****   @verbatim
  21:stm32f4xx-hal-driver/Src/stm32f4xx_hal_nor.c ****   ==============================================================================
  22:stm32f4xx-hal-driver/Src/stm32f4xx_hal_nor.c ****                      ##### How to use this driver #####
  23:stm32f4xx-hal-driver/Src/stm32f4xx_hal_nor.c ****   ==============================================================================
  24:stm32f4xx-hal-driver/Src/stm32f4xx_hal_nor.c ****     [..]
  25:stm32f4xx-hal-driver/Src/stm32f4xx_hal_nor.c ****       This driver is a generic layered driver which contains a set of APIs used to
  26:stm32f4xx-hal-driver/Src/stm32f4xx_hal_nor.c ****       control NOR flash memories. It uses the FMC/FSMC layer functions to interface
  27:stm32f4xx-hal-driver/Src/stm32f4xx_hal_nor.c ****       with NOR devices. This driver is used as follows:
  28:stm32f4xx-hal-driver/Src/stm32f4xx_hal_nor.c **** 
  29:stm32f4xx-hal-driver/Src/stm32f4xx_hal_nor.c ****       (+) NOR flash memory configuration sequence using the function HAL_NOR_Init()
ARM GAS  /tmp/ccEpvYTV.s 			page 2


  30:stm32f4xx-hal-driver/Src/stm32f4xx_hal_nor.c ****           with control and timing parameters for both normal and extended mode.
  31:stm32f4xx-hal-driver/Src/stm32f4xx_hal_nor.c **** 
  32:stm32f4xx-hal-driver/Src/stm32f4xx_hal_nor.c ****       (+) Read NOR flash memory manufacturer code and device IDs using the function
  33:stm32f4xx-hal-driver/Src/stm32f4xx_hal_nor.c ****           HAL_NOR_Read_ID(). The read information is stored in the NOR_ID_TypeDef
  34:stm32f4xx-hal-driver/Src/stm32f4xx_hal_nor.c ****           structure declared by the function caller.
  35:stm32f4xx-hal-driver/Src/stm32f4xx_hal_nor.c **** 
  36:stm32f4xx-hal-driver/Src/stm32f4xx_hal_nor.c ****       (+) Access NOR flash memory by read/write data unit operations using the functions
  37:stm32f4xx-hal-driver/Src/stm32f4xx_hal_nor.c ****           HAL_NOR_Read(), HAL_NOR_Program().
  38:stm32f4xx-hal-driver/Src/stm32f4xx_hal_nor.c **** 
  39:stm32f4xx-hal-driver/Src/stm32f4xx_hal_nor.c ****       (+) Perform NOR flash erase block/chip operations using the functions
  40:stm32f4xx-hal-driver/Src/stm32f4xx_hal_nor.c ****           HAL_NOR_Erase_Block() and HAL_NOR_Erase_Chip().
  41:stm32f4xx-hal-driver/Src/stm32f4xx_hal_nor.c **** 
  42:stm32f4xx-hal-driver/Src/stm32f4xx_hal_nor.c ****       (+) Read the NOR flash CFI (common flash interface) IDs using the function
  43:stm32f4xx-hal-driver/Src/stm32f4xx_hal_nor.c ****           HAL_NOR_Read_CFI(). The read information is stored in the NOR_CFI_TypeDef
  44:stm32f4xx-hal-driver/Src/stm32f4xx_hal_nor.c ****           structure declared by the function caller.
  45:stm32f4xx-hal-driver/Src/stm32f4xx_hal_nor.c **** 
  46:stm32f4xx-hal-driver/Src/stm32f4xx_hal_nor.c ****       (+) You can also control the NOR device by calling the control APIs HAL_NOR_WriteOperation_En
  47:stm32f4xx-hal-driver/Src/stm32f4xx_hal_nor.c ****           HAL_NOR_WriteOperation_Disable() to respectively enable/disable the NOR write operation
  48:stm32f4xx-hal-driver/Src/stm32f4xx_hal_nor.c **** 
  49:stm32f4xx-hal-driver/Src/stm32f4xx_hal_nor.c ****       (+) You can monitor the NOR device HAL state by calling the function
  50:stm32f4xx-hal-driver/Src/stm32f4xx_hal_nor.c ****           HAL_NOR_GetState()
  51:stm32f4xx-hal-driver/Src/stm32f4xx_hal_nor.c ****     [..]
  52:stm32f4xx-hal-driver/Src/stm32f4xx_hal_nor.c ****      (@) This driver is a set of generic APIs which handle standard NOR flash operations.
  53:stm32f4xx-hal-driver/Src/stm32f4xx_hal_nor.c ****          If a NOR flash device contains different operations and/or implementations,
  54:stm32f4xx-hal-driver/Src/stm32f4xx_hal_nor.c ****          it should be implemented separately.
  55:stm32f4xx-hal-driver/Src/stm32f4xx_hal_nor.c **** 
  56:stm32f4xx-hal-driver/Src/stm32f4xx_hal_nor.c ****      *** NOR HAL driver macros list ***
  57:stm32f4xx-hal-driver/Src/stm32f4xx_hal_nor.c ****      =============================================
  58:stm32f4xx-hal-driver/Src/stm32f4xx_hal_nor.c ****      [..]
  59:stm32f4xx-hal-driver/Src/stm32f4xx_hal_nor.c ****        Below the list of most used macros in NOR HAL driver.
  60:stm32f4xx-hal-driver/Src/stm32f4xx_hal_nor.c **** 
  61:stm32f4xx-hal-driver/Src/stm32f4xx_hal_nor.c ****       (+) NOR_WRITE : NOR memory write data to specified address
  62:stm32f4xx-hal-driver/Src/stm32f4xx_hal_nor.c **** 
  63:stm32f4xx-hal-driver/Src/stm32f4xx_hal_nor.c ****     *** Callback registration ***
  64:stm32f4xx-hal-driver/Src/stm32f4xx_hal_nor.c ****     =============================================
  65:stm32f4xx-hal-driver/Src/stm32f4xx_hal_nor.c ****     [..]
  66:stm32f4xx-hal-driver/Src/stm32f4xx_hal_nor.c ****       The compilation define  USE_HAL_NOR_REGISTER_CALLBACKS when set to 1
  67:stm32f4xx-hal-driver/Src/stm32f4xx_hal_nor.c ****       allows the user to configure dynamically the driver callbacks.
  68:stm32f4xx-hal-driver/Src/stm32f4xx_hal_nor.c **** 
  69:stm32f4xx-hal-driver/Src/stm32f4xx_hal_nor.c ****       Use Functions HAL_NOR_RegisterCallback() to register a user callback,
  70:stm32f4xx-hal-driver/Src/stm32f4xx_hal_nor.c ****       it allows to register following callbacks:
  71:stm32f4xx-hal-driver/Src/stm32f4xx_hal_nor.c ****         (+) MspInitCallback    : NOR MspInit.
  72:stm32f4xx-hal-driver/Src/stm32f4xx_hal_nor.c ****         (+) MspDeInitCallback  : NOR MspDeInit.
  73:stm32f4xx-hal-driver/Src/stm32f4xx_hal_nor.c ****       This function takes as parameters the HAL peripheral handle, the Callback ID
  74:stm32f4xx-hal-driver/Src/stm32f4xx_hal_nor.c ****       and a pointer to the user callback function.
  75:stm32f4xx-hal-driver/Src/stm32f4xx_hal_nor.c **** 
  76:stm32f4xx-hal-driver/Src/stm32f4xx_hal_nor.c ****       Use function HAL_NOR_UnRegisterCallback() to reset a callback to the default
  77:stm32f4xx-hal-driver/Src/stm32f4xx_hal_nor.c ****       weak (overridden) function. It allows to reset following callbacks:
  78:stm32f4xx-hal-driver/Src/stm32f4xx_hal_nor.c ****         (+) MspInitCallback    : NOR MspInit.
  79:stm32f4xx-hal-driver/Src/stm32f4xx_hal_nor.c ****         (+) MspDeInitCallback  : NOR MspDeInit.
  80:stm32f4xx-hal-driver/Src/stm32f4xx_hal_nor.c ****       This function) takes as parameters the HAL peripheral handle and the Callback ID.
  81:stm32f4xx-hal-driver/Src/stm32f4xx_hal_nor.c **** 
  82:stm32f4xx-hal-driver/Src/stm32f4xx_hal_nor.c ****       By default, after the HAL_NOR_Init and if the state is HAL_NOR_STATE_RESET
  83:stm32f4xx-hal-driver/Src/stm32f4xx_hal_nor.c ****       all callbacks are reset to the corresponding legacy weak (overridden) functions.
  84:stm32f4xx-hal-driver/Src/stm32f4xx_hal_nor.c ****       Exception done for MspInit and MspDeInit callbacks that are respectively
  85:stm32f4xx-hal-driver/Src/stm32f4xx_hal_nor.c ****       reset to the legacy weak (overridden) functions in the HAL_NOR_Init
  86:stm32f4xx-hal-driver/Src/stm32f4xx_hal_nor.c ****       and  HAL_NOR_DeInit only when these callbacks are null (not registered beforehand).
ARM GAS  /tmp/ccEpvYTV.s 			page 3


  87:stm32f4xx-hal-driver/Src/stm32f4xx_hal_nor.c ****       If not, MspInit or MspDeInit are not null, the HAL_NOR_Init and HAL_NOR_DeInit
  88:stm32f4xx-hal-driver/Src/stm32f4xx_hal_nor.c ****       keep and use the user MspInit/MspDeInit callbacks (registered beforehand)
  89:stm32f4xx-hal-driver/Src/stm32f4xx_hal_nor.c **** 
  90:stm32f4xx-hal-driver/Src/stm32f4xx_hal_nor.c ****       Callbacks can be registered/unregistered in READY state only.
  91:stm32f4xx-hal-driver/Src/stm32f4xx_hal_nor.c ****       Exception done for MspInit/MspDeInit callbacks that can be registered/unregistered
  92:stm32f4xx-hal-driver/Src/stm32f4xx_hal_nor.c ****       in READY or RESET state, thus registered (user) MspInit/DeInit callbacks can be used
  93:stm32f4xx-hal-driver/Src/stm32f4xx_hal_nor.c ****       during the Init/DeInit.
  94:stm32f4xx-hal-driver/Src/stm32f4xx_hal_nor.c ****       In that case first register the MspInit/MspDeInit user callbacks
  95:stm32f4xx-hal-driver/Src/stm32f4xx_hal_nor.c ****       using HAL_NOR_RegisterCallback before calling HAL_NOR_DeInit
  96:stm32f4xx-hal-driver/Src/stm32f4xx_hal_nor.c ****       or HAL_NOR_Init function.
  97:stm32f4xx-hal-driver/Src/stm32f4xx_hal_nor.c **** 
  98:stm32f4xx-hal-driver/Src/stm32f4xx_hal_nor.c ****       When The compilation define USE_HAL_NOR_REGISTER_CALLBACKS is set to 0 or
  99:stm32f4xx-hal-driver/Src/stm32f4xx_hal_nor.c ****       not defined, the callback registering feature is not available
 100:stm32f4xx-hal-driver/Src/stm32f4xx_hal_nor.c ****       and weak (overridden) callbacks are used.
 101:stm32f4xx-hal-driver/Src/stm32f4xx_hal_nor.c **** 
 102:stm32f4xx-hal-driver/Src/stm32f4xx_hal_nor.c ****   @endverbatim
 103:stm32f4xx-hal-driver/Src/stm32f4xx_hal_nor.c ****   ******************************************************************************
 104:stm32f4xx-hal-driver/Src/stm32f4xx_hal_nor.c ****   */
 105:stm32f4xx-hal-driver/Src/stm32f4xx_hal_nor.c **** 
 106:stm32f4xx-hal-driver/Src/stm32f4xx_hal_nor.c **** /* Includes ------------------------------------------------------------------*/
 107:stm32f4xx-hal-driver/Src/stm32f4xx_hal_nor.c **** #include "stm32f4xx_hal.h"
 108:stm32f4xx-hal-driver/Src/stm32f4xx_hal_nor.c **** 
 109:stm32f4xx-hal-driver/Src/stm32f4xx_hal_nor.c **** #if  defined(FMC_Bank1) || defined(FSMC_Bank1)
 110:stm32f4xx-hal-driver/Src/stm32f4xx_hal_nor.c **** 
 111:stm32f4xx-hal-driver/Src/stm32f4xx_hal_nor.c **** /** @addtogroup STM32F4xx_HAL_Driver
 112:stm32f4xx-hal-driver/Src/stm32f4xx_hal_nor.c ****   * @{
 113:stm32f4xx-hal-driver/Src/stm32f4xx_hal_nor.c ****   */
 114:stm32f4xx-hal-driver/Src/stm32f4xx_hal_nor.c **** 
 115:stm32f4xx-hal-driver/Src/stm32f4xx_hal_nor.c **** #ifdef HAL_NOR_MODULE_ENABLED
 116:stm32f4xx-hal-driver/Src/stm32f4xx_hal_nor.c **** 
 117:stm32f4xx-hal-driver/Src/stm32f4xx_hal_nor.c **** /** @defgroup NOR NOR
 118:stm32f4xx-hal-driver/Src/stm32f4xx_hal_nor.c ****   * @brief NOR driver modules
 119:stm32f4xx-hal-driver/Src/stm32f4xx_hal_nor.c ****   * @{
 120:stm32f4xx-hal-driver/Src/stm32f4xx_hal_nor.c ****   */
 121:stm32f4xx-hal-driver/Src/stm32f4xx_hal_nor.c **** 
 122:stm32f4xx-hal-driver/Src/stm32f4xx_hal_nor.c **** /* Private typedef -----------------------------------------------------------*/
 123:stm32f4xx-hal-driver/Src/stm32f4xx_hal_nor.c **** /* Private define ------------------------------------------------------------*/
 124:stm32f4xx-hal-driver/Src/stm32f4xx_hal_nor.c **** 
 125:stm32f4xx-hal-driver/Src/stm32f4xx_hal_nor.c **** /** @defgroup NOR_Private_Defines NOR Private Defines
 126:stm32f4xx-hal-driver/Src/stm32f4xx_hal_nor.c ****   * @{
 127:stm32f4xx-hal-driver/Src/stm32f4xx_hal_nor.c ****   */
 128:stm32f4xx-hal-driver/Src/stm32f4xx_hal_nor.c **** 
 129:stm32f4xx-hal-driver/Src/stm32f4xx_hal_nor.c **** /* Constants to define address to set to write a command */
 130:stm32f4xx-hal-driver/Src/stm32f4xx_hal_nor.c **** #define NOR_CMD_ADDRESS_FIRST_BYTE            (uint16_t)0x0AAA
 131:stm32f4xx-hal-driver/Src/stm32f4xx_hal_nor.c **** #define NOR_CMD_ADDRESS_FIRST_CFI_BYTE        (uint16_t)0x00AA
 132:stm32f4xx-hal-driver/Src/stm32f4xx_hal_nor.c **** #define NOR_CMD_ADDRESS_SECOND_BYTE           (uint16_t)0x0555
 133:stm32f4xx-hal-driver/Src/stm32f4xx_hal_nor.c **** #define NOR_CMD_ADDRESS_THIRD_BYTE            (uint16_t)0x0AAA
 134:stm32f4xx-hal-driver/Src/stm32f4xx_hal_nor.c **** 
 135:stm32f4xx-hal-driver/Src/stm32f4xx_hal_nor.c **** #define NOR_CMD_ADDRESS_FIRST                 (uint16_t)0x0555
 136:stm32f4xx-hal-driver/Src/stm32f4xx_hal_nor.c **** #define NOR_CMD_ADDRESS_FIRST_CFI             (uint16_t)0x0055
 137:stm32f4xx-hal-driver/Src/stm32f4xx_hal_nor.c **** #define NOR_CMD_ADDRESS_SECOND                (uint16_t)0x02AA
 138:stm32f4xx-hal-driver/Src/stm32f4xx_hal_nor.c **** #define NOR_CMD_ADDRESS_THIRD                 (uint16_t)0x0555
 139:stm32f4xx-hal-driver/Src/stm32f4xx_hal_nor.c **** #define NOR_CMD_ADDRESS_FOURTH                (uint16_t)0x0555
 140:stm32f4xx-hal-driver/Src/stm32f4xx_hal_nor.c **** #define NOR_CMD_ADDRESS_FIFTH                 (uint16_t)0x02AA
 141:stm32f4xx-hal-driver/Src/stm32f4xx_hal_nor.c **** #define NOR_CMD_ADDRESS_SIXTH                 (uint16_t)0x0555
 142:stm32f4xx-hal-driver/Src/stm32f4xx_hal_nor.c **** 
 143:stm32f4xx-hal-driver/Src/stm32f4xx_hal_nor.c **** /* Constants to define data to program a command */
ARM GAS  /tmp/ccEpvYTV.s 			page 4


 144:stm32f4xx-hal-driver/Src/stm32f4xx_hal_nor.c **** #define NOR_CMD_DATA_READ_RESET               (uint16_t)0x00F0
 145:stm32f4xx-hal-driver/Src/stm32f4xx_hal_nor.c **** #define NOR_CMD_DATA_FIRST                    (uint16_t)0x00AA
 146:stm32f4xx-hal-driver/Src/stm32f4xx_hal_nor.c **** #define NOR_CMD_DATA_SECOND                   (uint16_t)0x0055
 147:stm32f4xx-hal-driver/Src/stm32f4xx_hal_nor.c **** #define NOR_CMD_DATA_AUTO_SELECT              (uint16_t)0x0090
 148:stm32f4xx-hal-driver/Src/stm32f4xx_hal_nor.c **** #define NOR_CMD_DATA_PROGRAM                  (uint16_t)0x00A0
 149:stm32f4xx-hal-driver/Src/stm32f4xx_hal_nor.c **** #define NOR_CMD_DATA_CHIP_BLOCK_ERASE_THIRD   (uint16_t)0x0080
 150:stm32f4xx-hal-driver/Src/stm32f4xx_hal_nor.c **** #define NOR_CMD_DATA_CHIP_BLOCK_ERASE_FOURTH  (uint16_t)0x00AA
 151:stm32f4xx-hal-driver/Src/stm32f4xx_hal_nor.c **** #define NOR_CMD_DATA_CHIP_BLOCK_ERASE_FIFTH   (uint16_t)0x0055
 152:stm32f4xx-hal-driver/Src/stm32f4xx_hal_nor.c **** #define NOR_CMD_DATA_CHIP_ERASE               (uint16_t)0x0010
 153:stm32f4xx-hal-driver/Src/stm32f4xx_hal_nor.c **** #define NOR_CMD_DATA_CFI                      (uint16_t)0x0098
 154:stm32f4xx-hal-driver/Src/stm32f4xx_hal_nor.c **** 
 155:stm32f4xx-hal-driver/Src/stm32f4xx_hal_nor.c **** #define NOR_CMD_DATA_BUFFER_AND_PROG          (uint8_t)0x25
 156:stm32f4xx-hal-driver/Src/stm32f4xx_hal_nor.c **** #define NOR_CMD_DATA_BUFFER_AND_PROG_CONFIRM  (uint8_t)0x29
 157:stm32f4xx-hal-driver/Src/stm32f4xx_hal_nor.c **** #define NOR_CMD_DATA_BLOCK_ERASE              (uint8_t)0x30
 158:stm32f4xx-hal-driver/Src/stm32f4xx_hal_nor.c **** 
 159:stm32f4xx-hal-driver/Src/stm32f4xx_hal_nor.c **** #define NOR_CMD_READ_ARRAY                    (uint16_t)0x00FF
 160:stm32f4xx-hal-driver/Src/stm32f4xx_hal_nor.c **** #define NOR_CMD_WORD_PROGRAM                  (uint16_t)0x0040
 161:stm32f4xx-hal-driver/Src/stm32f4xx_hal_nor.c **** #define NOR_CMD_BUFFERED_PROGRAM              (uint16_t)0x00E8
 162:stm32f4xx-hal-driver/Src/stm32f4xx_hal_nor.c **** #define NOR_CMD_CONFIRM                       (uint16_t)0x00D0
 163:stm32f4xx-hal-driver/Src/stm32f4xx_hal_nor.c **** #define NOR_CMD_BLOCK_ERASE                   (uint16_t)0x0020
 164:stm32f4xx-hal-driver/Src/stm32f4xx_hal_nor.c **** #define NOR_CMD_BLOCK_UNLOCK                  (uint16_t)0x0060
 165:stm32f4xx-hal-driver/Src/stm32f4xx_hal_nor.c **** #define NOR_CMD_READ_STATUS_REG               (uint16_t)0x0070
 166:stm32f4xx-hal-driver/Src/stm32f4xx_hal_nor.c **** #define NOR_CMD_CLEAR_STATUS_REG              (uint16_t)0x0050
 167:stm32f4xx-hal-driver/Src/stm32f4xx_hal_nor.c **** 
 168:stm32f4xx-hal-driver/Src/stm32f4xx_hal_nor.c **** /* Mask on NOR STATUS REGISTER */
 169:stm32f4xx-hal-driver/Src/stm32f4xx_hal_nor.c **** #define NOR_MASK_STATUS_DQ4                   (uint16_t)0x0010
 170:stm32f4xx-hal-driver/Src/stm32f4xx_hal_nor.c **** #define NOR_MASK_STATUS_DQ5                   (uint16_t)0x0020
 171:stm32f4xx-hal-driver/Src/stm32f4xx_hal_nor.c **** #define NOR_MASK_STATUS_DQ6                   (uint16_t)0x0040
 172:stm32f4xx-hal-driver/Src/stm32f4xx_hal_nor.c **** #define NOR_MASK_STATUS_DQ7                   (uint16_t)0x0080
 173:stm32f4xx-hal-driver/Src/stm32f4xx_hal_nor.c **** 
 174:stm32f4xx-hal-driver/Src/stm32f4xx_hal_nor.c **** /* Address of the primary command set */
 175:stm32f4xx-hal-driver/Src/stm32f4xx_hal_nor.c **** #define NOR_ADDRESS_COMMAND_SET               (uint16_t)0x0013
 176:stm32f4xx-hal-driver/Src/stm32f4xx_hal_nor.c **** 
 177:stm32f4xx-hal-driver/Src/stm32f4xx_hal_nor.c **** /* Command set code assignment (defined in JEDEC JEP137B version may 2004) */
 178:stm32f4xx-hal-driver/Src/stm32f4xx_hal_nor.c **** #define NOR_INTEL_SHARP_EXT_COMMAND_SET       (uint16_t)0x0001 /* Supported in this driver */
 179:stm32f4xx-hal-driver/Src/stm32f4xx_hal_nor.c **** #define NOR_AMD_FUJITSU_COMMAND_SET           (uint16_t)0x0002 /* Supported in this driver */
 180:stm32f4xx-hal-driver/Src/stm32f4xx_hal_nor.c **** #define NOR_INTEL_STANDARD_COMMAND_SET        (uint16_t)0x0003 /* Not Supported in this driver */
 181:stm32f4xx-hal-driver/Src/stm32f4xx_hal_nor.c **** #define NOR_AMD_FUJITSU_EXT_COMMAND_SET       (uint16_t)0x0004 /* Not Supported in this driver */
 182:stm32f4xx-hal-driver/Src/stm32f4xx_hal_nor.c **** #define NOR_WINDBOND_STANDARD_COMMAND_SET     (uint16_t)0x0006 /* Not Supported in this driver */
 183:stm32f4xx-hal-driver/Src/stm32f4xx_hal_nor.c **** #define NOR_MITSUBISHI_STANDARD_COMMAND_SET   (uint16_t)0x0100 /* Not Supported in this driver */
 184:stm32f4xx-hal-driver/Src/stm32f4xx_hal_nor.c **** #define NOR_MITSUBISHI_EXT_COMMAND_SET        (uint16_t)0x0101 /* Not Supported in this driver */
 185:stm32f4xx-hal-driver/Src/stm32f4xx_hal_nor.c **** #define NOR_PAGE_WRITE_COMMAND_SET            (uint16_t)0x0102 /* Not Supported in this driver */
 186:stm32f4xx-hal-driver/Src/stm32f4xx_hal_nor.c **** #define NOR_INTEL_PERFORMANCE_COMMAND_SET     (uint16_t)0x0200 /* Not Supported in this driver */
 187:stm32f4xx-hal-driver/Src/stm32f4xx_hal_nor.c **** #define NOR_INTEL_DATA_COMMAND_SET            (uint16_t)0x0210 /* Not Supported in this driver */
 188:stm32f4xx-hal-driver/Src/stm32f4xx_hal_nor.c **** 
 189:stm32f4xx-hal-driver/Src/stm32f4xx_hal_nor.c **** /**
 190:stm32f4xx-hal-driver/Src/stm32f4xx_hal_nor.c ****   * @}
 191:stm32f4xx-hal-driver/Src/stm32f4xx_hal_nor.c ****   */
 192:stm32f4xx-hal-driver/Src/stm32f4xx_hal_nor.c **** 
 193:stm32f4xx-hal-driver/Src/stm32f4xx_hal_nor.c **** /* Private macro -------------------------------------------------------------*/
 194:stm32f4xx-hal-driver/Src/stm32f4xx_hal_nor.c **** /* Private variables ---------------------------------------------------------*/
 195:stm32f4xx-hal-driver/Src/stm32f4xx_hal_nor.c **** /** @defgroup NOR_Private_Variables NOR Private Variables
 196:stm32f4xx-hal-driver/Src/stm32f4xx_hal_nor.c ****   * @{
 197:stm32f4xx-hal-driver/Src/stm32f4xx_hal_nor.c ****   */
 198:stm32f4xx-hal-driver/Src/stm32f4xx_hal_nor.c **** 
 199:stm32f4xx-hal-driver/Src/stm32f4xx_hal_nor.c **** static uint32_t uwNORMemoryDataWidth  = NOR_MEMORY_8B;
 200:stm32f4xx-hal-driver/Src/stm32f4xx_hal_nor.c **** 
ARM GAS  /tmp/ccEpvYTV.s 			page 5


 201:stm32f4xx-hal-driver/Src/stm32f4xx_hal_nor.c **** /**
 202:stm32f4xx-hal-driver/Src/stm32f4xx_hal_nor.c ****   * @}
 203:stm32f4xx-hal-driver/Src/stm32f4xx_hal_nor.c ****   */
 204:stm32f4xx-hal-driver/Src/stm32f4xx_hal_nor.c **** 
 205:stm32f4xx-hal-driver/Src/stm32f4xx_hal_nor.c **** /* Private functions ---------------------------------------------------------*/
 206:stm32f4xx-hal-driver/Src/stm32f4xx_hal_nor.c **** /* Exported functions --------------------------------------------------------*/
 207:stm32f4xx-hal-driver/Src/stm32f4xx_hal_nor.c **** /** @defgroup NOR_Exported_Functions NOR Exported Functions
 208:stm32f4xx-hal-driver/Src/stm32f4xx_hal_nor.c ****   * @{
 209:stm32f4xx-hal-driver/Src/stm32f4xx_hal_nor.c ****   */
 210:stm32f4xx-hal-driver/Src/stm32f4xx_hal_nor.c **** 
 211:stm32f4xx-hal-driver/Src/stm32f4xx_hal_nor.c **** /** @defgroup NOR_Exported_Functions_Group1 Initialization and de-initialization functions
 212:stm32f4xx-hal-driver/Src/stm32f4xx_hal_nor.c ****   * @brief    Initialization and Configuration functions
 213:stm32f4xx-hal-driver/Src/stm32f4xx_hal_nor.c ****   *
 214:stm32f4xx-hal-driver/Src/stm32f4xx_hal_nor.c ****   @verbatim
 215:stm32f4xx-hal-driver/Src/stm32f4xx_hal_nor.c ****   ==============================================================================
 216:stm32f4xx-hal-driver/Src/stm32f4xx_hal_nor.c ****            ##### NOR Initialization and de_initialization functions #####
 217:stm32f4xx-hal-driver/Src/stm32f4xx_hal_nor.c ****   ==============================================================================
 218:stm32f4xx-hal-driver/Src/stm32f4xx_hal_nor.c ****   [..]
 219:stm32f4xx-hal-driver/Src/stm32f4xx_hal_nor.c ****     This section provides functions allowing to initialize/de-initialize
 220:stm32f4xx-hal-driver/Src/stm32f4xx_hal_nor.c ****     the NOR memory
 221:stm32f4xx-hal-driver/Src/stm32f4xx_hal_nor.c **** 
 222:stm32f4xx-hal-driver/Src/stm32f4xx_hal_nor.c **** @endverbatim
 223:stm32f4xx-hal-driver/Src/stm32f4xx_hal_nor.c ****   * @{
 224:stm32f4xx-hal-driver/Src/stm32f4xx_hal_nor.c ****   */
 225:stm32f4xx-hal-driver/Src/stm32f4xx_hal_nor.c **** 
 226:stm32f4xx-hal-driver/Src/stm32f4xx_hal_nor.c **** /**
 227:stm32f4xx-hal-driver/Src/stm32f4xx_hal_nor.c ****   * @brief  Perform the NOR memory Initialization sequence
 228:stm32f4xx-hal-driver/Src/stm32f4xx_hal_nor.c ****   * @param  hnor pointer to a NOR_HandleTypeDef structure that contains
 229:stm32f4xx-hal-driver/Src/stm32f4xx_hal_nor.c ****   *                the configuration information for NOR module.
 230:stm32f4xx-hal-driver/Src/stm32f4xx_hal_nor.c ****   * @param  Timing pointer to NOR control timing structure
 231:stm32f4xx-hal-driver/Src/stm32f4xx_hal_nor.c ****   * @param  ExtTiming pointer to NOR extended mode timing structure
 232:stm32f4xx-hal-driver/Src/stm32f4xx_hal_nor.c ****   * @retval HAL status
 233:stm32f4xx-hal-driver/Src/stm32f4xx_hal_nor.c ****   */
 234:stm32f4xx-hal-driver/Src/stm32f4xx_hal_nor.c **** HAL_StatusTypeDef HAL_NOR_Init(NOR_HandleTypeDef *hnor, FMC_NORSRAM_TimingTypeDef *Timing,
 235:stm32f4xx-hal-driver/Src/stm32f4xx_hal_nor.c ****                                FMC_NORSRAM_TimingTypeDef *ExtTiming)
 236:stm32f4xx-hal-driver/Src/stm32f4xx_hal_nor.c **** {
 237:stm32f4xx-hal-driver/Src/stm32f4xx_hal_nor.c ****   uint32_t deviceaddress;
 238:stm32f4xx-hal-driver/Src/stm32f4xx_hal_nor.c ****   HAL_StatusTypeDef status = HAL_OK;
 239:stm32f4xx-hal-driver/Src/stm32f4xx_hal_nor.c **** 
 240:stm32f4xx-hal-driver/Src/stm32f4xx_hal_nor.c ****   /* Check the NOR handle parameter */
 241:stm32f4xx-hal-driver/Src/stm32f4xx_hal_nor.c ****   if (hnor == NULL)
 242:stm32f4xx-hal-driver/Src/stm32f4xx_hal_nor.c ****   {
 243:stm32f4xx-hal-driver/Src/stm32f4xx_hal_nor.c ****     return HAL_ERROR;
 244:stm32f4xx-hal-driver/Src/stm32f4xx_hal_nor.c ****   }
 245:stm32f4xx-hal-driver/Src/stm32f4xx_hal_nor.c **** 
 246:stm32f4xx-hal-driver/Src/stm32f4xx_hal_nor.c ****   if (hnor->State == HAL_NOR_STATE_RESET)
 247:stm32f4xx-hal-driver/Src/stm32f4xx_hal_nor.c ****   {
 248:stm32f4xx-hal-driver/Src/stm32f4xx_hal_nor.c ****     /* Allocate lock resource and initialize it */
 249:stm32f4xx-hal-driver/Src/stm32f4xx_hal_nor.c ****     hnor->Lock = HAL_UNLOCKED;
 250:stm32f4xx-hal-driver/Src/stm32f4xx_hal_nor.c **** 
 251:stm32f4xx-hal-driver/Src/stm32f4xx_hal_nor.c **** #if (USE_HAL_NOR_REGISTER_CALLBACKS == 1)
 252:stm32f4xx-hal-driver/Src/stm32f4xx_hal_nor.c ****     if (hnor->MspInitCallback == NULL)
 253:stm32f4xx-hal-driver/Src/stm32f4xx_hal_nor.c ****     {
 254:stm32f4xx-hal-driver/Src/stm32f4xx_hal_nor.c ****       hnor->MspInitCallback = HAL_NOR_MspInit;
 255:stm32f4xx-hal-driver/Src/stm32f4xx_hal_nor.c ****     }
 256:stm32f4xx-hal-driver/Src/stm32f4xx_hal_nor.c **** 
 257:stm32f4xx-hal-driver/Src/stm32f4xx_hal_nor.c ****     /* Init the low level hardware */
ARM GAS  /tmp/ccEpvYTV.s 			page 6


 258:stm32f4xx-hal-driver/Src/stm32f4xx_hal_nor.c ****     hnor->MspInitCallback(hnor);
 259:stm32f4xx-hal-driver/Src/stm32f4xx_hal_nor.c **** #else
 260:stm32f4xx-hal-driver/Src/stm32f4xx_hal_nor.c ****     /* Initialize the low level hardware (MSP) */
 261:stm32f4xx-hal-driver/Src/stm32f4xx_hal_nor.c ****     HAL_NOR_MspInit(hnor);
 262:stm32f4xx-hal-driver/Src/stm32f4xx_hal_nor.c **** #endif /* (USE_HAL_NOR_REGISTER_CALLBACKS) */
 263:stm32f4xx-hal-driver/Src/stm32f4xx_hal_nor.c ****   }
 264:stm32f4xx-hal-driver/Src/stm32f4xx_hal_nor.c **** 
 265:stm32f4xx-hal-driver/Src/stm32f4xx_hal_nor.c ****   /* Initialize NOR control Interface */
 266:stm32f4xx-hal-driver/Src/stm32f4xx_hal_nor.c ****   (void)FMC_NORSRAM_Init(hnor->Instance, &(hnor->Init));
 267:stm32f4xx-hal-driver/Src/stm32f4xx_hal_nor.c **** 
 268:stm32f4xx-hal-driver/Src/stm32f4xx_hal_nor.c ****   /* Initialize NOR timing Interface */
 269:stm32f4xx-hal-driver/Src/stm32f4xx_hal_nor.c ****   (void)FMC_NORSRAM_Timing_Init(hnor->Instance, Timing, hnor->Init.NSBank);
 270:stm32f4xx-hal-driver/Src/stm32f4xx_hal_nor.c **** 
 271:stm32f4xx-hal-driver/Src/stm32f4xx_hal_nor.c ****   /* Initialize NOR extended mode timing Interface */
 272:stm32f4xx-hal-driver/Src/stm32f4xx_hal_nor.c ****   (void)FMC_NORSRAM_Extended_Timing_Init(hnor->Extended, ExtTiming,
 273:stm32f4xx-hal-driver/Src/stm32f4xx_hal_nor.c ****                                          hnor->Init.NSBank, hnor->Init.ExtendedMode);
 274:stm32f4xx-hal-driver/Src/stm32f4xx_hal_nor.c **** 
 275:stm32f4xx-hal-driver/Src/stm32f4xx_hal_nor.c ****   /* Enable the NORSRAM device */
 276:stm32f4xx-hal-driver/Src/stm32f4xx_hal_nor.c ****   __FMC_NORSRAM_ENABLE(hnor->Instance, hnor->Init.NSBank);
 277:stm32f4xx-hal-driver/Src/stm32f4xx_hal_nor.c **** 
 278:stm32f4xx-hal-driver/Src/stm32f4xx_hal_nor.c ****   /* Initialize NOR Memory Data Width*/
 279:stm32f4xx-hal-driver/Src/stm32f4xx_hal_nor.c ****   if (hnor->Init.MemoryDataWidth == FMC_NORSRAM_MEM_BUS_WIDTH_8)
 280:stm32f4xx-hal-driver/Src/stm32f4xx_hal_nor.c ****   {
 281:stm32f4xx-hal-driver/Src/stm32f4xx_hal_nor.c ****     uwNORMemoryDataWidth = NOR_MEMORY_8B;
 282:stm32f4xx-hal-driver/Src/stm32f4xx_hal_nor.c ****   }
 283:stm32f4xx-hal-driver/Src/stm32f4xx_hal_nor.c ****   else
 284:stm32f4xx-hal-driver/Src/stm32f4xx_hal_nor.c ****   {
 285:stm32f4xx-hal-driver/Src/stm32f4xx_hal_nor.c ****     uwNORMemoryDataWidth = NOR_MEMORY_16B;
 286:stm32f4xx-hal-driver/Src/stm32f4xx_hal_nor.c ****   }
 287:stm32f4xx-hal-driver/Src/stm32f4xx_hal_nor.c **** 
 288:stm32f4xx-hal-driver/Src/stm32f4xx_hal_nor.c ****   /* Initialize the NOR controller state */
 289:stm32f4xx-hal-driver/Src/stm32f4xx_hal_nor.c ****   hnor->State = HAL_NOR_STATE_READY;
 290:stm32f4xx-hal-driver/Src/stm32f4xx_hal_nor.c **** 
 291:stm32f4xx-hal-driver/Src/stm32f4xx_hal_nor.c ****   /* Select the NOR device address */
 292:stm32f4xx-hal-driver/Src/stm32f4xx_hal_nor.c ****   if (hnor->Init.NSBank == FMC_NORSRAM_BANK1)
 293:stm32f4xx-hal-driver/Src/stm32f4xx_hal_nor.c ****   {
 294:stm32f4xx-hal-driver/Src/stm32f4xx_hal_nor.c ****     deviceaddress = NOR_MEMORY_ADRESS1;
 295:stm32f4xx-hal-driver/Src/stm32f4xx_hal_nor.c ****   }
 296:stm32f4xx-hal-driver/Src/stm32f4xx_hal_nor.c ****   else if (hnor->Init.NSBank == FMC_NORSRAM_BANK2)
 297:stm32f4xx-hal-driver/Src/stm32f4xx_hal_nor.c ****   {
 298:stm32f4xx-hal-driver/Src/stm32f4xx_hal_nor.c ****     deviceaddress = NOR_MEMORY_ADRESS2;
 299:stm32f4xx-hal-driver/Src/stm32f4xx_hal_nor.c ****   }
 300:stm32f4xx-hal-driver/Src/stm32f4xx_hal_nor.c ****   else if (hnor->Init.NSBank == FMC_NORSRAM_BANK3)
 301:stm32f4xx-hal-driver/Src/stm32f4xx_hal_nor.c ****   {
 302:stm32f4xx-hal-driver/Src/stm32f4xx_hal_nor.c ****     deviceaddress = NOR_MEMORY_ADRESS3;
 303:stm32f4xx-hal-driver/Src/stm32f4xx_hal_nor.c ****   }
 304:stm32f4xx-hal-driver/Src/stm32f4xx_hal_nor.c ****   else /* FMC_NORSRAM_BANK4 */
 305:stm32f4xx-hal-driver/Src/stm32f4xx_hal_nor.c ****   {
 306:stm32f4xx-hal-driver/Src/stm32f4xx_hal_nor.c ****     deviceaddress = NOR_MEMORY_ADRESS4;
 307:stm32f4xx-hal-driver/Src/stm32f4xx_hal_nor.c ****   }
 308:stm32f4xx-hal-driver/Src/stm32f4xx_hal_nor.c **** 
 309:stm32f4xx-hal-driver/Src/stm32f4xx_hal_nor.c ****   if (hnor->Init.WriteOperation == FMC_WRITE_OPERATION_DISABLE)
 310:stm32f4xx-hal-driver/Src/stm32f4xx_hal_nor.c ****   {
 311:stm32f4xx-hal-driver/Src/stm32f4xx_hal_nor.c ****     (void)FMC_NORSRAM_WriteOperation_Disable(hnor->Instance, hnor->Init.NSBank);
 312:stm32f4xx-hal-driver/Src/stm32f4xx_hal_nor.c **** 
 313:stm32f4xx-hal-driver/Src/stm32f4xx_hal_nor.c ****     /* Update the NOR controller state */
 314:stm32f4xx-hal-driver/Src/stm32f4xx_hal_nor.c ****     hnor->State = HAL_NOR_STATE_PROTECTED;
ARM GAS  /tmp/ccEpvYTV.s 			page 7


 315:stm32f4xx-hal-driver/Src/stm32f4xx_hal_nor.c ****   }
 316:stm32f4xx-hal-driver/Src/stm32f4xx_hal_nor.c ****   else
 317:stm32f4xx-hal-driver/Src/stm32f4xx_hal_nor.c ****   {
 318:stm32f4xx-hal-driver/Src/stm32f4xx_hal_nor.c ****     /* Get the value of the command set */
 319:stm32f4xx-hal-driver/Src/stm32f4xx_hal_nor.c ****     if (uwNORMemoryDataWidth == NOR_MEMORY_8B)
 320:stm32f4xx-hal-driver/Src/stm32f4xx_hal_nor.c ****     {
 321:stm32f4xx-hal-driver/Src/stm32f4xx_hal_nor.c ****       NOR_WRITE(NOR_ADDR_SHIFT(deviceaddress, uwNORMemoryDataWidth, NOR_CMD_ADDRESS_FIRST_CFI_BYTE)
 322:stm32f4xx-hal-driver/Src/stm32f4xx_hal_nor.c ****                 NOR_CMD_DATA_CFI);
 323:stm32f4xx-hal-driver/Src/stm32f4xx_hal_nor.c ****     }
 324:stm32f4xx-hal-driver/Src/stm32f4xx_hal_nor.c ****     else
 325:stm32f4xx-hal-driver/Src/stm32f4xx_hal_nor.c ****     {
 326:stm32f4xx-hal-driver/Src/stm32f4xx_hal_nor.c ****       NOR_WRITE(NOR_ADDR_SHIFT(deviceaddress, uwNORMemoryDataWidth, NOR_CMD_ADDRESS_FIRST_CFI), NOR
 327:stm32f4xx-hal-driver/Src/stm32f4xx_hal_nor.c ****     }
 328:stm32f4xx-hal-driver/Src/stm32f4xx_hal_nor.c **** 
 329:stm32f4xx-hal-driver/Src/stm32f4xx_hal_nor.c ****     hnor->CommandSet = *(__IO uint16_t *) NOR_ADDR_SHIFT(deviceaddress, uwNORMemoryDataWidth, NOR_A
 330:stm32f4xx-hal-driver/Src/stm32f4xx_hal_nor.c **** 
 331:stm32f4xx-hal-driver/Src/stm32f4xx_hal_nor.c ****     status = HAL_NOR_ReturnToReadMode(hnor);
 332:stm32f4xx-hal-driver/Src/stm32f4xx_hal_nor.c ****   }
 333:stm32f4xx-hal-driver/Src/stm32f4xx_hal_nor.c **** 
 334:stm32f4xx-hal-driver/Src/stm32f4xx_hal_nor.c ****   return status;
 335:stm32f4xx-hal-driver/Src/stm32f4xx_hal_nor.c **** }
 336:stm32f4xx-hal-driver/Src/stm32f4xx_hal_nor.c **** 
 337:stm32f4xx-hal-driver/Src/stm32f4xx_hal_nor.c **** /**
 338:stm32f4xx-hal-driver/Src/stm32f4xx_hal_nor.c ****   * @brief  Perform NOR memory De-Initialization sequence
 339:stm32f4xx-hal-driver/Src/stm32f4xx_hal_nor.c ****   * @param  hnor pointer to a NOR_HandleTypeDef structure that contains
 340:stm32f4xx-hal-driver/Src/stm32f4xx_hal_nor.c ****   *                the configuration information for NOR module.
 341:stm32f4xx-hal-driver/Src/stm32f4xx_hal_nor.c ****   * @retval HAL status
 342:stm32f4xx-hal-driver/Src/stm32f4xx_hal_nor.c ****   */
 343:stm32f4xx-hal-driver/Src/stm32f4xx_hal_nor.c **** HAL_StatusTypeDef HAL_NOR_DeInit(NOR_HandleTypeDef *hnor)
 344:stm32f4xx-hal-driver/Src/stm32f4xx_hal_nor.c **** {
 345:stm32f4xx-hal-driver/Src/stm32f4xx_hal_nor.c **** #if (USE_HAL_NOR_REGISTER_CALLBACKS == 1)
 346:stm32f4xx-hal-driver/Src/stm32f4xx_hal_nor.c ****   if (hnor->MspDeInitCallback == NULL)
 347:stm32f4xx-hal-driver/Src/stm32f4xx_hal_nor.c ****   {
 348:stm32f4xx-hal-driver/Src/stm32f4xx_hal_nor.c ****     hnor->MspDeInitCallback = HAL_NOR_MspDeInit;
 349:stm32f4xx-hal-driver/Src/stm32f4xx_hal_nor.c ****   }
 350:stm32f4xx-hal-driver/Src/stm32f4xx_hal_nor.c **** 
 351:stm32f4xx-hal-driver/Src/stm32f4xx_hal_nor.c ****   /* DeInit the low level hardware */
 352:stm32f4xx-hal-driver/Src/stm32f4xx_hal_nor.c ****   hnor->MspDeInitCallback(hnor);
 353:stm32f4xx-hal-driver/Src/stm32f4xx_hal_nor.c **** #else
 354:stm32f4xx-hal-driver/Src/stm32f4xx_hal_nor.c ****   /* De-Initialize the low level hardware (MSP) */
 355:stm32f4xx-hal-driver/Src/stm32f4xx_hal_nor.c ****   HAL_NOR_MspDeInit(hnor);
 356:stm32f4xx-hal-driver/Src/stm32f4xx_hal_nor.c **** #endif /* (USE_HAL_NOR_REGISTER_CALLBACKS) */
 357:stm32f4xx-hal-driver/Src/stm32f4xx_hal_nor.c **** 
 358:stm32f4xx-hal-driver/Src/stm32f4xx_hal_nor.c ****   /* Configure the NOR registers with their reset values */
 359:stm32f4xx-hal-driver/Src/stm32f4xx_hal_nor.c ****   (void)FMC_NORSRAM_DeInit(hnor->Instance, hnor->Extended, hnor->Init.NSBank);
 360:stm32f4xx-hal-driver/Src/stm32f4xx_hal_nor.c **** 
 361:stm32f4xx-hal-driver/Src/stm32f4xx_hal_nor.c ****   /* Reset the NOR controller state */
 362:stm32f4xx-hal-driver/Src/stm32f4xx_hal_nor.c ****   hnor->State = HAL_NOR_STATE_RESET;
 363:stm32f4xx-hal-driver/Src/stm32f4xx_hal_nor.c **** 
 364:stm32f4xx-hal-driver/Src/stm32f4xx_hal_nor.c ****   /* Release Lock */
 365:stm32f4xx-hal-driver/Src/stm32f4xx_hal_nor.c ****   __HAL_UNLOCK(hnor);
 366:stm32f4xx-hal-driver/Src/stm32f4xx_hal_nor.c **** 
 367:stm32f4xx-hal-driver/Src/stm32f4xx_hal_nor.c ****   return HAL_OK;
 368:stm32f4xx-hal-driver/Src/stm32f4xx_hal_nor.c **** }
 369:stm32f4xx-hal-driver/Src/stm32f4xx_hal_nor.c **** 
 370:stm32f4xx-hal-driver/Src/stm32f4xx_hal_nor.c **** /**
 371:stm32f4xx-hal-driver/Src/stm32f4xx_hal_nor.c ****   * @brief  NOR MSP Init
ARM GAS  /tmp/ccEpvYTV.s 			page 8


 372:stm32f4xx-hal-driver/Src/stm32f4xx_hal_nor.c ****   * @param  hnor pointer to a NOR_HandleTypeDef structure that contains
 373:stm32f4xx-hal-driver/Src/stm32f4xx_hal_nor.c ****   *                the configuration information for NOR module.
 374:stm32f4xx-hal-driver/Src/stm32f4xx_hal_nor.c ****   * @retval None
 375:stm32f4xx-hal-driver/Src/stm32f4xx_hal_nor.c ****   */
 376:stm32f4xx-hal-driver/Src/stm32f4xx_hal_nor.c **** __weak void HAL_NOR_MspInit(NOR_HandleTypeDef *hnor)
 377:stm32f4xx-hal-driver/Src/stm32f4xx_hal_nor.c **** {
  30              		.loc 1 377 1 view -0
  31              		.cfi_startproc
  32              		@ args = 0, pretend = 0, frame = 0
  33              		@ frame_needed = 0, uses_anonymous_args = 0
  34              		@ link register save eliminated.
 378:stm32f4xx-hal-driver/Src/stm32f4xx_hal_nor.c ****   /* Prevent unused argument(s) compilation warning */
 379:stm32f4xx-hal-driver/Src/stm32f4xx_hal_nor.c ****   UNUSED(hnor);
  35              		.loc 1 379 3 view .LVU1
 380:stm32f4xx-hal-driver/Src/stm32f4xx_hal_nor.c **** 
 381:stm32f4xx-hal-driver/Src/stm32f4xx_hal_nor.c ****   /* NOTE : This function Should not be modified, when the callback is needed,
 382:stm32f4xx-hal-driver/Src/stm32f4xx_hal_nor.c ****             the HAL_NOR_MspInit could be implemented in the user file
 383:stm32f4xx-hal-driver/Src/stm32f4xx_hal_nor.c ****    */
 384:stm32f4xx-hal-driver/Src/stm32f4xx_hal_nor.c **** }
  36              		.loc 1 384 1 is_stmt 0 view .LVU2
  37 0000 7047     		bx	lr
  38              		.cfi_endproc
  39              	.LFE241:
  41              		.section	.text.HAL_NOR_MspDeInit,"ax",%progbits
  42              		.align	1
  43              		.weak	HAL_NOR_MspDeInit
  44              		.syntax unified
  45              		.thumb
  46              		.thumb_func
  47              		.fpu fpv4-sp-d16
  49              	HAL_NOR_MspDeInit:
  50              	.LVL1:
  51              	.LFB242:
 385:stm32f4xx-hal-driver/Src/stm32f4xx_hal_nor.c **** 
 386:stm32f4xx-hal-driver/Src/stm32f4xx_hal_nor.c **** /**
 387:stm32f4xx-hal-driver/Src/stm32f4xx_hal_nor.c ****   * @brief  NOR MSP DeInit
 388:stm32f4xx-hal-driver/Src/stm32f4xx_hal_nor.c ****   * @param  hnor pointer to a NOR_HandleTypeDef structure that contains
 389:stm32f4xx-hal-driver/Src/stm32f4xx_hal_nor.c ****   *                the configuration information for NOR module.
 390:stm32f4xx-hal-driver/Src/stm32f4xx_hal_nor.c ****   * @retval None
 391:stm32f4xx-hal-driver/Src/stm32f4xx_hal_nor.c ****   */
 392:stm32f4xx-hal-driver/Src/stm32f4xx_hal_nor.c **** __weak void HAL_NOR_MspDeInit(NOR_HandleTypeDef *hnor)
 393:stm32f4xx-hal-driver/Src/stm32f4xx_hal_nor.c **** {
  52              		.loc 1 393 1 is_stmt 1 view -0
  53              		.cfi_startproc
  54              		@ args = 0, pretend = 0, frame = 0
  55              		@ frame_needed = 0, uses_anonymous_args = 0
  56              		@ link register save eliminated.
 394:stm32f4xx-hal-driver/Src/stm32f4xx_hal_nor.c ****   /* Prevent unused argument(s) compilation warning */
 395:stm32f4xx-hal-driver/Src/stm32f4xx_hal_nor.c ****   UNUSED(hnor);
  57              		.loc 1 395 3 view .LVU4
 396:stm32f4xx-hal-driver/Src/stm32f4xx_hal_nor.c **** 
 397:stm32f4xx-hal-driver/Src/stm32f4xx_hal_nor.c ****   /* NOTE : This function Should not be modified, when the callback is needed,
 398:stm32f4xx-hal-driver/Src/stm32f4xx_hal_nor.c ****             the HAL_NOR_MspDeInit could be implemented in the user file
 399:stm32f4xx-hal-driver/Src/stm32f4xx_hal_nor.c ****    */
 400:stm32f4xx-hal-driver/Src/stm32f4xx_hal_nor.c **** }
  58              		.loc 1 400 1 is_stmt 0 view .LVU5
  59 0000 7047     		bx	lr
ARM GAS  /tmp/ccEpvYTV.s 			page 9


  60              		.cfi_endproc
  61              	.LFE242:
  63              		.section	.text.HAL_NOR_DeInit,"ax",%progbits
  64              		.align	1
  65              		.global	HAL_NOR_DeInit
  66              		.syntax unified
  67              		.thumb
  68              		.thumb_func
  69              		.fpu fpv4-sp-d16
  71              	HAL_NOR_DeInit:
  72              	.LVL2:
  73              	.LFB240:
 344:stm32f4xx-hal-driver/Src/stm32f4xx_hal_nor.c **** #if (USE_HAL_NOR_REGISTER_CALLBACKS == 1)
  74              		.loc 1 344 1 is_stmt 1 view -0
  75              		.cfi_startproc
  76              		@ args = 0, pretend = 0, frame = 0
  77              		@ frame_needed = 0, uses_anonymous_args = 0
 344:stm32f4xx-hal-driver/Src/stm32f4xx_hal_nor.c **** #if (USE_HAL_NOR_REGISTER_CALLBACKS == 1)
  78              		.loc 1 344 1 is_stmt 0 view .LVU7
  79 0000 10B5     		push	{r4, lr}
  80              	.LCFI0:
  81              		.cfi_def_cfa_offset 8
  82              		.cfi_offset 4, -8
  83              		.cfi_offset 14, -4
  84 0002 0446     		mov	r4, r0
 355:stm32f4xx-hal-driver/Src/stm32f4xx_hal_nor.c **** #endif /* (USE_HAL_NOR_REGISTER_CALLBACKS) */
  85              		.loc 1 355 3 is_stmt 1 view .LVU8
  86 0004 FFF7FEFF 		bl	HAL_NOR_MspDeInit
  87              	.LVL3:
 359:stm32f4xx-hal-driver/Src/stm32f4xx_hal_nor.c **** 
  88              		.loc 1 359 3 view .LVU9
 359:stm32f4xx-hal-driver/Src/stm32f4xx_hal_nor.c **** 
  89              		.loc 1 359 9 is_stmt 0 view .LVU10
  90 0008 A268     		ldr	r2, [r4, #8]
  91 000a 6168     		ldr	r1, [r4, #4]
  92 000c 2068     		ldr	r0, [r4]
  93 000e FFF7FEFF 		bl	FSMC_NORSRAM_DeInit
  94              	.LVL4:
 362:stm32f4xx-hal-driver/Src/stm32f4xx_hal_nor.c **** 
  95              		.loc 1 362 3 is_stmt 1 view .LVU11
 362:stm32f4xx-hal-driver/Src/stm32f4xx_hal_nor.c **** 
  96              		.loc 1 362 15 is_stmt 0 view .LVU12
  97 0012 0020     		movs	r0, #0
  98 0014 84F84900 		strb	r0, [r4, #73]
 365:stm32f4xx-hal-driver/Src/stm32f4xx_hal_nor.c **** 
  99              		.loc 1 365 3 is_stmt 1 view .LVU13
 365:stm32f4xx-hal-driver/Src/stm32f4xx_hal_nor.c **** 
 100              		.loc 1 365 3 view .LVU14
 101 0018 84F84800 		strb	r0, [r4, #72]
 365:stm32f4xx-hal-driver/Src/stm32f4xx_hal_nor.c **** 
 102              		.loc 1 365 3 view .LVU15
 367:stm32f4xx-hal-driver/Src/stm32f4xx_hal_nor.c **** }
 103              		.loc 1 367 3 view .LVU16
 368:stm32f4xx-hal-driver/Src/stm32f4xx_hal_nor.c **** 
 104              		.loc 1 368 1 is_stmt 0 view .LVU17
 105 001c 10BD     		pop	{r4, pc}
 368:stm32f4xx-hal-driver/Src/stm32f4xx_hal_nor.c **** 
ARM GAS  /tmp/ccEpvYTV.s 			page 10


 106              		.loc 1 368 1 view .LVU18
 107              		.cfi_endproc
 108              	.LFE240:
 110              		.section	.text.HAL_NOR_MspWait,"ax",%progbits
 111              		.align	1
 112              		.weak	HAL_NOR_MspWait
 113              		.syntax unified
 114              		.thumb
 115              		.thumb_func
 116              		.fpu fpv4-sp-d16
 118              	HAL_NOR_MspWait:
 119              	.LVL5:
 120              	.LFB243:
 401:stm32f4xx-hal-driver/Src/stm32f4xx_hal_nor.c **** 
 402:stm32f4xx-hal-driver/Src/stm32f4xx_hal_nor.c **** /**
 403:stm32f4xx-hal-driver/Src/stm32f4xx_hal_nor.c ****   * @brief  NOR MSP Wait for Ready/Busy signal
 404:stm32f4xx-hal-driver/Src/stm32f4xx_hal_nor.c ****   * @param  hnor pointer to a NOR_HandleTypeDef structure that contains
 405:stm32f4xx-hal-driver/Src/stm32f4xx_hal_nor.c ****   *                the configuration information for NOR module.
 406:stm32f4xx-hal-driver/Src/stm32f4xx_hal_nor.c ****   * @param  Timeout Maximum timeout value
 407:stm32f4xx-hal-driver/Src/stm32f4xx_hal_nor.c ****   * @retval None
 408:stm32f4xx-hal-driver/Src/stm32f4xx_hal_nor.c ****   */
 409:stm32f4xx-hal-driver/Src/stm32f4xx_hal_nor.c **** __weak void HAL_NOR_MspWait(NOR_HandleTypeDef *hnor, uint32_t Timeout)
 410:stm32f4xx-hal-driver/Src/stm32f4xx_hal_nor.c **** {
 121              		.loc 1 410 1 is_stmt 1 view -0
 122              		.cfi_startproc
 123              		@ args = 0, pretend = 0, frame = 0
 124              		@ frame_needed = 0, uses_anonymous_args = 0
 125              		@ link register save eliminated.
 411:stm32f4xx-hal-driver/Src/stm32f4xx_hal_nor.c ****   /* Prevent unused argument(s) compilation warning */
 412:stm32f4xx-hal-driver/Src/stm32f4xx_hal_nor.c ****   UNUSED(hnor);
 126              		.loc 1 412 3 view .LVU20
 413:stm32f4xx-hal-driver/Src/stm32f4xx_hal_nor.c ****   UNUSED(Timeout);
 127              		.loc 1 413 3 view .LVU21
 414:stm32f4xx-hal-driver/Src/stm32f4xx_hal_nor.c **** 
 415:stm32f4xx-hal-driver/Src/stm32f4xx_hal_nor.c ****   /* NOTE : This function Should not be modified, when the callback is needed,
 416:stm32f4xx-hal-driver/Src/stm32f4xx_hal_nor.c ****             the HAL_NOR_MspWait could be implemented in the user file
 417:stm32f4xx-hal-driver/Src/stm32f4xx_hal_nor.c ****    */
 418:stm32f4xx-hal-driver/Src/stm32f4xx_hal_nor.c **** }
 128              		.loc 1 418 1 is_stmt 0 view .LVU22
 129 0000 7047     		bx	lr
 130              		.cfi_endproc
 131              	.LFE243:
 133              		.section	.text.HAL_NOR_Read_ID,"ax",%progbits
 134              		.align	1
 135              		.global	HAL_NOR_Read_ID
 136              		.syntax unified
 137              		.thumb
 138              		.thumb_func
 139              		.fpu fpv4-sp-d16
 141              	HAL_NOR_Read_ID:
 142              	.LVL6:
 143              	.LFB244:
 419:stm32f4xx-hal-driver/Src/stm32f4xx_hal_nor.c **** 
 420:stm32f4xx-hal-driver/Src/stm32f4xx_hal_nor.c **** /**
 421:stm32f4xx-hal-driver/Src/stm32f4xx_hal_nor.c ****   * @}
 422:stm32f4xx-hal-driver/Src/stm32f4xx_hal_nor.c ****   */
 423:stm32f4xx-hal-driver/Src/stm32f4xx_hal_nor.c **** 
ARM GAS  /tmp/ccEpvYTV.s 			page 11


 424:stm32f4xx-hal-driver/Src/stm32f4xx_hal_nor.c **** /** @defgroup NOR_Exported_Functions_Group2 Input and Output functions
 425:stm32f4xx-hal-driver/Src/stm32f4xx_hal_nor.c ****   * @brief    Input Output and memory control functions
 426:stm32f4xx-hal-driver/Src/stm32f4xx_hal_nor.c ****   *
 427:stm32f4xx-hal-driver/Src/stm32f4xx_hal_nor.c ****   @verbatim
 428:stm32f4xx-hal-driver/Src/stm32f4xx_hal_nor.c ****   ==============================================================================
 429:stm32f4xx-hal-driver/Src/stm32f4xx_hal_nor.c ****                 ##### NOR Input and Output functions #####
 430:stm32f4xx-hal-driver/Src/stm32f4xx_hal_nor.c ****   ==============================================================================
 431:stm32f4xx-hal-driver/Src/stm32f4xx_hal_nor.c ****   [..]
 432:stm32f4xx-hal-driver/Src/stm32f4xx_hal_nor.c ****     This section provides functions allowing to use and control the NOR memory
 433:stm32f4xx-hal-driver/Src/stm32f4xx_hal_nor.c **** 
 434:stm32f4xx-hal-driver/Src/stm32f4xx_hal_nor.c **** @endverbatim
 435:stm32f4xx-hal-driver/Src/stm32f4xx_hal_nor.c ****   * @{
 436:stm32f4xx-hal-driver/Src/stm32f4xx_hal_nor.c ****   */
 437:stm32f4xx-hal-driver/Src/stm32f4xx_hal_nor.c **** 
 438:stm32f4xx-hal-driver/Src/stm32f4xx_hal_nor.c **** /**
 439:stm32f4xx-hal-driver/Src/stm32f4xx_hal_nor.c ****   * @brief  Read NOR flash IDs
 440:stm32f4xx-hal-driver/Src/stm32f4xx_hal_nor.c ****   * @param  hnor pointer to a NOR_HandleTypeDef structure that contains
 441:stm32f4xx-hal-driver/Src/stm32f4xx_hal_nor.c ****   *                the configuration information for NOR module.
 442:stm32f4xx-hal-driver/Src/stm32f4xx_hal_nor.c ****   * @param  pNOR_ID  pointer to NOR ID structure
 443:stm32f4xx-hal-driver/Src/stm32f4xx_hal_nor.c ****   * @retval HAL status
 444:stm32f4xx-hal-driver/Src/stm32f4xx_hal_nor.c ****   */
 445:stm32f4xx-hal-driver/Src/stm32f4xx_hal_nor.c **** HAL_StatusTypeDef HAL_NOR_Read_ID(NOR_HandleTypeDef *hnor, NOR_IDTypeDef *pNOR_ID)
 446:stm32f4xx-hal-driver/Src/stm32f4xx_hal_nor.c **** {
 144              		.loc 1 446 1 is_stmt 1 view -0
 145              		.cfi_startproc
 146              		@ args = 0, pretend = 0, frame = 0
 147              		@ frame_needed = 0, uses_anonymous_args = 0
 148              		@ link register save eliminated.
 447:stm32f4xx-hal-driver/Src/stm32f4xx_hal_nor.c ****   uint32_t deviceaddress;
 149              		.loc 1 447 3 view .LVU24
 448:stm32f4xx-hal-driver/Src/stm32f4xx_hal_nor.c ****   HAL_NOR_StateTypeDef state;
 150              		.loc 1 448 3 view .LVU25
 449:stm32f4xx-hal-driver/Src/stm32f4xx_hal_nor.c ****   HAL_StatusTypeDef status = HAL_OK;
 151              		.loc 1 449 3 view .LVU26
 450:stm32f4xx-hal-driver/Src/stm32f4xx_hal_nor.c **** 
 451:stm32f4xx-hal-driver/Src/stm32f4xx_hal_nor.c ****   /* Check the NOR controller state */
 452:stm32f4xx-hal-driver/Src/stm32f4xx_hal_nor.c ****   state = hnor->State;
 152              		.loc 1 452 3 view .LVU27
 153              		.loc 1 452 9 is_stmt 0 view .LVU28
 154 0000 90F84920 		ldrb	r2, [r0, #73]	@ zero_extendqisi2
 155 0004 D2B2     		uxtb	r2, r2
 156              	.LVL7:
 453:stm32f4xx-hal-driver/Src/stm32f4xx_hal_nor.c ****   if (state == HAL_NOR_STATE_BUSY)
 157              		.loc 1 453 3 is_stmt 1 view .LVU29
 158              		.loc 1 453 6 is_stmt 0 view .LVU30
 159 0006 022A     		cmp	r2, #2
 160 0008 00F0A380 		beq	.L31
 161 000c 0346     		mov	r3, r0
 454:stm32f4xx-hal-driver/Src/stm32f4xx_hal_nor.c ****   {
 455:stm32f4xx-hal-driver/Src/stm32f4xx_hal_nor.c ****     return HAL_BUSY;
 456:stm32f4xx-hal-driver/Src/stm32f4xx_hal_nor.c ****   }
 457:stm32f4xx-hal-driver/Src/stm32f4xx_hal_nor.c ****   else if (state == HAL_NOR_STATE_PROTECTED)
 162              		.loc 1 457 8 is_stmt 1 view .LVU31
 163              		.loc 1 457 11 is_stmt 0 view .LVU32
 164 000e 042A     		cmp	r2, #4
 165 0010 00F0A180 		beq	.L32
 458:stm32f4xx-hal-driver/Src/stm32f4xx_hal_nor.c ****   {
ARM GAS  /tmp/ccEpvYTV.s 			page 12


 459:stm32f4xx-hal-driver/Src/stm32f4xx_hal_nor.c ****     return HAL_ERROR;
 460:stm32f4xx-hal-driver/Src/stm32f4xx_hal_nor.c ****   }
 461:stm32f4xx-hal-driver/Src/stm32f4xx_hal_nor.c ****   else if (state == HAL_NOR_STATE_READY)
 166              		.loc 1 461 8 is_stmt 1 view .LVU33
 167              		.loc 1 461 11 is_stmt 0 view .LVU34
 168 0014 012A     		cmp	r2, #1
 169 0016 40F0A080 		bne	.L33
 462:stm32f4xx-hal-driver/Src/stm32f4xx_hal_nor.c ****   {
 463:stm32f4xx-hal-driver/Src/stm32f4xx_hal_nor.c ****     /* Process Locked */
 464:stm32f4xx-hal-driver/Src/stm32f4xx_hal_nor.c ****     __HAL_LOCK(hnor);
 170              		.loc 1 464 5 is_stmt 1 view .LVU35
 171              		.loc 1 464 5 view .LVU36
 172 001a 90F84800 		ldrb	r0, [r0, #72]	@ zero_extendqisi2
 173              	.LVL8:
 174              		.loc 1 464 5 is_stmt 0 view .LVU37
 175 001e 0128     		cmp	r0, #1
 176 0020 00F09D80 		beq	.L34
 446:stm32f4xx-hal-driver/Src/stm32f4xx_hal_nor.c ****   uint32_t deviceaddress;
 177              		.loc 1 446 1 discriminator 2 view .LVU38
 178 0024 30B4     		push	{r4, r5}
 179              	.LCFI1:
 180              		.cfi_def_cfa_offset 8
 181              		.cfi_offset 4, -8
 182              		.cfi_offset 5, -4
 183              		.loc 1 464 5 is_stmt 1 discriminator 2 view .LVU39
 184 0026 0120     		movs	r0, #1
 185 0028 83F84800 		strb	r0, [r3, #72]
 186              		.loc 1 464 5 discriminator 2 view .LVU40
 465:stm32f4xx-hal-driver/Src/stm32f4xx_hal_nor.c **** 
 466:stm32f4xx-hal-driver/Src/stm32f4xx_hal_nor.c ****     /* Update the NOR controller state */
 467:stm32f4xx-hal-driver/Src/stm32f4xx_hal_nor.c ****     hnor->State = HAL_NOR_STATE_BUSY;
 187              		.loc 1 467 5 discriminator 2 view .LVU41
 188              		.loc 1 467 17 is_stmt 0 discriminator 2 view .LVU42
 189 002c 0220     		movs	r0, #2
 190 002e 83F84900 		strb	r0, [r3, #73]
 468:stm32f4xx-hal-driver/Src/stm32f4xx_hal_nor.c **** 
 469:stm32f4xx-hal-driver/Src/stm32f4xx_hal_nor.c ****     /* Select the NOR device address */
 470:stm32f4xx-hal-driver/Src/stm32f4xx_hal_nor.c ****     if (hnor->Init.NSBank == FMC_NORSRAM_BANK1)
 191              		.loc 1 470 5 is_stmt 1 discriminator 2 view .LVU43
 192              		.loc 1 470 19 is_stmt 0 discriminator 2 view .LVU44
 193 0032 9868     		ldr	r0, [r3, #8]
 194              		.loc 1 470 8 discriminator 2 view .LVU45
 195 0034 48B1     		cbz	r0, .L35
 471:stm32f4xx-hal-driver/Src/stm32f4xx_hal_nor.c ****     {
 472:stm32f4xx-hal-driver/Src/stm32f4xx_hal_nor.c ****       deviceaddress = NOR_MEMORY_ADRESS1;
 473:stm32f4xx-hal-driver/Src/stm32f4xx_hal_nor.c ****     }
 474:stm32f4xx-hal-driver/Src/stm32f4xx_hal_nor.c ****     else if (hnor->Init.NSBank == FMC_NORSRAM_BANK2)
 196              		.loc 1 474 10 is_stmt 1 view .LVU46
 197              		.loc 1 474 13 is_stmt 0 view .LVU47
 198 0036 0228     		cmp	r0, #2
 199 0038 10D0     		beq	.L36
 475:stm32f4xx-hal-driver/Src/stm32f4xx_hal_nor.c ****     {
 476:stm32f4xx-hal-driver/Src/stm32f4xx_hal_nor.c ****       deviceaddress = NOR_MEMORY_ADRESS2;
 477:stm32f4xx-hal-driver/Src/stm32f4xx_hal_nor.c ****     }
 478:stm32f4xx-hal-driver/Src/stm32f4xx_hal_nor.c ****     else if (hnor->Init.NSBank == FMC_NORSRAM_BANK3)
 200              		.loc 1 478 10 is_stmt 1 view .LVU48
 201              		.loc 1 478 13 is_stmt 0 view .LVU49
ARM GAS  /tmp/ccEpvYTV.s 			page 13


 202 003a 0428     		cmp	r0, #4
 203 003c 02D0     		beq	.L43
 479:stm32f4xx-hal-driver/Src/stm32f4xx_hal_nor.c ****     {
 480:stm32f4xx-hal-driver/Src/stm32f4xx_hal_nor.c ****       deviceaddress = NOR_MEMORY_ADRESS3;
 481:stm32f4xx-hal-driver/Src/stm32f4xx_hal_nor.c ****     }
 482:stm32f4xx-hal-driver/Src/stm32f4xx_hal_nor.c ****     else /* FMC_NORSRAM_BANK4 */
 483:stm32f4xx-hal-driver/Src/stm32f4xx_hal_nor.c ****     {
 484:stm32f4xx-hal-driver/Src/stm32f4xx_hal_nor.c ****       deviceaddress = NOR_MEMORY_ADRESS4;
 204              		.loc 1 484 21 view .LVU50
 205 003e 4FF0D840 		mov	r0, #1811939328
 206 0042 04E0     		b	.L8
 207              	.L43:
 480:stm32f4xx-hal-driver/Src/stm32f4xx_hal_nor.c ****     }
 208              		.loc 1 480 21 view .LVU51
 209 0044 4FF0D040 		mov	r0, #1744830464
 210 0048 01E0     		b	.L8
 211              	.L35:
 472:stm32f4xx-hal-driver/Src/stm32f4xx_hal_nor.c ****     }
 212              		.loc 1 472 21 view .LVU52
 213 004a 4FF0C040 		mov	r0, #1610612736
 214              	.L8:
 215              	.LVL9:
 485:stm32f4xx-hal-driver/Src/stm32f4xx_hal_nor.c ****     }
 486:stm32f4xx-hal-driver/Src/stm32f4xx_hal_nor.c **** 
 487:stm32f4xx-hal-driver/Src/stm32f4xx_hal_nor.c ****     /* Send read ID command */
 488:stm32f4xx-hal-driver/Src/stm32f4xx_hal_nor.c ****     if (hnor->CommandSet == NOR_AMD_FUJITSU_COMMAND_SET)
 216              		.loc 1 488 5 is_stmt 1 view .LVU53
 217              		.loc 1 488 13 is_stmt 0 view .LVU54
 218 004e DC6C     		ldr	r4, [r3, #76]
 219              		.loc 1 488 8 view .LVU55
 220 0050 022C     		cmp	r4, #2
 221 0052 06D0     		beq	.L44
 489:stm32f4xx-hal-driver/Src/stm32f4xx_hal_nor.c ****     {
 490:stm32f4xx-hal-driver/Src/stm32f4xx_hal_nor.c ****       if (uwNORMemoryDataWidth == NOR_MEMORY_8B)
 491:stm32f4xx-hal-driver/Src/stm32f4xx_hal_nor.c ****       {
 492:stm32f4xx-hal-driver/Src/stm32f4xx_hal_nor.c ****         NOR_WRITE(NOR_ADDR_SHIFT(deviceaddress, uwNORMemoryDataWidth, NOR_CMD_ADDRESS_FIRST_BYTE),
 493:stm32f4xx-hal-driver/Src/stm32f4xx_hal_nor.c ****                   NOR_CMD_DATA_FIRST);
 494:stm32f4xx-hal-driver/Src/stm32f4xx_hal_nor.c ****         NOR_WRITE(NOR_ADDR_SHIFT(deviceaddress, uwNORMemoryDataWidth, NOR_CMD_ADDRESS_SECOND_BYTE),
 495:stm32f4xx-hal-driver/Src/stm32f4xx_hal_nor.c ****                   NOR_CMD_DATA_SECOND);
 496:stm32f4xx-hal-driver/Src/stm32f4xx_hal_nor.c ****         NOR_WRITE(NOR_ADDR_SHIFT(deviceaddress, uwNORMemoryDataWidth, NOR_CMD_ADDRESS_THIRD_BYTE),
 497:stm32f4xx-hal-driver/Src/stm32f4xx_hal_nor.c ****                   NOR_CMD_DATA_AUTO_SELECT);
 498:stm32f4xx-hal-driver/Src/stm32f4xx_hal_nor.c ****       }
 499:stm32f4xx-hal-driver/Src/stm32f4xx_hal_nor.c ****       else
 500:stm32f4xx-hal-driver/Src/stm32f4xx_hal_nor.c ****       {
 501:stm32f4xx-hal-driver/Src/stm32f4xx_hal_nor.c ****         NOR_WRITE(NOR_ADDR_SHIFT(deviceaddress, uwNORMemoryDataWidth, NOR_CMD_ADDRESS_FIRST), NOR_C
 502:stm32f4xx-hal-driver/Src/stm32f4xx_hal_nor.c ****         NOR_WRITE(NOR_ADDR_SHIFT(deviceaddress, uwNORMemoryDataWidth, NOR_CMD_ADDRESS_SECOND), NOR_
 503:stm32f4xx-hal-driver/Src/stm32f4xx_hal_nor.c ****         NOR_WRITE(NOR_ADDR_SHIFT(deviceaddress, uwNORMemoryDataWidth, NOR_CMD_ADDRESS_THIRD),
 504:stm32f4xx-hal-driver/Src/stm32f4xx_hal_nor.c ****                   NOR_CMD_DATA_AUTO_SELECT);
 505:stm32f4xx-hal-driver/Src/stm32f4xx_hal_nor.c ****       }
 506:stm32f4xx-hal-driver/Src/stm32f4xx_hal_nor.c ****     }
 507:stm32f4xx-hal-driver/Src/stm32f4xx_hal_nor.c ****     else if (hnor->CommandSet == NOR_INTEL_SHARP_EXT_COMMAND_SET)
 222              		.loc 1 507 10 is_stmt 1 view .LVU56
 223              		.loc 1 507 13 is_stmt 0 view .LVU57
 224 0054 012C     		cmp	r4, #1
 225 0056 55D0     		beq	.L45
 508:stm32f4xx-hal-driver/Src/stm32f4xx_hal_nor.c ****     {
 509:stm32f4xx-hal-driver/Src/stm32f4xx_hal_nor.c ****       NOR_WRITE(deviceaddress, NOR_CMD_DATA_AUTO_SELECT);
ARM GAS  /tmp/ccEpvYTV.s 			page 14


 510:stm32f4xx-hal-driver/Src/stm32f4xx_hal_nor.c ****     }
 511:stm32f4xx-hal-driver/Src/stm32f4xx_hal_nor.c ****     else
 512:stm32f4xx-hal-driver/Src/stm32f4xx_hal_nor.c ****     {
 513:stm32f4xx-hal-driver/Src/stm32f4xx_hal_nor.c ****       /* Primary command set not supported by the driver */
 514:stm32f4xx-hal-driver/Src/stm32f4xx_hal_nor.c ****       status = HAL_ERROR;
 226              		.loc 1 514 14 view .LVU58
 227 0058 1046     		mov	r0, r2
 228              	.LVL10:
 229              		.loc 1 514 14 view .LVU59
 230 005a 6CE0     		b	.L24
 231              	.L36:
 476:stm32f4xx-hal-driver/Src/stm32f4xx_hal_nor.c ****     }
 232              		.loc 1 476 21 view .LVU60
 233 005c 4FF0C840 		mov	r0, #1677721600
 234 0060 F5E7     		b	.L8
 235              	.LVL11:
 236              	.L44:
 490:stm32f4xx-hal-driver/Src/stm32f4xx_hal_nor.c ****       {
 237              		.loc 1 490 7 is_stmt 1 view .LVU61
 490:stm32f4xx-hal-driver/Src/stm32f4xx_hal_nor.c ****       {
 238              		.loc 1 490 32 is_stmt 0 view .LVU62
 239 0062 404C     		ldr	r4, .L55
 240 0064 2468     		ldr	r4, [r4]
 490:stm32f4xx-hal-driver/Src/stm32f4xx_hal_nor.c ****       {
 241              		.loc 1 490 10 view .LVU63
 242 0066 3CBB     		cbnz	r4, .L10
 492:stm32f4xx-hal-driver/Src/stm32f4xx_hal_nor.c ****                   NOR_CMD_DATA_FIRST);
 243              		.loc 1 492 9 is_stmt 1 view .LVU64
 492:stm32f4xx-hal-driver/Src/stm32f4xx_hal_nor.c ****                   NOR_CMD_DATA_FIRST);
 244              		.loc 1 492 9 view .LVU65
 245 0068 012C     		cmp	r4, #1
 246 006a 1AD0     		beq	.L46
 492:stm32f4xx-hal-driver/Src/stm32f4xx_hal_nor.c ****                   NOR_CMD_DATA_FIRST);
 247              		.loc 1 492 9 is_stmt 0 discriminator 2 view .LVU66
 248 006c 00F6AA24 		addw	r4, r0, #2730
 249              	.L12:
 492:stm32f4xx-hal-driver/Src/stm32f4xx_hal_nor.c ****                   NOR_CMD_DATA_FIRST);
 250              		.loc 1 492 9 discriminator 4 view .LVU67
 251 0070 AA25     		movs	r5, #170
 252 0072 2580     		strh	r5, [r4]	@ movhi
 492:stm32f4xx-hal-driver/Src/stm32f4xx_hal_nor.c ****                   NOR_CMD_DATA_FIRST);
 253              		.loc 1 492 9 is_stmt 1 discriminator 4 view .LVU68
 254              	.LBB144:
 255              	.LBI144:
 256              		.file 2 "CMSIS_5/CMSIS/Core/Include/cmsis_gcc.h"
   1:CMSIS_5/CMSIS/Core/Include/cmsis_gcc.h **** /**************************************************************************//**
   2:CMSIS_5/CMSIS/Core/Include/cmsis_gcc.h ****  * @file     cmsis_gcc.h
   3:CMSIS_5/CMSIS/Core/Include/cmsis_gcc.h ****  * @brief    CMSIS compiler GCC header file
   4:CMSIS_5/CMSIS/Core/Include/cmsis_gcc.h ****  * @version  V5.4.2
   5:CMSIS_5/CMSIS/Core/Include/cmsis_gcc.h ****  * @date     17. December 2022
   6:CMSIS_5/CMSIS/Core/Include/cmsis_gcc.h ****  ******************************************************************************/
   7:CMSIS_5/CMSIS/Core/Include/cmsis_gcc.h **** /*
   8:CMSIS_5/CMSIS/Core/Include/cmsis_gcc.h ****  * Copyright (c) 2009-2021 Arm Limited. All rights reserved.
   9:CMSIS_5/CMSIS/Core/Include/cmsis_gcc.h ****  *
  10:CMSIS_5/CMSIS/Core/Include/cmsis_gcc.h ****  * SPDX-License-Identifier: Apache-2.0
  11:CMSIS_5/CMSIS/Core/Include/cmsis_gcc.h ****  *
  12:CMSIS_5/CMSIS/Core/Include/cmsis_gcc.h ****  * Licensed under the Apache License, Version 2.0 (the License); you may
ARM GAS  /tmp/ccEpvYTV.s 			page 15


  13:CMSIS_5/CMSIS/Core/Include/cmsis_gcc.h ****  * not use this file except in compliance with the License.
  14:CMSIS_5/CMSIS/Core/Include/cmsis_gcc.h ****  * You may obtain a copy of the License at
  15:CMSIS_5/CMSIS/Core/Include/cmsis_gcc.h ****  *
  16:CMSIS_5/CMSIS/Core/Include/cmsis_gcc.h ****  * www.apache.org/licenses/LICENSE-2.0
  17:CMSIS_5/CMSIS/Core/Include/cmsis_gcc.h ****  *
  18:CMSIS_5/CMSIS/Core/Include/cmsis_gcc.h ****  * Unless required by applicable law or agreed to in writing, software
  19:CMSIS_5/CMSIS/Core/Include/cmsis_gcc.h ****  * distributed under the License is distributed on an AS IS BASIS, WITHOUT
  20:CMSIS_5/CMSIS/Core/Include/cmsis_gcc.h ****  * WARRANTIES OR CONDITIONS OF ANY KIND, either express or implied.
  21:CMSIS_5/CMSIS/Core/Include/cmsis_gcc.h ****  * See the License for the specific language governing permissions and
  22:CMSIS_5/CMSIS/Core/Include/cmsis_gcc.h ****  * limitations under the License.
  23:CMSIS_5/CMSIS/Core/Include/cmsis_gcc.h ****  */
  24:CMSIS_5/CMSIS/Core/Include/cmsis_gcc.h **** 
  25:CMSIS_5/CMSIS/Core/Include/cmsis_gcc.h **** #ifndef __CMSIS_GCC_H
  26:CMSIS_5/CMSIS/Core/Include/cmsis_gcc.h **** #define __CMSIS_GCC_H
  27:CMSIS_5/CMSIS/Core/Include/cmsis_gcc.h **** 
  28:CMSIS_5/CMSIS/Core/Include/cmsis_gcc.h **** /* ignore some GCC warnings */
  29:CMSIS_5/CMSIS/Core/Include/cmsis_gcc.h **** #pragma GCC diagnostic push
  30:CMSIS_5/CMSIS/Core/Include/cmsis_gcc.h **** #pragma GCC diagnostic ignored "-Wsign-conversion"
  31:CMSIS_5/CMSIS/Core/Include/cmsis_gcc.h **** #pragma GCC diagnostic ignored "-Wconversion"
  32:CMSIS_5/CMSIS/Core/Include/cmsis_gcc.h **** #pragma GCC diagnostic ignored "-Wunused-parameter"
  33:CMSIS_5/CMSIS/Core/Include/cmsis_gcc.h **** 
  34:CMSIS_5/CMSIS/Core/Include/cmsis_gcc.h **** /* Fallback for __has_builtin */
  35:CMSIS_5/CMSIS/Core/Include/cmsis_gcc.h **** #ifndef __has_builtin
  36:CMSIS_5/CMSIS/Core/Include/cmsis_gcc.h ****   #define __has_builtin(x) (0)
  37:CMSIS_5/CMSIS/Core/Include/cmsis_gcc.h **** #endif
  38:CMSIS_5/CMSIS/Core/Include/cmsis_gcc.h **** 
  39:CMSIS_5/CMSIS/Core/Include/cmsis_gcc.h **** /* CMSIS compiler specific defines */
  40:CMSIS_5/CMSIS/Core/Include/cmsis_gcc.h **** #ifndef   __ASM
  41:CMSIS_5/CMSIS/Core/Include/cmsis_gcc.h ****   #define __ASM                                  __asm
  42:CMSIS_5/CMSIS/Core/Include/cmsis_gcc.h **** #endif
  43:CMSIS_5/CMSIS/Core/Include/cmsis_gcc.h **** #ifndef   __INLINE
  44:CMSIS_5/CMSIS/Core/Include/cmsis_gcc.h ****   #define __INLINE                               inline
  45:CMSIS_5/CMSIS/Core/Include/cmsis_gcc.h **** #endif
  46:CMSIS_5/CMSIS/Core/Include/cmsis_gcc.h **** #ifndef   __STATIC_INLINE
  47:CMSIS_5/CMSIS/Core/Include/cmsis_gcc.h ****   #define __STATIC_INLINE                        static inline
  48:CMSIS_5/CMSIS/Core/Include/cmsis_gcc.h **** #endif
  49:CMSIS_5/CMSIS/Core/Include/cmsis_gcc.h **** #ifndef   __STATIC_FORCEINLINE
  50:CMSIS_5/CMSIS/Core/Include/cmsis_gcc.h ****   #define __STATIC_FORCEINLINE                   __attribute__((always_inline)) static inline
  51:CMSIS_5/CMSIS/Core/Include/cmsis_gcc.h **** #endif
  52:CMSIS_5/CMSIS/Core/Include/cmsis_gcc.h **** #ifndef   __NO_RETURN
  53:CMSIS_5/CMSIS/Core/Include/cmsis_gcc.h ****   #define __NO_RETURN                            __attribute__((__noreturn__))
  54:CMSIS_5/CMSIS/Core/Include/cmsis_gcc.h **** #endif
  55:CMSIS_5/CMSIS/Core/Include/cmsis_gcc.h **** #ifndef   __USED
  56:CMSIS_5/CMSIS/Core/Include/cmsis_gcc.h ****   #define __USED                                 __attribute__((used))
  57:CMSIS_5/CMSIS/Core/Include/cmsis_gcc.h **** #endif
  58:CMSIS_5/CMSIS/Core/Include/cmsis_gcc.h **** #ifndef   __WEAK
  59:CMSIS_5/CMSIS/Core/Include/cmsis_gcc.h ****   #define __WEAK                                 __attribute__((weak))
  60:CMSIS_5/CMSIS/Core/Include/cmsis_gcc.h **** #endif
  61:CMSIS_5/CMSIS/Core/Include/cmsis_gcc.h **** #ifndef   __PACKED
  62:CMSIS_5/CMSIS/Core/Include/cmsis_gcc.h ****   #define __PACKED                               __attribute__((packed, aligned(1)))
  63:CMSIS_5/CMSIS/Core/Include/cmsis_gcc.h **** #endif
  64:CMSIS_5/CMSIS/Core/Include/cmsis_gcc.h **** #ifndef   __PACKED_STRUCT
  65:CMSIS_5/CMSIS/Core/Include/cmsis_gcc.h ****   #define __PACKED_STRUCT                        struct __attribute__((packed, aligned(1)))
  66:CMSIS_5/CMSIS/Core/Include/cmsis_gcc.h **** #endif
  67:CMSIS_5/CMSIS/Core/Include/cmsis_gcc.h **** #ifndef   __PACKED_UNION
  68:CMSIS_5/CMSIS/Core/Include/cmsis_gcc.h ****   #define __PACKED_UNION                         union __attribute__((packed, aligned(1)))
  69:CMSIS_5/CMSIS/Core/Include/cmsis_gcc.h **** #endif
ARM GAS  /tmp/ccEpvYTV.s 			page 16


  70:CMSIS_5/CMSIS/Core/Include/cmsis_gcc.h **** #ifndef   __UNALIGNED_UINT32        /* deprecated */
  71:CMSIS_5/CMSIS/Core/Include/cmsis_gcc.h ****   #pragma GCC diagnostic push
  72:CMSIS_5/CMSIS/Core/Include/cmsis_gcc.h ****   #pragma GCC diagnostic ignored "-Wpacked"
  73:CMSIS_5/CMSIS/Core/Include/cmsis_gcc.h ****   #pragma GCC diagnostic ignored "-Wattributes"
  74:CMSIS_5/CMSIS/Core/Include/cmsis_gcc.h ****   struct __attribute__((packed)) T_UINT32 { uint32_t v; };
  75:CMSIS_5/CMSIS/Core/Include/cmsis_gcc.h ****   #pragma GCC diagnostic pop
  76:CMSIS_5/CMSIS/Core/Include/cmsis_gcc.h ****   #define __UNALIGNED_UINT32(x)                  (((struct T_UINT32 *)(x))->v)
  77:CMSIS_5/CMSIS/Core/Include/cmsis_gcc.h **** #endif
  78:CMSIS_5/CMSIS/Core/Include/cmsis_gcc.h **** #ifndef   __UNALIGNED_UINT16_WRITE
  79:CMSIS_5/CMSIS/Core/Include/cmsis_gcc.h ****   #pragma GCC diagnostic push
  80:CMSIS_5/CMSIS/Core/Include/cmsis_gcc.h ****   #pragma GCC diagnostic ignored "-Wpacked"
  81:CMSIS_5/CMSIS/Core/Include/cmsis_gcc.h ****   #pragma GCC diagnostic ignored "-Wattributes"
  82:CMSIS_5/CMSIS/Core/Include/cmsis_gcc.h ****   __PACKED_STRUCT T_UINT16_WRITE { uint16_t v; };
  83:CMSIS_5/CMSIS/Core/Include/cmsis_gcc.h ****   #pragma GCC diagnostic pop
  84:CMSIS_5/CMSIS/Core/Include/cmsis_gcc.h ****   #define __UNALIGNED_UINT16_WRITE(addr, val)    (void)((((struct T_UINT16_WRITE *)(void *)(addr))-
  85:CMSIS_5/CMSIS/Core/Include/cmsis_gcc.h **** #endif
  86:CMSIS_5/CMSIS/Core/Include/cmsis_gcc.h **** #ifndef   __UNALIGNED_UINT16_READ
  87:CMSIS_5/CMSIS/Core/Include/cmsis_gcc.h ****   #pragma GCC diagnostic push
  88:CMSIS_5/CMSIS/Core/Include/cmsis_gcc.h ****   #pragma GCC diagnostic ignored "-Wpacked"
  89:CMSIS_5/CMSIS/Core/Include/cmsis_gcc.h ****   #pragma GCC diagnostic ignored "-Wattributes"
  90:CMSIS_5/CMSIS/Core/Include/cmsis_gcc.h ****   __PACKED_STRUCT T_UINT16_READ { uint16_t v; };
  91:CMSIS_5/CMSIS/Core/Include/cmsis_gcc.h ****   #pragma GCC diagnostic pop
  92:CMSIS_5/CMSIS/Core/Include/cmsis_gcc.h ****   #define __UNALIGNED_UINT16_READ(addr)          (((const struct T_UINT16_READ *)(const void *)(add
  93:CMSIS_5/CMSIS/Core/Include/cmsis_gcc.h **** #endif
  94:CMSIS_5/CMSIS/Core/Include/cmsis_gcc.h **** #ifndef   __UNALIGNED_UINT32_WRITE
  95:CMSIS_5/CMSIS/Core/Include/cmsis_gcc.h ****   #pragma GCC diagnostic push
  96:CMSIS_5/CMSIS/Core/Include/cmsis_gcc.h ****   #pragma GCC diagnostic ignored "-Wpacked"
  97:CMSIS_5/CMSIS/Core/Include/cmsis_gcc.h ****   #pragma GCC diagnostic ignored "-Wattributes"
  98:CMSIS_5/CMSIS/Core/Include/cmsis_gcc.h ****   __PACKED_STRUCT T_UINT32_WRITE { uint32_t v; };
  99:CMSIS_5/CMSIS/Core/Include/cmsis_gcc.h ****   #pragma GCC diagnostic pop
 100:CMSIS_5/CMSIS/Core/Include/cmsis_gcc.h ****   #define __UNALIGNED_UINT32_WRITE(addr, val)    (void)((((struct T_UINT32_WRITE *)(void *)(addr))-
 101:CMSIS_5/CMSIS/Core/Include/cmsis_gcc.h **** #endif
 102:CMSIS_5/CMSIS/Core/Include/cmsis_gcc.h **** #ifndef   __UNALIGNED_UINT32_READ
 103:CMSIS_5/CMSIS/Core/Include/cmsis_gcc.h ****   #pragma GCC diagnostic push
 104:CMSIS_5/CMSIS/Core/Include/cmsis_gcc.h ****   #pragma GCC diagnostic ignored "-Wpacked"
 105:CMSIS_5/CMSIS/Core/Include/cmsis_gcc.h ****   #pragma GCC diagnostic ignored "-Wattributes"
 106:CMSIS_5/CMSIS/Core/Include/cmsis_gcc.h ****   __PACKED_STRUCT T_UINT32_READ { uint32_t v; };
 107:CMSIS_5/CMSIS/Core/Include/cmsis_gcc.h ****   #pragma GCC diagnostic pop
 108:CMSIS_5/CMSIS/Core/Include/cmsis_gcc.h ****   #define __UNALIGNED_UINT32_READ(addr)          (((const struct T_UINT32_READ *)(const void *)(add
 109:CMSIS_5/CMSIS/Core/Include/cmsis_gcc.h **** #endif
 110:CMSIS_5/CMSIS/Core/Include/cmsis_gcc.h **** #ifndef   __ALIGNED
 111:CMSIS_5/CMSIS/Core/Include/cmsis_gcc.h ****   #define __ALIGNED(x)                           __attribute__((aligned(x)))
 112:CMSIS_5/CMSIS/Core/Include/cmsis_gcc.h **** #endif
 113:CMSIS_5/CMSIS/Core/Include/cmsis_gcc.h **** #ifndef   __RESTRICT
 114:CMSIS_5/CMSIS/Core/Include/cmsis_gcc.h ****   #define __RESTRICT                             __restrict
 115:CMSIS_5/CMSIS/Core/Include/cmsis_gcc.h **** #endif
 116:CMSIS_5/CMSIS/Core/Include/cmsis_gcc.h **** #ifndef   __COMPILER_BARRIER
 117:CMSIS_5/CMSIS/Core/Include/cmsis_gcc.h ****   #define __COMPILER_BARRIER()                   __ASM volatile("":::"memory")
 118:CMSIS_5/CMSIS/Core/Include/cmsis_gcc.h **** #endif
 119:CMSIS_5/CMSIS/Core/Include/cmsis_gcc.h **** #ifndef __NO_INIT
 120:CMSIS_5/CMSIS/Core/Include/cmsis_gcc.h ****   #define __NO_INIT                              __attribute__ ((section (".bss.noinit")))
 121:CMSIS_5/CMSIS/Core/Include/cmsis_gcc.h **** #endif
 122:CMSIS_5/CMSIS/Core/Include/cmsis_gcc.h **** #ifndef __ALIAS
 123:CMSIS_5/CMSIS/Core/Include/cmsis_gcc.h ****   #define __ALIAS(x)                             __attribute__ ((alias(x)))
 124:CMSIS_5/CMSIS/Core/Include/cmsis_gcc.h **** #endif
 125:CMSIS_5/CMSIS/Core/Include/cmsis_gcc.h **** 
 126:CMSIS_5/CMSIS/Core/Include/cmsis_gcc.h **** /* #########################  Startup and Lowlevel Init  ######################## */
ARM GAS  /tmp/ccEpvYTV.s 			page 17


 127:CMSIS_5/CMSIS/Core/Include/cmsis_gcc.h **** 
 128:CMSIS_5/CMSIS/Core/Include/cmsis_gcc.h **** #ifndef __PROGRAM_START
 129:CMSIS_5/CMSIS/Core/Include/cmsis_gcc.h **** 
 130:CMSIS_5/CMSIS/Core/Include/cmsis_gcc.h **** /**
 131:CMSIS_5/CMSIS/Core/Include/cmsis_gcc.h ****   \brief   Initializes data and bss sections
 132:CMSIS_5/CMSIS/Core/Include/cmsis_gcc.h ****   \details This default implementations initialized all data and additional bss
 133:CMSIS_5/CMSIS/Core/Include/cmsis_gcc.h ****            sections relying on .copy.table and .zero.table specified properly
 134:CMSIS_5/CMSIS/Core/Include/cmsis_gcc.h ****            in the used linker script.
 135:CMSIS_5/CMSIS/Core/Include/cmsis_gcc.h **** 
 136:CMSIS_5/CMSIS/Core/Include/cmsis_gcc.h ****  */
 137:CMSIS_5/CMSIS/Core/Include/cmsis_gcc.h **** __STATIC_FORCEINLINE __NO_RETURN void __cmsis_start(void)
 138:CMSIS_5/CMSIS/Core/Include/cmsis_gcc.h **** {
 139:CMSIS_5/CMSIS/Core/Include/cmsis_gcc.h ****   extern void _start(void) __NO_RETURN;
 140:CMSIS_5/CMSIS/Core/Include/cmsis_gcc.h **** 
 141:CMSIS_5/CMSIS/Core/Include/cmsis_gcc.h ****   typedef struct __copy_table {
 142:CMSIS_5/CMSIS/Core/Include/cmsis_gcc.h ****     uint32_t const* src;
 143:CMSIS_5/CMSIS/Core/Include/cmsis_gcc.h ****     uint32_t* dest;
 144:CMSIS_5/CMSIS/Core/Include/cmsis_gcc.h ****     uint32_t  wlen;
 145:CMSIS_5/CMSIS/Core/Include/cmsis_gcc.h ****   } __copy_table_t;
 146:CMSIS_5/CMSIS/Core/Include/cmsis_gcc.h **** 
 147:CMSIS_5/CMSIS/Core/Include/cmsis_gcc.h ****   typedef struct __zero_table {
 148:CMSIS_5/CMSIS/Core/Include/cmsis_gcc.h ****     uint32_t* dest;
 149:CMSIS_5/CMSIS/Core/Include/cmsis_gcc.h ****     uint32_t  wlen;
 150:CMSIS_5/CMSIS/Core/Include/cmsis_gcc.h ****   } __zero_table_t;
 151:CMSIS_5/CMSIS/Core/Include/cmsis_gcc.h **** 
 152:CMSIS_5/CMSIS/Core/Include/cmsis_gcc.h ****   extern const __copy_table_t __copy_table_start__;
 153:CMSIS_5/CMSIS/Core/Include/cmsis_gcc.h ****   extern const __copy_table_t __copy_table_end__;
 154:CMSIS_5/CMSIS/Core/Include/cmsis_gcc.h ****   extern const __zero_table_t __zero_table_start__;
 155:CMSIS_5/CMSIS/Core/Include/cmsis_gcc.h ****   extern const __zero_table_t __zero_table_end__;
 156:CMSIS_5/CMSIS/Core/Include/cmsis_gcc.h **** 
 157:CMSIS_5/CMSIS/Core/Include/cmsis_gcc.h ****   for (__copy_table_t const* pTable = &__copy_table_start__; pTable < &__copy_table_end__; ++pTable
 158:CMSIS_5/CMSIS/Core/Include/cmsis_gcc.h ****     for(uint32_t i=0u; i<pTable->wlen; ++i) {
 159:CMSIS_5/CMSIS/Core/Include/cmsis_gcc.h ****       pTable->dest[i] = pTable->src[i];
 160:CMSIS_5/CMSIS/Core/Include/cmsis_gcc.h ****     }
 161:CMSIS_5/CMSIS/Core/Include/cmsis_gcc.h ****   }
 162:CMSIS_5/CMSIS/Core/Include/cmsis_gcc.h **** 
 163:CMSIS_5/CMSIS/Core/Include/cmsis_gcc.h ****   for (__zero_table_t const* pTable = &__zero_table_start__; pTable < &__zero_table_end__; ++pTable
 164:CMSIS_5/CMSIS/Core/Include/cmsis_gcc.h ****     for(uint32_t i=0u; i<pTable->wlen; ++i) {
 165:CMSIS_5/CMSIS/Core/Include/cmsis_gcc.h ****       pTable->dest[i] = 0u;
 166:CMSIS_5/CMSIS/Core/Include/cmsis_gcc.h ****     }
 167:CMSIS_5/CMSIS/Core/Include/cmsis_gcc.h ****   }
 168:CMSIS_5/CMSIS/Core/Include/cmsis_gcc.h **** 
 169:CMSIS_5/CMSIS/Core/Include/cmsis_gcc.h ****   _start();
 170:CMSIS_5/CMSIS/Core/Include/cmsis_gcc.h **** }
 171:CMSIS_5/CMSIS/Core/Include/cmsis_gcc.h **** 
 172:CMSIS_5/CMSIS/Core/Include/cmsis_gcc.h **** #define __PROGRAM_START           __cmsis_start
 173:CMSIS_5/CMSIS/Core/Include/cmsis_gcc.h **** #endif
 174:CMSIS_5/CMSIS/Core/Include/cmsis_gcc.h **** 
 175:CMSIS_5/CMSIS/Core/Include/cmsis_gcc.h **** #ifndef __INITIAL_SP
 176:CMSIS_5/CMSIS/Core/Include/cmsis_gcc.h **** #define __INITIAL_SP              __StackTop
 177:CMSIS_5/CMSIS/Core/Include/cmsis_gcc.h **** #endif
 178:CMSIS_5/CMSIS/Core/Include/cmsis_gcc.h **** 
 179:CMSIS_5/CMSIS/Core/Include/cmsis_gcc.h **** #ifndef __STACK_LIMIT
 180:CMSIS_5/CMSIS/Core/Include/cmsis_gcc.h **** #define __STACK_LIMIT             __StackLimit
 181:CMSIS_5/CMSIS/Core/Include/cmsis_gcc.h **** #endif
 182:CMSIS_5/CMSIS/Core/Include/cmsis_gcc.h **** 
 183:CMSIS_5/CMSIS/Core/Include/cmsis_gcc.h **** #ifndef __VECTOR_TABLE
ARM GAS  /tmp/ccEpvYTV.s 			page 18


 184:CMSIS_5/CMSIS/Core/Include/cmsis_gcc.h **** #define __VECTOR_TABLE            __Vectors
 185:CMSIS_5/CMSIS/Core/Include/cmsis_gcc.h **** #endif
 186:CMSIS_5/CMSIS/Core/Include/cmsis_gcc.h **** 
 187:CMSIS_5/CMSIS/Core/Include/cmsis_gcc.h **** #ifndef __VECTOR_TABLE_ATTRIBUTE
 188:CMSIS_5/CMSIS/Core/Include/cmsis_gcc.h **** #define __VECTOR_TABLE_ATTRIBUTE  __attribute__((used, section(".vectors")))
 189:CMSIS_5/CMSIS/Core/Include/cmsis_gcc.h **** #endif
 190:CMSIS_5/CMSIS/Core/Include/cmsis_gcc.h **** 
 191:CMSIS_5/CMSIS/Core/Include/cmsis_gcc.h **** #if defined (__ARM_FEATURE_CMSE) && (__ARM_FEATURE_CMSE == 3U)
 192:CMSIS_5/CMSIS/Core/Include/cmsis_gcc.h **** #ifndef __STACK_SEAL
 193:CMSIS_5/CMSIS/Core/Include/cmsis_gcc.h **** #define __STACK_SEAL              __StackSeal
 194:CMSIS_5/CMSIS/Core/Include/cmsis_gcc.h **** #endif
 195:CMSIS_5/CMSIS/Core/Include/cmsis_gcc.h **** 
 196:CMSIS_5/CMSIS/Core/Include/cmsis_gcc.h **** #ifndef __TZ_STACK_SEAL_SIZE
 197:CMSIS_5/CMSIS/Core/Include/cmsis_gcc.h **** #define __TZ_STACK_SEAL_SIZE      8U
 198:CMSIS_5/CMSIS/Core/Include/cmsis_gcc.h **** #endif
 199:CMSIS_5/CMSIS/Core/Include/cmsis_gcc.h **** 
 200:CMSIS_5/CMSIS/Core/Include/cmsis_gcc.h **** #ifndef __TZ_STACK_SEAL_VALUE
 201:CMSIS_5/CMSIS/Core/Include/cmsis_gcc.h **** #define __TZ_STACK_SEAL_VALUE     0xFEF5EDA5FEF5EDA5ULL
 202:CMSIS_5/CMSIS/Core/Include/cmsis_gcc.h **** #endif
 203:CMSIS_5/CMSIS/Core/Include/cmsis_gcc.h **** 
 204:CMSIS_5/CMSIS/Core/Include/cmsis_gcc.h **** 
 205:CMSIS_5/CMSIS/Core/Include/cmsis_gcc.h **** __STATIC_FORCEINLINE void __TZ_set_STACKSEAL_S (uint32_t* stackTop) {
 206:CMSIS_5/CMSIS/Core/Include/cmsis_gcc.h ****   *((uint64_t *)stackTop) = __TZ_STACK_SEAL_VALUE;
 207:CMSIS_5/CMSIS/Core/Include/cmsis_gcc.h **** }
 208:CMSIS_5/CMSIS/Core/Include/cmsis_gcc.h **** #endif
 209:CMSIS_5/CMSIS/Core/Include/cmsis_gcc.h **** 
 210:CMSIS_5/CMSIS/Core/Include/cmsis_gcc.h **** 
 211:CMSIS_5/CMSIS/Core/Include/cmsis_gcc.h **** /* ##########################  Core Instruction Access  ######################### */
 212:CMSIS_5/CMSIS/Core/Include/cmsis_gcc.h **** /** \defgroup CMSIS_Core_InstructionInterface CMSIS Core Instruction Interface
 213:CMSIS_5/CMSIS/Core/Include/cmsis_gcc.h ****   Access to dedicated instructions
 214:CMSIS_5/CMSIS/Core/Include/cmsis_gcc.h ****   @{
 215:CMSIS_5/CMSIS/Core/Include/cmsis_gcc.h **** */
 216:CMSIS_5/CMSIS/Core/Include/cmsis_gcc.h **** 
 217:CMSIS_5/CMSIS/Core/Include/cmsis_gcc.h **** /* Define macros for porting to both thumb1 and thumb2.
 218:CMSIS_5/CMSIS/Core/Include/cmsis_gcc.h ****  * For thumb1, use low register (r0-r7), specified by constraint "l"
 219:CMSIS_5/CMSIS/Core/Include/cmsis_gcc.h ****  * Otherwise, use general registers, specified by constraint "r" */
 220:CMSIS_5/CMSIS/Core/Include/cmsis_gcc.h **** #if defined (__thumb__) && !defined (__thumb2__)
 221:CMSIS_5/CMSIS/Core/Include/cmsis_gcc.h **** #define __CMSIS_GCC_OUT_REG(r) "=l" (r)
 222:CMSIS_5/CMSIS/Core/Include/cmsis_gcc.h **** #define __CMSIS_GCC_RW_REG(r) "+l" (r)
 223:CMSIS_5/CMSIS/Core/Include/cmsis_gcc.h **** #define __CMSIS_GCC_USE_REG(r) "l" (r)
 224:CMSIS_5/CMSIS/Core/Include/cmsis_gcc.h **** #else
 225:CMSIS_5/CMSIS/Core/Include/cmsis_gcc.h **** #define __CMSIS_GCC_OUT_REG(r) "=r" (r)
 226:CMSIS_5/CMSIS/Core/Include/cmsis_gcc.h **** #define __CMSIS_GCC_RW_REG(r) "+r" (r)
 227:CMSIS_5/CMSIS/Core/Include/cmsis_gcc.h **** #define __CMSIS_GCC_USE_REG(r) "r" (r)
 228:CMSIS_5/CMSIS/Core/Include/cmsis_gcc.h **** #endif
 229:CMSIS_5/CMSIS/Core/Include/cmsis_gcc.h **** 
 230:CMSIS_5/CMSIS/Core/Include/cmsis_gcc.h **** /**
 231:CMSIS_5/CMSIS/Core/Include/cmsis_gcc.h ****   \brief   No Operation
 232:CMSIS_5/CMSIS/Core/Include/cmsis_gcc.h ****   \details No Operation does nothing. This instruction can be used for code alignment purposes.
 233:CMSIS_5/CMSIS/Core/Include/cmsis_gcc.h ****  */
 234:CMSIS_5/CMSIS/Core/Include/cmsis_gcc.h **** #define __NOP()                             __ASM volatile ("nop")
 235:CMSIS_5/CMSIS/Core/Include/cmsis_gcc.h **** 
 236:CMSIS_5/CMSIS/Core/Include/cmsis_gcc.h **** /**
 237:CMSIS_5/CMSIS/Core/Include/cmsis_gcc.h ****   \brief   Wait For Interrupt
 238:CMSIS_5/CMSIS/Core/Include/cmsis_gcc.h ****   \details Wait For Interrupt is a hint instruction that suspends execution until one of a number o
 239:CMSIS_5/CMSIS/Core/Include/cmsis_gcc.h ****  */
 240:CMSIS_5/CMSIS/Core/Include/cmsis_gcc.h **** #define __WFI()                             __ASM volatile ("wfi":::"memory")
ARM GAS  /tmp/ccEpvYTV.s 			page 19


 241:CMSIS_5/CMSIS/Core/Include/cmsis_gcc.h **** 
 242:CMSIS_5/CMSIS/Core/Include/cmsis_gcc.h **** 
 243:CMSIS_5/CMSIS/Core/Include/cmsis_gcc.h **** /**
 244:CMSIS_5/CMSIS/Core/Include/cmsis_gcc.h ****   \brief   Wait For Event
 245:CMSIS_5/CMSIS/Core/Include/cmsis_gcc.h ****   \details Wait For Event is a hint instruction that permits the processor to enter
 246:CMSIS_5/CMSIS/Core/Include/cmsis_gcc.h ****            a low-power state until one of a number of events occurs.
 247:CMSIS_5/CMSIS/Core/Include/cmsis_gcc.h ****  */
 248:CMSIS_5/CMSIS/Core/Include/cmsis_gcc.h **** #define __WFE()                             __ASM volatile ("wfe":::"memory")
 249:CMSIS_5/CMSIS/Core/Include/cmsis_gcc.h **** 
 250:CMSIS_5/CMSIS/Core/Include/cmsis_gcc.h **** 
 251:CMSIS_5/CMSIS/Core/Include/cmsis_gcc.h **** /**
 252:CMSIS_5/CMSIS/Core/Include/cmsis_gcc.h ****   \brief   Send Event
 253:CMSIS_5/CMSIS/Core/Include/cmsis_gcc.h ****   \details Send Event is a hint instruction. It causes an event to be signaled to the CPU.
 254:CMSIS_5/CMSIS/Core/Include/cmsis_gcc.h ****  */
 255:CMSIS_5/CMSIS/Core/Include/cmsis_gcc.h **** #define __SEV()                             __ASM volatile ("sev")
 256:CMSIS_5/CMSIS/Core/Include/cmsis_gcc.h **** 
 257:CMSIS_5/CMSIS/Core/Include/cmsis_gcc.h **** 
 258:CMSIS_5/CMSIS/Core/Include/cmsis_gcc.h **** /**
 259:CMSIS_5/CMSIS/Core/Include/cmsis_gcc.h ****   \brief   Instruction Synchronization Barrier
 260:CMSIS_5/CMSIS/Core/Include/cmsis_gcc.h ****   \details Instruction Synchronization Barrier flushes the pipeline in the processor,
 261:CMSIS_5/CMSIS/Core/Include/cmsis_gcc.h ****            so that all instructions following the ISB are fetched from cache or memory,
 262:CMSIS_5/CMSIS/Core/Include/cmsis_gcc.h ****            after the instruction has been completed.
 263:CMSIS_5/CMSIS/Core/Include/cmsis_gcc.h ****  */
 264:CMSIS_5/CMSIS/Core/Include/cmsis_gcc.h **** __STATIC_FORCEINLINE void __ISB(void)
 265:CMSIS_5/CMSIS/Core/Include/cmsis_gcc.h **** {
 266:CMSIS_5/CMSIS/Core/Include/cmsis_gcc.h ****   __ASM volatile ("isb 0xF":::"memory");
 267:CMSIS_5/CMSIS/Core/Include/cmsis_gcc.h **** }
 268:CMSIS_5/CMSIS/Core/Include/cmsis_gcc.h **** 
 269:CMSIS_5/CMSIS/Core/Include/cmsis_gcc.h **** 
 270:CMSIS_5/CMSIS/Core/Include/cmsis_gcc.h **** /**
 271:CMSIS_5/CMSIS/Core/Include/cmsis_gcc.h ****   \brief   Data Synchronization Barrier
 272:CMSIS_5/CMSIS/Core/Include/cmsis_gcc.h ****   \details Acts as a special kind of Data Memory Barrier.
 273:CMSIS_5/CMSIS/Core/Include/cmsis_gcc.h ****            It completes when all explicit memory accesses before this instruction complete.
 274:CMSIS_5/CMSIS/Core/Include/cmsis_gcc.h ****  */
 275:CMSIS_5/CMSIS/Core/Include/cmsis_gcc.h **** __STATIC_FORCEINLINE void __DSB(void)
 257              		.loc 2 275 27 discriminator 4 view .LVU69
 258              	.LBB145:
 276:CMSIS_5/CMSIS/Core/Include/cmsis_gcc.h **** {
 277:CMSIS_5/CMSIS/Core/Include/cmsis_gcc.h ****   __ASM volatile ("dsb 0xF":::"memory");
 259              		.loc 2 277 3 discriminator 4 view .LVU70
 260              		.syntax unified
 261              	@ 277 "CMSIS_5/CMSIS/Core/Include/cmsis_gcc.h" 1
 262 0074 BFF34F8F 		dsb 0xF
 263              	@ 0 "" 2
 264              		.thumb
 265              		.syntax unified
 266              	.LBE145:
 267              	.LBE144:
 492:stm32f4xx-hal-driver/Src/stm32f4xx_hal_nor.c ****                   NOR_CMD_DATA_FIRST);
 268              		.loc 1 492 9 discriminator 4 view .LVU71
 494:stm32f4xx-hal-driver/Src/stm32f4xx_hal_nor.c ****                   NOR_CMD_DATA_SECOND);
 269              		.loc 1 494 9 discriminator 4 view .LVU72
 494:stm32f4xx-hal-driver/Src/stm32f4xx_hal_nor.c ****                   NOR_CMD_DATA_SECOND);
 270              		.loc 1 494 9 discriminator 4 view .LVU73
 271 0078 3A4C     		ldr	r4, .L55
 272 007a 2468     		ldr	r4, [r4]
 273 007c 012C     		cmp	r4, #1
ARM GAS  /tmp/ccEpvYTV.s 			page 20


 274 007e 14D0     		beq	.L47
 494:stm32f4xx-hal-driver/Src/stm32f4xx_hal_nor.c ****                   NOR_CMD_DATA_SECOND);
 275              		.loc 1 494 9 is_stmt 0 discriminator 2 view .LVU74
 276 0080 00F25555 		addw	r5, r0, #1365
 277              	.L14:
 494:stm32f4xx-hal-driver/Src/stm32f4xx_hal_nor.c ****                   NOR_CMD_DATA_SECOND);
 278              		.loc 1 494 9 discriminator 4 view .LVU75
 279 0084 5524     		movs	r4, #85
 280 0086 2C80     		strh	r4, [r5]	@ movhi
 494:stm32f4xx-hal-driver/Src/stm32f4xx_hal_nor.c ****                   NOR_CMD_DATA_SECOND);
 281              		.loc 1 494 9 is_stmt 1 discriminator 4 view .LVU76
 282              	.LBB146:
 283              	.LBI146:
 275:CMSIS_5/CMSIS/Core/Include/cmsis_gcc.h **** {
 284              		.loc 2 275 27 discriminator 4 view .LVU77
 285              	.LBB147:
 286              		.loc 2 277 3 discriminator 4 view .LVU78
 287              		.syntax unified
 288              	@ 277 "CMSIS_5/CMSIS/Core/Include/cmsis_gcc.h" 1
 289 0088 BFF34F8F 		dsb 0xF
 290              	@ 0 "" 2
 291              		.thumb
 292              		.syntax unified
 293              	.LBE147:
 294              	.LBE146:
 494:stm32f4xx-hal-driver/Src/stm32f4xx_hal_nor.c ****                   NOR_CMD_DATA_SECOND);
 295              		.loc 1 494 9 discriminator 4 view .LVU79
 496:stm32f4xx-hal-driver/Src/stm32f4xx_hal_nor.c ****                   NOR_CMD_DATA_AUTO_SELECT);
 296              		.loc 1 496 9 discriminator 4 view .LVU80
 496:stm32f4xx-hal-driver/Src/stm32f4xx_hal_nor.c ****                   NOR_CMD_DATA_AUTO_SELECT);
 297              		.loc 1 496 9 discriminator 4 view .LVU81
 298 008c 354C     		ldr	r4, .L55
 299 008e 2468     		ldr	r4, [r4]
 300 0090 012C     		cmp	r4, #1
 301 0092 0DD0     		beq	.L48
 496:stm32f4xx-hal-driver/Src/stm32f4xx_hal_nor.c ****                   NOR_CMD_DATA_AUTO_SELECT);
 302              		.loc 1 496 9 is_stmt 0 discriminator 2 view .LVU82
 303 0094 00F6AA24 		addw	r4, r0, #2730
 304              	.L16:
 496:stm32f4xx-hal-driver/Src/stm32f4xx_hal_nor.c ****                   NOR_CMD_DATA_AUTO_SELECT);
 305              		.loc 1 496 9 discriminator 4 view .LVU83
 306 0098 9025     		movs	r5, #144
 307 009a 2580     		strh	r5, [r4]	@ movhi
 496:stm32f4xx-hal-driver/Src/stm32f4xx_hal_nor.c ****                   NOR_CMD_DATA_AUTO_SELECT);
 308              		.loc 1 496 9 is_stmt 1 discriminator 4 view .LVU84
 309              	.LBB148:
 310              	.LBI148:
 275:CMSIS_5/CMSIS/Core/Include/cmsis_gcc.h **** {
 311              		.loc 2 275 27 discriminator 4 view .LVU85
 312              	.LBB149:
 313              		.loc 2 277 3 discriminator 4 view .LVU86
 314              		.syntax unified
 315              	@ 277 "CMSIS_5/CMSIS/Core/Include/cmsis_gcc.h" 1
 316 009c BFF34F8F 		dsb 0xF
 317              	@ 0 "" 2
 318              		.loc 2 277 3 is_stmt 0 discriminator 4 view .LVU87
 319              		.thumb
ARM GAS  /tmp/ccEpvYTV.s 			page 21


 320              		.syntax unified
 321              	.LBE149:
 322              	.LBE148:
 515:stm32f4xx-hal-driver/Src/stm32f4xx_hal_nor.c ****     }
 516:stm32f4xx-hal-driver/Src/stm32f4xx_hal_nor.c **** 
 517:stm32f4xx-hal-driver/Src/stm32f4xx_hal_nor.c ****     if (status != HAL_ERROR)
 323              		.loc 1 517 5 is_stmt 1 discriminator 4 view .LVU88
 324 00a0 34E0     		b	.L17
 325              	.L46:
 492:stm32f4xx-hal-driver/Src/stm32f4xx_hal_nor.c ****                   NOR_CMD_DATA_FIRST);
 326              		.loc 1 492 9 is_stmt 0 discriminator 1 view .LVU89
 327 00a2 00F5AA54 		add	r4, r0, #5440
 328 00a6 1434     		adds	r4, r4, #20
 329 00a8 E2E7     		b	.L12
 330              	.L47:
 494:stm32f4xx-hal-driver/Src/stm32f4xx_hal_nor.c ****                   NOR_CMD_DATA_SECOND);
 331              		.loc 1 494 9 discriminator 1 view .LVU90
 332 00aa 00F6AA25 		addw	r5, r0, #2730
 333 00ae E9E7     		b	.L14
 334              	.L48:
 496:stm32f4xx-hal-driver/Src/stm32f4xx_hal_nor.c ****                   NOR_CMD_DATA_AUTO_SELECT);
 335              		.loc 1 496 9 discriminator 1 view .LVU91
 336 00b0 00F5AA54 		add	r4, r0, #5440
 337 00b4 1434     		adds	r4, r4, #20
 338 00b6 EFE7     		b	.L16
 339              	.L10:
 501:stm32f4xx-hal-driver/Src/stm32f4xx_hal_nor.c ****         NOR_WRITE(NOR_ADDR_SHIFT(deviceaddress, uwNORMemoryDataWidth, NOR_CMD_ADDRESS_SECOND), NOR_
 340              		.loc 1 501 9 is_stmt 1 view .LVU92
 501:stm32f4xx-hal-driver/Src/stm32f4xx_hal_nor.c ****         NOR_WRITE(NOR_ADDR_SHIFT(deviceaddress, uwNORMemoryDataWidth, NOR_CMD_ADDRESS_SECOND), NOR_
 341              		.loc 1 501 9 view .LVU93
 342 00b8 012C     		cmp	r4, #1
 343 00ba 1AD0     		beq	.L49
 501:stm32f4xx-hal-driver/Src/stm32f4xx_hal_nor.c ****         NOR_WRITE(NOR_ADDR_SHIFT(deviceaddress, uwNORMemoryDataWidth, NOR_CMD_ADDRESS_SECOND), NOR_
 344              		.loc 1 501 9 is_stmt 0 discriminator 2 view .LVU94
 345 00bc 00F25555 		addw	r5, r0, #1365
 346              	.L19:
 501:stm32f4xx-hal-driver/Src/stm32f4xx_hal_nor.c ****         NOR_WRITE(NOR_ADDR_SHIFT(deviceaddress, uwNORMemoryDataWidth, NOR_CMD_ADDRESS_SECOND), NOR_
 347              		.loc 1 501 9 discriminator 4 view .LVU95
 348 00c0 AA24     		movs	r4, #170
 349 00c2 2C80     		strh	r4, [r5]	@ movhi
 501:stm32f4xx-hal-driver/Src/stm32f4xx_hal_nor.c ****         NOR_WRITE(NOR_ADDR_SHIFT(deviceaddress, uwNORMemoryDataWidth, NOR_CMD_ADDRESS_SECOND), NOR_
 350              		.loc 1 501 9 is_stmt 1 discriminator 4 view .LVU96
 351              	.LBB150:
 352              	.LBI150:
 275:CMSIS_5/CMSIS/Core/Include/cmsis_gcc.h **** {
 353              		.loc 2 275 27 discriminator 4 view .LVU97
 354              	.LBB151:
 355              		.loc 2 277 3 discriminator 4 view .LVU98
 356              		.syntax unified
 357              	@ 277 "CMSIS_5/CMSIS/Core/Include/cmsis_gcc.h" 1
 358 00c4 BFF34F8F 		dsb 0xF
 359              	@ 0 "" 2
 360              		.thumb
 361              		.syntax unified
 362              	.LBE151:
 363              	.LBE150:
 501:stm32f4xx-hal-driver/Src/stm32f4xx_hal_nor.c ****         NOR_WRITE(NOR_ADDR_SHIFT(deviceaddress, uwNORMemoryDataWidth, NOR_CMD_ADDRESS_SECOND), NOR_
ARM GAS  /tmp/ccEpvYTV.s 			page 22


 364              		.loc 1 501 9 discriminator 4 view .LVU99
 502:stm32f4xx-hal-driver/Src/stm32f4xx_hal_nor.c ****         NOR_WRITE(NOR_ADDR_SHIFT(deviceaddress, uwNORMemoryDataWidth, NOR_CMD_ADDRESS_THIRD),
 365              		.loc 1 502 9 discriminator 4 view .LVU100
 502:stm32f4xx-hal-driver/Src/stm32f4xx_hal_nor.c ****         NOR_WRITE(NOR_ADDR_SHIFT(deviceaddress, uwNORMemoryDataWidth, NOR_CMD_ADDRESS_THIRD),
 366              		.loc 1 502 9 discriminator 4 view .LVU101
 367 00c8 264C     		ldr	r4, .L55
 368 00ca 2468     		ldr	r4, [r4]
 369 00cc 012C     		cmp	r4, #1
 370 00ce 13D0     		beq	.L50
 502:stm32f4xx-hal-driver/Src/stm32f4xx_hal_nor.c ****         NOR_WRITE(NOR_ADDR_SHIFT(deviceaddress, uwNORMemoryDataWidth, NOR_CMD_ADDRESS_THIRD),
 371              		.loc 1 502 9 is_stmt 0 discriminator 2 view .LVU102
 372 00d0 00F2AA25 		addw	r5, r0, #682
 373              	.L21:
 502:stm32f4xx-hal-driver/Src/stm32f4xx_hal_nor.c ****         NOR_WRITE(NOR_ADDR_SHIFT(deviceaddress, uwNORMemoryDataWidth, NOR_CMD_ADDRESS_THIRD),
 374              		.loc 1 502 9 discriminator 4 view .LVU103
 375 00d4 5524     		movs	r4, #85
 376 00d6 2C80     		strh	r4, [r5]	@ movhi
 502:stm32f4xx-hal-driver/Src/stm32f4xx_hal_nor.c ****         NOR_WRITE(NOR_ADDR_SHIFT(deviceaddress, uwNORMemoryDataWidth, NOR_CMD_ADDRESS_THIRD),
 377              		.loc 1 502 9 is_stmt 1 discriminator 4 view .LVU104
 378              	.LBB152:
 379              	.LBI152:
 275:CMSIS_5/CMSIS/Core/Include/cmsis_gcc.h **** {
 380              		.loc 2 275 27 discriminator 4 view .LVU105
 381              	.LBB153:
 382              		.loc 2 277 3 discriminator 4 view .LVU106
 383              		.syntax unified
 384              	@ 277 "CMSIS_5/CMSIS/Core/Include/cmsis_gcc.h" 1
 385 00d8 BFF34F8F 		dsb 0xF
 386              	@ 0 "" 2
 387              		.thumb
 388              		.syntax unified
 389              	.LBE153:
 390              	.LBE152:
 502:stm32f4xx-hal-driver/Src/stm32f4xx_hal_nor.c ****         NOR_WRITE(NOR_ADDR_SHIFT(deviceaddress, uwNORMemoryDataWidth, NOR_CMD_ADDRESS_THIRD),
 391              		.loc 1 502 9 discriminator 4 view .LVU107
 503:stm32f4xx-hal-driver/Src/stm32f4xx_hal_nor.c ****                   NOR_CMD_DATA_AUTO_SELECT);
 392              		.loc 1 503 9 discriminator 4 view .LVU108
 503:stm32f4xx-hal-driver/Src/stm32f4xx_hal_nor.c ****                   NOR_CMD_DATA_AUTO_SELECT);
 393              		.loc 1 503 9 discriminator 4 view .LVU109
 394 00dc 214C     		ldr	r4, .L55
 395 00de 2468     		ldr	r4, [r4]
 396 00e0 012C     		cmp	r4, #1
 397 00e2 0CD0     		beq	.L51
 503:stm32f4xx-hal-driver/Src/stm32f4xx_hal_nor.c ****                   NOR_CMD_DATA_AUTO_SELECT);
 398              		.loc 1 503 9 is_stmt 0 discriminator 2 view .LVU110
 399 00e4 00F25555 		addw	r5, r0, #1365
 400              	.L23:
 503:stm32f4xx-hal-driver/Src/stm32f4xx_hal_nor.c ****                   NOR_CMD_DATA_AUTO_SELECT);
 401              		.loc 1 503 9 discriminator 4 view .LVU111
 402 00e8 9024     		movs	r4, #144
 403 00ea 2C80     		strh	r4, [r5]	@ movhi
 503:stm32f4xx-hal-driver/Src/stm32f4xx_hal_nor.c ****                   NOR_CMD_DATA_AUTO_SELECT);
 404              		.loc 1 503 9 is_stmt 1 discriminator 4 view .LVU112
 405              	.LBB154:
 406              	.LBI154:
 275:CMSIS_5/CMSIS/Core/Include/cmsis_gcc.h **** {
 407              		.loc 2 275 27 discriminator 4 view .LVU113
ARM GAS  /tmp/ccEpvYTV.s 			page 23


 408              	.LBB155:
 409              		.loc 2 277 3 discriminator 4 view .LVU114
 410              		.syntax unified
 411              	@ 277 "CMSIS_5/CMSIS/Core/Include/cmsis_gcc.h" 1
 412 00ec BFF34F8F 		dsb 0xF
 413              	@ 0 "" 2
 414              		.loc 2 277 3 is_stmt 0 discriminator 4 view .LVU115
 415              		.thumb
 416              		.syntax unified
 417              	.LBE155:
 418              	.LBE154:
 419              		.loc 1 517 5 is_stmt 1 discriminator 4 view .LVU116
 420 00f0 0CE0     		b	.L17
 421              	.L49:
 501:stm32f4xx-hal-driver/Src/stm32f4xx_hal_nor.c ****         NOR_WRITE(NOR_ADDR_SHIFT(deviceaddress, uwNORMemoryDataWidth, NOR_CMD_ADDRESS_SECOND), NOR_
 422              		.loc 1 501 9 is_stmt 0 discriminator 1 view .LVU117
 423 00f2 00F6AA25 		addw	r5, r0, #2730
 424 00f6 E3E7     		b	.L19
 425              	.L50:
 502:stm32f4xx-hal-driver/Src/stm32f4xx_hal_nor.c ****         NOR_WRITE(NOR_ADDR_SHIFT(deviceaddress, uwNORMemoryDataWidth, NOR_CMD_ADDRESS_THIRD),
 426              		.loc 1 502 9 discriminator 1 view .LVU118
 427 00f8 00F25455 		addw	r5, r0, #1364
 428 00fc EAE7     		b	.L21
 429              	.L51:
 503:stm32f4xx-hal-driver/Src/stm32f4xx_hal_nor.c ****                   NOR_CMD_DATA_AUTO_SELECT);
 430              		.loc 1 503 9 discriminator 1 view .LVU119
 431 00fe 00F6AA25 		addw	r5, r0, #2730
 432 0102 F1E7     		b	.L23
 433              	.L45:
 509:stm32f4xx-hal-driver/Src/stm32f4xx_hal_nor.c ****     }
 434              		.loc 1 509 7 is_stmt 1 view .LVU120
 509:stm32f4xx-hal-driver/Src/stm32f4xx_hal_nor.c ****     }
 435              		.loc 1 509 7 view .LVU121
 436 0104 9024     		movs	r4, #144
 437 0106 0480     		strh	r4, [r0]	@ movhi
 509:stm32f4xx-hal-driver/Src/stm32f4xx_hal_nor.c ****     }
 438              		.loc 1 509 7 view .LVU122
 439              	.LBB156:
 440              	.LBI156:
 275:CMSIS_5/CMSIS/Core/Include/cmsis_gcc.h **** {
 441              		.loc 2 275 27 view .LVU123
 442              	.LBB157:
 443              		.loc 2 277 3 view .LVU124
 444              		.syntax unified
 445              	@ 277 "CMSIS_5/CMSIS/Core/Include/cmsis_gcc.h" 1
 446 0108 BFF34F8F 		dsb 0xF
 447              	@ 0 "" 2
 448              		.loc 2 277 3 is_stmt 0 view .LVU125
 449              		.thumb
 450              		.syntax unified
 451              	.LBE157:
 452              	.LBE156:
 453              		.loc 1 517 5 is_stmt 1 view .LVU126
 454              	.L17:
 518:stm32f4xx-hal-driver/Src/stm32f4xx_hal_nor.c ****     {
 519:stm32f4xx-hal-driver/Src/stm32f4xx_hal_nor.c ****       /* Read the NOR IDs */
 520:stm32f4xx-hal-driver/Src/stm32f4xx_hal_nor.c ****       pNOR_ID->Manufacturer_Code = *(__IO uint16_t *) NOR_ADDR_SHIFT(deviceaddress, uwNORMemoryData
ARM GAS  /tmp/ccEpvYTV.s 			page 24


 455              		.loc 1 520 7 view .LVU127
 456              		.loc 1 520 36 is_stmt 0 view .LVU128
 457 010c 0488     		ldrh	r4, [r0]
 458              		.loc 1 520 34 view .LVU129
 459 010e 0C80     		strh	r4, [r1]	@ movhi
 521:stm32f4xx-hal-driver/Src/stm32f4xx_hal_nor.c ****       pNOR_ID->Device_Code1      = *(__IO uint16_t *) NOR_ADDR_SHIFT(deviceaddress, uwNORMemoryData
 460              		.loc 1 521 7 is_stmt 1 view .LVU130
 461              		.loc 1 521 55 is_stmt 0 view .LVU131
 462 0110 144C     		ldr	r4, .L55
 463 0112 2468     		ldr	r4, [r4]
 464              		.loc 1 521 37 view .LVU132
 465 0114 012C     		cmp	r4, #1
 466 0116 15D0     		beq	.L52
 467              		.loc 1 521 37 discriminator 2 view .LVU133
 468 0118 451C     		adds	r5, r0, #1
 469              	.L26:
 470              		.loc 1 521 36 discriminator 4 view .LVU134
 471 011a 2D88     		ldrh	r5, [r5]
 472              		.loc 1 521 34 discriminator 4 view .LVU135
 473 011c 4D80     		strh	r5, [r1, #2]	@ movhi
 522:stm32f4xx-hal-driver/Src/stm32f4xx_hal_nor.c ****                                                                      DEVICE_CODE1_ADDR);
 523:stm32f4xx-hal-driver/Src/stm32f4xx_hal_nor.c ****       pNOR_ID->Device_Code2      = *(__IO uint16_t *) NOR_ADDR_SHIFT(deviceaddress, uwNORMemoryData
 474              		.loc 1 523 7 is_stmt 1 discriminator 4 view .LVU136
 475              		.loc 1 523 37 is_stmt 0 discriminator 4 view .LVU137
 476 011e 012C     		cmp	r4, #1
 477 0120 12D0     		beq	.L53
 478              		.loc 1 523 37 discriminator 2 view .LVU138
 479 0122 00F10E05 		add	r5, r0, #14
 480              	.L28:
 481              		.loc 1 523 36 discriminator 4 view .LVU139
 482 0126 2D88     		ldrh	r5, [r5]
 483              		.loc 1 523 34 discriminator 4 view .LVU140
 484 0128 8D80     		strh	r5, [r1, #4]	@ movhi
 524:stm32f4xx-hal-driver/Src/stm32f4xx_hal_nor.c ****                                                                      DEVICE_CODE2_ADDR);
 525:stm32f4xx-hal-driver/Src/stm32f4xx_hal_nor.c ****       pNOR_ID->Device_Code3      = *(__IO uint16_t *) NOR_ADDR_SHIFT(deviceaddress, uwNORMemoryData
 485              		.loc 1 525 7 is_stmt 1 discriminator 4 view .LVU141
 486              		.loc 1 525 37 is_stmt 0 discriminator 4 view .LVU142
 487 012a 012C     		cmp	r4, #1
 488 012c 0FD0     		beq	.L54
 489              		.loc 1 525 37 discriminator 2 view .LVU143
 490 012e 0F30     		adds	r0, r0, #15
 491              	.LVL12:
 492              	.L30:
 493              		.loc 1 525 36 discriminator 4 view .LVU144
 494 0130 0088     		ldrh	r0, [r0]
 495              		.loc 1 525 34 discriminator 4 view .LVU145
 496 0132 C880     		strh	r0, [r1, #6]	@ movhi
 497 0134 0020     		movs	r0, #0
 498              	.L24:
 499              	.LVL13:
 526:stm32f4xx-hal-driver/Src/stm32f4xx_hal_nor.c ****                                                                      DEVICE_CODE3_ADDR);
 527:stm32f4xx-hal-driver/Src/stm32f4xx_hal_nor.c ****     }
 528:stm32f4xx-hal-driver/Src/stm32f4xx_hal_nor.c **** 
 529:stm32f4xx-hal-driver/Src/stm32f4xx_hal_nor.c ****     /* Check the NOR controller state */
 530:stm32f4xx-hal-driver/Src/stm32f4xx_hal_nor.c ****     hnor->State = state;
 500              		.loc 1 530 5 is_stmt 1 view .LVU146
 501              		.loc 1 530 17 is_stmt 0 view .LVU147
ARM GAS  /tmp/ccEpvYTV.s 			page 25


 502 0136 83F84920 		strb	r2, [r3, #73]
 531:stm32f4xx-hal-driver/Src/stm32f4xx_hal_nor.c **** 
 532:stm32f4xx-hal-driver/Src/stm32f4xx_hal_nor.c ****     /* Process unlocked */
 533:stm32f4xx-hal-driver/Src/stm32f4xx_hal_nor.c ****     __HAL_UNLOCK(hnor);
 503              		.loc 1 533 5 is_stmt 1 view .LVU148
 504              		.loc 1 533 5 view .LVU149
 505 013a 0022     		movs	r2, #0
 506              	.LVL14:
 507              		.loc 1 533 5 is_stmt 0 view .LVU150
 508 013c 83F84820 		strb	r2, [r3, #72]
 509              		.loc 1 533 5 is_stmt 1 view .LVU151
 534:stm32f4xx-hal-driver/Src/stm32f4xx_hal_nor.c ****   }
 535:stm32f4xx-hal-driver/Src/stm32f4xx_hal_nor.c ****   else
 536:stm32f4xx-hal-driver/Src/stm32f4xx_hal_nor.c ****   {
 537:stm32f4xx-hal-driver/Src/stm32f4xx_hal_nor.c ****     return HAL_ERROR;
 538:stm32f4xx-hal-driver/Src/stm32f4xx_hal_nor.c ****   }
 539:stm32f4xx-hal-driver/Src/stm32f4xx_hal_nor.c **** 
 540:stm32f4xx-hal-driver/Src/stm32f4xx_hal_nor.c ****   return status;
 510              		.loc 1 540 3 view .LVU152
 541:stm32f4xx-hal-driver/Src/stm32f4xx_hal_nor.c **** }
 511              		.loc 1 541 1 is_stmt 0 view .LVU153
 512 0140 30BC     		pop	{r4, r5}
 513              	.LCFI2:
 514              		.cfi_remember_state
 515              		.cfi_restore 5
 516              		.cfi_restore 4
 517              		.cfi_def_cfa_offset 0
 518 0142 7047     		bx	lr
 519              	.LVL15:
 520              	.L52:
 521              	.LCFI3:
 522              		.cfi_restore_state
 521:stm32f4xx-hal-driver/Src/stm32f4xx_hal_nor.c ****                                                                      DEVICE_CODE1_ADDR);
 523              		.loc 1 521 37 discriminator 1 view .LVU154
 524 0144 851C     		adds	r5, r0, #2
 525 0146 E8E7     		b	.L26
 526              	.L53:
 523:stm32f4xx-hal-driver/Src/stm32f4xx_hal_nor.c ****                                                                      DEVICE_CODE2_ADDR);
 527              		.loc 1 523 37 discriminator 1 view .LVU155
 528 0148 00F11C05 		add	r5, r0, #28
 529 014c EBE7     		b	.L28
 530              	.L54:
 525:stm32f4xx-hal-driver/Src/stm32f4xx_hal_nor.c ****                                                                      DEVICE_CODE3_ADDR);
 531              		.loc 1 525 37 discriminator 1 view .LVU156
 532 014e 1E30     		adds	r0, r0, #30
 533              	.LVL16:
 525:stm32f4xx-hal-driver/Src/stm32f4xx_hal_nor.c ****                                                                      DEVICE_CODE3_ADDR);
 534              		.loc 1 525 37 discriminator 1 view .LVU157
 535 0150 EEE7     		b	.L30
 536              	.LVL17:
 537              	.L31:
 538              	.LCFI4:
 539              		.cfi_def_cfa_offset 0
 540              		.cfi_restore 4
 541              		.cfi_restore 5
 455:stm32f4xx-hal-driver/Src/stm32f4xx_hal_nor.c ****   }
 542              		.loc 1 455 12 view .LVU158
ARM GAS  /tmp/ccEpvYTV.s 			page 26


 543 0152 1046     		mov	r0, r2
 544              	.LVL18:
 455:stm32f4xx-hal-driver/Src/stm32f4xx_hal_nor.c ****   }
 545              		.loc 1 455 12 view .LVU159
 546 0154 7047     		bx	lr
 547              	.LVL19:
 548              	.L32:
 459:stm32f4xx-hal-driver/Src/stm32f4xx_hal_nor.c ****   }
 549              		.loc 1 459 12 view .LVU160
 550 0156 0120     		movs	r0, #1
 551              	.LVL20:
 459:stm32f4xx-hal-driver/Src/stm32f4xx_hal_nor.c ****   }
 552              		.loc 1 459 12 view .LVU161
 553 0158 7047     		bx	lr
 554              	.LVL21:
 555              	.L33:
 537:stm32f4xx-hal-driver/Src/stm32f4xx_hal_nor.c ****   }
 556              		.loc 1 537 12 view .LVU162
 557 015a 0120     		movs	r0, #1
 558              	.LVL22:
 537:stm32f4xx-hal-driver/Src/stm32f4xx_hal_nor.c ****   }
 559              		.loc 1 537 12 view .LVU163
 560 015c 7047     		bx	lr
 561              	.L34:
 464:stm32f4xx-hal-driver/Src/stm32f4xx_hal_nor.c **** 
 562              		.loc 1 464 5 view .LVU164
 563 015e 0220     		movs	r0, #2
 564              		.loc 1 541 1 view .LVU165
 565 0160 7047     		bx	lr
 566              	.L56:
 567 0162 00BF     		.align	2
 568              	.L55:
 569 0164 00000000 		.word	.LANCHOR0
 570              		.cfi_endproc
 571              	.LFE244:
 573              		.section	.text.HAL_NOR_ReturnToReadMode,"ax",%progbits
 574              		.align	1
 575              		.global	HAL_NOR_ReturnToReadMode
 576              		.syntax unified
 577              		.thumb
 578              		.thumb_func
 579              		.fpu fpv4-sp-d16
 581              	HAL_NOR_ReturnToReadMode:
 582              	.LVL23:
 583              	.LFB245:
 542:stm32f4xx-hal-driver/Src/stm32f4xx_hal_nor.c **** 
 543:stm32f4xx-hal-driver/Src/stm32f4xx_hal_nor.c **** /**
 544:stm32f4xx-hal-driver/Src/stm32f4xx_hal_nor.c ****   * @brief  Returns the NOR memory to Read mode.
 545:stm32f4xx-hal-driver/Src/stm32f4xx_hal_nor.c ****   * @param  hnor pointer to a NOR_HandleTypeDef structure that contains
 546:stm32f4xx-hal-driver/Src/stm32f4xx_hal_nor.c ****   *                the configuration information for NOR module.
 547:stm32f4xx-hal-driver/Src/stm32f4xx_hal_nor.c ****   * @retval HAL status
 548:stm32f4xx-hal-driver/Src/stm32f4xx_hal_nor.c ****   */
 549:stm32f4xx-hal-driver/Src/stm32f4xx_hal_nor.c **** HAL_StatusTypeDef HAL_NOR_ReturnToReadMode(NOR_HandleTypeDef *hnor)
 550:stm32f4xx-hal-driver/Src/stm32f4xx_hal_nor.c **** {
 584              		.loc 1 550 1 is_stmt 1 view -0
 585              		.cfi_startproc
 586              		@ args = 0, pretend = 0, frame = 0
ARM GAS  /tmp/ccEpvYTV.s 			page 27


 587              		@ frame_needed = 0, uses_anonymous_args = 0
 588              		@ link register save eliminated.
 589              		.loc 1 550 1 is_stmt 0 view .LVU167
 590 0000 0346     		mov	r3, r0
 551:stm32f4xx-hal-driver/Src/stm32f4xx_hal_nor.c ****   uint32_t deviceaddress;
 591              		.loc 1 551 3 is_stmt 1 view .LVU168
 552:stm32f4xx-hal-driver/Src/stm32f4xx_hal_nor.c ****   HAL_NOR_StateTypeDef state;
 592              		.loc 1 552 3 view .LVU169
 553:stm32f4xx-hal-driver/Src/stm32f4xx_hal_nor.c ****   HAL_StatusTypeDef status = HAL_OK;
 593              		.loc 1 553 3 view .LVU170
 594              	.LVL24:
 554:stm32f4xx-hal-driver/Src/stm32f4xx_hal_nor.c **** 
 555:stm32f4xx-hal-driver/Src/stm32f4xx_hal_nor.c ****   /* Check the NOR controller state */
 556:stm32f4xx-hal-driver/Src/stm32f4xx_hal_nor.c ****   state = hnor->State;
 595              		.loc 1 556 3 view .LVU171
 596              		.loc 1 556 9 is_stmt 0 view .LVU172
 597 0002 90F84920 		ldrb	r2, [r0, #73]	@ zero_extendqisi2
 598 0006 D2B2     		uxtb	r2, r2
 599              	.LVL25:
 557:stm32f4xx-hal-driver/Src/stm32f4xx_hal_nor.c ****   if (state == HAL_NOR_STATE_BUSY)
 600              		.loc 1 557 3 is_stmt 1 view .LVU173
 601              		.loc 1 557 6 is_stmt 0 view .LVU174
 602 0008 022A     		cmp	r2, #2
 603 000a 36D0     		beq	.L62
 558:stm32f4xx-hal-driver/Src/stm32f4xx_hal_nor.c ****   {
 559:stm32f4xx-hal-driver/Src/stm32f4xx_hal_nor.c ****     return HAL_BUSY;
 560:stm32f4xx-hal-driver/Src/stm32f4xx_hal_nor.c ****   }
 561:stm32f4xx-hal-driver/Src/stm32f4xx_hal_nor.c ****   else if (state == HAL_NOR_STATE_PROTECTED)
 604              		.loc 1 561 8 is_stmt 1 view .LVU175
 605              		.loc 1 561 11 is_stmt 0 view .LVU176
 606 000c 042A     		cmp	r2, #4
 607 000e 36D0     		beq	.L63
 562:stm32f4xx-hal-driver/Src/stm32f4xx_hal_nor.c ****   {
 563:stm32f4xx-hal-driver/Src/stm32f4xx_hal_nor.c ****     return HAL_ERROR;
 564:stm32f4xx-hal-driver/Src/stm32f4xx_hal_nor.c ****   }
 565:stm32f4xx-hal-driver/Src/stm32f4xx_hal_nor.c ****   else if (state == HAL_NOR_STATE_READY)
 608              		.loc 1 565 8 is_stmt 1 view .LVU177
 609              		.loc 1 565 11 is_stmt 0 view .LVU178
 610 0010 012A     		cmp	r2, #1
 611 0012 36D1     		bne	.L64
 566:stm32f4xx-hal-driver/Src/stm32f4xx_hal_nor.c ****   {
 567:stm32f4xx-hal-driver/Src/stm32f4xx_hal_nor.c ****     /* Process Locked */
 568:stm32f4xx-hal-driver/Src/stm32f4xx_hal_nor.c ****     __HAL_LOCK(hnor);
 612              		.loc 1 568 5 is_stmt 1 view .LVU179
 613              		.loc 1 568 5 view .LVU180
 614 0014 90F84810 		ldrb	r1, [r0, #72]	@ zero_extendqisi2
 615 0018 0129     		cmp	r1, #1
 616 001a 34D0     		beq	.L65
 617              		.loc 1 568 5 discriminator 2 view .LVU181
 618 001c 0121     		movs	r1, #1
 619 001e 80F84810 		strb	r1, [r0, #72]
 620              		.loc 1 568 5 discriminator 2 view .LVU182
 569:stm32f4xx-hal-driver/Src/stm32f4xx_hal_nor.c **** 
 570:stm32f4xx-hal-driver/Src/stm32f4xx_hal_nor.c ****     /* Update the NOR controller state */
 571:stm32f4xx-hal-driver/Src/stm32f4xx_hal_nor.c ****     hnor->State = HAL_NOR_STATE_BUSY;
 621              		.loc 1 571 5 discriminator 2 view .LVU183
 622              		.loc 1 571 17 is_stmt 0 discriminator 2 view .LVU184
ARM GAS  /tmp/ccEpvYTV.s 			page 28


 623 0022 0221     		movs	r1, #2
 624 0024 80F84910 		strb	r1, [r0, #73]
 572:stm32f4xx-hal-driver/Src/stm32f4xx_hal_nor.c **** 
 573:stm32f4xx-hal-driver/Src/stm32f4xx_hal_nor.c ****     /* Select the NOR device address */
 574:stm32f4xx-hal-driver/Src/stm32f4xx_hal_nor.c ****     if (hnor->Init.NSBank == FMC_NORSRAM_BANK1)
 625              		.loc 1 574 5 is_stmt 1 discriminator 2 view .LVU185
 626              		.loc 1 574 19 is_stmt 0 discriminator 2 view .LVU186
 627 0028 8168     		ldr	r1, [r0, #8]
 628              		.loc 1 574 8 discriminator 2 view .LVU187
 629 002a 49B1     		cbz	r1, .L66
 575:stm32f4xx-hal-driver/Src/stm32f4xx_hal_nor.c ****     {
 576:stm32f4xx-hal-driver/Src/stm32f4xx_hal_nor.c ****       deviceaddress = NOR_MEMORY_ADRESS1;
 577:stm32f4xx-hal-driver/Src/stm32f4xx_hal_nor.c ****     }
 578:stm32f4xx-hal-driver/Src/stm32f4xx_hal_nor.c ****     else if (hnor->Init.NSBank == FMC_NORSRAM_BANK2)
 630              		.loc 1 578 10 is_stmt 1 view .LVU188
 631              		.loc 1 578 13 is_stmt 0 view .LVU189
 632 002c 0229     		cmp	r1, #2
 633 002e 15D0     		beq	.L67
 579:stm32f4xx-hal-driver/Src/stm32f4xx_hal_nor.c ****     {
 580:stm32f4xx-hal-driver/Src/stm32f4xx_hal_nor.c ****       deviceaddress = NOR_MEMORY_ADRESS2;
 581:stm32f4xx-hal-driver/Src/stm32f4xx_hal_nor.c ****     }
 582:stm32f4xx-hal-driver/Src/stm32f4xx_hal_nor.c ****     else if (hnor->Init.NSBank == FMC_NORSRAM_BANK3)
 634              		.loc 1 582 10 is_stmt 1 view .LVU190
 635              		.loc 1 582 13 is_stmt 0 view .LVU191
 636 0030 0429     		cmp	r1, #4
 637 0032 02D0     		beq	.L70
 583:stm32f4xx-hal-driver/Src/stm32f4xx_hal_nor.c ****     {
 584:stm32f4xx-hal-driver/Src/stm32f4xx_hal_nor.c ****       deviceaddress = NOR_MEMORY_ADRESS3;
 585:stm32f4xx-hal-driver/Src/stm32f4xx_hal_nor.c ****     }
 586:stm32f4xx-hal-driver/Src/stm32f4xx_hal_nor.c ****     else /* FMC_NORSRAM_BANK4 */
 587:stm32f4xx-hal-driver/Src/stm32f4xx_hal_nor.c ****     {
 588:stm32f4xx-hal-driver/Src/stm32f4xx_hal_nor.c ****       deviceaddress = NOR_MEMORY_ADRESS4;
 638              		.loc 1 588 21 view .LVU192
 639 0034 4FF0D840 		mov	r0, #1811939328
 640              	.LVL26:
 641              		.loc 1 588 21 view .LVU193
 642 0038 04E0     		b	.L59
 643              	.LVL27:
 644              	.L70:
 584:stm32f4xx-hal-driver/Src/stm32f4xx_hal_nor.c ****     }
 645              		.loc 1 584 21 view .LVU194
 646 003a 4FF0D040 		mov	r0, #1744830464
 647              	.LVL28:
 584:stm32f4xx-hal-driver/Src/stm32f4xx_hal_nor.c ****     }
 648              		.loc 1 584 21 view .LVU195
 649 003e 01E0     		b	.L59
 650              	.LVL29:
 651              	.L66:
 576:stm32f4xx-hal-driver/Src/stm32f4xx_hal_nor.c ****     }
 652              		.loc 1 576 21 view .LVU196
 653 0040 4FF0C040 		mov	r0, #1610612736
 654              	.LVL30:
 655              	.L59:
 589:stm32f4xx-hal-driver/Src/stm32f4xx_hal_nor.c ****     }
 590:stm32f4xx-hal-driver/Src/stm32f4xx_hal_nor.c **** 
 591:stm32f4xx-hal-driver/Src/stm32f4xx_hal_nor.c ****     if (hnor->CommandSet == NOR_AMD_FUJITSU_COMMAND_SET)
 656              		.loc 1 591 5 is_stmt 1 view .LVU197
ARM GAS  /tmp/ccEpvYTV.s 			page 29


 657              		.loc 1 591 13 is_stmt 0 view .LVU198
 658 0044 D96C     		ldr	r1, [r3, #76]
 659              		.loc 1 591 8 view .LVU199
 660 0046 0229     		cmp	r1, #2
 661 0048 0BD0     		beq	.L71
 592:stm32f4xx-hal-driver/Src/stm32f4xx_hal_nor.c ****     {
 593:stm32f4xx-hal-driver/Src/stm32f4xx_hal_nor.c ****       NOR_WRITE(deviceaddress, NOR_CMD_DATA_READ_RESET);
 594:stm32f4xx-hal-driver/Src/stm32f4xx_hal_nor.c ****     }
 595:stm32f4xx-hal-driver/Src/stm32f4xx_hal_nor.c ****     else if (hnor->CommandSet == NOR_INTEL_SHARP_EXT_COMMAND_SET)
 662              		.loc 1 595 10 is_stmt 1 view .LVU200
 663              		.loc 1 595 13 is_stmt 0 view .LVU201
 664 004a 0129     		cmp	r1, #1
 665 004c 0FD0     		beq	.L72
 596:stm32f4xx-hal-driver/Src/stm32f4xx_hal_nor.c ****     {
 597:stm32f4xx-hal-driver/Src/stm32f4xx_hal_nor.c ****       NOR_WRITE(deviceaddress, NOR_CMD_READ_ARRAY);
 598:stm32f4xx-hal-driver/Src/stm32f4xx_hal_nor.c ****     }
 599:stm32f4xx-hal-driver/Src/stm32f4xx_hal_nor.c ****     else
 600:stm32f4xx-hal-driver/Src/stm32f4xx_hal_nor.c ****     {
 601:stm32f4xx-hal-driver/Src/stm32f4xx_hal_nor.c ****       /* Primary command set not supported by the driver */
 602:stm32f4xx-hal-driver/Src/stm32f4xx_hal_nor.c ****       status = HAL_ERROR;
 666              		.loc 1 602 14 view .LVU202
 667 004e 1046     		mov	r0, r2
 668              	.LVL31:
 669              	.L61:
 603:stm32f4xx-hal-driver/Src/stm32f4xx_hal_nor.c ****     }
 604:stm32f4xx-hal-driver/Src/stm32f4xx_hal_nor.c **** 
 605:stm32f4xx-hal-driver/Src/stm32f4xx_hal_nor.c ****     /* Check the NOR controller state */
 606:stm32f4xx-hal-driver/Src/stm32f4xx_hal_nor.c ****     hnor->State = state;
 670              		.loc 1 606 5 is_stmt 1 view .LVU203
 671              		.loc 1 606 17 is_stmt 0 view .LVU204
 672 0050 83F84920 		strb	r2, [r3, #73]
 607:stm32f4xx-hal-driver/Src/stm32f4xx_hal_nor.c **** 
 608:stm32f4xx-hal-driver/Src/stm32f4xx_hal_nor.c ****     /* Process unlocked */
 609:stm32f4xx-hal-driver/Src/stm32f4xx_hal_nor.c ****     __HAL_UNLOCK(hnor);
 673              		.loc 1 609 5 is_stmt 1 view .LVU205
 674              		.loc 1 609 5 view .LVU206
 675 0054 0022     		movs	r2, #0
 676              	.LVL32:
 677              		.loc 1 609 5 is_stmt 0 view .LVU207
 678 0056 83F84820 		strb	r2, [r3, #72]
 679              		.loc 1 609 5 is_stmt 1 view .LVU208
 610:stm32f4xx-hal-driver/Src/stm32f4xx_hal_nor.c ****   }
 611:stm32f4xx-hal-driver/Src/stm32f4xx_hal_nor.c ****   else
 612:stm32f4xx-hal-driver/Src/stm32f4xx_hal_nor.c ****   {
 613:stm32f4xx-hal-driver/Src/stm32f4xx_hal_nor.c ****     return HAL_ERROR;
 614:stm32f4xx-hal-driver/Src/stm32f4xx_hal_nor.c ****   }
 615:stm32f4xx-hal-driver/Src/stm32f4xx_hal_nor.c **** 
 616:stm32f4xx-hal-driver/Src/stm32f4xx_hal_nor.c ****   return status;
 680              		.loc 1 616 3 view .LVU209
 681              		.loc 1 616 10 is_stmt 0 view .LVU210
 682 005a 7047     		bx	lr
 683              	.LVL33:
 684              	.L67:
 580:stm32f4xx-hal-driver/Src/stm32f4xx_hal_nor.c ****     }
 685              		.loc 1 580 21 view .LVU211
 686 005c 4FF0C840 		mov	r0, #1677721600
 687              	.LVL34:
ARM GAS  /tmp/ccEpvYTV.s 			page 30


 580:stm32f4xx-hal-driver/Src/stm32f4xx_hal_nor.c ****     }
 688              		.loc 1 580 21 view .LVU212
 689 0060 F0E7     		b	.L59
 690              	.LVL35:
 691              	.L71:
 593:stm32f4xx-hal-driver/Src/stm32f4xx_hal_nor.c ****     }
 692              		.loc 1 593 7 is_stmt 1 view .LVU213
 593:stm32f4xx-hal-driver/Src/stm32f4xx_hal_nor.c ****     }
 693              		.loc 1 593 7 view .LVU214
 694 0062 F021     		movs	r1, #240
 695 0064 0180     		strh	r1, [r0]	@ movhi
 593:stm32f4xx-hal-driver/Src/stm32f4xx_hal_nor.c ****     }
 696              		.loc 1 593 7 view .LVU215
 697              	.LBB158:
 698              	.LBI158:
 275:CMSIS_5/CMSIS/Core/Include/cmsis_gcc.h **** {
 699              		.loc 2 275 27 view .LVU216
 700              	.LBB159:
 701              		.loc 2 277 3 view .LVU217
 702              		.syntax unified
 703              	@ 277 "CMSIS_5/CMSIS/Core/Include/cmsis_gcc.h" 1
 704 0066 BFF34F8F 		dsb 0xF
 705              	@ 0 "" 2
 706              		.thumb
 707              		.syntax unified
 708              	.LBE159:
 709              	.LBE158:
 553:stm32f4xx-hal-driver/Src/stm32f4xx_hal_nor.c **** 
 710              		.loc 1 553 21 is_stmt 0 view .LVU218
 711 006a 0020     		movs	r0, #0
 712              	.LVL36:
 713              	.LBB161:
 714              	.LBB160:
 278:CMSIS_5/CMSIS/Core/Include/cmsis_gcc.h **** }
 715              		.loc 2 278 1 view .LVU219
 716 006c F0E7     		b	.L61
 717              	.LVL37:
 718              	.L72:
 719              		.loc 2 278 1 view .LVU220
 720              	.LBE160:
 721              	.LBE161:
 597:stm32f4xx-hal-driver/Src/stm32f4xx_hal_nor.c ****     }
 722              		.loc 1 597 7 is_stmt 1 view .LVU221
 597:stm32f4xx-hal-driver/Src/stm32f4xx_hal_nor.c ****     }
 723              		.loc 1 597 7 view .LVU222
 724 006e FF21     		movs	r1, #255
 725 0070 0180     		strh	r1, [r0]	@ movhi
 597:stm32f4xx-hal-driver/Src/stm32f4xx_hal_nor.c ****     }
 726              		.loc 1 597 7 view .LVU223
 727              	.LBB162:
 728              	.LBI162:
 275:CMSIS_5/CMSIS/Core/Include/cmsis_gcc.h **** {
 729              		.loc 2 275 27 view .LVU224
 730              	.LBB163:
 277:CMSIS_5/CMSIS/Core/Include/cmsis_gcc.h **** }
 731              		.loc 2 277 3 view .LVU225
 732              		.syntax unified
ARM GAS  /tmp/ccEpvYTV.s 			page 31


 733              	@ 277 "CMSIS_5/CMSIS/Core/Include/cmsis_gcc.h" 1
 734 0072 BFF34F8F 		dsb 0xF
 735              	@ 0 "" 2
 736              		.thumb
 737              		.syntax unified
 738              	.LBE163:
 739              	.LBE162:
 553:stm32f4xx-hal-driver/Src/stm32f4xx_hal_nor.c **** 
 740              		.loc 1 553 21 is_stmt 0 view .LVU226
 741 0076 0020     		movs	r0, #0
 742              	.LVL38:
 743              	.LBB165:
 744              	.LBB164:
 745              		.loc 2 278 1 view .LVU227
 746 0078 EAE7     		b	.L61
 747              	.LVL39:
 748              	.L62:
 749              		.loc 2 278 1 view .LVU228
 750              	.LBE164:
 751              	.LBE165:
 559:stm32f4xx-hal-driver/Src/stm32f4xx_hal_nor.c ****   }
 752              		.loc 1 559 12 view .LVU229
 753 007a 1046     		mov	r0, r2
 754              	.LVL40:
 559:stm32f4xx-hal-driver/Src/stm32f4xx_hal_nor.c ****   }
 755              		.loc 1 559 12 view .LVU230
 756 007c 7047     		bx	lr
 757              	.LVL41:
 758              	.L63:
 563:stm32f4xx-hal-driver/Src/stm32f4xx_hal_nor.c ****   }
 759              		.loc 1 563 12 view .LVU231
 760 007e 0120     		movs	r0, #1
 761              	.LVL42:
 563:stm32f4xx-hal-driver/Src/stm32f4xx_hal_nor.c ****   }
 762              		.loc 1 563 12 view .LVU232
 763 0080 7047     		bx	lr
 764              	.LVL43:
 765              	.L64:
 613:stm32f4xx-hal-driver/Src/stm32f4xx_hal_nor.c ****   }
 766              		.loc 1 613 12 view .LVU233
 767 0082 0120     		movs	r0, #1
 768              	.LVL44:
 613:stm32f4xx-hal-driver/Src/stm32f4xx_hal_nor.c ****   }
 769              		.loc 1 613 12 view .LVU234
 770 0084 7047     		bx	lr
 771              	.LVL45:
 772              	.L65:
 568:stm32f4xx-hal-driver/Src/stm32f4xx_hal_nor.c **** 
 773              		.loc 1 568 5 view .LVU235
 774 0086 0220     		movs	r0, #2
 775              	.LVL46:
 617:stm32f4xx-hal-driver/Src/stm32f4xx_hal_nor.c **** }
 776              		.loc 1 617 1 view .LVU236
 777 0088 7047     		bx	lr
 778              		.cfi_endproc
 779              	.LFE245:
 781              		.section	.text.HAL_NOR_Init,"ax",%progbits
ARM GAS  /tmp/ccEpvYTV.s 			page 32


 782              		.align	1
 783              		.global	HAL_NOR_Init
 784              		.syntax unified
 785              		.thumb
 786              		.thumb_func
 787              		.fpu fpv4-sp-d16
 789              	HAL_NOR_Init:
 790              	.LVL47:
 791              	.LFB239:
 236:stm32f4xx-hal-driver/Src/stm32f4xx_hal_nor.c ****   uint32_t deviceaddress;
 792              		.loc 1 236 1 is_stmt 1 view -0
 793              		.cfi_startproc
 794              		@ args = 0, pretend = 0, frame = 0
 795              		@ frame_needed = 0, uses_anonymous_args = 0
 237:stm32f4xx-hal-driver/Src/stm32f4xx_hal_nor.c ****   HAL_StatusTypeDef status = HAL_OK;
 796              		.loc 1 237 3 view .LVU238
 238:stm32f4xx-hal-driver/Src/stm32f4xx_hal_nor.c **** 
 797              		.loc 1 238 3 view .LVU239
 241:stm32f4xx-hal-driver/Src/stm32f4xx_hal_nor.c ****   {
 798              		.loc 1 241 3 view .LVU240
 241:stm32f4xx-hal-driver/Src/stm32f4xx_hal_nor.c ****   {
 799              		.loc 1 241 6 is_stmt 0 view .LVU241
 800 0000 0028     		cmp	r0, #0
 801 0002 72D0     		beq	.L88
 236:stm32f4xx-hal-driver/Src/stm32f4xx_hal_nor.c ****   uint32_t deviceaddress;
 802              		.loc 1 236 1 view .LVU242
 803 0004 70B5     		push	{r4, r5, r6, lr}
 804              	.LCFI5:
 805              		.cfi_def_cfa_offset 16
 806              		.cfi_offset 4, -16
 807              		.cfi_offset 5, -12
 808              		.cfi_offset 6, -8
 809              		.cfi_offset 14, -4
 810 0006 0E46     		mov	r6, r1
 811 0008 1546     		mov	r5, r2
 812 000a 0446     		mov	r4, r0
 246:stm32f4xx-hal-driver/Src/stm32f4xx_hal_nor.c ****   {
 813              		.loc 1 246 3 is_stmt 1 view .LVU243
 246:stm32f4xx-hal-driver/Src/stm32f4xx_hal_nor.c ****   {
 814              		.loc 1 246 11 is_stmt 0 view .LVU244
 815 000c 90F84930 		ldrb	r3, [r0, #73]	@ zero_extendqisi2
 246:stm32f4xx-hal-driver/Src/stm32f4xx_hal_nor.c ****   {
 816              		.loc 1 246 6 view .LVU245
 817 0010 43B3     		cbz	r3, .L96
 818              	.LVL48:
 819              	.L75:
 266:stm32f4xx-hal-driver/Src/stm32f4xx_hal_nor.c **** 
 820              		.loc 1 266 3 is_stmt 1 view .LVU246
 266:stm32f4xx-hal-driver/Src/stm32f4xx_hal_nor.c **** 
 821              		.loc 1 266 42 is_stmt 0 view .LVU247
 822 0012 2146     		mov	r1, r4
 266:stm32f4xx-hal-driver/Src/stm32f4xx_hal_nor.c **** 
 823              		.loc 1 266 9 view .LVU248
 824 0014 51F8080B 		ldr	r0, [r1], #8
 825 0018 FFF7FEFF 		bl	FSMC_NORSRAM_Init
 826              	.LVL49:
 269:stm32f4xx-hal-driver/Src/stm32f4xx_hal_nor.c **** 
ARM GAS  /tmp/ccEpvYTV.s 			page 33


 827              		.loc 1 269 3 is_stmt 1 view .LVU249
 269:stm32f4xx-hal-driver/Src/stm32f4xx_hal_nor.c **** 
 828              		.loc 1 269 9 is_stmt 0 view .LVU250
 829 001c A268     		ldr	r2, [r4, #8]
 830 001e 3146     		mov	r1, r6
 831 0020 2068     		ldr	r0, [r4]
 832 0022 FFF7FEFF 		bl	FSMC_NORSRAM_Timing_Init
 833              	.LVL50:
 272:stm32f4xx-hal-driver/Src/stm32f4xx_hal_nor.c ****                                          hnor->Init.NSBank, hnor->Init.ExtendedMode);
 834              		.loc 1 272 3 is_stmt 1 view .LVU251
 272:stm32f4xx-hal-driver/Src/stm32f4xx_hal_nor.c ****                                          hnor->Init.NSBank, hnor->Init.ExtendedMode);
 835              		.loc 1 272 9 is_stmt 0 view .LVU252
 836 0026 236B     		ldr	r3, [r4, #48]
 837 0028 A268     		ldr	r2, [r4, #8]
 838 002a 2946     		mov	r1, r5
 839 002c 6068     		ldr	r0, [r4, #4]
 840 002e FFF7FEFF 		bl	FSMC_NORSRAM_Extended_Timing_Init
 841              	.LVL51:
 276:stm32f4xx-hal-driver/Src/stm32f4xx_hal_nor.c **** 
 842              		.loc 1 276 3 is_stmt 1 view .LVU253
 843 0032 2268     		ldr	r2, [r4]
 844 0034 A168     		ldr	r1, [r4, #8]
 845 0036 52F82130 		ldr	r3, [r2, r1, lsl #2]
 846 003a 43F00103 		orr	r3, r3, #1
 847 003e 42F82130 		str	r3, [r2, r1, lsl #2]
 279:stm32f4xx-hal-driver/Src/stm32f4xx_hal_nor.c ****   {
 848              		.loc 1 279 3 view .LVU254
 279:stm32f4xx-hal-driver/Src/stm32f4xx_hal_nor.c ****   {
 849              		.loc 1 279 17 is_stmt 0 view .LVU255
 850 0042 6369     		ldr	r3, [r4, #20]
 279:stm32f4xx-hal-driver/Src/stm32f4xx_hal_nor.c ****   {
 851              		.loc 1 279 6 view .LVU256
 852 0044 9BB9     		cbnz	r3, .L76
 281:stm32f4xx-hal-driver/Src/stm32f4xx_hal_nor.c ****   }
 853              		.loc 1 281 5 is_stmt 1 view .LVU257
 281:stm32f4xx-hal-driver/Src/stm32f4xx_hal_nor.c ****   }
 854              		.loc 1 281 26 is_stmt 0 view .LVU258
 855 0046 2A4B     		ldr	r3, .L102
 856 0048 0022     		movs	r2, #0
 857 004a 1A60     		str	r2, [r3]
 858              	.L77:
 289:stm32f4xx-hal-driver/Src/stm32f4xx_hal_nor.c **** 
 859              		.loc 1 289 3 is_stmt 1 view .LVU259
 289:stm32f4xx-hal-driver/Src/stm32f4xx_hal_nor.c **** 
 860              		.loc 1 289 15 is_stmt 0 view .LVU260
 861 004c 0123     		movs	r3, #1
 862 004e 84F84930 		strb	r3, [r4, #73]
 292:stm32f4xx-hal-driver/Src/stm32f4xx_hal_nor.c ****   {
 863              		.loc 1 292 3 is_stmt 1 view .LVU261
 292:stm32f4xx-hal-driver/Src/stm32f4xx_hal_nor.c ****   {
 864              		.loc 1 292 17 is_stmt 0 view .LVU262
 865 0052 A168     		ldr	r1, [r4, #8]
 292:stm32f4xx-hal-driver/Src/stm32f4xx_hal_nor.c ****   {
 866              		.loc 1 292 6 view .LVU263
 867 0054 91B1     		cbz	r1, .L89
 296:stm32f4xx-hal-driver/Src/stm32f4xx_hal_nor.c ****   {
 868              		.loc 1 296 8 is_stmt 1 view .LVU264
ARM GAS  /tmp/ccEpvYTV.s 			page 34


 296:stm32f4xx-hal-driver/Src/stm32f4xx_hal_nor.c ****   {
 869              		.loc 1 296 11 is_stmt 0 view .LVU265
 870 0056 0229     		cmp	r1, #2
 871 0058 2BD0     		beq	.L90
 300:stm32f4xx-hal-driver/Src/stm32f4xx_hal_nor.c ****   {
 872              		.loc 1 300 8 is_stmt 1 view .LVU266
 300:stm32f4xx-hal-driver/Src/stm32f4xx_hal_nor.c ****   {
 873              		.loc 1 300 11 is_stmt 0 view .LVU267
 874 005a 0429     		cmp	r1, #4
 875 005c 0BD0     		beq	.L97
 306:stm32f4xx-hal-driver/Src/stm32f4xx_hal_nor.c ****   }
 876              		.loc 1 306 19 view .LVU268
 877 005e 4FF0D843 		mov	r3, #1811939328
 878 0062 0DE0     		b	.L78
 879              	.LVL52:
 880              	.L96:
 249:stm32f4xx-hal-driver/Src/stm32f4xx_hal_nor.c **** 
 881              		.loc 1 249 5 is_stmt 1 view .LVU269
 249:stm32f4xx-hal-driver/Src/stm32f4xx_hal_nor.c **** 
 882              		.loc 1 249 16 is_stmt 0 view .LVU270
 883 0064 80F84830 		strb	r3, [r0, #72]
 261:stm32f4xx-hal-driver/Src/stm32f4xx_hal_nor.c **** #endif /* (USE_HAL_NOR_REGISTER_CALLBACKS) */
 884              		.loc 1 261 5 is_stmt 1 view .LVU271
 885 0068 FFF7FEFF 		bl	HAL_NOR_MspInit
 886              	.LVL53:
 261:stm32f4xx-hal-driver/Src/stm32f4xx_hal_nor.c **** #endif /* (USE_HAL_NOR_REGISTER_CALLBACKS) */
 887              		.loc 1 261 5 is_stmt 0 view .LVU272
 888 006c D1E7     		b	.L75
 889              	.L76:
 285:stm32f4xx-hal-driver/Src/stm32f4xx_hal_nor.c ****   }
 890              		.loc 1 285 5 is_stmt 1 view .LVU273
 285:stm32f4xx-hal-driver/Src/stm32f4xx_hal_nor.c ****   }
 891              		.loc 1 285 26 is_stmt 0 view .LVU274
 892 006e 204B     		ldr	r3, .L102
 893 0070 0122     		movs	r2, #1
 894 0072 1A60     		str	r2, [r3]
 895 0074 EAE7     		b	.L77
 896              	.L97:
 302:stm32f4xx-hal-driver/Src/stm32f4xx_hal_nor.c ****   }
 897              		.loc 1 302 19 view .LVU275
 898 0076 4FF0D043 		mov	r3, #1744830464
 899 007a 01E0     		b	.L78
 900              	.L89:
 294:stm32f4xx-hal-driver/Src/stm32f4xx_hal_nor.c ****   }
 901              		.loc 1 294 19 view .LVU276
 902 007c 4FF0C043 		mov	r3, #1610612736
 903              	.L78:
 904              	.LVL54:
 309:stm32f4xx-hal-driver/Src/stm32f4xx_hal_nor.c ****   {
 905              		.loc 1 309 3 is_stmt 1 view .LVU277
 309:stm32f4xx-hal-driver/Src/stm32f4xx_hal_nor.c ****   {
 906              		.loc 1 309 17 is_stmt 0 view .LVU278
 907 0080 A26A     		ldr	r2, [r4, #40]
 309:stm32f4xx-hal-driver/Src/stm32f4xx_hal_nor.c ****   {
 908              		.loc 1 309 6 view .LVU279
 909 0082 CAB1     		cbz	r2, .L98
 319:stm32f4xx-hal-driver/Src/stm32f4xx_hal_nor.c ****     {
ARM GAS  /tmp/ccEpvYTV.s 			page 35


 910              		.loc 1 319 5 is_stmt 1 view .LVU280
 319:stm32f4xx-hal-driver/Src/stm32f4xx_hal_nor.c ****     {
 911              		.loc 1 319 30 is_stmt 0 view .LVU281
 912 0084 1A4A     		ldr	r2, .L102
 913 0086 1268     		ldr	r2, [r2]
 319:stm32f4xx-hal-driver/Src/stm32f4xx_hal_nor.c ****     {
 914              		.loc 1 319 8 view .LVU282
 915 0088 0ABB     		cbnz	r2, .L80
 321:stm32f4xx-hal-driver/Src/stm32f4xx_hal_nor.c ****                 NOR_CMD_DATA_CFI);
 916              		.loc 1 321 7 is_stmt 1 view .LVU283
 321:stm32f4xx-hal-driver/Src/stm32f4xx_hal_nor.c ****                 NOR_CMD_DATA_CFI);
 917              		.loc 1 321 7 view .LVU284
 918 008a 012A     		cmp	r2, #1
 919 008c 1CD0     		beq	.L99
 321:stm32f4xx-hal-driver/Src/stm32f4xx_hal_nor.c ****                 NOR_CMD_DATA_CFI);
 920              		.loc 1 321 7 is_stmt 0 discriminator 2 view .LVU285
 921 008e 03F1AA02 		add	r2, r3, #170
 922              	.L82:
 321:stm32f4xx-hal-driver/Src/stm32f4xx_hal_nor.c ****                 NOR_CMD_DATA_CFI);
 923              		.loc 1 321 7 discriminator 4 view .LVU286
 924 0092 9821     		movs	r1, #152
 925 0094 1180     		strh	r1, [r2]	@ movhi
 321:stm32f4xx-hal-driver/Src/stm32f4xx_hal_nor.c ****                 NOR_CMD_DATA_CFI);
 926              		.loc 1 321 7 is_stmt 1 discriminator 4 view .LVU287
 927              	.LBB166:
 928              	.LBI166:
 275:CMSIS_5/CMSIS/Core/Include/cmsis_gcc.h **** {
 929              		.loc 2 275 27 discriminator 4 view .LVU288
 930              	.LBB167:
 277:CMSIS_5/CMSIS/Core/Include/cmsis_gcc.h **** }
 931              		.loc 2 277 3 discriminator 4 view .LVU289
 932              		.syntax unified
 933              	@ 277 "CMSIS_5/CMSIS/Core/Include/cmsis_gcc.h" 1
 934 0096 BFF34F8F 		dsb 0xF
 935              	@ 0 "" 2
 936              		.thumb
 937              		.syntax unified
 938              	.L83:
 939              	.LBE167:
 940              	.LBE166:
 326:stm32f4xx-hal-driver/Src/stm32f4xx_hal_nor.c ****     }
 941              		.loc 1 326 7 discriminator 5 view .LVU290
 329:stm32f4xx-hal-driver/Src/stm32f4xx_hal_nor.c **** 
 942              		.loc 1 329 5 discriminator 5 view .LVU291
 329:stm32f4xx-hal-driver/Src/stm32f4xx_hal_nor.c **** 
 943              		.loc 1 329 43 is_stmt 0 discriminator 5 view .LVU292
 944 009a 154A     		ldr	r2, .L102
 945 009c 1268     		ldr	r2, [r2]
 329:stm32f4xx-hal-driver/Src/stm32f4xx_hal_nor.c **** 
 946              		.loc 1 329 25 discriminator 5 view .LVU293
 947 009e 012A     		cmp	r2, #1
 948 00a0 21D0     		beq	.L100
 329:stm32f4xx-hal-driver/Src/stm32f4xx_hal_nor.c **** 
 949              		.loc 1 329 25 discriminator 2 view .LVU294
 950 00a2 1333     		adds	r3, r3, #19
 951              	.LVL55:
 952              	.L87:
ARM GAS  /tmp/ccEpvYTV.s 			page 36


 329:stm32f4xx-hal-driver/Src/stm32f4xx_hal_nor.c **** 
 953              		.loc 1 329 24 discriminator 4 view .LVU295
 954 00a4 1B88     		ldrh	r3, [r3]
 955 00a6 9BB2     		uxth	r3, r3
 329:stm32f4xx-hal-driver/Src/stm32f4xx_hal_nor.c **** 
 956              		.loc 1 329 22 discriminator 4 view .LVU296
 957 00a8 E364     		str	r3, [r4, #76]
 331:stm32f4xx-hal-driver/Src/stm32f4xx_hal_nor.c ****   }
 958              		.loc 1 331 5 is_stmt 1 discriminator 4 view .LVU297
 331:stm32f4xx-hal-driver/Src/stm32f4xx_hal_nor.c ****   }
 959              		.loc 1 331 14 is_stmt 0 discriminator 4 view .LVU298
 960 00aa 2046     		mov	r0, r4
 961 00ac FFF7FEFF 		bl	HAL_NOR_ReturnToReadMode
 962              	.LVL56:
 963              	.L74:
 335:stm32f4xx-hal-driver/Src/stm32f4xx_hal_nor.c **** 
 964              		.loc 1 335 1 view .LVU299
 965 00b0 70BD     		pop	{r4, r5, r6, pc}
 966              	.LVL57:
 967              	.L90:
 298:stm32f4xx-hal-driver/Src/stm32f4xx_hal_nor.c ****   }
 968              		.loc 1 298 19 view .LVU300
 969 00b2 4FF0C843 		mov	r3, #1677721600
 970 00b6 E3E7     		b	.L78
 971              	.LVL58:
 972              	.L98:
 311:stm32f4xx-hal-driver/Src/stm32f4xx_hal_nor.c **** 
 973              		.loc 1 311 5 is_stmt 1 view .LVU301
 311:stm32f4xx-hal-driver/Src/stm32f4xx_hal_nor.c **** 
 974              		.loc 1 311 11 is_stmt 0 view .LVU302
 975 00b8 2068     		ldr	r0, [r4]
 976 00ba FFF7FEFF 		bl	FSMC_NORSRAM_WriteOperation_Disable
 977              	.LVL59:
 314:stm32f4xx-hal-driver/Src/stm32f4xx_hal_nor.c ****   }
 978              		.loc 1 314 5 is_stmt 1 view .LVU303
 314:stm32f4xx-hal-driver/Src/stm32f4xx_hal_nor.c ****   }
 979              		.loc 1 314 17 is_stmt 0 view .LVU304
 980 00be 0423     		movs	r3, #4
 981 00c0 84F84930 		strb	r3, [r4, #73]
 238:stm32f4xx-hal-driver/Src/stm32f4xx_hal_nor.c **** 
 982              		.loc 1 238 21 view .LVU305
 983 00c4 0020     		movs	r0, #0
 984 00c6 F3E7     		b	.L74
 985              	.LVL60:
 986              	.L99:
 321:stm32f4xx-hal-driver/Src/stm32f4xx_hal_nor.c ****                 NOR_CMD_DATA_CFI);
 987              		.loc 1 321 7 discriminator 1 view .LVU306
 988 00c8 03F5AA72 		add	r2, r3, #340
 989 00cc E1E7     		b	.L82
 990              	.L80:
 326:stm32f4xx-hal-driver/Src/stm32f4xx_hal_nor.c ****     }
 991              		.loc 1 326 7 is_stmt 1 view .LVU307
 326:stm32f4xx-hal-driver/Src/stm32f4xx_hal_nor.c ****     }
 992              		.loc 1 326 7 view .LVU308
 993 00ce 012A     		cmp	r2, #1
 994 00d0 06D0     		beq	.L101
 326:stm32f4xx-hal-driver/Src/stm32f4xx_hal_nor.c ****     }
ARM GAS  /tmp/ccEpvYTV.s 			page 37


 995              		.loc 1 326 7 is_stmt 0 discriminator 2 view .LVU309
 996 00d2 03F15502 		add	r2, r3, #85
 997              	.L85:
 326:stm32f4xx-hal-driver/Src/stm32f4xx_hal_nor.c ****     }
 998              		.loc 1 326 7 discriminator 4 view .LVU310
 999 00d6 9821     		movs	r1, #152
 1000 00d8 1180     		strh	r1, [r2]	@ movhi
 326:stm32f4xx-hal-driver/Src/stm32f4xx_hal_nor.c ****     }
 1001              		.loc 1 326 7 is_stmt 1 discriminator 4 view .LVU311
 1002              	.LBB168:
 1003              	.LBI168:
 275:CMSIS_5/CMSIS/Core/Include/cmsis_gcc.h **** {
 1004              		.loc 2 275 27 discriminator 4 view .LVU312
 1005              	.LBB169:
 277:CMSIS_5/CMSIS/Core/Include/cmsis_gcc.h **** }
 1006              		.loc 2 277 3 discriminator 4 view .LVU313
 1007              		.syntax unified
 1008              	@ 277 "CMSIS_5/CMSIS/Core/Include/cmsis_gcc.h" 1
 1009 00da BFF34F8F 		dsb 0xF
 1010              	@ 0 "" 2
 1011              		.loc 2 278 1 is_stmt 0 discriminator 4 view .LVU314
 1012              		.thumb
 1013              		.syntax unified
 1014 00de DCE7     		b	.L83
 1015              	.L101:
 1016              	.LBE169:
 1017              	.LBE168:
 326:stm32f4xx-hal-driver/Src/stm32f4xx_hal_nor.c ****     }
 1018              		.loc 1 326 7 discriminator 1 view .LVU315
 1019 00e0 03F1AA02 		add	r2, r3, #170
 1020 00e4 F7E7     		b	.L85
 1021              	.L100:
 329:stm32f4xx-hal-driver/Src/stm32f4xx_hal_nor.c **** 
 1022              		.loc 1 329 25 discriminator 1 view .LVU316
 1023 00e6 2633     		adds	r3, r3, #38
 1024              	.LVL61:
 329:stm32f4xx-hal-driver/Src/stm32f4xx_hal_nor.c **** 
 1025              		.loc 1 329 25 discriminator 1 view .LVU317
 1026 00e8 DCE7     		b	.L87
 1027              	.LVL62:
 1028              	.L88:
 1029              	.LCFI6:
 1030              		.cfi_def_cfa_offset 0
 1031              		.cfi_restore 4
 1032              		.cfi_restore 5
 1033              		.cfi_restore 6
 1034              		.cfi_restore 14
 243:stm32f4xx-hal-driver/Src/stm32f4xx_hal_nor.c ****   }
 1035              		.loc 1 243 12 view .LVU318
 1036 00ea 0120     		movs	r0, #1
 1037              	.LVL63:
 335:stm32f4xx-hal-driver/Src/stm32f4xx_hal_nor.c **** 
 1038              		.loc 1 335 1 view .LVU319
 1039 00ec 7047     		bx	lr
 1040              	.L103:
 1041 00ee 00BF     		.align	2
 1042              	.L102:
ARM GAS  /tmp/ccEpvYTV.s 			page 38


 1043 00f0 00000000 		.word	.LANCHOR0
 1044              		.cfi_endproc
 1045              	.LFE239:
 1047              		.section	.text.HAL_NOR_Read,"ax",%progbits
 1048              		.align	1
 1049              		.global	HAL_NOR_Read
 1050              		.syntax unified
 1051              		.thumb
 1052              		.thumb_func
 1053              		.fpu fpv4-sp-d16
 1055              	HAL_NOR_Read:
 1056              	.LVL64:
 1057              	.LFB246:
 618:stm32f4xx-hal-driver/Src/stm32f4xx_hal_nor.c **** 
 619:stm32f4xx-hal-driver/Src/stm32f4xx_hal_nor.c **** /**
 620:stm32f4xx-hal-driver/Src/stm32f4xx_hal_nor.c ****   * @brief  Read data from NOR memory
 621:stm32f4xx-hal-driver/Src/stm32f4xx_hal_nor.c ****   * @param  hnor pointer to a NOR_HandleTypeDef structure that contains
 622:stm32f4xx-hal-driver/Src/stm32f4xx_hal_nor.c ****   *                the configuration information for NOR module.
 623:stm32f4xx-hal-driver/Src/stm32f4xx_hal_nor.c ****   * @param  pAddress pointer to Device address
 624:stm32f4xx-hal-driver/Src/stm32f4xx_hal_nor.c ****   * @param  pData  pointer to read data
 625:stm32f4xx-hal-driver/Src/stm32f4xx_hal_nor.c ****   * @retval HAL status
 626:stm32f4xx-hal-driver/Src/stm32f4xx_hal_nor.c ****   */
 627:stm32f4xx-hal-driver/Src/stm32f4xx_hal_nor.c **** HAL_StatusTypeDef HAL_NOR_Read(NOR_HandleTypeDef *hnor, uint32_t *pAddress, uint16_t *pData)
 628:stm32f4xx-hal-driver/Src/stm32f4xx_hal_nor.c **** {
 1058              		.loc 1 628 1 is_stmt 1 view -0
 1059              		.cfi_startproc
 1060              		@ args = 0, pretend = 0, frame = 0
 1061              		@ frame_needed = 0, uses_anonymous_args = 0
 1062              		@ link register save eliminated.
 1063              		.loc 1 628 1 is_stmt 0 view .LVU321
 1064 0000 70B4     		push	{r4, r5, r6}
 1065              	.LCFI7:
 1066              		.cfi_def_cfa_offset 12
 1067              		.cfi_offset 4, -12
 1068              		.cfi_offset 5, -8
 1069              		.cfi_offset 6, -4
 629:stm32f4xx-hal-driver/Src/stm32f4xx_hal_nor.c ****   uint32_t deviceaddress;
 1070              		.loc 1 629 3 is_stmt 1 view .LVU322
 630:stm32f4xx-hal-driver/Src/stm32f4xx_hal_nor.c ****   HAL_NOR_StateTypeDef state;
 1071              		.loc 1 630 3 view .LVU323
 631:stm32f4xx-hal-driver/Src/stm32f4xx_hal_nor.c ****   HAL_StatusTypeDef status = HAL_OK;
 1072              		.loc 1 631 3 view .LVU324
 1073              	.LVL65:
 632:stm32f4xx-hal-driver/Src/stm32f4xx_hal_nor.c **** 
 633:stm32f4xx-hal-driver/Src/stm32f4xx_hal_nor.c ****   /* Check the NOR controller state */
 634:stm32f4xx-hal-driver/Src/stm32f4xx_hal_nor.c ****   state = hnor->State;
 1074              		.loc 1 634 3 view .LVU325
 1075              		.loc 1 634 9 is_stmt 0 view .LVU326
 1076 0002 90F84940 		ldrb	r4, [r0, #73]	@ zero_extendqisi2
 1077 0006 E4B2     		uxtb	r4, r4
 1078              	.LVL66:
 635:stm32f4xx-hal-driver/Src/stm32f4xx_hal_nor.c ****   if (state == HAL_NOR_STATE_BUSY)
 1079              		.loc 1 635 3 is_stmt 1 view .LVU327
 1080              		.loc 1 635 6 is_stmt 0 view .LVU328
 1081 0008 022C     		cmp	r4, #2
 1082 000a 00F08880 		beq	.L123
 1083 000e 0346     		mov	r3, r0
ARM GAS  /tmp/ccEpvYTV.s 			page 39


 636:stm32f4xx-hal-driver/Src/stm32f4xx_hal_nor.c ****   {
 637:stm32f4xx-hal-driver/Src/stm32f4xx_hal_nor.c ****     return HAL_BUSY;
 638:stm32f4xx-hal-driver/Src/stm32f4xx_hal_nor.c ****   }
 639:stm32f4xx-hal-driver/Src/stm32f4xx_hal_nor.c ****   else if (state == HAL_NOR_STATE_PROTECTED)
 1084              		.loc 1 639 8 is_stmt 1 view .LVU329
 1085              		.loc 1 639 11 is_stmt 0 view .LVU330
 1086 0010 042C     		cmp	r4, #4
 1087 0012 00F08680 		beq	.L124
 640:stm32f4xx-hal-driver/Src/stm32f4xx_hal_nor.c ****   {
 641:stm32f4xx-hal-driver/Src/stm32f4xx_hal_nor.c ****     return HAL_ERROR;
 642:stm32f4xx-hal-driver/Src/stm32f4xx_hal_nor.c ****   }
 643:stm32f4xx-hal-driver/Src/stm32f4xx_hal_nor.c ****   else if (state == HAL_NOR_STATE_READY)
 1088              		.loc 1 643 8 is_stmt 1 view .LVU331
 1089              		.loc 1 643 11 is_stmt 0 view .LVU332
 1090 0016 012C     		cmp	r4, #1
 1091 0018 40F08580 		bne	.L125
 644:stm32f4xx-hal-driver/Src/stm32f4xx_hal_nor.c ****   {
 645:stm32f4xx-hal-driver/Src/stm32f4xx_hal_nor.c ****     /* Process Locked */
 646:stm32f4xx-hal-driver/Src/stm32f4xx_hal_nor.c ****     __HAL_LOCK(hnor);
 1092              		.loc 1 646 5 is_stmt 1 view .LVU333
 1093              		.loc 1 646 5 view .LVU334
 1094 001c 90F84800 		ldrb	r0, [r0, #72]	@ zero_extendqisi2
 1095              	.LVL67:
 1096              		.loc 1 646 5 is_stmt 0 view .LVU335
 1097 0020 0128     		cmp	r0, #1
 1098 0022 00F08380 		beq	.L126
 1099              		.loc 1 646 5 is_stmt 1 discriminator 2 view .LVU336
 1100 0026 0120     		movs	r0, #1
 1101 0028 83F84800 		strb	r0, [r3, #72]
 1102              		.loc 1 646 5 discriminator 2 view .LVU337
 647:stm32f4xx-hal-driver/Src/stm32f4xx_hal_nor.c **** 
 648:stm32f4xx-hal-driver/Src/stm32f4xx_hal_nor.c ****     /* Update the NOR controller state */
 649:stm32f4xx-hal-driver/Src/stm32f4xx_hal_nor.c ****     hnor->State = HAL_NOR_STATE_BUSY;
 1103              		.loc 1 649 5 discriminator 2 view .LVU338
 1104              		.loc 1 649 17 is_stmt 0 discriminator 2 view .LVU339
 1105 002c 0220     		movs	r0, #2
 1106 002e 83F84900 		strb	r0, [r3, #73]
 650:stm32f4xx-hal-driver/Src/stm32f4xx_hal_nor.c **** 
 651:stm32f4xx-hal-driver/Src/stm32f4xx_hal_nor.c ****     /* Select the NOR device address */
 652:stm32f4xx-hal-driver/Src/stm32f4xx_hal_nor.c ****     if (hnor->Init.NSBank == FMC_NORSRAM_BANK1)
 1107              		.loc 1 652 5 is_stmt 1 discriminator 2 view .LVU340
 1108              		.loc 1 652 19 is_stmt 0 discriminator 2 view .LVU341
 1109 0032 9868     		ldr	r0, [r3, #8]
 1110              		.loc 1 652 8 discriminator 2 view .LVU342
 1111 0034 48B1     		cbz	r0, .L127
 653:stm32f4xx-hal-driver/Src/stm32f4xx_hal_nor.c ****     {
 654:stm32f4xx-hal-driver/Src/stm32f4xx_hal_nor.c ****       deviceaddress = NOR_MEMORY_ADRESS1;
 655:stm32f4xx-hal-driver/Src/stm32f4xx_hal_nor.c ****     }
 656:stm32f4xx-hal-driver/Src/stm32f4xx_hal_nor.c ****     else if (hnor->Init.NSBank == FMC_NORSRAM_BANK2)
 1112              		.loc 1 656 10 is_stmt 1 view .LVU343
 1113              		.loc 1 656 13 is_stmt 0 view .LVU344
 1114 0036 0228     		cmp	r0, #2
 1115 0038 10D0     		beq	.L128
 657:stm32f4xx-hal-driver/Src/stm32f4xx_hal_nor.c ****     {
 658:stm32f4xx-hal-driver/Src/stm32f4xx_hal_nor.c ****       deviceaddress = NOR_MEMORY_ADRESS2;
 659:stm32f4xx-hal-driver/Src/stm32f4xx_hal_nor.c ****     }
 660:stm32f4xx-hal-driver/Src/stm32f4xx_hal_nor.c ****     else if (hnor->Init.NSBank == FMC_NORSRAM_BANK3)
ARM GAS  /tmp/ccEpvYTV.s 			page 40


 1116              		.loc 1 660 10 is_stmt 1 view .LVU345
 1117              		.loc 1 660 13 is_stmt 0 view .LVU346
 1118 003a 0428     		cmp	r0, #4
 1119 003c 02D0     		beq	.L132
 661:stm32f4xx-hal-driver/Src/stm32f4xx_hal_nor.c ****     {
 662:stm32f4xx-hal-driver/Src/stm32f4xx_hal_nor.c ****       deviceaddress = NOR_MEMORY_ADRESS3;
 663:stm32f4xx-hal-driver/Src/stm32f4xx_hal_nor.c ****     }
 664:stm32f4xx-hal-driver/Src/stm32f4xx_hal_nor.c ****     else /* FMC_NORSRAM_BANK4 */
 665:stm32f4xx-hal-driver/Src/stm32f4xx_hal_nor.c ****     {
 666:stm32f4xx-hal-driver/Src/stm32f4xx_hal_nor.c ****       deviceaddress = NOR_MEMORY_ADRESS4;
 1120              		.loc 1 666 21 view .LVU347
 1121 003e 4FF0D840 		mov	r0, #1811939328
 1122 0042 04E0     		b	.L106
 1123              	.L132:
 662:stm32f4xx-hal-driver/Src/stm32f4xx_hal_nor.c ****     }
 1124              		.loc 1 662 21 view .LVU348
 1125 0044 4FF0D040 		mov	r0, #1744830464
 1126 0048 01E0     		b	.L106
 1127              	.L127:
 654:stm32f4xx-hal-driver/Src/stm32f4xx_hal_nor.c ****     }
 1128              		.loc 1 654 21 view .LVU349
 1129 004a 4FF0C040 		mov	r0, #1610612736
 1130              	.L106:
 1131              	.LVL68:
 667:stm32f4xx-hal-driver/Src/stm32f4xx_hal_nor.c ****     }
 668:stm32f4xx-hal-driver/Src/stm32f4xx_hal_nor.c **** 
 669:stm32f4xx-hal-driver/Src/stm32f4xx_hal_nor.c ****     /* Send read data command */
 670:stm32f4xx-hal-driver/Src/stm32f4xx_hal_nor.c ****     if (hnor->CommandSet == NOR_AMD_FUJITSU_COMMAND_SET)
 1132              		.loc 1 670 5 is_stmt 1 view .LVU350
 1133              		.loc 1 670 13 is_stmt 0 view .LVU351
 1134 004e DD6C     		ldr	r5, [r3, #76]
 1135              		.loc 1 670 8 view .LVU352
 1136 0050 022D     		cmp	r5, #2
 1137 0052 06D0     		beq	.L133
 671:stm32f4xx-hal-driver/Src/stm32f4xx_hal_nor.c ****     {
 672:stm32f4xx-hal-driver/Src/stm32f4xx_hal_nor.c ****       if (uwNORMemoryDataWidth == NOR_MEMORY_8B)
 673:stm32f4xx-hal-driver/Src/stm32f4xx_hal_nor.c ****       {
 674:stm32f4xx-hal-driver/Src/stm32f4xx_hal_nor.c ****         NOR_WRITE(NOR_ADDR_SHIFT(deviceaddress, uwNORMemoryDataWidth, NOR_CMD_ADDRESS_FIRST_BYTE),
 675:stm32f4xx-hal-driver/Src/stm32f4xx_hal_nor.c ****                   NOR_CMD_DATA_FIRST);
 676:stm32f4xx-hal-driver/Src/stm32f4xx_hal_nor.c ****         NOR_WRITE(NOR_ADDR_SHIFT(deviceaddress, uwNORMemoryDataWidth, NOR_CMD_ADDRESS_SECOND_BYTE),
 677:stm32f4xx-hal-driver/Src/stm32f4xx_hal_nor.c ****                   NOR_CMD_DATA_SECOND);
 678:stm32f4xx-hal-driver/Src/stm32f4xx_hal_nor.c ****         NOR_WRITE(NOR_ADDR_SHIFT(deviceaddress, uwNORMemoryDataWidth, NOR_CMD_ADDRESS_THIRD_BYTE),
 679:stm32f4xx-hal-driver/Src/stm32f4xx_hal_nor.c ****                   NOR_CMD_DATA_READ_RESET);
 680:stm32f4xx-hal-driver/Src/stm32f4xx_hal_nor.c ****       }
 681:stm32f4xx-hal-driver/Src/stm32f4xx_hal_nor.c ****       else
 682:stm32f4xx-hal-driver/Src/stm32f4xx_hal_nor.c ****       {
 683:stm32f4xx-hal-driver/Src/stm32f4xx_hal_nor.c ****         NOR_WRITE(NOR_ADDR_SHIFT(deviceaddress, uwNORMemoryDataWidth, NOR_CMD_ADDRESS_FIRST), NOR_C
 684:stm32f4xx-hal-driver/Src/stm32f4xx_hal_nor.c ****         NOR_WRITE(NOR_ADDR_SHIFT(deviceaddress, uwNORMemoryDataWidth, NOR_CMD_ADDRESS_SECOND), NOR_
 685:stm32f4xx-hal-driver/Src/stm32f4xx_hal_nor.c ****         NOR_WRITE(NOR_ADDR_SHIFT(deviceaddress, uwNORMemoryDataWidth, NOR_CMD_ADDRESS_THIRD),
 686:stm32f4xx-hal-driver/Src/stm32f4xx_hal_nor.c ****                   NOR_CMD_DATA_READ_RESET);
 687:stm32f4xx-hal-driver/Src/stm32f4xx_hal_nor.c ****       }
 688:stm32f4xx-hal-driver/Src/stm32f4xx_hal_nor.c ****     }
 689:stm32f4xx-hal-driver/Src/stm32f4xx_hal_nor.c ****     else if (hnor->CommandSet == NOR_INTEL_SHARP_EXT_COMMAND_SET)
 1138              		.loc 1 689 10 is_stmt 1 view .LVU353
 1139              		.loc 1 689 13 is_stmt 0 view .LVU354
 1140 0054 012D     		cmp	r5, #1
 1141 0056 55D0     		beq	.L134
ARM GAS  /tmp/ccEpvYTV.s 			page 41


 690:stm32f4xx-hal-driver/Src/stm32f4xx_hal_nor.c ****     {
 691:stm32f4xx-hal-driver/Src/stm32f4xx_hal_nor.c ****       NOR_WRITE(pAddress, NOR_CMD_READ_ARRAY);
 692:stm32f4xx-hal-driver/Src/stm32f4xx_hal_nor.c ****     }
 693:stm32f4xx-hal-driver/Src/stm32f4xx_hal_nor.c ****     else
 694:stm32f4xx-hal-driver/Src/stm32f4xx_hal_nor.c ****     {
 695:stm32f4xx-hal-driver/Src/stm32f4xx_hal_nor.c ****       /* Primary command set not supported by the driver */
 696:stm32f4xx-hal-driver/Src/stm32f4xx_hal_nor.c ****       status = HAL_ERROR;
 1142              		.loc 1 696 14 view .LVU355
 1143 0058 2046     		mov	r0, r4
 1144              	.LVL69:
 1145              		.loc 1 696 14 view .LVU356
 1146 005a 5AE0     		b	.L122
 1147              	.L128:
 658:stm32f4xx-hal-driver/Src/stm32f4xx_hal_nor.c ****     }
 1148              		.loc 1 658 21 view .LVU357
 1149 005c 4FF0C840 		mov	r0, #1677721600
 1150 0060 F5E7     		b	.L106
 1151              	.LVL70:
 1152              	.L133:
 672:stm32f4xx-hal-driver/Src/stm32f4xx_hal_nor.c ****       {
 1153              		.loc 1 672 7 is_stmt 1 view .LVU358
 672:stm32f4xx-hal-driver/Src/stm32f4xx_hal_nor.c ****       {
 1154              		.loc 1 672 32 is_stmt 0 view .LVU359
 1155 0062 334D     		ldr	r5, .L141
 1156 0064 2D68     		ldr	r5, [r5]
 672:stm32f4xx-hal-driver/Src/stm32f4xx_hal_nor.c ****       {
 1157              		.loc 1 672 10 view .LVU360
 1158 0066 3DBB     		cbnz	r5, .L108
 674:stm32f4xx-hal-driver/Src/stm32f4xx_hal_nor.c ****                   NOR_CMD_DATA_FIRST);
 1159              		.loc 1 674 9 is_stmt 1 view .LVU361
 674:stm32f4xx-hal-driver/Src/stm32f4xx_hal_nor.c ****                   NOR_CMD_DATA_FIRST);
 1160              		.loc 1 674 9 view .LVU362
 1161 0068 012D     		cmp	r5, #1
 1162 006a 1AD0     		beq	.L135
 674:stm32f4xx-hal-driver/Src/stm32f4xx_hal_nor.c ****                   NOR_CMD_DATA_FIRST);
 1163              		.loc 1 674 9 is_stmt 0 discriminator 2 view .LVU363
 1164 006c 00F6AA25 		addw	r5, r0, #2730
 1165              	.L110:
 674:stm32f4xx-hal-driver/Src/stm32f4xx_hal_nor.c ****                   NOR_CMD_DATA_FIRST);
 1166              		.loc 1 674 9 discriminator 4 view .LVU364
 1167 0070 AA26     		movs	r6, #170
 1168 0072 2E80     		strh	r6, [r5]	@ movhi
 674:stm32f4xx-hal-driver/Src/stm32f4xx_hal_nor.c ****                   NOR_CMD_DATA_FIRST);
 1169              		.loc 1 674 9 is_stmt 1 discriminator 4 view .LVU365
 1170              	.LBB170:
 1171              	.LBI170:
 275:CMSIS_5/CMSIS/Core/Include/cmsis_gcc.h **** {
 1172              		.loc 2 275 27 discriminator 4 view .LVU366
 1173              	.LBB171:
 277:CMSIS_5/CMSIS/Core/Include/cmsis_gcc.h **** }
 1174              		.loc 2 277 3 discriminator 4 view .LVU367
 1175              		.syntax unified
 1176              	@ 277 "CMSIS_5/CMSIS/Core/Include/cmsis_gcc.h" 1
 1177 0074 BFF34F8F 		dsb 0xF
 1178              	@ 0 "" 2
 1179              		.thumb
 1180              		.syntax unified
ARM GAS  /tmp/ccEpvYTV.s 			page 42


 1181              	.LBE171:
 1182              	.LBE170:
 674:stm32f4xx-hal-driver/Src/stm32f4xx_hal_nor.c ****                   NOR_CMD_DATA_FIRST);
 1183              		.loc 1 674 9 discriminator 4 view .LVU368
 676:stm32f4xx-hal-driver/Src/stm32f4xx_hal_nor.c ****                   NOR_CMD_DATA_SECOND);
 1184              		.loc 1 676 9 discriminator 4 view .LVU369
 676:stm32f4xx-hal-driver/Src/stm32f4xx_hal_nor.c ****                   NOR_CMD_DATA_SECOND);
 1185              		.loc 1 676 9 discriminator 4 view .LVU370
 1186 0078 2D4D     		ldr	r5, .L141
 1187 007a 2D68     		ldr	r5, [r5]
 1188 007c 012D     		cmp	r5, #1
 1189 007e 14D0     		beq	.L136
 676:stm32f4xx-hal-driver/Src/stm32f4xx_hal_nor.c ****                   NOR_CMD_DATA_SECOND);
 1190              		.loc 1 676 9 is_stmt 0 discriminator 2 view .LVU371
 1191 0080 00F25556 		addw	r6, r0, #1365
 1192              	.L112:
 676:stm32f4xx-hal-driver/Src/stm32f4xx_hal_nor.c ****                   NOR_CMD_DATA_SECOND);
 1193              		.loc 1 676 9 discriminator 4 view .LVU372
 1194 0084 5525     		movs	r5, #85
 1195 0086 3580     		strh	r5, [r6]	@ movhi
 676:stm32f4xx-hal-driver/Src/stm32f4xx_hal_nor.c ****                   NOR_CMD_DATA_SECOND);
 1196              		.loc 1 676 9 is_stmt 1 discriminator 4 view .LVU373
 1197              	.LBB172:
 1198              	.LBI172:
 275:CMSIS_5/CMSIS/Core/Include/cmsis_gcc.h **** {
 1199              		.loc 2 275 27 discriminator 4 view .LVU374
 1200              	.LBB173:
 277:CMSIS_5/CMSIS/Core/Include/cmsis_gcc.h **** }
 1201              		.loc 2 277 3 discriminator 4 view .LVU375
 1202              		.syntax unified
 1203              	@ 277 "CMSIS_5/CMSIS/Core/Include/cmsis_gcc.h" 1
 1204 0088 BFF34F8F 		dsb 0xF
 1205              	@ 0 "" 2
 1206              		.thumb
 1207              		.syntax unified
 1208              	.LBE173:
 1209              	.LBE172:
 676:stm32f4xx-hal-driver/Src/stm32f4xx_hal_nor.c ****                   NOR_CMD_DATA_SECOND);
 1210              		.loc 1 676 9 discriminator 4 view .LVU376
 678:stm32f4xx-hal-driver/Src/stm32f4xx_hal_nor.c ****                   NOR_CMD_DATA_READ_RESET);
 1211              		.loc 1 678 9 discriminator 4 view .LVU377
 678:stm32f4xx-hal-driver/Src/stm32f4xx_hal_nor.c ****                   NOR_CMD_DATA_READ_RESET);
 1212              		.loc 1 678 9 discriminator 4 view .LVU378
 1213 008c 284D     		ldr	r5, .L141
 1214 008e 2D68     		ldr	r5, [r5]
 1215 0090 012D     		cmp	r5, #1
 1216 0092 0DD0     		beq	.L137
 678:stm32f4xx-hal-driver/Src/stm32f4xx_hal_nor.c ****                   NOR_CMD_DATA_READ_RESET);
 1217              		.loc 1 678 9 is_stmt 0 discriminator 2 view .LVU379
 1218 0094 00F6AA20 		addw	r0, r0, #2730
 1219              	.LVL71:
 1220              	.L114:
 678:stm32f4xx-hal-driver/Src/stm32f4xx_hal_nor.c ****                   NOR_CMD_DATA_READ_RESET);
 1221              		.loc 1 678 9 discriminator 4 view .LVU380
 1222 0098 F025     		movs	r5, #240
 1223 009a 0580     		strh	r5, [r0]	@ movhi
 678:stm32f4xx-hal-driver/Src/stm32f4xx_hal_nor.c ****                   NOR_CMD_DATA_READ_RESET);
ARM GAS  /tmp/ccEpvYTV.s 			page 43


 1224              		.loc 1 678 9 is_stmt 1 discriminator 4 view .LVU381
 1225              	.LBB174:
 1226              	.LBI174:
 275:CMSIS_5/CMSIS/Core/Include/cmsis_gcc.h **** {
 1227              		.loc 2 275 27 discriminator 4 view .LVU382
 1228              	.LBB175:
 277:CMSIS_5/CMSIS/Core/Include/cmsis_gcc.h **** }
 1229              		.loc 2 277 3 discriminator 4 view .LVU383
 1230              		.syntax unified
 1231              	@ 277 "CMSIS_5/CMSIS/Core/Include/cmsis_gcc.h" 1
 1232 009c BFF34F8F 		dsb 0xF
 1233              	@ 0 "" 2
 277:CMSIS_5/CMSIS/Core/Include/cmsis_gcc.h **** }
 1234              		.loc 2 277 3 is_stmt 0 discriminator 4 view .LVU384
 1235              		.thumb
 1236              		.syntax unified
 1237              	.LBE175:
 1238              	.LBE174:
 697:stm32f4xx-hal-driver/Src/stm32f4xx_hal_nor.c ****     }
 698:stm32f4xx-hal-driver/Src/stm32f4xx_hal_nor.c **** 
 699:stm32f4xx-hal-driver/Src/stm32f4xx_hal_nor.c ****     if (status != HAL_ERROR)
 1239              		.loc 1 699 5 is_stmt 1 discriminator 4 view .LVU385
 1240 00a0 34E0     		b	.L115
 1241              	.LVL72:
 1242              	.L135:
 674:stm32f4xx-hal-driver/Src/stm32f4xx_hal_nor.c ****                   NOR_CMD_DATA_FIRST);
 1243              		.loc 1 674 9 is_stmt 0 discriminator 1 view .LVU386
 1244 00a2 00F5AA55 		add	r5, r0, #5440
 1245 00a6 1435     		adds	r5, r5, #20
 1246 00a8 E2E7     		b	.L110
 1247              	.L136:
 676:stm32f4xx-hal-driver/Src/stm32f4xx_hal_nor.c ****                   NOR_CMD_DATA_SECOND);
 1248              		.loc 1 676 9 discriminator 1 view .LVU387
 1249 00aa 00F6AA26 		addw	r6, r0, #2730
 1250 00ae E9E7     		b	.L112
 1251              	.L137:
 678:stm32f4xx-hal-driver/Src/stm32f4xx_hal_nor.c ****                   NOR_CMD_DATA_READ_RESET);
 1252              		.loc 1 678 9 discriminator 1 view .LVU388
 1253 00b0 00F5AA50 		add	r0, r0, #5440
 1254              	.LVL73:
 678:stm32f4xx-hal-driver/Src/stm32f4xx_hal_nor.c ****                   NOR_CMD_DATA_READ_RESET);
 1255              		.loc 1 678 9 discriminator 1 view .LVU389
 1256 00b4 1430     		adds	r0, r0, #20
 1257              	.LVL74:
 678:stm32f4xx-hal-driver/Src/stm32f4xx_hal_nor.c ****                   NOR_CMD_DATA_READ_RESET);
 1258              		.loc 1 678 9 discriminator 1 view .LVU390
 1259 00b6 EFE7     		b	.L114
 1260              	.LVL75:
 1261              	.L108:
 683:stm32f4xx-hal-driver/Src/stm32f4xx_hal_nor.c ****         NOR_WRITE(NOR_ADDR_SHIFT(deviceaddress, uwNORMemoryDataWidth, NOR_CMD_ADDRESS_SECOND), NOR_
 1262              		.loc 1 683 9 is_stmt 1 view .LVU391
 683:stm32f4xx-hal-driver/Src/stm32f4xx_hal_nor.c ****         NOR_WRITE(NOR_ADDR_SHIFT(deviceaddress, uwNORMemoryDataWidth, NOR_CMD_ADDRESS_SECOND), NOR_
 1263              		.loc 1 683 9 view .LVU392
 1264 00b8 012D     		cmp	r5, #1
 1265 00ba 1AD0     		beq	.L138
 683:stm32f4xx-hal-driver/Src/stm32f4xx_hal_nor.c ****         NOR_WRITE(NOR_ADDR_SHIFT(deviceaddress, uwNORMemoryDataWidth, NOR_CMD_ADDRESS_SECOND), NOR_
 1266              		.loc 1 683 9 is_stmt 0 discriminator 2 view .LVU393
ARM GAS  /tmp/ccEpvYTV.s 			page 44


 1267 00bc 00F25556 		addw	r6, r0, #1365
 1268              	.L117:
 683:stm32f4xx-hal-driver/Src/stm32f4xx_hal_nor.c ****         NOR_WRITE(NOR_ADDR_SHIFT(deviceaddress, uwNORMemoryDataWidth, NOR_CMD_ADDRESS_SECOND), NOR_
 1269              		.loc 1 683 9 discriminator 4 view .LVU394
 1270 00c0 AA25     		movs	r5, #170
 1271 00c2 3580     		strh	r5, [r6]	@ movhi
 683:stm32f4xx-hal-driver/Src/stm32f4xx_hal_nor.c ****         NOR_WRITE(NOR_ADDR_SHIFT(deviceaddress, uwNORMemoryDataWidth, NOR_CMD_ADDRESS_SECOND), NOR_
 1272              		.loc 1 683 9 is_stmt 1 discriminator 4 view .LVU395
 1273              	.LBB176:
 1274              	.LBI176:
 275:CMSIS_5/CMSIS/Core/Include/cmsis_gcc.h **** {
 1275              		.loc 2 275 27 discriminator 4 view .LVU396
 1276              	.LBB177:
 277:CMSIS_5/CMSIS/Core/Include/cmsis_gcc.h **** }
 1277              		.loc 2 277 3 discriminator 4 view .LVU397
 1278              		.syntax unified
 1279              	@ 277 "CMSIS_5/CMSIS/Core/Include/cmsis_gcc.h" 1
 1280 00c4 BFF34F8F 		dsb 0xF
 1281              	@ 0 "" 2
 1282              		.thumb
 1283              		.syntax unified
 1284              	.LBE177:
 1285              	.LBE176:
 683:stm32f4xx-hal-driver/Src/stm32f4xx_hal_nor.c ****         NOR_WRITE(NOR_ADDR_SHIFT(deviceaddress, uwNORMemoryDataWidth, NOR_CMD_ADDRESS_SECOND), NOR_
 1286              		.loc 1 683 9 discriminator 4 view .LVU398
 684:stm32f4xx-hal-driver/Src/stm32f4xx_hal_nor.c ****         NOR_WRITE(NOR_ADDR_SHIFT(deviceaddress, uwNORMemoryDataWidth, NOR_CMD_ADDRESS_THIRD),
 1287              		.loc 1 684 9 discriminator 4 view .LVU399
 684:stm32f4xx-hal-driver/Src/stm32f4xx_hal_nor.c ****         NOR_WRITE(NOR_ADDR_SHIFT(deviceaddress, uwNORMemoryDataWidth, NOR_CMD_ADDRESS_THIRD),
 1288              		.loc 1 684 9 discriminator 4 view .LVU400
 1289 00c8 194D     		ldr	r5, .L141
 1290 00ca 2D68     		ldr	r5, [r5]
 1291 00cc 012D     		cmp	r5, #1
 1292 00ce 13D0     		beq	.L139
 684:stm32f4xx-hal-driver/Src/stm32f4xx_hal_nor.c ****         NOR_WRITE(NOR_ADDR_SHIFT(deviceaddress, uwNORMemoryDataWidth, NOR_CMD_ADDRESS_THIRD),
 1293              		.loc 1 684 9 is_stmt 0 discriminator 2 view .LVU401
 1294 00d0 00F2AA26 		addw	r6, r0, #682
 1295              	.L119:
 684:stm32f4xx-hal-driver/Src/stm32f4xx_hal_nor.c ****         NOR_WRITE(NOR_ADDR_SHIFT(deviceaddress, uwNORMemoryDataWidth, NOR_CMD_ADDRESS_THIRD),
 1296              		.loc 1 684 9 discriminator 4 view .LVU402
 1297 00d4 5525     		movs	r5, #85
 1298 00d6 3580     		strh	r5, [r6]	@ movhi
 684:stm32f4xx-hal-driver/Src/stm32f4xx_hal_nor.c ****         NOR_WRITE(NOR_ADDR_SHIFT(deviceaddress, uwNORMemoryDataWidth, NOR_CMD_ADDRESS_THIRD),
 1299              		.loc 1 684 9 is_stmt 1 discriminator 4 view .LVU403
 1300              	.LBB178:
 1301              	.LBI178:
 275:CMSIS_5/CMSIS/Core/Include/cmsis_gcc.h **** {
 1302              		.loc 2 275 27 discriminator 4 view .LVU404
 1303              	.LBB179:
 277:CMSIS_5/CMSIS/Core/Include/cmsis_gcc.h **** }
 1304              		.loc 2 277 3 discriminator 4 view .LVU405
 1305              		.syntax unified
 1306              	@ 277 "CMSIS_5/CMSIS/Core/Include/cmsis_gcc.h" 1
 1307 00d8 BFF34F8F 		dsb 0xF
 1308              	@ 0 "" 2
 1309              		.thumb
 1310              		.syntax unified
 1311              	.LBE179:
ARM GAS  /tmp/ccEpvYTV.s 			page 45


 1312              	.LBE178:
 684:stm32f4xx-hal-driver/Src/stm32f4xx_hal_nor.c ****         NOR_WRITE(NOR_ADDR_SHIFT(deviceaddress, uwNORMemoryDataWidth, NOR_CMD_ADDRESS_THIRD),
 1313              		.loc 1 684 9 discriminator 4 view .LVU406
 685:stm32f4xx-hal-driver/Src/stm32f4xx_hal_nor.c ****                   NOR_CMD_DATA_READ_RESET);
 1314              		.loc 1 685 9 discriminator 4 view .LVU407
 685:stm32f4xx-hal-driver/Src/stm32f4xx_hal_nor.c ****                   NOR_CMD_DATA_READ_RESET);
 1315              		.loc 1 685 9 discriminator 4 view .LVU408
 1316 00dc 144D     		ldr	r5, .L141
 1317 00de 2D68     		ldr	r5, [r5]
 1318 00e0 012D     		cmp	r5, #1
 1319 00e2 0CD0     		beq	.L140
 685:stm32f4xx-hal-driver/Src/stm32f4xx_hal_nor.c ****                   NOR_CMD_DATA_READ_RESET);
 1320              		.loc 1 685 9 is_stmt 0 discriminator 2 view .LVU409
 1321 00e4 00F25550 		addw	r0, r0, #1365
 1322              	.LVL76:
 1323              	.L121:
 685:stm32f4xx-hal-driver/Src/stm32f4xx_hal_nor.c ****                   NOR_CMD_DATA_READ_RESET);
 1324              		.loc 1 685 9 discriminator 4 view .LVU410
 1325 00e8 F025     		movs	r5, #240
 1326 00ea 0580     		strh	r5, [r0]	@ movhi
 685:stm32f4xx-hal-driver/Src/stm32f4xx_hal_nor.c ****                   NOR_CMD_DATA_READ_RESET);
 1327              		.loc 1 685 9 is_stmt 1 discriminator 4 view .LVU411
 1328              	.LBB180:
 1329              	.LBI180:
 275:CMSIS_5/CMSIS/Core/Include/cmsis_gcc.h **** {
 1330              		.loc 2 275 27 discriminator 4 view .LVU412
 1331              	.LBB181:
 277:CMSIS_5/CMSIS/Core/Include/cmsis_gcc.h **** }
 1332              		.loc 2 277 3 discriminator 4 view .LVU413
 1333              		.syntax unified
 1334              	@ 277 "CMSIS_5/CMSIS/Core/Include/cmsis_gcc.h" 1
 1335 00ec BFF34F8F 		dsb 0xF
 1336              	@ 0 "" 2
 277:CMSIS_5/CMSIS/Core/Include/cmsis_gcc.h **** }
 1337              		.loc 2 277 3 is_stmt 0 discriminator 4 view .LVU414
 1338              		.thumb
 1339              		.syntax unified
 1340              	.LBE181:
 1341              	.LBE180:
 1342              		.loc 1 699 5 is_stmt 1 discriminator 4 view .LVU415
 1343 00f0 0CE0     		b	.L115
 1344              	.LVL77:
 1345              	.L138:
 683:stm32f4xx-hal-driver/Src/stm32f4xx_hal_nor.c ****         NOR_WRITE(NOR_ADDR_SHIFT(deviceaddress, uwNORMemoryDataWidth, NOR_CMD_ADDRESS_SECOND), NOR_
 1346              		.loc 1 683 9 is_stmt 0 discriminator 1 view .LVU416
 1347 00f2 00F6AA26 		addw	r6, r0, #2730
 1348 00f6 E3E7     		b	.L117
 1349              	.L139:
 684:stm32f4xx-hal-driver/Src/stm32f4xx_hal_nor.c ****         NOR_WRITE(NOR_ADDR_SHIFT(deviceaddress, uwNORMemoryDataWidth, NOR_CMD_ADDRESS_THIRD),
 1350              		.loc 1 684 9 discriminator 1 view .LVU417
 1351 00f8 00F25456 		addw	r6, r0, #1364
 1352 00fc EAE7     		b	.L119
 1353              	.L140:
 685:stm32f4xx-hal-driver/Src/stm32f4xx_hal_nor.c ****                   NOR_CMD_DATA_READ_RESET);
 1354              		.loc 1 685 9 discriminator 1 view .LVU418
 1355 00fe 00F6AA20 		addw	r0, r0, #2730
 1356              	.LVL78:
ARM GAS  /tmp/ccEpvYTV.s 			page 46


 685:stm32f4xx-hal-driver/Src/stm32f4xx_hal_nor.c ****                   NOR_CMD_DATA_READ_RESET);
 1357              		.loc 1 685 9 discriminator 1 view .LVU419
 1358 0102 F1E7     		b	.L121
 1359              	.LVL79:
 1360              	.L134:
 691:stm32f4xx-hal-driver/Src/stm32f4xx_hal_nor.c ****     }
 1361              		.loc 1 691 7 is_stmt 1 view .LVU420
 691:stm32f4xx-hal-driver/Src/stm32f4xx_hal_nor.c ****     }
 1362              		.loc 1 691 7 view .LVU421
 1363 0104 FF20     		movs	r0, #255
 1364              	.LVL80:
 691:stm32f4xx-hal-driver/Src/stm32f4xx_hal_nor.c ****     }
 1365              		.loc 1 691 7 is_stmt 0 view .LVU422
 1366 0106 0880     		strh	r0, [r1]	@ movhi
 691:stm32f4xx-hal-driver/Src/stm32f4xx_hal_nor.c ****     }
 1367              		.loc 1 691 7 is_stmt 1 view .LVU423
 1368              	.LBB182:
 1369              	.LBI182:
 275:CMSIS_5/CMSIS/Core/Include/cmsis_gcc.h **** {
 1370              		.loc 2 275 27 view .LVU424
 1371              	.LBB183:
 277:CMSIS_5/CMSIS/Core/Include/cmsis_gcc.h **** }
 1372              		.loc 2 277 3 view .LVU425
 1373              		.syntax unified
 1374              	@ 277 "CMSIS_5/CMSIS/Core/Include/cmsis_gcc.h" 1
 1375 0108 BFF34F8F 		dsb 0xF
 1376              	@ 0 "" 2
 277:CMSIS_5/CMSIS/Core/Include/cmsis_gcc.h **** }
 1377              		.loc 2 277 3 is_stmt 0 view .LVU426
 1378              		.thumb
 1379              		.syntax unified
 1380              	.LBE183:
 1381              	.LBE182:
 1382              		.loc 1 699 5 is_stmt 1 view .LVU427
 1383              	.L115:
 700:stm32f4xx-hal-driver/Src/stm32f4xx_hal_nor.c ****     {
 701:stm32f4xx-hal-driver/Src/stm32f4xx_hal_nor.c ****       /* Read the data */
 702:stm32f4xx-hal-driver/Src/stm32f4xx_hal_nor.c ****       *pData = (uint16_t)(*(__IO uint32_t *)pAddress);
 1384              		.loc 1 702 7 view .LVU428
 1385              		.loc 1 702 27 is_stmt 0 view .LVU429
 1386 010c 0968     		ldr	r1, [r1]
 1387              	.LVL81:
 1388              		.loc 1 702 14 view .LVU430
 1389 010e 1180     		strh	r1, [r2]	@ movhi
 1390 0110 0020     		movs	r0, #0
 1391              	.L122:
 1392              	.LVL82:
 703:stm32f4xx-hal-driver/Src/stm32f4xx_hal_nor.c ****     }
 704:stm32f4xx-hal-driver/Src/stm32f4xx_hal_nor.c **** 
 705:stm32f4xx-hal-driver/Src/stm32f4xx_hal_nor.c ****     /* Check the NOR controller state */
 706:stm32f4xx-hal-driver/Src/stm32f4xx_hal_nor.c ****     hnor->State = state;
 1393              		.loc 1 706 5 is_stmt 1 view .LVU431
 1394              		.loc 1 706 17 is_stmt 0 view .LVU432
 1395 0112 83F84940 		strb	r4, [r3, #73]
 707:stm32f4xx-hal-driver/Src/stm32f4xx_hal_nor.c **** 
 708:stm32f4xx-hal-driver/Src/stm32f4xx_hal_nor.c ****     /* Process unlocked */
 709:stm32f4xx-hal-driver/Src/stm32f4xx_hal_nor.c ****     __HAL_UNLOCK(hnor);
ARM GAS  /tmp/ccEpvYTV.s 			page 47


 1396              		.loc 1 709 5 is_stmt 1 view .LVU433
 1397              		.loc 1 709 5 view .LVU434
 1398 0116 0022     		movs	r2, #0
 1399              	.LVL83:
 1400              		.loc 1 709 5 is_stmt 0 view .LVU435
 1401 0118 83F84820 		strb	r2, [r3, #72]
 1402              		.loc 1 709 5 is_stmt 1 view .LVU436
 710:stm32f4xx-hal-driver/Src/stm32f4xx_hal_nor.c ****   }
 711:stm32f4xx-hal-driver/Src/stm32f4xx_hal_nor.c ****   else
 712:stm32f4xx-hal-driver/Src/stm32f4xx_hal_nor.c ****   {
 713:stm32f4xx-hal-driver/Src/stm32f4xx_hal_nor.c ****     return HAL_ERROR;
 714:stm32f4xx-hal-driver/Src/stm32f4xx_hal_nor.c ****   }
 715:stm32f4xx-hal-driver/Src/stm32f4xx_hal_nor.c **** 
 716:stm32f4xx-hal-driver/Src/stm32f4xx_hal_nor.c ****   return status;
 1403              		.loc 1 716 3 view .LVU437
 1404              		.loc 1 716 10 is_stmt 0 view .LVU438
 1405 011c 04E0     		b	.L105
 1406              	.LVL84:
 1407              	.L123:
 637:stm32f4xx-hal-driver/Src/stm32f4xx_hal_nor.c ****   }
 1408              		.loc 1 637 12 view .LVU439
 1409 011e 2046     		mov	r0, r4
 1410              	.LVL85:
 637:stm32f4xx-hal-driver/Src/stm32f4xx_hal_nor.c ****   }
 1411              		.loc 1 637 12 view .LVU440
 1412 0120 02E0     		b	.L105
 1413              	.LVL86:
 1414              	.L124:
 641:stm32f4xx-hal-driver/Src/stm32f4xx_hal_nor.c ****   }
 1415              		.loc 1 641 12 view .LVU441
 1416 0122 0120     		movs	r0, #1
 1417              	.LVL87:
 641:stm32f4xx-hal-driver/Src/stm32f4xx_hal_nor.c ****   }
 1418              		.loc 1 641 12 view .LVU442
 1419 0124 00E0     		b	.L105
 1420              	.LVL88:
 1421              	.L125:
 713:stm32f4xx-hal-driver/Src/stm32f4xx_hal_nor.c ****   }
 1422              		.loc 1 713 12 view .LVU443
 1423 0126 0120     		movs	r0, #1
 1424              	.LVL89:
 1425              	.L105:
 717:stm32f4xx-hal-driver/Src/stm32f4xx_hal_nor.c **** }
 1426              		.loc 1 717 1 view .LVU444
 1427 0128 70BC     		pop	{r4, r5, r6}
 1428              	.LCFI8:
 1429              		.cfi_remember_state
 1430              		.cfi_restore 6
 1431              		.cfi_restore 5
 1432              		.cfi_restore 4
 1433              		.cfi_def_cfa_offset 0
 1434              	.LVL90:
 1435              		.loc 1 717 1 view .LVU445
 1436 012a 7047     		bx	lr
 1437              	.LVL91:
 1438              	.L126:
 1439              	.LCFI9:
ARM GAS  /tmp/ccEpvYTV.s 			page 48


 1440              		.cfi_restore_state
 646:stm32f4xx-hal-driver/Src/stm32f4xx_hal_nor.c **** 
 1441              		.loc 1 646 5 view .LVU446
 1442 012c 0220     		movs	r0, #2
 1443 012e FBE7     		b	.L105
 1444              	.L142:
 1445              		.align	2
 1446              	.L141:
 1447 0130 00000000 		.word	.LANCHOR0
 1448              		.cfi_endproc
 1449              	.LFE246:
 1451              		.section	.text.HAL_NOR_Program,"ax",%progbits
 1452              		.align	1
 1453              		.global	HAL_NOR_Program
 1454              		.syntax unified
 1455              		.thumb
 1456              		.thumb_func
 1457              		.fpu fpv4-sp-d16
 1459              	HAL_NOR_Program:
 1460              	.LVL92:
 1461              	.LFB247:
 718:stm32f4xx-hal-driver/Src/stm32f4xx_hal_nor.c **** 
 719:stm32f4xx-hal-driver/Src/stm32f4xx_hal_nor.c **** /**
 720:stm32f4xx-hal-driver/Src/stm32f4xx_hal_nor.c ****   * @brief  Program data to NOR memory
 721:stm32f4xx-hal-driver/Src/stm32f4xx_hal_nor.c ****   * @param  hnor pointer to a NOR_HandleTypeDef structure that contains
 722:stm32f4xx-hal-driver/Src/stm32f4xx_hal_nor.c ****   *                the configuration information for NOR module.
 723:stm32f4xx-hal-driver/Src/stm32f4xx_hal_nor.c ****   * @param  pAddress Device address
 724:stm32f4xx-hal-driver/Src/stm32f4xx_hal_nor.c ****   * @param  pData  pointer to the data to write
 725:stm32f4xx-hal-driver/Src/stm32f4xx_hal_nor.c ****   * @retval HAL status
 726:stm32f4xx-hal-driver/Src/stm32f4xx_hal_nor.c ****   */
 727:stm32f4xx-hal-driver/Src/stm32f4xx_hal_nor.c **** HAL_StatusTypeDef HAL_NOR_Program(NOR_HandleTypeDef *hnor, uint32_t *pAddress, uint16_t *pData)
 728:stm32f4xx-hal-driver/Src/stm32f4xx_hal_nor.c **** {
 1462              		.loc 1 728 1 is_stmt 1 view -0
 1463              		.cfi_startproc
 1464              		@ args = 0, pretend = 0, frame = 0
 1465              		@ frame_needed = 0, uses_anonymous_args = 0
 1466              		@ link register save eliminated.
 1467              		.loc 1 728 1 is_stmt 0 view .LVU448
 1468 0000 30B4     		push	{r4, r5}
 1469              	.LCFI10:
 1470              		.cfi_def_cfa_offset 8
 1471              		.cfi_offset 4, -8
 1472              		.cfi_offset 5, -4
 1473 0002 0446     		mov	r4, r0
 729:stm32f4xx-hal-driver/Src/stm32f4xx_hal_nor.c ****   uint32_t deviceaddress;
 1474              		.loc 1 729 3 is_stmt 1 view .LVU449
 730:stm32f4xx-hal-driver/Src/stm32f4xx_hal_nor.c ****   HAL_StatusTypeDef status = HAL_OK;
 1475              		.loc 1 730 3 view .LVU450
 1476              	.LVL93:
 731:stm32f4xx-hal-driver/Src/stm32f4xx_hal_nor.c **** 
 732:stm32f4xx-hal-driver/Src/stm32f4xx_hal_nor.c ****   /* Check the NOR controller state */
 733:stm32f4xx-hal-driver/Src/stm32f4xx_hal_nor.c ****   if (hnor->State == HAL_NOR_STATE_BUSY)
 1477              		.loc 1 733 3 view .LVU451
 1478              		.loc 1 733 11 is_stmt 0 view .LVU452
 1479 0004 90F84930 		ldrb	r3, [r0, #73]	@ zero_extendqisi2
 1480 0008 D8B2     		uxtb	r0, r3
 1481              	.LVL94:
ARM GAS  /tmp/ccEpvYTV.s 			page 49


 1482              		.loc 1 733 6 view .LVU453
 1483 000a 0228     		cmp	r0, #2
 1484 000c 00F08880 		beq	.L144
 734:stm32f4xx-hal-driver/Src/stm32f4xx_hal_nor.c ****   {
 735:stm32f4xx-hal-driver/Src/stm32f4xx_hal_nor.c ****     return HAL_BUSY;
 736:stm32f4xx-hal-driver/Src/stm32f4xx_hal_nor.c ****   }
 737:stm32f4xx-hal-driver/Src/stm32f4xx_hal_nor.c ****   else if (hnor->State == HAL_NOR_STATE_READY)
 1485              		.loc 1 737 8 is_stmt 1 view .LVU454
 1486              		.loc 1 737 16 is_stmt 0 view .LVU455
 1487 0010 94F84930 		ldrb	r3, [r4, #73]	@ zero_extendqisi2
 1488 0014 D8B2     		uxtb	r0, r3
 1489              		.loc 1 737 11 view .LVU456
 1490 0016 0128     		cmp	r0, #1
 1491 0018 40F08180 		bne	.L162
 738:stm32f4xx-hal-driver/Src/stm32f4xx_hal_nor.c ****   {
 739:stm32f4xx-hal-driver/Src/stm32f4xx_hal_nor.c ****     /* Process Locked */
 740:stm32f4xx-hal-driver/Src/stm32f4xx_hal_nor.c ****     __HAL_LOCK(hnor);
 1492              		.loc 1 740 5 is_stmt 1 view .LVU457
 1493              		.loc 1 740 5 view .LVU458
 1494 001c 94F84830 		ldrb	r3, [r4, #72]	@ zero_extendqisi2
 1495 0020 012B     		cmp	r3, #1
 1496 0022 7FD0     		beq	.L163
 1497              		.loc 1 740 5 discriminator 2 view .LVU459
 1498 0024 0123     		movs	r3, #1
 1499 0026 84F84830 		strb	r3, [r4, #72]
 1500              		.loc 1 740 5 discriminator 2 view .LVU460
 741:stm32f4xx-hal-driver/Src/stm32f4xx_hal_nor.c **** 
 742:stm32f4xx-hal-driver/Src/stm32f4xx_hal_nor.c ****     /* Update the NOR controller state */
 743:stm32f4xx-hal-driver/Src/stm32f4xx_hal_nor.c ****     hnor->State = HAL_NOR_STATE_BUSY;
 1501              		.loc 1 743 5 discriminator 2 view .LVU461
 1502              		.loc 1 743 17 is_stmt 0 discriminator 2 view .LVU462
 1503 002a 0223     		movs	r3, #2
 1504 002c 84F84930 		strb	r3, [r4, #73]
 744:stm32f4xx-hal-driver/Src/stm32f4xx_hal_nor.c **** 
 745:stm32f4xx-hal-driver/Src/stm32f4xx_hal_nor.c ****     /* Select the NOR device address */
 746:stm32f4xx-hal-driver/Src/stm32f4xx_hal_nor.c ****     if (hnor->Init.NSBank == FMC_NORSRAM_BANK1)
 1505              		.loc 1 746 5 is_stmt 1 discriminator 2 view .LVU463
 1506              		.loc 1 746 19 is_stmt 0 discriminator 2 view .LVU464
 1507 0030 A368     		ldr	r3, [r4, #8]
 1508              		.loc 1 746 8 discriminator 2 view .LVU465
 1509 0032 4BB1     		cbz	r3, .L164
 747:stm32f4xx-hal-driver/Src/stm32f4xx_hal_nor.c ****     {
 748:stm32f4xx-hal-driver/Src/stm32f4xx_hal_nor.c ****       deviceaddress = NOR_MEMORY_ADRESS1;
 749:stm32f4xx-hal-driver/Src/stm32f4xx_hal_nor.c ****     }
 750:stm32f4xx-hal-driver/Src/stm32f4xx_hal_nor.c ****     else if (hnor->Init.NSBank == FMC_NORSRAM_BANK2)
 1510              		.loc 1 750 10 is_stmt 1 view .LVU466
 1511              		.loc 1 750 13 is_stmt 0 view .LVU467
 1512 0034 022B     		cmp	r3, #2
 1513 0036 1ED0     		beq	.L165
 751:stm32f4xx-hal-driver/Src/stm32f4xx_hal_nor.c ****     {
 752:stm32f4xx-hal-driver/Src/stm32f4xx_hal_nor.c ****       deviceaddress = NOR_MEMORY_ADRESS2;
 753:stm32f4xx-hal-driver/Src/stm32f4xx_hal_nor.c ****     }
 754:stm32f4xx-hal-driver/Src/stm32f4xx_hal_nor.c ****     else if (hnor->Init.NSBank == FMC_NORSRAM_BANK3)
 1514              		.loc 1 754 10 is_stmt 1 view .LVU468
 1515              		.loc 1 754 13 is_stmt 0 view .LVU469
 1516 0038 042B     		cmp	r3, #4
 1517 003a 02D0     		beq	.L168
ARM GAS  /tmp/ccEpvYTV.s 			page 50


 755:stm32f4xx-hal-driver/Src/stm32f4xx_hal_nor.c ****     {
 756:stm32f4xx-hal-driver/Src/stm32f4xx_hal_nor.c ****       deviceaddress = NOR_MEMORY_ADRESS3;
 757:stm32f4xx-hal-driver/Src/stm32f4xx_hal_nor.c ****     }
 758:stm32f4xx-hal-driver/Src/stm32f4xx_hal_nor.c ****     else /* FMC_NORSRAM_BANK4 */
 759:stm32f4xx-hal-driver/Src/stm32f4xx_hal_nor.c ****     {
 760:stm32f4xx-hal-driver/Src/stm32f4xx_hal_nor.c ****       deviceaddress = NOR_MEMORY_ADRESS4;
 1518              		.loc 1 760 21 view .LVU470
 1519 003c 4FF0D843 		mov	r3, #1811939328
 1520 0040 04E0     		b	.L145
 1521              	.L168:
 756:stm32f4xx-hal-driver/Src/stm32f4xx_hal_nor.c ****     }
 1522              		.loc 1 756 21 view .LVU471
 1523 0042 4FF0D043 		mov	r3, #1744830464
 1524 0046 01E0     		b	.L145
 1525              	.L164:
 748:stm32f4xx-hal-driver/Src/stm32f4xx_hal_nor.c ****     }
 1526              		.loc 1 748 21 view .LVU472
 1527 0048 4FF0C043 		mov	r3, #1610612736
 1528              	.L145:
 1529              	.LVL95:
 761:stm32f4xx-hal-driver/Src/stm32f4xx_hal_nor.c ****     }
 762:stm32f4xx-hal-driver/Src/stm32f4xx_hal_nor.c **** 
 763:stm32f4xx-hal-driver/Src/stm32f4xx_hal_nor.c ****     /* Send program data command */
 764:stm32f4xx-hal-driver/Src/stm32f4xx_hal_nor.c ****     if (hnor->CommandSet == NOR_AMD_FUJITSU_COMMAND_SET)
 1530              		.loc 1 764 5 is_stmt 1 view .LVU473
 1531              		.loc 1 764 13 is_stmt 0 view .LVU474
 1532 004c E56C     		ldr	r5, [r4, #76]
 1533              		.loc 1 764 8 view .LVU475
 1534 004e 022D     		cmp	r5, #2
 1535 0050 14D0     		beq	.L169
 765:stm32f4xx-hal-driver/Src/stm32f4xx_hal_nor.c ****     {
 766:stm32f4xx-hal-driver/Src/stm32f4xx_hal_nor.c ****       if (uwNORMemoryDataWidth == NOR_MEMORY_8B)
 767:stm32f4xx-hal-driver/Src/stm32f4xx_hal_nor.c ****       {
 768:stm32f4xx-hal-driver/Src/stm32f4xx_hal_nor.c ****         NOR_WRITE(NOR_ADDR_SHIFT(deviceaddress, uwNORMemoryDataWidth, NOR_CMD_ADDRESS_FIRST_BYTE),
 769:stm32f4xx-hal-driver/Src/stm32f4xx_hal_nor.c ****                   NOR_CMD_DATA_FIRST);
 770:stm32f4xx-hal-driver/Src/stm32f4xx_hal_nor.c ****         NOR_WRITE(NOR_ADDR_SHIFT(deviceaddress, uwNORMemoryDataWidth, NOR_CMD_ADDRESS_SECOND_BYTE),
 771:stm32f4xx-hal-driver/Src/stm32f4xx_hal_nor.c ****                   NOR_CMD_DATA_SECOND);
 772:stm32f4xx-hal-driver/Src/stm32f4xx_hal_nor.c ****         NOR_WRITE(NOR_ADDR_SHIFT(deviceaddress, uwNORMemoryDataWidth, NOR_CMD_ADDRESS_THIRD_BYTE),
 773:stm32f4xx-hal-driver/Src/stm32f4xx_hal_nor.c ****                   NOR_CMD_DATA_PROGRAM);
 774:stm32f4xx-hal-driver/Src/stm32f4xx_hal_nor.c ****       }
 775:stm32f4xx-hal-driver/Src/stm32f4xx_hal_nor.c ****       else
 776:stm32f4xx-hal-driver/Src/stm32f4xx_hal_nor.c ****       {
 777:stm32f4xx-hal-driver/Src/stm32f4xx_hal_nor.c ****         NOR_WRITE(NOR_ADDR_SHIFT(deviceaddress, uwNORMemoryDataWidth, NOR_CMD_ADDRESS_FIRST), NOR_C
 778:stm32f4xx-hal-driver/Src/stm32f4xx_hal_nor.c ****         NOR_WRITE(NOR_ADDR_SHIFT(deviceaddress, uwNORMemoryDataWidth, NOR_CMD_ADDRESS_SECOND), NOR_
 779:stm32f4xx-hal-driver/Src/stm32f4xx_hal_nor.c ****         NOR_WRITE(NOR_ADDR_SHIFT(deviceaddress, uwNORMemoryDataWidth, NOR_CMD_ADDRESS_THIRD), NOR_C
 780:stm32f4xx-hal-driver/Src/stm32f4xx_hal_nor.c ****       }
 781:stm32f4xx-hal-driver/Src/stm32f4xx_hal_nor.c ****     }
 782:stm32f4xx-hal-driver/Src/stm32f4xx_hal_nor.c ****     else if (hnor->CommandSet == NOR_INTEL_SHARP_EXT_COMMAND_SET)
 1536              		.loc 1 782 10 is_stmt 1 view .LVU476
 1537              		.loc 1 782 13 is_stmt 0 view .LVU477
 1538 0052 012D     		cmp	r5, #1
 1539 0054 08D1     		bne	.L161
 783:stm32f4xx-hal-driver/Src/stm32f4xx_hal_nor.c ****     {
 784:stm32f4xx-hal-driver/Src/stm32f4xx_hal_nor.c ****       NOR_WRITE(pAddress, NOR_CMD_WORD_PROGRAM);
 1540              		.loc 1 784 7 is_stmt 1 view .LVU478
 1541              		.loc 1 784 7 view .LVU479
 1542 0056 4023     		movs	r3, #64
ARM GAS  /tmp/ccEpvYTV.s 			page 51


 1543              	.LVL96:
 1544              		.loc 1 784 7 is_stmt 0 view .LVU480
 1545 0058 0B80     		strh	r3, [r1]	@ movhi
 1546              		.loc 1 784 7 is_stmt 1 view .LVU481
 1547              	.LBB184:
 1548              	.LBI184:
 275:CMSIS_5/CMSIS/Core/Include/cmsis_gcc.h **** {
 1549              		.loc 2 275 27 view .LVU482
 1550              	.LBB185:
 277:CMSIS_5/CMSIS/Core/Include/cmsis_gcc.h **** }
 1551              		.loc 2 277 3 view .LVU483
 1552              		.syntax unified
 1553              	@ 277 "CMSIS_5/CMSIS/Core/Include/cmsis_gcc.h" 1
 1554 005a BFF34F8F 		dsb 0xF
 1555              	@ 0 "" 2
 277:CMSIS_5/CMSIS/Core/Include/cmsis_gcc.h **** }
 1556              		.loc 2 277 3 is_stmt 0 view .LVU484
 1557              		.thumb
 1558              		.syntax unified
 1559              	.LBE185:
 1560              	.LBE184:
 785:stm32f4xx-hal-driver/Src/stm32f4xx_hal_nor.c ****     }
 786:stm32f4xx-hal-driver/Src/stm32f4xx_hal_nor.c ****     else
 787:stm32f4xx-hal-driver/Src/stm32f4xx_hal_nor.c ****     {
 788:stm32f4xx-hal-driver/Src/stm32f4xx_hal_nor.c ****       /* Primary command set not supported by the driver */
 789:stm32f4xx-hal-driver/Src/stm32f4xx_hal_nor.c ****       status = HAL_ERROR;
 790:stm32f4xx-hal-driver/Src/stm32f4xx_hal_nor.c ****     }
 791:stm32f4xx-hal-driver/Src/stm32f4xx_hal_nor.c **** 
 792:stm32f4xx-hal-driver/Src/stm32f4xx_hal_nor.c ****     if (status != HAL_ERROR)
 1561              		.loc 1 792 5 is_stmt 1 view .LVU485
 1562              	.L154:
 793:stm32f4xx-hal-driver/Src/stm32f4xx_hal_nor.c ****     {
 794:stm32f4xx-hal-driver/Src/stm32f4xx_hal_nor.c ****       /* Write the data */
 795:stm32f4xx-hal-driver/Src/stm32f4xx_hal_nor.c ****       NOR_WRITE(pAddress, *pData);
 1563              		.loc 1 795 7 view .LVU486
 1564              		.loc 1 795 7 view .LVU487
 1565 005e 1388     		ldrh	r3, [r2]
 1566 0060 0B80     		strh	r3, [r1]	@ movhi
 1567              		.loc 1 795 7 view .LVU488
 1568              	.LBB186:
 1569              	.LBI186:
 275:CMSIS_5/CMSIS/Core/Include/cmsis_gcc.h **** {
 1570              		.loc 2 275 27 view .LVU489
 1571              	.LBB187:
 277:CMSIS_5/CMSIS/Core/Include/cmsis_gcc.h **** }
 1572              		.loc 2 277 3 view .LVU490
 1573              		.syntax unified
 1574              	@ 277 "CMSIS_5/CMSIS/Core/Include/cmsis_gcc.h" 1
 1575 0062 BFF34F8F 		dsb 0xF
 1576              	@ 0 "" 2
 1577              		.loc 2 278 1 is_stmt 0 view .LVU491
 1578              		.thumb
 1579              		.syntax unified
 1580 0066 0020     		movs	r0, #0
 1581              	.L161:
 1582              	.LVL97:
 1583              		.loc 2 278 1 view .LVU492
ARM GAS  /tmp/ccEpvYTV.s 			page 52


 1584              	.LBE187:
 1585              	.LBE186:
 1586              		.loc 1 795 7 is_stmt 1 discriminator 1 view .LVU493
 796:stm32f4xx-hal-driver/Src/stm32f4xx_hal_nor.c ****     }
 797:stm32f4xx-hal-driver/Src/stm32f4xx_hal_nor.c **** 
 798:stm32f4xx-hal-driver/Src/stm32f4xx_hal_nor.c ****     /* Check the NOR controller state */
 799:stm32f4xx-hal-driver/Src/stm32f4xx_hal_nor.c ****     hnor->State = HAL_NOR_STATE_READY;
 1587              		.loc 1 799 5 discriminator 1 view .LVU494
 1588              		.loc 1 799 17 is_stmt 0 discriminator 1 view .LVU495
 1589 0068 0123     		movs	r3, #1
 1590 006a 84F84930 		strb	r3, [r4, #73]
 800:stm32f4xx-hal-driver/Src/stm32f4xx_hal_nor.c **** 
 801:stm32f4xx-hal-driver/Src/stm32f4xx_hal_nor.c ****     /* Process unlocked */
 802:stm32f4xx-hal-driver/Src/stm32f4xx_hal_nor.c ****     __HAL_UNLOCK(hnor);
 1591              		.loc 1 802 5 is_stmt 1 discriminator 1 view .LVU496
 1592              		.loc 1 802 5 discriminator 1 view .LVU497
 1593 006e 0023     		movs	r3, #0
 1594 0070 84F84830 		strb	r3, [r4, #72]
 1595              		.loc 1 802 5 discriminator 1 view .LVU498
 803:stm32f4xx-hal-driver/Src/stm32f4xx_hal_nor.c ****   }
 804:stm32f4xx-hal-driver/Src/stm32f4xx_hal_nor.c ****   else
 805:stm32f4xx-hal-driver/Src/stm32f4xx_hal_nor.c ****   {
 806:stm32f4xx-hal-driver/Src/stm32f4xx_hal_nor.c ****     return HAL_ERROR;
 807:stm32f4xx-hal-driver/Src/stm32f4xx_hal_nor.c ****   }
 808:stm32f4xx-hal-driver/Src/stm32f4xx_hal_nor.c **** 
 809:stm32f4xx-hal-driver/Src/stm32f4xx_hal_nor.c ****   return status;
 1596              		.loc 1 809 3 discriminator 1 view .LVU499
 1597              		.loc 1 809 10 is_stmt 0 discriminator 1 view .LVU500
 1598 0074 54E0     		b	.L144
 1599              	.LVL98:
 1600              	.L165:
 752:stm32f4xx-hal-driver/Src/stm32f4xx_hal_nor.c ****     }
 1601              		.loc 1 752 21 view .LVU501
 1602 0076 4FF0C843 		mov	r3, #1677721600
 1603 007a E7E7     		b	.L145
 1604              	.LVL99:
 1605              	.L169:
 766:stm32f4xx-hal-driver/Src/stm32f4xx_hal_nor.c ****       {
 1606              		.loc 1 766 7 is_stmt 1 view .LVU502
 766:stm32f4xx-hal-driver/Src/stm32f4xx_hal_nor.c ****       {
 1607              		.loc 1 766 32 is_stmt 0 view .LVU503
 1608 007c 2A48     		ldr	r0, .L176
 1609 007e 0068     		ldr	r0, [r0]
 766:stm32f4xx-hal-driver/Src/stm32f4xx_hal_nor.c ****       {
 1610              		.loc 1 766 10 view .LVU504
 1611 0080 38BB     		cbnz	r0, .L147
 768:stm32f4xx-hal-driver/Src/stm32f4xx_hal_nor.c ****                   NOR_CMD_DATA_FIRST);
 1612              		.loc 1 768 9 is_stmt 1 view .LVU505
 768:stm32f4xx-hal-driver/Src/stm32f4xx_hal_nor.c ****                   NOR_CMD_DATA_FIRST);
 1613              		.loc 1 768 9 view .LVU506
 1614 0082 0128     		cmp	r0, #1
 1615 0084 1AD0     		beq	.L170
 768:stm32f4xx-hal-driver/Src/stm32f4xx_hal_nor.c ****                   NOR_CMD_DATA_FIRST);
 1616              		.loc 1 768 9 is_stmt 0 discriminator 2 view .LVU507
 1617 0086 03F6AA20 		addw	r0, r3, #2730
 1618              	.L149:
 768:stm32f4xx-hal-driver/Src/stm32f4xx_hal_nor.c ****                   NOR_CMD_DATA_FIRST);
ARM GAS  /tmp/ccEpvYTV.s 			page 53


 1619              		.loc 1 768 9 discriminator 4 view .LVU508
 1620 008a AA25     		movs	r5, #170
 1621 008c 0580     		strh	r5, [r0]	@ movhi
 768:stm32f4xx-hal-driver/Src/stm32f4xx_hal_nor.c ****                   NOR_CMD_DATA_FIRST);
 1622              		.loc 1 768 9 is_stmt 1 discriminator 4 view .LVU509
 1623              	.LBB188:
 1624              	.LBI188:
 275:CMSIS_5/CMSIS/Core/Include/cmsis_gcc.h **** {
 1625              		.loc 2 275 27 discriminator 4 view .LVU510
 1626              	.LBB189:
 277:CMSIS_5/CMSIS/Core/Include/cmsis_gcc.h **** }
 1627              		.loc 2 277 3 discriminator 4 view .LVU511
 1628              		.syntax unified
 1629              	@ 277 "CMSIS_5/CMSIS/Core/Include/cmsis_gcc.h" 1
 1630 008e BFF34F8F 		dsb 0xF
 1631              	@ 0 "" 2
 1632              		.thumb
 1633              		.syntax unified
 1634              	.LBE189:
 1635              	.LBE188:
 768:stm32f4xx-hal-driver/Src/stm32f4xx_hal_nor.c ****                   NOR_CMD_DATA_FIRST);
 1636              		.loc 1 768 9 discriminator 4 view .LVU512
 770:stm32f4xx-hal-driver/Src/stm32f4xx_hal_nor.c ****                   NOR_CMD_DATA_SECOND);
 1637              		.loc 1 770 9 discriminator 4 view .LVU513
 770:stm32f4xx-hal-driver/Src/stm32f4xx_hal_nor.c ****                   NOR_CMD_DATA_SECOND);
 1638              		.loc 1 770 9 discriminator 4 view .LVU514
 1639 0092 2548     		ldr	r0, .L176
 1640 0094 0068     		ldr	r0, [r0]
 1641 0096 0128     		cmp	r0, #1
 1642 0098 14D0     		beq	.L171
 770:stm32f4xx-hal-driver/Src/stm32f4xx_hal_nor.c ****                   NOR_CMD_DATA_SECOND);
 1643              		.loc 1 770 9 is_stmt 0 discriminator 2 view .LVU515
 1644 009a 03F25550 		addw	r0, r3, #1365
 1645              	.L151:
 770:stm32f4xx-hal-driver/Src/stm32f4xx_hal_nor.c ****                   NOR_CMD_DATA_SECOND);
 1646              		.loc 1 770 9 discriminator 4 view .LVU516
 1647 009e 5525     		movs	r5, #85
 1648 00a0 0580     		strh	r5, [r0]	@ movhi
 770:stm32f4xx-hal-driver/Src/stm32f4xx_hal_nor.c ****                   NOR_CMD_DATA_SECOND);
 1649              		.loc 1 770 9 is_stmt 1 discriminator 4 view .LVU517
 1650              	.LBB190:
 1651              	.LBI190:
 275:CMSIS_5/CMSIS/Core/Include/cmsis_gcc.h **** {
 1652              		.loc 2 275 27 discriminator 4 view .LVU518
 1653              	.LBB191:
 277:CMSIS_5/CMSIS/Core/Include/cmsis_gcc.h **** }
 1654              		.loc 2 277 3 discriminator 4 view .LVU519
 1655              		.syntax unified
 1656              	@ 277 "CMSIS_5/CMSIS/Core/Include/cmsis_gcc.h" 1
 1657 00a2 BFF34F8F 		dsb 0xF
 1658              	@ 0 "" 2
 1659              		.thumb
 1660              		.syntax unified
 1661              	.LBE191:
 1662              	.LBE190:
 770:stm32f4xx-hal-driver/Src/stm32f4xx_hal_nor.c ****                   NOR_CMD_DATA_SECOND);
 1663              		.loc 1 770 9 discriminator 4 view .LVU520
ARM GAS  /tmp/ccEpvYTV.s 			page 54


 772:stm32f4xx-hal-driver/Src/stm32f4xx_hal_nor.c ****                   NOR_CMD_DATA_PROGRAM);
 1664              		.loc 1 772 9 discriminator 4 view .LVU521
 772:stm32f4xx-hal-driver/Src/stm32f4xx_hal_nor.c ****                   NOR_CMD_DATA_PROGRAM);
 1665              		.loc 1 772 9 discriminator 4 view .LVU522
 1666 00a6 2048     		ldr	r0, .L176
 1667 00a8 0068     		ldr	r0, [r0]
 1668 00aa 0128     		cmp	r0, #1
 1669 00ac 0DD0     		beq	.L172
 772:stm32f4xx-hal-driver/Src/stm32f4xx_hal_nor.c ****                   NOR_CMD_DATA_PROGRAM);
 1670              		.loc 1 772 9 is_stmt 0 discriminator 2 view .LVU523
 1671 00ae 03F6AA23 		addw	r3, r3, #2730
 1672              	.LVL100:
 1673              	.L153:
 772:stm32f4xx-hal-driver/Src/stm32f4xx_hal_nor.c ****                   NOR_CMD_DATA_PROGRAM);
 1674              		.loc 1 772 9 discriminator 4 view .LVU524
 1675 00b2 A020     		movs	r0, #160
 1676 00b4 1880     		strh	r0, [r3]	@ movhi
 772:stm32f4xx-hal-driver/Src/stm32f4xx_hal_nor.c ****                   NOR_CMD_DATA_PROGRAM);
 1677              		.loc 1 772 9 is_stmt 1 discriminator 4 view .LVU525
 1678              	.LBB192:
 1679              	.LBI192:
 275:CMSIS_5/CMSIS/Core/Include/cmsis_gcc.h **** {
 1680              		.loc 2 275 27 discriminator 4 view .LVU526
 1681              	.LBB193:
 277:CMSIS_5/CMSIS/Core/Include/cmsis_gcc.h **** }
 1682              		.loc 2 277 3 discriminator 4 view .LVU527
 1683              		.syntax unified
 1684              	@ 277 "CMSIS_5/CMSIS/Core/Include/cmsis_gcc.h" 1
 1685 00b6 BFF34F8F 		dsb 0xF
 1686              	@ 0 "" 2
 277:CMSIS_5/CMSIS/Core/Include/cmsis_gcc.h **** }
 1687              		.loc 2 277 3 is_stmt 0 discriminator 4 view .LVU528
 1688              		.thumb
 1689              		.syntax unified
 1690              	.LBE193:
 1691              	.LBE192:
 792:stm32f4xx-hal-driver/Src/stm32f4xx_hal_nor.c ****     {
 1692              		.loc 1 792 5 is_stmt 1 discriminator 4 view .LVU529
 1693 00ba D0E7     		b	.L154
 1694              	.LVL101:
 1695              	.L170:
 768:stm32f4xx-hal-driver/Src/stm32f4xx_hal_nor.c ****                   NOR_CMD_DATA_FIRST);
 1696              		.loc 1 768 9 is_stmt 0 discriminator 1 view .LVU530
 1697 00bc 03F5AA50 		add	r0, r3, #5440
 1698 00c0 1430     		adds	r0, r0, #20
 1699 00c2 E2E7     		b	.L149
 1700              	.L171:
 770:stm32f4xx-hal-driver/Src/stm32f4xx_hal_nor.c ****                   NOR_CMD_DATA_SECOND);
 1701              		.loc 1 770 9 discriminator 1 view .LVU531
 1702 00c4 03F6AA20 		addw	r0, r3, #2730
 1703 00c8 E9E7     		b	.L151
 1704              	.L172:
 772:stm32f4xx-hal-driver/Src/stm32f4xx_hal_nor.c ****                   NOR_CMD_DATA_PROGRAM);
 1705              		.loc 1 772 9 discriminator 1 view .LVU532
 1706 00ca 03F5AA53 		add	r3, r3, #5440
 1707              	.LVL102:
 772:stm32f4xx-hal-driver/Src/stm32f4xx_hal_nor.c ****                   NOR_CMD_DATA_PROGRAM);
ARM GAS  /tmp/ccEpvYTV.s 			page 55


 1708              		.loc 1 772 9 discriminator 1 view .LVU533
 1709 00ce 1433     		adds	r3, r3, #20
 1710              	.LVL103:
 772:stm32f4xx-hal-driver/Src/stm32f4xx_hal_nor.c ****                   NOR_CMD_DATA_PROGRAM);
 1711              		.loc 1 772 9 discriminator 1 view .LVU534
 1712 00d0 EFE7     		b	.L153
 1713              	.LVL104:
 1714              	.L147:
 777:stm32f4xx-hal-driver/Src/stm32f4xx_hal_nor.c ****         NOR_WRITE(NOR_ADDR_SHIFT(deviceaddress, uwNORMemoryDataWidth, NOR_CMD_ADDRESS_SECOND), NOR_
 1715              		.loc 1 777 9 is_stmt 1 view .LVU535
 777:stm32f4xx-hal-driver/Src/stm32f4xx_hal_nor.c ****         NOR_WRITE(NOR_ADDR_SHIFT(deviceaddress, uwNORMemoryDataWidth, NOR_CMD_ADDRESS_SECOND), NOR_
 1716              		.loc 1 777 9 view .LVU536
 1717 00d2 0128     		cmp	r0, #1
 1718 00d4 1AD0     		beq	.L173
 777:stm32f4xx-hal-driver/Src/stm32f4xx_hal_nor.c ****         NOR_WRITE(NOR_ADDR_SHIFT(deviceaddress, uwNORMemoryDataWidth, NOR_CMD_ADDRESS_SECOND), NOR_
 1719              		.loc 1 777 9 is_stmt 0 discriminator 2 view .LVU537
 1720 00d6 03F25550 		addw	r0, r3, #1365
 1721              	.L156:
 777:stm32f4xx-hal-driver/Src/stm32f4xx_hal_nor.c ****         NOR_WRITE(NOR_ADDR_SHIFT(deviceaddress, uwNORMemoryDataWidth, NOR_CMD_ADDRESS_SECOND), NOR_
 1722              		.loc 1 777 9 discriminator 4 view .LVU538
 1723 00da AA25     		movs	r5, #170
 1724 00dc 0580     		strh	r5, [r0]	@ movhi
 777:stm32f4xx-hal-driver/Src/stm32f4xx_hal_nor.c ****         NOR_WRITE(NOR_ADDR_SHIFT(deviceaddress, uwNORMemoryDataWidth, NOR_CMD_ADDRESS_SECOND), NOR_
 1725              		.loc 1 777 9 is_stmt 1 discriminator 4 view .LVU539
 1726              	.LBB194:
 1727              	.LBI194:
 275:CMSIS_5/CMSIS/Core/Include/cmsis_gcc.h **** {
 1728              		.loc 2 275 27 discriminator 4 view .LVU540
 1729              	.LBB195:
 277:CMSIS_5/CMSIS/Core/Include/cmsis_gcc.h **** }
 1730              		.loc 2 277 3 discriminator 4 view .LVU541
 1731              		.syntax unified
 1732              	@ 277 "CMSIS_5/CMSIS/Core/Include/cmsis_gcc.h" 1
 1733 00de BFF34F8F 		dsb 0xF
 1734              	@ 0 "" 2
 1735              		.thumb
 1736              		.syntax unified
 1737              	.LBE195:
 1738              	.LBE194:
 777:stm32f4xx-hal-driver/Src/stm32f4xx_hal_nor.c ****         NOR_WRITE(NOR_ADDR_SHIFT(deviceaddress, uwNORMemoryDataWidth, NOR_CMD_ADDRESS_SECOND), NOR_
 1739              		.loc 1 777 9 discriminator 4 view .LVU542
 778:stm32f4xx-hal-driver/Src/stm32f4xx_hal_nor.c ****         NOR_WRITE(NOR_ADDR_SHIFT(deviceaddress, uwNORMemoryDataWidth, NOR_CMD_ADDRESS_THIRD), NOR_C
 1740              		.loc 1 778 9 discriminator 4 view .LVU543
 778:stm32f4xx-hal-driver/Src/stm32f4xx_hal_nor.c ****         NOR_WRITE(NOR_ADDR_SHIFT(deviceaddress, uwNORMemoryDataWidth, NOR_CMD_ADDRESS_THIRD), NOR_C
 1741              		.loc 1 778 9 discriminator 4 view .LVU544
 1742 00e2 1148     		ldr	r0, .L176
 1743 00e4 0068     		ldr	r0, [r0]
 1744 00e6 0128     		cmp	r0, #1
 1745 00e8 13D0     		beq	.L174
 778:stm32f4xx-hal-driver/Src/stm32f4xx_hal_nor.c ****         NOR_WRITE(NOR_ADDR_SHIFT(deviceaddress, uwNORMemoryDataWidth, NOR_CMD_ADDRESS_THIRD), NOR_C
 1746              		.loc 1 778 9 is_stmt 0 discriminator 2 view .LVU545
 1747 00ea 03F2AA20 		addw	r0, r3, #682
 1748              	.L158:
 778:stm32f4xx-hal-driver/Src/stm32f4xx_hal_nor.c ****         NOR_WRITE(NOR_ADDR_SHIFT(deviceaddress, uwNORMemoryDataWidth, NOR_CMD_ADDRESS_THIRD), NOR_C
 1749              		.loc 1 778 9 discriminator 4 view .LVU546
 1750 00ee 5525     		movs	r5, #85
 1751 00f0 0580     		strh	r5, [r0]	@ movhi
ARM GAS  /tmp/ccEpvYTV.s 			page 56


 778:stm32f4xx-hal-driver/Src/stm32f4xx_hal_nor.c ****         NOR_WRITE(NOR_ADDR_SHIFT(deviceaddress, uwNORMemoryDataWidth, NOR_CMD_ADDRESS_THIRD), NOR_C
 1752              		.loc 1 778 9 is_stmt 1 discriminator 4 view .LVU547
 1753              	.LBB196:
 1754              	.LBI196:
 275:CMSIS_5/CMSIS/Core/Include/cmsis_gcc.h **** {
 1755              		.loc 2 275 27 discriminator 4 view .LVU548
 1756              	.LBB197:
 277:CMSIS_5/CMSIS/Core/Include/cmsis_gcc.h **** }
 1757              		.loc 2 277 3 discriminator 4 view .LVU549
 1758              		.syntax unified
 1759              	@ 277 "CMSIS_5/CMSIS/Core/Include/cmsis_gcc.h" 1
 1760 00f2 BFF34F8F 		dsb 0xF
 1761              	@ 0 "" 2
 1762              		.thumb
 1763              		.syntax unified
 1764              	.LBE197:
 1765              	.LBE196:
 778:stm32f4xx-hal-driver/Src/stm32f4xx_hal_nor.c ****         NOR_WRITE(NOR_ADDR_SHIFT(deviceaddress, uwNORMemoryDataWidth, NOR_CMD_ADDRESS_THIRD), NOR_C
 1766              		.loc 1 778 9 discriminator 4 view .LVU550
 779:stm32f4xx-hal-driver/Src/stm32f4xx_hal_nor.c ****       }
 1767              		.loc 1 779 9 discriminator 4 view .LVU551
 779:stm32f4xx-hal-driver/Src/stm32f4xx_hal_nor.c ****       }
 1768              		.loc 1 779 9 discriminator 4 view .LVU552
 1769 00f6 0C48     		ldr	r0, .L176
 1770 00f8 0068     		ldr	r0, [r0]
 1771 00fa 0128     		cmp	r0, #1
 1772 00fc 0CD0     		beq	.L175
 779:stm32f4xx-hal-driver/Src/stm32f4xx_hal_nor.c ****       }
 1773              		.loc 1 779 9 is_stmt 0 discriminator 2 view .LVU553
 1774 00fe 03F25553 		addw	r3, r3, #1365
 1775              	.LVL105:
 1776              	.L160:
 779:stm32f4xx-hal-driver/Src/stm32f4xx_hal_nor.c ****       }
 1777              		.loc 1 779 9 discriminator 4 view .LVU554
 1778 0102 A020     		movs	r0, #160
 1779 0104 1880     		strh	r0, [r3]	@ movhi
 779:stm32f4xx-hal-driver/Src/stm32f4xx_hal_nor.c ****       }
 1780              		.loc 1 779 9 is_stmt 1 discriminator 4 view .LVU555
 1781              	.LBB198:
 1782              	.LBI198:
 275:CMSIS_5/CMSIS/Core/Include/cmsis_gcc.h **** {
 1783              		.loc 2 275 27 discriminator 4 view .LVU556
 1784              	.LBB199:
 277:CMSIS_5/CMSIS/Core/Include/cmsis_gcc.h **** }
 1785              		.loc 2 277 3 discriminator 4 view .LVU557
 1786              		.syntax unified
 1787              	@ 277 "CMSIS_5/CMSIS/Core/Include/cmsis_gcc.h" 1
 1788 0106 BFF34F8F 		dsb 0xF
 1789              	@ 0 "" 2
 277:CMSIS_5/CMSIS/Core/Include/cmsis_gcc.h **** }
 1790              		.loc 2 277 3 is_stmt 0 discriminator 4 view .LVU558
 1791              		.thumb
 1792              		.syntax unified
 1793              	.LBE199:
 1794              	.LBE198:
 792:stm32f4xx-hal-driver/Src/stm32f4xx_hal_nor.c ****     {
 1795              		.loc 1 792 5 is_stmt 1 discriminator 4 view .LVU559
ARM GAS  /tmp/ccEpvYTV.s 			page 57


 1796 010a A8E7     		b	.L154
 1797              	.LVL106:
 1798              	.L173:
 777:stm32f4xx-hal-driver/Src/stm32f4xx_hal_nor.c ****         NOR_WRITE(NOR_ADDR_SHIFT(deviceaddress, uwNORMemoryDataWidth, NOR_CMD_ADDRESS_SECOND), NOR_
 1799              		.loc 1 777 9 is_stmt 0 discriminator 1 view .LVU560
 1800 010c 03F6AA20 		addw	r0, r3, #2730
 1801 0110 E3E7     		b	.L156
 1802              	.L174:
 778:stm32f4xx-hal-driver/Src/stm32f4xx_hal_nor.c ****         NOR_WRITE(NOR_ADDR_SHIFT(deviceaddress, uwNORMemoryDataWidth, NOR_CMD_ADDRESS_THIRD), NOR_C
 1803              		.loc 1 778 9 discriminator 1 view .LVU561
 1804 0112 03F25450 		addw	r0, r3, #1364
 1805 0116 EAE7     		b	.L158
 1806              	.L175:
 779:stm32f4xx-hal-driver/Src/stm32f4xx_hal_nor.c ****       }
 1807              		.loc 1 779 9 discriminator 1 view .LVU562
 1808 0118 03F6AA23 		addw	r3, r3, #2730
 1809              	.LVL107:
 779:stm32f4xx-hal-driver/Src/stm32f4xx_hal_nor.c ****       }
 1810              		.loc 1 779 9 discriminator 1 view .LVU563
 1811 011c F1E7     		b	.L160
 1812              	.LVL108:
 1813              	.L162:
 806:stm32f4xx-hal-driver/Src/stm32f4xx_hal_nor.c ****   }
 1814              		.loc 1 806 12 view .LVU564
 1815 011e 0120     		movs	r0, #1
 1816              	.LVL109:
 1817              	.L144:
 810:stm32f4xx-hal-driver/Src/stm32f4xx_hal_nor.c **** }
 1818              		.loc 1 810 1 view .LVU565
 1819 0120 30BC     		pop	{r4, r5}
 1820              	.LCFI11:
 1821              		.cfi_remember_state
 1822              		.cfi_restore 5
 1823              		.cfi_restore 4
 1824              		.cfi_def_cfa_offset 0
 1825              	.LVL110:
 1826              		.loc 1 810 1 view .LVU566
 1827 0122 7047     		bx	lr
 1828              	.LVL111:
 1829              	.L163:
 1830              	.LCFI12:
 1831              		.cfi_restore_state
 740:stm32f4xx-hal-driver/Src/stm32f4xx_hal_nor.c **** 
 1832              		.loc 1 740 5 view .LVU567
 1833 0124 0220     		movs	r0, #2
 1834 0126 FBE7     		b	.L144
 1835              	.L177:
 1836              		.align	2
 1837              	.L176:
 1838 0128 00000000 		.word	.LANCHOR0
 1839              		.cfi_endproc
 1840              	.LFE247:
 1842              		.section	.text.HAL_NOR_ReadBuffer,"ax",%progbits
 1843              		.align	1
 1844              		.global	HAL_NOR_ReadBuffer
 1845              		.syntax unified
 1846              		.thumb
ARM GAS  /tmp/ccEpvYTV.s 			page 58


 1847              		.thumb_func
 1848              		.fpu fpv4-sp-d16
 1850              	HAL_NOR_ReadBuffer:
 1851              	.LVL112:
 1852              	.LFB248:
 811:stm32f4xx-hal-driver/Src/stm32f4xx_hal_nor.c **** 
 812:stm32f4xx-hal-driver/Src/stm32f4xx_hal_nor.c **** /**
 813:stm32f4xx-hal-driver/Src/stm32f4xx_hal_nor.c ****   * @brief  Reads a half-word buffer from the NOR memory.
 814:stm32f4xx-hal-driver/Src/stm32f4xx_hal_nor.c ****   * @param  hnor pointer to the NOR handle
 815:stm32f4xx-hal-driver/Src/stm32f4xx_hal_nor.c ****   * @param  uwAddress NOR memory internal address to read from.
 816:stm32f4xx-hal-driver/Src/stm32f4xx_hal_nor.c ****   * @param  pData pointer to the buffer that receives the data read from the
 817:stm32f4xx-hal-driver/Src/stm32f4xx_hal_nor.c ****   *         NOR memory.
 818:stm32f4xx-hal-driver/Src/stm32f4xx_hal_nor.c ****   * @param  uwBufferSize  number of Half word to read.
 819:stm32f4xx-hal-driver/Src/stm32f4xx_hal_nor.c ****   * @retval HAL status
 820:stm32f4xx-hal-driver/Src/stm32f4xx_hal_nor.c ****   */
 821:stm32f4xx-hal-driver/Src/stm32f4xx_hal_nor.c **** HAL_StatusTypeDef HAL_NOR_ReadBuffer(NOR_HandleTypeDef *hnor, uint32_t uwAddress, uint16_t *pData,
 822:stm32f4xx-hal-driver/Src/stm32f4xx_hal_nor.c ****                                      uint32_t uwBufferSize)
 823:stm32f4xx-hal-driver/Src/stm32f4xx_hal_nor.c **** {
 1853              		.loc 1 823 1 is_stmt 1 view -0
 1854              		.cfi_startproc
 1855              		@ args = 0, pretend = 0, frame = 0
 1856              		@ frame_needed = 0, uses_anonymous_args = 0
 1857              		@ link register save eliminated.
 1858              		.loc 1 823 1 is_stmt 0 view .LVU569
 1859 0000 F0B4     		push	{r4, r5, r6, r7}
 1860              	.LCFI13:
 1861              		.cfi_def_cfa_offset 16
 1862              		.cfi_offset 4, -16
 1863              		.cfi_offset 5, -12
 1864              		.cfi_offset 6, -8
 1865              		.cfi_offset 7, -4
 824:stm32f4xx-hal-driver/Src/stm32f4xx_hal_nor.c ****   uint32_t deviceaddress;
 1866              		.loc 1 824 3 is_stmt 1 view .LVU570
 825:stm32f4xx-hal-driver/Src/stm32f4xx_hal_nor.c ****   uint32_t size = uwBufferSize;
 1867              		.loc 1 825 3 view .LVU571
 1868              	.LVL113:
 826:stm32f4xx-hal-driver/Src/stm32f4xx_hal_nor.c ****   uint32_t address = uwAddress;
 1869              		.loc 1 826 3 view .LVU572
 827:stm32f4xx-hal-driver/Src/stm32f4xx_hal_nor.c ****   uint16_t *data = pData;
 1870              		.loc 1 827 3 view .LVU573
 828:stm32f4xx-hal-driver/Src/stm32f4xx_hal_nor.c ****   HAL_NOR_StateTypeDef state;
 1871              		.loc 1 828 3 view .LVU574
 829:stm32f4xx-hal-driver/Src/stm32f4xx_hal_nor.c ****   HAL_StatusTypeDef status = HAL_OK;
 1872              		.loc 1 829 3 view .LVU575
 830:stm32f4xx-hal-driver/Src/stm32f4xx_hal_nor.c **** 
 831:stm32f4xx-hal-driver/Src/stm32f4xx_hal_nor.c ****   /* Check the NOR controller state */
 832:stm32f4xx-hal-driver/Src/stm32f4xx_hal_nor.c ****   state = hnor->State;
 1873              		.loc 1 832 3 view .LVU576
 1874              		.loc 1 832 9 is_stmt 0 view .LVU577
 1875 0002 90F84940 		ldrb	r4, [r0, #73]	@ zero_extendqisi2
 1876 0006 E4B2     		uxtb	r4, r4
 1877              	.LVL114:
 833:stm32f4xx-hal-driver/Src/stm32f4xx_hal_nor.c ****   if (state == HAL_NOR_STATE_BUSY)
 1878              		.loc 1 833 3 is_stmt 1 view .LVU578
 1879              		.loc 1 833 6 is_stmt 0 view .LVU579
 1880 0008 022C     		cmp	r4, #2
 1881 000a 00F08E80 		beq	.L199
ARM GAS  /tmp/ccEpvYTV.s 			page 59


 1882 000e 0646     		mov	r6, r0
 834:stm32f4xx-hal-driver/Src/stm32f4xx_hal_nor.c ****   {
 835:stm32f4xx-hal-driver/Src/stm32f4xx_hal_nor.c ****     return HAL_BUSY;
 836:stm32f4xx-hal-driver/Src/stm32f4xx_hal_nor.c ****   }
 837:stm32f4xx-hal-driver/Src/stm32f4xx_hal_nor.c ****   else if (state == HAL_NOR_STATE_PROTECTED)
 1883              		.loc 1 837 8 is_stmt 1 view .LVU580
 1884              		.loc 1 837 11 is_stmt 0 view .LVU581
 1885 0010 042C     		cmp	r4, #4
 1886 0012 00F08C80 		beq	.L200
 838:stm32f4xx-hal-driver/Src/stm32f4xx_hal_nor.c ****   {
 839:stm32f4xx-hal-driver/Src/stm32f4xx_hal_nor.c ****     return HAL_ERROR;
 840:stm32f4xx-hal-driver/Src/stm32f4xx_hal_nor.c ****   }
 841:stm32f4xx-hal-driver/Src/stm32f4xx_hal_nor.c ****   else if (state == HAL_NOR_STATE_READY)
 1887              		.loc 1 841 8 is_stmt 1 view .LVU582
 1888              		.loc 1 841 11 is_stmt 0 view .LVU583
 1889 0016 012C     		cmp	r4, #1
 1890 0018 40F08B80 		bne	.L201
 842:stm32f4xx-hal-driver/Src/stm32f4xx_hal_nor.c ****   {
 843:stm32f4xx-hal-driver/Src/stm32f4xx_hal_nor.c ****     /* Process Locked */
 844:stm32f4xx-hal-driver/Src/stm32f4xx_hal_nor.c ****     __HAL_LOCK(hnor);
 1891              		.loc 1 844 5 is_stmt 1 view .LVU584
 1892              		.loc 1 844 5 view .LVU585
 1893 001c 90F84800 		ldrb	r0, [r0, #72]	@ zero_extendqisi2
 1894              	.LVL115:
 1895              		.loc 1 844 5 is_stmt 0 view .LVU586
 1896 0020 0128     		cmp	r0, #1
 1897 0022 00F08980 		beq	.L202
 1898              		.loc 1 844 5 is_stmt 1 discriminator 2 view .LVU587
 1899 0026 0120     		movs	r0, #1
 1900 0028 86F84800 		strb	r0, [r6, #72]
 1901              		.loc 1 844 5 discriminator 2 view .LVU588
 845:stm32f4xx-hal-driver/Src/stm32f4xx_hal_nor.c **** 
 846:stm32f4xx-hal-driver/Src/stm32f4xx_hal_nor.c ****     /* Update the NOR controller state */
 847:stm32f4xx-hal-driver/Src/stm32f4xx_hal_nor.c ****     hnor->State = HAL_NOR_STATE_BUSY;
 1902              		.loc 1 847 5 discriminator 2 view .LVU589
 1903              		.loc 1 847 17 is_stmt 0 discriminator 2 view .LVU590
 1904 002c 0220     		movs	r0, #2
 1905 002e 86F84900 		strb	r0, [r6, #73]
 848:stm32f4xx-hal-driver/Src/stm32f4xx_hal_nor.c **** 
 849:stm32f4xx-hal-driver/Src/stm32f4xx_hal_nor.c ****     /* Select the NOR device address */
 850:stm32f4xx-hal-driver/Src/stm32f4xx_hal_nor.c ****     if (hnor->Init.NSBank == FMC_NORSRAM_BANK1)
 1906              		.loc 1 850 5 is_stmt 1 discriminator 2 view .LVU591
 1907              		.loc 1 850 19 is_stmt 0 discriminator 2 view .LVU592
 1908 0032 B068     		ldr	r0, [r6, #8]
 1909              		.loc 1 850 8 discriminator 2 view .LVU593
 1910 0034 48B1     		cbz	r0, .L203
 851:stm32f4xx-hal-driver/Src/stm32f4xx_hal_nor.c ****     {
 852:stm32f4xx-hal-driver/Src/stm32f4xx_hal_nor.c ****       deviceaddress = NOR_MEMORY_ADRESS1;
 853:stm32f4xx-hal-driver/Src/stm32f4xx_hal_nor.c ****     }
 854:stm32f4xx-hal-driver/Src/stm32f4xx_hal_nor.c ****     else if (hnor->Init.NSBank == FMC_NORSRAM_BANK2)
 1911              		.loc 1 854 10 is_stmt 1 view .LVU594
 1912              		.loc 1 854 13 is_stmt 0 view .LVU595
 1913 0036 0228     		cmp	r0, #2
 1914 0038 10D0     		beq	.L204
 855:stm32f4xx-hal-driver/Src/stm32f4xx_hal_nor.c ****     {
 856:stm32f4xx-hal-driver/Src/stm32f4xx_hal_nor.c ****       deviceaddress = NOR_MEMORY_ADRESS2;
 857:stm32f4xx-hal-driver/Src/stm32f4xx_hal_nor.c ****     }
ARM GAS  /tmp/ccEpvYTV.s 			page 60


 858:stm32f4xx-hal-driver/Src/stm32f4xx_hal_nor.c ****     else if (hnor->Init.NSBank == FMC_NORSRAM_BANK3)
 1915              		.loc 1 858 10 is_stmt 1 view .LVU596
 1916              		.loc 1 858 13 is_stmt 0 view .LVU597
 1917 003a 0428     		cmp	r0, #4
 1918 003c 02D0     		beq	.L208
 859:stm32f4xx-hal-driver/Src/stm32f4xx_hal_nor.c ****     {
 860:stm32f4xx-hal-driver/Src/stm32f4xx_hal_nor.c ****       deviceaddress = NOR_MEMORY_ADRESS3;
 861:stm32f4xx-hal-driver/Src/stm32f4xx_hal_nor.c ****     }
 862:stm32f4xx-hal-driver/Src/stm32f4xx_hal_nor.c ****     else /* FMC_NORSRAM_BANK4 */
 863:stm32f4xx-hal-driver/Src/stm32f4xx_hal_nor.c ****     {
 864:stm32f4xx-hal-driver/Src/stm32f4xx_hal_nor.c ****       deviceaddress = NOR_MEMORY_ADRESS4;
 1919              		.loc 1 864 21 view .LVU598
 1920 003e 4FF0D840 		mov	r0, #1811939328
 1921 0042 04E0     		b	.L180
 1922              	.L208:
 860:stm32f4xx-hal-driver/Src/stm32f4xx_hal_nor.c ****     }
 1923              		.loc 1 860 21 view .LVU599
 1924 0044 4FF0D040 		mov	r0, #1744830464
 1925 0048 01E0     		b	.L180
 1926              	.L203:
 852:stm32f4xx-hal-driver/Src/stm32f4xx_hal_nor.c ****     }
 1927              		.loc 1 852 21 view .LVU600
 1928 004a 4FF0C040 		mov	r0, #1610612736
 1929              	.L180:
 1930              	.LVL116:
 865:stm32f4xx-hal-driver/Src/stm32f4xx_hal_nor.c ****     }
 866:stm32f4xx-hal-driver/Src/stm32f4xx_hal_nor.c **** 
 867:stm32f4xx-hal-driver/Src/stm32f4xx_hal_nor.c ****     /* Send read data command */
 868:stm32f4xx-hal-driver/Src/stm32f4xx_hal_nor.c ****     if (hnor->CommandSet == NOR_AMD_FUJITSU_COMMAND_SET)
 1931              		.loc 1 868 5 is_stmt 1 view .LVU601
 1932              		.loc 1 868 13 is_stmt 0 view .LVU602
 1933 004e F56C     		ldr	r5, [r6, #76]
 1934              		.loc 1 868 8 view .LVU603
 1935 0050 022D     		cmp	r5, #2
 1936 0052 06D0     		beq	.L209
 869:stm32f4xx-hal-driver/Src/stm32f4xx_hal_nor.c ****     {
 870:stm32f4xx-hal-driver/Src/stm32f4xx_hal_nor.c ****       if (uwNORMemoryDataWidth == NOR_MEMORY_8B)
 871:stm32f4xx-hal-driver/Src/stm32f4xx_hal_nor.c ****       {
 872:stm32f4xx-hal-driver/Src/stm32f4xx_hal_nor.c ****         NOR_WRITE(NOR_ADDR_SHIFT(deviceaddress, uwNORMemoryDataWidth, NOR_CMD_ADDRESS_FIRST_BYTE),
 873:stm32f4xx-hal-driver/Src/stm32f4xx_hal_nor.c ****                   NOR_CMD_DATA_FIRST);
 874:stm32f4xx-hal-driver/Src/stm32f4xx_hal_nor.c ****         NOR_WRITE(NOR_ADDR_SHIFT(deviceaddress, uwNORMemoryDataWidth, NOR_CMD_ADDRESS_SECOND_BYTE),
 875:stm32f4xx-hal-driver/Src/stm32f4xx_hal_nor.c ****                   NOR_CMD_DATA_SECOND);
 876:stm32f4xx-hal-driver/Src/stm32f4xx_hal_nor.c ****         NOR_WRITE(NOR_ADDR_SHIFT(deviceaddress, uwNORMemoryDataWidth, NOR_CMD_ADDRESS_THIRD_BYTE),
 877:stm32f4xx-hal-driver/Src/stm32f4xx_hal_nor.c ****                   NOR_CMD_DATA_READ_RESET);
 878:stm32f4xx-hal-driver/Src/stm32f4xx_hal_nor.c ****       }
 879:stm32f4xx-hal-driver/Src/stm32f4xx_hal_nor.c ****       else
 880:stm32f4xx-hal-driver/Src/stm32f4xx_hal_nor.c ****       {
 881:stm32f4xx-hal-driver/Src/stm32f4xx_hal_nor.c ****         NOR_WRITE(NOR_ADDR_SHIFT(deviceaddress, uwNORMemoryDataWidth, NOR_CMD_ADDRESS_FIRST), NOR_C
 882:stm32f4xx-hal-driver/Src/stm32f4xx_hal_nor.c ****         NOR_WRITE(NOR_ADDR_SHIFT(deviceaddress, uwNORMemoryDataWidth, NOR_CMD_ADDRESS_SECOND), NOR_
 883:stm32f4xx-hal-driver/Src/stm32f4xx_hal_nor.c ****         NOR_WRITE(NOR_ADDR_SHIFT(deviceaddress, uwNORMemoryDataWidth, NOR_CMD_ADDRESS_THIRD),
 884:stm32f4xx-hal-driver/Src/stm32f4xx_hal_nor.c ****                   NOR_CMD_DATA_READ_RESET);
 885:stm32f4xx-hal-driver/Src/stm32f4xx_hal_nor.c ****       }
 886:stm32f4xx-hal-driver/Src/stm32f4xx_hal_nor.c ****     }
 887:stm32f4xx-hal-driver/Src/stm32f4xx_hal_nor.c ****     else if (hnor->CommandSet == NOR_INTEL_SHARP_EXT_COMMAND_SET)
 1937              		.loc 1 887 10 is_stmt 1 view .LVU604
 1938              		.loc 1 887 13 is_stmt 0 view .LVU605
 1939 0054 012D     		cmp	r5, #1
ARM GAS  /tmp/ccEpvYTV.s 			page 61


 1940 0056 55D0     		beq	.L210
 888:stm32f4xx-hal-driver/Src/stm32f4xx_hal_nor.c ****     {
 889:stm32f4xx-hal-driver/Src/stm32f4xx_hal_nor.c ****       NOR_WRITE(deviceaddress, NOR_CMD_READ_ARRAY);
 890:stm32f4xx-hal-driver/Src/stm32f4xx_hal_nor.c ****     }
 891:stm32f4xx-hal-driver/Src/stm32f4xx_hal_nor.c ****     else
 892:stm32f4xx-hal-driver/Src/stm32f4xx_hal_nor.c ****     {
 893:stm32f4xx-hal-driver/Src/stm32f4xx_hal_nor.c ****       /* Primary command set not supported by the driver */
 894:stm32f4xx-hal-driver/Src/stm32f4xx_hal_nor.c ****       status = HAL_ERROR;
 1941              		.loc 1 894 14 view .LVU606
 1942 0058 2046     		mov	r0, r4
 1943              	.LVL117:
 1944              		.loc 1 894 14 view .LVU607
 1945 005a 60E0     		b	.L197
 1946              	.L204:
 856:stm32f4xx-hal-driver/Src/stm32f4xx_hal_nor.c ****     }
 1947              		.loc 1 856 21 view .LVU608
 1948 005c 4FF0C840 		mov	r0, #1677721600
 1949 0060 F5E7     		b	.L180
 1950              	.LVL118:
 1951              	.L209:
 870:stm32f4xx-hal-driver/Src/stm32f4xx_hal_nor.c ****       {
 1952              		.loc 1 870 7 is_stmt 1 view .LVU609
 870:stm32f4xx-hal-driver/Src/stm32f4xx_hal_nor.c ****       {
 1953              		.loc 1 870 32 is_stmt 0 view .LVU610
 1954 0062 364D     		ldr	r5, .L217
 1955 0064 2D68     		ldr	r5, [r5]
 870:stm32f4xx-hal-driver/Src/stm32f4xx_hal_nor.c ****       {
 1956              		.loc 1 870 10 view .LVU611
 1957 0066 3DBB     		cbnz	r5, .L182
 872:stm32f4xx-hal-driver/Src/stm32f4xx_hal_nor.c ****                   NOR_CMD_DATA_FIRST);
 1958              		.loc 1 872 9 is_stmt 1 view .LVU612
 872:stm32f4xx-hal-driver/Src/stm32f4xx_hal_nor.c ****                   NOR_CMD_DATA_FIRST);
 1959              		.loc 1 872 9 view .LVU613
 1960 0068 012D     		cmp	r5, #1
 1961 006a 1AD0     		beq	.L211
 872:stm32f4xx-hal-driver/Src/stm32f4xx_hal_nor.c ****                   NOR_CMD_DATA_FIRST);
 1962              		.loc 1 872 9 is_stmt 0 discriminator 2 view .LVU614
 1963 006c 00F6AA25 		addw	r5, r0, #2730
 1964              	.L184:
 872:stm32f4xx-hal-driver/Src/stm32f4xx_hal_nor.c ****                   NOR_CMD_DATA_FIRST);
 1965              		.loc 1 872 9 discriminator 4 view .LVU615
 1966 0070 AA27     		movs	r7, #170
 1967 0072 2F80     		strh	r7, [r5]	@ movhi
 872:stm32f4xx-hal-driver/Src/stm32f4xx_hal_nor.c ****                   NOR_CMD_DATA_FIRST);
 1968              		.loc 1 872 9 is_stmt 1 discriminator 4 view .LVU616
 1969              	.LBB200:
 1970              	.LBI200:
 275:CMSIS_5/CMSIS/Core/Include/cmsis_gcc.h **** {
 1971              		.loc 2 275 27 discriminator 4 view .LVU617
 1972              	.LBB201:
 277:CMSIS_5/CMSIS/Core/Include/cmsis_gcc.h **** }
 1973              		.loc 2 277 3 discriminator 4 view .LVU618
 1974              		.syntax unified
 1975              	@ 277 "CMSIS_5/CMSIS/Core/Include/cmsis_gcc.h" 1
 1976 0074 BFF34F8F 		dsb 0xF
 1977              	@ 0 "" 2
 1978              		.thumb
ARM GAS  /tmp/ccEpvYTV.s 			page 62


 1979              		.syntax unified
 1980              	.LBE201:
 1981              	.LBE200:
 872:stm32f4xx-hal-driver/Src/stm32f4xx_hal_nor.c ****                   NOR_CMD_DATA_FIRST);
 1982              		.loc 1 872 9 discriminator 4 view .LVU619
 874:stm32f4xx-hal-driver/Src/stm32f4xx_hal_nor.c ****                   NOR_CMD_DATA_SECOND);
 1983              		.loc 1 874 9 discriminator 4 view .LVU620
 874:stm32f4xx-hal-driver/Src/stm32f4xx_hal_nor.c ****                   NOR_CMD_DATA_SECOND);
 1984              		.loc 1 874 9 discriminator 4 view .LVU621
 1985 0078 304D     		ldr	r5, .L217
 1986 007a 2D68     		ldr	r5, [r5]
 1987 007c 012D     		cmp	r5, #1
 1988 007e 14D0     		beq	.L212
 874:stm32f4xx-hal-driver/Src/stm32f4xx_hal_nor.c ****                   NOR_CMD_DATA_SECOND);
 1989              		.loc 1 874 9 is_stmt 0 discriminator 2 view .LVU622
 1990 0080 00F25557 		addw	r7, r0, #1365
 1991              	.L186:
 874:stm32f4xx-hal-driver/Src/stm32f4xx_hal_nor.c ****                   NOR_CMD_DATA_SECOND);
 1992              		.loc 1 874 9 discriminator 4 view .LVU623
 1993 0084 5525     		movs	r5, #85
 1994 0086 3D80     		strh	r5, [r7]	@ movhi
 874:stm32f4xx-hal-driver/Src/stm32f4xx_hal_nor.c ****                   NOR_CMD_DATA_SECOND);
 1995              		.loc 1 874 9 is_stmt 1 discriminator 4 view .LVU624
 1996              	.LBB202:
 1997              	.LBI202:
 275:CMSIS_5/CMSIS/Core/Include/cmsis_gcc.h **** {
 1998              		.loc 2 275 27 discriminator 4 view .LVU625
 1999              	.LBB203:
 277:CMSIS_5/CMSIS/Core/Include/cmsis_gcc.h **** }
 2000              		.loc 2 277 3 discriminator 4 view .LVU626
 2001              		.syntax unified
 2002              	@ 277 "CMSIS_5/CMSIS/Core/Include/cmsis_gcc.h" 1
 2003 0088 BFF34F8F 		dsb 0xF
 2004              	@ 0 "" 2
 2005              		.thumb
 2006              		.syntax unified
 2007              	.LBE203:
 2008              	.LBE202:
 874:stm32f4xx-hal-driver/Src/stm32f4xx_hal_nor.c ****                   NOR_CMD_DATA_SECOND);
 2009              		.loc 1 874 9 discriminator 4 view .LVU627
 876:stm32f4xx-hal-driver/Src/stm32f4xx_hal_nor.c ****                   NOR_CMD_DATA_READ_RESET);
 2010              		.loc 1 876 9 discriminator 4 view .LVU628
 876:stm32f4xx-hal-driver/Src/stm32f4xx_hal_nor.c ****                   NOR_CMD_DATA_READ_RESET);
 2011              		.loc 1 876 9 discriminator 4 view .LVU629
 2012 008c 2B4D     		ldr	r5, .L217
 2013 008e 2D68     		ldr	r5, [r5]
 2014 0090 012D     		cmp	r5, #1
 2015 0092 0DD0     		beq	.L213
 876:stm32f4xx-hal-driver/Src/stm32f4xx_hal_nor.c ****                   NOR_CMD_DATA_READ_RESET);
 2016              		.loc 1 876 9 is_stmt 0 discriminator 2 view .LVU630
 2017 0094 00F6AA20 		addw	r0, r0, #2730
 2018              	.LVL119:
 2019              	.L188:
 876:stm32f4xx-hal-driver/Src/stm32f4xx_hal_nor.c ****                   NOR_CMD_DATA_READ_RESET);
 2020              		.loc 1 876 9 discriminator 4 view .LVU631
 2021 0098 F025     		movs	r5, #240
 2022 009a 0580     		strh	r5, [r0]	@ movhi
ARM GAS  /tmp/ccEpvYTV.s 			page 63


 876:stm32f4xx-hal-driver/Src/stm32f4xx_hal_nor.c ****                   NOR_CMD_DATA_READ_RESET);
 2023              		.loc 1 876 9 is_stmt 1 discriminator 4 view .LVU632
 2024              	.LBB204:
 2025              	.LBI204:
 275:CMSIS_5/CMSIS/Core/Include/cmsis_gcc.h **** {
 2026              		.loc 2 275 27 discriminator 4 view .LVU633
 2027              	.LBB205:
 277:CMSIS_5/CMSIS/Core/Include/cmsis_gcc.h **** }
 2028              		.loc 2 277 3 discriminator 4 view .LVU634
 2029              		.syntax unified
 2030              	@ 277 "CMSIS_5/CMSIS/Core/Include/cmsis_gcc.h" 1
 2031 009c BFF34F8F 		dsb 0xF
 2032              	@ 0 "" 2
 277:CMSIS_5/CMSIS/Core/Include/cmsis_gcc.h **** }
 2033              		.loc 2 277 3 is_stmt 0 discriminator 4 view .LVU635
 2034              		.thumb
 2035              		.syntax unified
 2036              	.LBE205:
 2037              	.LBE204:
 895:stm32f4xx-hal-driver/Src/stm32f4xx_hal_nor.c ****     }
 896:stm32f4xx-hal-driver/Src/stm32f4xx_hal_nor.c **** 
 897:stm32f4xx-hal-driver/Src/stm32f4xx_hal_nor.c ****     if (status != HAL_ERROR)
 2038              		.loc 1 897 5 is_stmt 1 discriminator 4 view .LVU636
 2039 00a0 3AE0     		b	.L196
 2040              	.LVL120:
 2041              	.L211:
 872:stm32f4xx-hal-driver/Src/stm32f4xx_hal_nor.c ****                   NOR_CMD_DATA_FIRST);
 2042              		.loc 1 872 9 is_stmt 0 discriminator 1 view .LVU637
 2043 00a2 00F5AA55 		add	r5, r0, #5440
 2044 00a6 1435     		adds	r5, r5, #20
 2045 00a8 E2E7     		b	.L184
 2046              	.L212:
 874:stm32f4xx-hal-driver/Src/stm32f4xx_hal_nor.c ****                   NOR_CMD_DATA_SECOND);
 2047              		.loc 1 874 9 discriminator 1 view .LVU638
 2048 00aa 00F6AA27 		addw	r7, r0, #2730
 2049 00ae E9E7     		b	.L186
 2050              	.L213:
 876:stm32f4xx-hal-driver/Src/stm32f4xx_hal_nor.c ****                   NOR_CMD_DATA_READ_RESET);
 2051              		.loc 1 876 9 discriminator 1 view .LVU639
 2052 00b0 00F5AA50 		add	r0, r0, #5440
 2053              	.LVL121:
 876:stm32f4xx-hal-driver/Src/stm32f4xx_hal_nor.c ****                   NOR_CMD_DATA_READ_RESET);
 2054              		.loc 1 876 9 discriminator 1 view .LVU640
 2055 00b4 1430     		adds	r0, r0, #20
 2056              	.LVL122:
 876:stm32f4xx-hal-driver/Src/stm32f4xx_hal_nor.c ****                   NOR_CMD_DATA_READ_RESET);
 2057              		.loc 1 876 9 discriminator 1 view .LVU641
 2058 00b6 EFE7     		b	.L188
 2059              	.LVL123:
 2060              	.L182:
 881:stm32f4xx-hal-driver/Src/stm32f4xx_hal_nor.c ****         NOR_WRITE(NOR_ADDR_SHIFT(deviceaddress, uwNORMemoryDataWidth, NOR_CMD_ADDRESS_SECOND), NOR_
 2061              		.loc 1 881 9 is_stmt 1 view .LVU642
 881:stm32f4xx-hal-driver/Src/stm32f4xx_hal_nor.c ****         NOR_WRITE(NOR_ADDR_SHIFT(deviceaddress, uwNORMemoryDataWidth, NOR_CMD_ADDRESS_SECOND), NOR_
 2062              		.loc 1 881 9 view .LVU643
 2063 00b8 012D     		cmp	r5, #1
 2064 00ba 1AD0     		beq	.L214
 881:stm32f4xx-hal-driver/Src/stm32f4xx_hal_nor.c ****         NOR_WRITE(NOR_ADDR_SHIFT(deviceaddress, uwNORMemoryDataWidth, NOR_CMD_ADDRESS_SECOND), NOR_
ARM GAS  /tmp/ccEpvYTV.s 			page 64


 2065              		.loc 1 881 9 is_stmt 0 discriminator 2 view .LVU644
 2066 00bc 00F25557 		addw	r7, r0, #1365
 2067              	.L191:
 881:stm32f4xx-hal-driver/Src/stm32f4xx_hal_nor.c ****         NOR_WRITE(NOR_ADDR_SHIFT(deviceaddress, uwNORMemoryDataWidth, NOR_CMD_ADDRESS_SECOND), NOR_
 2068              		.loc 1 881 9 discriminator 4 view .LVU645
 2069 00c0 AA25     		movs	r5, #170
 2070 00c2 3D80     		strh	r5, [r7]	@ movhi
 881:stm32f4xx-hal-driver/Src/stm32f4xx_hal_nor.c ****         NOR_WRITE(NOR_ADDR_SHIFT(deviceaddress, uwNORMemoryDataWidth, NOR_CMD_ADDRESS_SECOND), NOR_
 2071              		.loc 1 881 9 is_stmt 1 discriminator 4 view .LVU646
 2072              	.LBB206:
 2073              	.LBI206:
 275:CMSIS_5/CMSIS/Core/Include/cmsis_gcc.h **** {
 2074              		.loc 2 275 27 discriminator 4 view .LVU647
 2075              	.LBB207:
 277:CMSIS_5/CMSIS/Core/Include/cmsis_gcc.h **** }
 2076              		.loc 2 277 3 discriminator 4 view .LVU648
 2077              		.syntax unified
 2078              	@ 277 "CMSIS_5/CMSIS/Core/Include/cmsis_gcc.h" 1
 2079 00c4 BFF34F8F 		dsb 0xF
 2080              	@ 0 "" 2
 2081              		.thumb
 2082              		.syntax unified
 2083              	.LBE207:
 2084              	.LBE206:
 881:stm32f4xx-hal-driver/Src/stm32f4xx_hal_nor.c ****         NOR_WRITE(NOR_ADDR_SHIFT(deviceaddress, uwNORMemoryDataWidth, NOR_CMD_ADDRESS_SECOND), NOR_
 2085              		.loc 1 881 9 discriminator 4 view .LVU649
 882:stm32f4xx-hal-driver/Src/stm32f4xx_hal_nor.c ****         NOR_WRITE(NOR_ADDR_SHIFT(deviceaddress, uwNORMemoryDataWidth, NOR_CMD_ADDRESS_THIRD),
 2086              		.loc 1 882 9 discriminator 4 view .LVU650
 882:stm32f4xx-hal-driver/Src/stm32f4xx_hal_nor.c ****         NOR_WRITE(NOR_ADDR_SHIFT(deviceaddress, uwNORMemoryDataWidth, NOR_CMD_ADDRESS_THIRD),
 2087              		.loc 1 882 9 discriminator 4 view .LVU651
 2088 00c8 1C4D     		ldr	r5, .L217
 2089 00ca 2D68     		ldr	r5, [r5]
 2090 00cc 012D     		cmp	r5, #1
 2091 00ce 13D0     		beq	.L215
 882:stm32f4xx-hal-driver/Src/stm32f4xx_hal_nor.c ****         NOR_WRITE(NOR_ADDR_SHIFT(deviceaddress, uwNORMemoryDataWidth, NOR_CMD_ADDRESS_THIRD),
 2092              		.loc 1 882 9 is_stmt 0 discriminator 2 view .LVU652
 2093 00d0 00F2AA27 		addw	r7, r0, #682
 2094              	.L193:
 882:stm32f4xx-hal-driver/Src/stm32f4xx_hal_nor.c ****         NOR_WRITE(NOR_ADDR_SHIFT(deviceaddress, uwNORMemoryDataWidth, NOR_CMD_ADDRESS_THIRD),
 2095              		.loc 1 882 9 discriminator 4 view .LVU653
 2096 00d4 5525     		movs	r5, #85
 2097 00d6 3D80     		strh	r5, [r7]	@ movhi
 882:stm32f4xx-hal-driver/Src/stm32f4xx_hal_nor.c ****         NOR_WRITE(NOR_ADDR_SHIFT(deviceaddress, uwNORMemoryDataWidth, NOR_CMD_ADDRESS_THIRD),
 2098              		.loc 1 882 9 is_stmt 1 discriminator 4 view .LVU654
 2099              	.LBB208:
 2100              	.LBI208:
 275:CMSIS_5/CMSIS/Core/Include/cmsis_gcc.h **** {
 2101              		.loc 2 275 27 discriminator 4 view .LVU655
 2102              	.LBB209:
 277:CMSIS_5/CMSIS/Core/Include/cmsis_gcc.h **** }
 2103              		.loc 2 277 3 discriminator 4 view .LVU656
 2104              		.syntax unified
 2105              	@ 277 "CMSIS_5/CMSIS/Core/Include/cmsis_gcc.h" 1
 2106 00d8 BFF34F8F 		dsb 0xF
 2107              	@ 0 "" 2
 2108              		.thumb
 2109              		.syntax unified
ARM GAS  /tmp/ccEpvYTV.s 			page 65


 2110              	.LBE209:
 2111              	.LBE208:
 882:stm32f4xx-hal-driver/Src/stm32f4xx_hal_nor.c ****         NOR_WRITE(NOR_ADDR_SHIFT(deviceaddress, uwNORMemoryDataWidth, NOR_CMD_ADDRESS_THIRD),
 2112              		.loc 1 882 9 discriminator 4 view .LVU657
 883:stm32f4xx-hal-driver/Src/stm32f4xx_hal_nor.c ****                   NOR_CMD_DATA_READ_RESET);
 2113              		.loc 1 883 9 discriminator 4 view .LVU658
 883:stm32f4xx-hal-driver/Src/stm32f4xx_hal_nor.c ****                   NOR_CMD_DATA_READ_RESET);
 2114              		.loc 1 883 9 discriminator 4 view .LVU659
 2115 00dc 174D     		ldr	r5, .L217
 2116 00de 2D68     		ldr	r5, [r5]
 2117 00e0 012D     		cmp	r5, #1
 2118 00e2 0CD0     		beq	.L216
 883:stm32f4xx-hal-driver/Src/stm32f4xx_hal_nor.c ****                   NOR_CMD_DATA_READ_RESET);
 2119              		.loc 1 883 9 is_stmt 0 discriminator 2 view .LVU660
 2120 00e4 00F25550 		addw	r0, r0, #1365
 2121              	.LVL124:
 2122              	.L195:
 883:stm32f4xx-hal-driver/Src/stm32f4xx_hal_nor.c ****                   NOR_CMD_DATA_READ_RESET);
 2123              		.loc 1 883 9 discriminator 4 view .LVU661
 2124 00e8 F025     		movs	r5, #240
 2125 00ea 0580     		strh	r5, [r0]	@ movhi
 883:stm32f4xx-hal-driver/Src/stm32f4xx_hal_nor.c ****                   NOR_CMD_DATA_READ_RESET);
 2126              		.loc 1 883 9 is_stmt 1 discriminator 4 view .LVU662
 2127              	.LBB210:
 2128              	.LBI210:
 275:CMSIS_5/CMSIS/Core/Include/cmsis_gcc.h **** {
 2129              		.loc 2 275 27 discriminator 4 view .LVU663
 2130              	.LBB211:
 277:CMSIS_5/CMSIS/Core/Include/cmsis_gcc.h **** }
 2131              		.loc 2 277 3 discriminator 4 view .LVU664
 2132              		.syntax unified
 2133              	@ 277 "CMSIS_5/CMSIS/Core/Include/cmsis_gcc.h" 1
 2134 00ec BFF34F8F 		dsb 0xF
 2135              	@ 0 "" 2
 277:CMSIS_5/CMSIS/Core/Include/cmsis_gcc.h **** }
 2136              		.loc 2 277 3 is_stmt 0 discriminator 4 view .LVU665
 2137              		.thumb
 2138              		.syntax unified
 2139              	.LBE211:
 2140              	.LBE210:
 2141              		.loc 1 897 5 is_stmt 1 discriminator 4 view .LVU666
 2142 00f0 12E0     		b	.L196
 2143              	.LVL125:
 2144              	.L214:
 881:stm32f4xx-hal-driver/Src/stm32f4xx_hal_nor.c ****         NOR_WRITE(NOR_ADDR_SHIFT(deviceaddress, uwNORMemoryDataWidth, NOR_CMD_ADDRESS_SECOND), NOR_
 2145              		.loc 1 881 9 is_stmt 0 discriminator 1 view .LVU667
 2146 00f2 00F6AA27 		addw	r7, r0, #2730
 2147 00f6 E3E7     		b	.L191
 2148              	.L215:
 882:stm32f4xx-hal-driver/Src/stm32f4xx_hal_nor.c ****         NOR_WRITE(NOR_ADDR_SHIFT(deviceaddress, uwNORMemoryDataWidth, NOR_CMD_ADDRESS_THIRD),
 2149              		.loc 1 882 9 discriminator 1 view .LVU668
 2150 00f8 00F25457 		addw	r7, r0, #1364
 2151 00fc EAE7     		b	.L193
 2152              	.L216:
 883:stm32f4xx-hal-driver/Src/stm32f4xx_hal_nor.c ****                   NOR_CMD_DATA_READ_RESET);
 2153              		.loc 1 883 9 discriminator 1 view .LVU669
 2154 00fe 00F6AA20 		addw	r0, r0, #2730
ARM GAS  /tmp/ccEpvYTV.s 			page 66


 2155              	.LVL126:
 883:stm32f4xx-hal-driver/Src/stm32f4xx_hal_nor.c ****                   NOR_CMD_DATA_READ_RESET);
 2156              		.loc 1 883 9 discriminator 1 view .LVU670
 2157 0102 F1E7     		b	.L195
 2158              	.LVL127:
 2159              	.L210:
 889:stm32f4xx-hal-driver/Src/stm32f4xx_hal_nor.c ****     }
 2160              		.loc 1 889 7 is_stmt 1 view .LVU671
 889:stm32f4xx-hal-driver/Src/stm32f4xx_hal_nor.c ****     }
 2161              		.loc 1 889 7 view .LVU672
 2162 0104 FF25     		movs	r5, #255
 2163 0106 0580     		strh	r5, [r0]	@ movhi
 889:stm32f4xx-hal-driver/Src/stm32f4xx_hal_nor.c ****     }
 2164              		.loc 1 889 7 view .LVU673
 2165              	.LBB212:
 2166              	.LBI212:
 275:CMSIS_5/CMSIS/Core/Include/cmsis_gcc.h **** {
 2167              		.loc 2 275 27 view .LVU674
 2168              	.LBB213:
 277:CMSIS_5/CMSIS/Core/Include/cmsis_gcc.h **** }
 2169              		.loc 2 277 3 view .LVU675
 2170              		.syntax unified
 2171              	@ 277 "CMSIS_5/CMSIS/Core/Include/cmsis_gcc.h" 1
 2172 0108 BFF34F8F 		dsb 0xF
 2173              	@ 0 "" 2
 277:CMSIS_5/CMSIS/Core/Include/cmsis_gcc.h **** }
 2174              		.loc 2 277 3 is_stmt 0 view .LVU676
 2175              		.thumb
 2176              		.syntax unified
 2177              	.LBE213:
 2178              	.LBE212:
 2179              		.loc 1 897 5 is_stmt 1 view .LVU677
 2180 010c 04E0     		b	.L196
 2181              	.LVL128:
 2182              	.L198:
 898:stm32f4xx-hal-driver/Src/stm32f4xx_hal_nor.c ****     {
 899:stm32f4xx-hal-driver/Src/stm32f4xx_hal_nor.c ****       /* Read buffer */
 900:stm32f4xx-hal-driver/Src/stm32f4xx_hal_nor.c ****       while (size > 0U)
 901:stm32f4xx-hal-driver/Src/stm32f4xx_hal_nor.c ****       {
 902:stm32f4xx-hal-driver/Src/stm32f4xx_hal_nor.c ****         *data = *(__IO uint16_t *)address;
 2183              		.loc 1 902 9 view .LVU678
 2184              		.loc 1 902 17 is_stmt 0 view .LVU679
 2185 010e 31F8025B 		ldrh	r5, [r1], #2
 2186              	.LVL129:
 2187              		.loc 1 902 15 view .LVU680
 2188 0112 22F8025B 		strh	r5, [r2], #2	@ movhi
 2189              	.LVL130:
 903:stm32f4xx-hal-driver/Src/stm32f4xx_hal_nor.c ****         data++;
 2190              		.loc 1 903 9 is_stmt 1 view .LVU681
 904:stm32f4xx-hal-driver/Src/stm32f4xx_hal_nor.c ****         address += 2U;
 2191              		.loc 1 904 9 view .LVU682
 905:stm32f4xx-hal-driver/Src/stm32f4xx_hal_nor.c ****         size--;
 2192              		.loc 1 905 9 view .LVU683
 2193              		.loc 1 905 13 is_stmt 0 view .LVU684
 2194 0116 013B     		subs	r3, r3, #1
 2195              	.LVL131:
 2196              	.L196:
ARM GAS  /tmp/ccEpvYTV.s 			page 67


 900:stm32f4xx-hal-driver/Src/stm32f4xx_hal_nor.c ****       {
 2197              		.loc 1 900 13 is_stmt 1 view .LVU685
 2198 0118 002B     		cmp	r3, #0
 2199 011a F8D1     		bne	.L198
 900:stm32f4xx-hal-driver/Src/stm32f4xx_hal_nor.c ****       {
 2200              		.loc 1 900 13 is_stmt 0 view .LVU686
 2201 011c 0020     		movs	r0, #0
 2202              	.L197:
 2203              	.LVL132:
 906:stm32f4xx-hal-driver/Src/stm32f4xx_hal_nor.c ****       }
 907:stm32f4xx-hal-driver/Src/stm32f4xx_hal_nor.c ****     }
 908:stm32f4xx-hal-driver/Src/stm32f4xx_hal_nor.c **** 
 909:stm32f4xx-hal-driver/Src/stm32f4xx_hal_nor.c ****     /* Check the NOR controller state */
 910:stm32f4xx-hal-driver/Src/stm32f4xx_hal_nor.c ****     hnor->State = state;
 2204              		.loc 1 910 5 is_stmt 1 view .LVU687
 2205              		.loc 1 910 17 is_stmt 0 view .LVU688
 2206 011e 86F84940 		strb	r4, [r6, #73]
 911:stm32f4xx-hal-driver/Src/stm32f4xx_hal_nor.c **** 
 912:stm32f4xx-hal-driver/Src/stm32f4xx_hal_nor.c ****     /* Process unlocked */
 913:stm32f4xx-hal-driver/Src/stm32f4xx_hal_nor.c ****     __HAL_UNLOCK(hnor);
 2207              		.loc 1 913 5 is_stmt 1 view .LVU689
 2208              		.loc 1 913 5 view .LVU690
 2209 0122 0023     		movs	r3, #0
 2210              	.LVL133:
 2211              		.loc 1 913 5 is_stmt 0 view .LVU691
 2212 0124 86F84830 		strb	r3, [r6, #72]
 2213              		.loc 1 913 5 is_stmt 1 view .LVU692
 914:stm32f4xx-hal-driver/Src/stm32f4xx_hal_nor.c ****   }
 915:stm32f4xx-hal-driver/Src/stm32f4xx_hal_nor.c ****   else
 916:stm32f4xx-hal-driver/Src/stm32f4xx_hal_nor.c ****   {
 917:stm32f4xx-hal-driver/Src/stm32f4xx_hal_nor.c ****     return HAL_ERROR;
 918:stm32f4xx-hal-driver/Src/stm32f4xx_hal_nor.c ****   }
 919:stm32f4xx-hal-driver/Src/stm32f4xx_hal_nor.c **** 
 920:stm32f4xx-hal-driver/Src/stm32f4xx_hal_nor.c ****   return status;
 2214              		.loc 1 920 3 view .LVU693
 2215              		.loc 1 920 10 is_stmt 0 view .LVU694
 2216 0128 04E0     		b	.L179
 2217              	.LVL134:
 2218              	.L199:
 835:stm32f4xx-hal-driver/Src/stm32f4xx_hal_nor.c ****   }
 2219              		.loc 1 835 12 view .LVU695
 2220 012a 2046     		mov	r0, r4
 2221              	.LVL135:
 835:stm32f4xx-hal-driver/Src/stm32f4xx_hal_nor.c ****   }
 2222              		.loc 1 835 12 view .LVU696
 2223 012c 02E0     		b	.L179
 2224              	.LVL136:
 2225              	.L200:
 839:stm32f4xx-hal-driver/Src/stm32f4xx_hal_nor.c ****   }
 2226              		.loc 1 839 12 view .LVU697
 2227 012e 0120     		movs	r0, #1
 2228              	.LVL137:
 839:stm32f4xx-hal-driver/Src/stm32f4xx_hal_nor.c ****   }
 2229              		.loc 1 839 12 view .LVU698
 2230 0130 00E0     		b	.L179
 2231              	.LVL138:
 2232              	.L201:
ARM GAS  /tmp/ccEpvYTV.s 			page 68


 917:stm32f4xx-hal-driver/Src/stm32f4xx_hal_nor.c ****   }
 2233              		.loc 1 917 12 view .LVU699
 2234 0132 0120     		movs	r0, #1
 2235              	.LVL139:
 2236              	.L179:
 921:stm32f4xx-hal-driver/Src/stm32f4xx_hal_nor.c **** }
 2237              		.loc 1 921 1 view .LVU700
 2238 0134 F0BC     		pop	{r4, r5, r6, r7}
 2239              	.LCFI14:
 2240              		.cfi_remember_state
 2241              		.cfi_restore 7
 2242              		.cfi_restore 6
 2243              		.cfi_restore 5
 2244              		.cfi_restore 4
 2245              		.cfi_def_cfa_offset 0
 2246              	.LVL140:
 2247              		.loc 1 921 1 view .LVU701
 2248 0136 7047     		bx	lr
 2249              	.LVL141:
 2250              	.L202:
 2251              	.LCFI15:
 2252              		.cfi_restore_state
 844:stm32f4xx-hal-driver/Src/stm32f4xx_hal_nor.c **** 
 2253              		.loc 1 844 5 view .LVU702
 2254 0138 0220     		movs	r0, #2
 2255 013a FBE7     		b	.L179
 2256              	.L218:
 2257              		.align	2
 2258              	.L217:
 2259 013c 00000000 		.word	.LANCHOR0
 2260              		.cfi_endproc
 2261              	.LFE248:
 2263              		.section	.text.HAL_NOR_ProgramBuffer,"ax",%progbits
 2264              		.align	1
 2265              		.global	HAL_NOR_ProgramBuffer
 2266              		.syntax unified
 2267              		.thumb
 2268              		.thumb_func
 2269              		.fpu fpv4-sp-d16
 2271              	HAL_NOR_ProgramBuffer:
 2272              	.LVL142:
 2273              	.LFB249:
 922:stm32f4xx-hal-driver/Src/stm32f4xx_hal_nor.c **** 
 923:stm32f4xx-hal-driver/Src/stm32f4xx_hal_nor.c **** /**
 924:stm32f4xx-hal-driver/Src/stm32f4xx_hal_nor.c ****   * @brief  Writes a half-word buffer to the NOR memory. This function must be used
 925:stm32f4xx-hal-driver/Src/stm32f4xx_hal_nor.c ****             only with S29GL128P NOR memory.
 926:stm32f4xx-hal-driver/Src/stm32f4xx_hal_nor.c ****   * @param  hnor pointer to the NOR handle
 927:stm32f4xx-hal-driver/Src/stm32f4xx_hal_nor.c ****   * @param  uwAddress NOR memory internal start write address
 928:stm32f4xx-hal-driver/Src/stm32f4xx_hal_nor.c ****   * @param  pData pointer to source data buffer.
 929:stm32f4xx-hal-driver/Src/stm32f4xx_hal_nor.c ****   * @param  uwBufferSize Size of the buffer to write
 930:stm32f4xx-hal-driver/Src/stm32f4xx_hal_nor.c ****   * @retval HAL status
 931:stm32f4xx-hal-driver/Src/stm32f4xx_hal_nor.c ****   */
 932:stm32f4xx-hal-driver/Src/stm32f4xx_hal_nor.c **** HAL_StatusTypeDef HAL_NOR_ProgramBuffer(NOR_HandleTypeDef *hnor, uint32_t uwAddress, uint16_t *pDat
 933:stm32f4xx-hal-driver/Src/stm32f4xx_hal_nor.c ****                                         uint32_t uwBufferSize)
 934:stm32f4xx-hal-driver/Src/stm32f4xx_hal_nor.c **** {
 2274              		.loc 1 934 1 is_stmt 1 view -0
 2275              		.cfi_startproc
ARM GAS  /tmp/ccEpvYTV.s 			page 69


 2276              		@ args = 0, pretend = 0, frame = 0
 2277              		@ frame_needed = 0, uses_anonymous_args = 0
 2278              		@ link register save eliminated.
 2279              		.loc 1 934 1 is_stmt 0 view .LVU704
 2280 0000 F0B4     		push	{r4, r5, r6, r7}
 2281              	.LCFI16:
 2282              		.cfi_def_cfa_offset 16
 2283              		.cfi_offset 4, -16
 2284              		.cfi_offset 5, -12
 2285              		.cfi_offset 6, -8
 2286              		.cfi_offset 7, -4
 2287 0002 0546     		mov	r5, r0
 935:stm32f4xx-hal-driver/Src/stm32f4xx_hal_nor.c ****   uint16_t *p_currentaddress;
 2288              		.loc 1 935 3 is_stmt 1 view .LVU705
 936:stm32f4xx-hal-driver/Src/stm32f4xx_hal_nor.c ****   const uint16_t *p_endaddress;
 2289              		.loc 1 936 3 view .LVU706
 937:stm32f4xx-hal-driver/Src/stm32f4xx_hal_nor.c ****   uint16_t *data = pData;
 2290              		.loc 1 937 3 view .LVU707
 2291              	.LVL143:
 938:stm32f4xx-hal-driver/Src/stm32f4xx_hal_nor.c ****   uint32_t deviceaddress;
 2292              		.loc 1 938 3 view .LVU708
 939:stm32f4xx-hal-driver/Src/stm32f4xx_hal_nor.c ****   HAL_StatusTypeDef status = HAL_OK;
 2293              		.loc 1 939 3 view .LVU709
 940:stm32f4xx-hal-driver/Src/stm32f4xx_hal_nor.c **** 
 941:stm32f4xx-hal-driver/Src/stm32f4xx_hal_nor.c ****   /* Check the NOR controller state */
 942:stm32f4xx-hal-driver/Src/stm32f4xx_hal_nor.c ****   if (hnor->State == HAL_NOR_STATE_BUSY)
 2294              		.loc 1 942 3 view .LVU710
 2295              		.loc 1 942 11 is_stmt 0 view .LVU711
 2296 0004 90F84940 		ldrb	r4, [r0, #73]	@ zero_extendqisi2
 2297 0008 E0B2     		uxtb	r0, r4
 2298              	.LVL144:
 2299              		.loc 1 942 6 view .LVU712
 2300 000a 0228     		cmp	r0, #2
 2301 000c 00F09B80 		beq	.L220
 943:stm32f4xx-hal-driver/Src/stm32f4xx_hal_nor.c ****   {
 944:stm32f4xx-hal-driver/Src/stm32f4xx_hal_nor.c ****     return HAL_BUSY;
 945:stm32f4xx-hal-driver/Src/stm32f4xx_hal_nor.c ****   }
 946:stm32f4xx-hal-driver/Src/stm32f4xx_hal_nor.c ****   else if (hnor->State == HAL_NOR_STATE_READY)
 2302              		.loc 1 946 8 is_stmt 1 view .LVU713
 2303              		.loc 1 946 16 is_stmt 0 view .LVU714
 2304 0010 95F84900 		ldrb	r0, [r5, #73]	@ zero_extendqisi2
 2305 0014 C0B2     		uxtb	r0, r0
 2306              		.loc 1 946 11 view .LVU715
 2307 0016 0128     		cmp	r0, #1
 2308 0018 40F09480 		bne	.L238
 947:stm32f4xx-hal-driver/Src/stm32f4xx_hal_nor.c ****   {
 948:stm32f4xx-hal-driver/Src/stm32f4xx_hal_nor.c ****     /* Process Locked */
 949:stm32f4xx-hal-driver/Src/stm32f4xx_hal_nor.c ****     __HAL_LOCK(hnor);
 2309              		.loc 1 949 5 is_stmt 1 view .LVU716
 2310              		.loc 1 949 5 view .LVU717
 2311 001c 95F84840 		ldrb	r4, [r5, #72]	@ zero_extendqisi2
 2312 0020 012C     		cmp	r4, #1
 2313 0022 00F09280 		beq	.L239
 2314              		.loc 1 949 5 discriminator 2 view .LVU718
 2315 0026 0124     		movs	r4, #1
 2316 0028 85F84840 		strb	r4, [r5, #72]
 2317              		.loc 1 949 5 discriminator 2 view .LVU719
ARM GAS  /tmp/ccEpvYTV.s 			page 70


 950:stm32f4xx-hal-driver/Src/stm32f4xx_hal_nor.c **** 
 951:stm32f4xx-hal-driver/Src/stm32f4xx_hal_nor.c ****     /* Update the NOR controller state */
 952:stm32f4xx-hal-driver/Src/stm32f4xx_hal_nor.c ****     hnor->State = HAL_NOR_STATE_BUSY;
 2318              		.loc 1 952 5 discriminator 2 view .LVU720
 2319              		.loc 1 952 17 is_stmt 0 discriminator 2 view .LVU721
 2320 002c 0224     		movs	r4, #2
 2321 002e 85F84940 		strb	r4, [r5, #73]
 953:stm32f4xx-hal-driver/Src/stm32f4xx_hal_nor.c **** 
 954:stm32f4xx-hal-driver/Src/stm32f4xx_hal_nor.c ****     /* Select the NOR device address */
 955:stm32f4xx-hal-driver/Src/stm32f4xx_hal_nor.c ****     if (hnor->Init.NSBank == FMC_NORSRAM_BANK1)
 2322              		.loc 1 955 5 is_stmt 1 discriminator 2 view .LVU722
 2323              		.loc 1 955 19 is_stmt 0 discriminator 2 view .LVU723
 2324 0032 AC68     		ldr	r4, [r5, #8]
 2325              		.loc 1 955 8 discriminator 2 view .LVU724
 2326 0034 4CB1     		cbz	r4, .L240
 956:stm32f4xx-hal-driver/Src/stm32f4xx_hal_nor.c ****     {
 957:stm32f4xx-hal-driver/Src/stm32f4xx_hal_nor.c ****       deviceaddress = NOR_MEMORY_ADRESS1;
 958:stm32f4xx-hal-driver/Src/stm32f4xx_hal_nor.c ****     }
 959:stm32f4xx-hal-driver/Src/stm32f4xx_hal_nor.c ****     else if (hnor->Init.NSBank == FMC_NORSRAM_BANK2)
 2327              		.loc 1 959 10 is_stmt 1 view .LVU725
 2328              		.loc 1 959 13 is_stmt 0 view .LVU726
 2329 0036 022C     		cmp	r4, #2
 2330 0038 1AD0     		beq	.L241
 960:stm32f4xx-hal-driver/Src/stm32f4xx_hal_nor.c ****     {
 961:stm32f4xx-hal-driver/Src/stm32f4xx_hal_nor.c ****       deviceaddress = NOR_MEMORY_ADRESS2;
 962:stm32f4xx-hal-driver/Src/stm32f4xx_hal_nor.c ****     }
 963:stm32f4xx-hal-driver/Src/stm32f4xx_hal_nor.c ****     else if (hnor->Init.NSBank == FMC_NORSRAM_BANK3)
 2331              		.loc 1 963 10 is_stmt 1 view .LVU727
 2332              		.loc 1 963 13 is_stmt 0 view .LVU728
 2333 003a 042C     		cmp	r4, #4
 2334 003c 02D0     		beq	.L244
 964:stm32f4xx-hal-driver/Src/stm32f4xx_hal_nor.c ****     {
 965:stm32f4xx-hal-driver/Src/stm32f4xx_hal_nor.c ****       deviceaddress = NOR_MEMORY_ADRESS3;
 966:stm32f4xx-hal-driver/Src/stm32f4xx_hal_nor.c ****     }
 967:stm32f4xx-hal-driver/Src/stm32f4xx_hal_nor.c ****     else /* FMC_NORSRAM_BANK4 */
 968:stm32f4xx-hal-driver/Src/stm32f4xx_hal_nor.c ****     {
 969:stm32f4xx-hal-driver/Src/stm32f4xx_hal_nor.c ****       deviceaddress = NOR_MEMORY_ADRESS4;
 2335              		.loc 1 969 21 view .LVU729
 2336 003e 4FF0D846 		mov	r6, #1811939328
 2337 0042 04E0     		b	.L221
 2338              	.L244:
 965:stm32f4xx-hal-driver/Src/stm32f4xx_hal_nor.c ****     }
 2339              		.loc 1 965 21 view .LVU730
 2340 0044 4FF0D046 		mov	r6, #1744830464
 2341 0048 01E0     		b	.L221
 2342              	.L240:
 957:stm32f4xx-hal-driver/Src/stm32f4xx_hal_nor.c ****     }
 2343              		.loc 1 957 21 view .LVU731
 2344 004a 4FF0C046 		mov	r6, #1610612736
 2345              	.L221:
 2346              	.LVL145:
 970:stm32f4xx-hal-driver/Src/stm32f4xx_hal_nor.c ****     }
 971:stm32f4xx-hal-driver/Src/stm32f4xx_hal_nor.c **** 
 972:stm32f4xx-hal-driver/Src/stm32f4xx_hal_nor.c ****     /* Initialize variables */
 973:stm32f4xx-hal-driver/Src/stm32f4xx_hal_nor.c ****     p_currentaddress  = (uint16_t *)(deviceaddress + uwAddress);
 2347              		.loc 1 973 5 is_stmt 1 view .LVU732
 2348              		.loc 1 973 52 is_stmt 0 view .LVU733
ARM GAS  /tmp/ccEpvYTV.s 			page 71


 2349 004e 06EB010C 		add	ip, r6, r1
 2350              	.LVL146:
 974:stm32f4xx-hal-driver/Src/stm32f4xx_hal_nor.c ****     p_endaddress      = (uint16_t *)(deviceaddress + uwAddress + (2U * (uwBufferSize - 1U)));
 2351              		.loc 1 974 5 is_stmt 1 view .LVU734
 2352              		.loc 1 974 86 is_stmt 0 view .LVU735
 2353 0052 5C1E     		subs	r4, r3, #1
 2354              		.loc 1 974 64 view .LVU736
 2355 0054 0CEB4404 		add	r4, ip, r4, lsl #1
 2356              	.LVL147:
 975:stm32f4xx-hal-driver/Src/stm32f4xx_hal_nor.c **** 
 976:stm32f4xx-hal-driver/Src/stm32f4xx_hal_nor.c ****     if (hnor->CommandSet == NOR_AMD_FUJITSU_COMMAND_SET)
 2357              		.loc 1 976 5 is_stmt 1 view .LVU737
 2358              		.loc 1 976 13 is_stmt 0 view .LVU738
 2359 0058 EF6C     		ldr	r7, [r5, #76]
 2360              		.loc 1 976 8 view .LVU739
 2361 005a 022F     		cmp	r7, #2
 2362 005c 0BD0     		beq	.L245
 977:stm32f4xx-hal-driver/Src/stm32f4xx_hal_nor.c ****     {
 978:stm32f4xx-hal-driver/Src/stm32f4xx_hal_nor.c ****       if (uwNORMemoryDataWidth == NOR_MEMORY_8B)
 979:stm32f4xx-hal-driver/Src/stm32f4xx_hal_nor.c ****       {
 980:stm32f4xx-hal-driver/Src/stm32f4xx_hal_nor.c ****         /* Issue unlock command sequence */
 981:stm32f4xx-hal-driver/Src/stm32f4xx_hal_nor.c ****         NOR_WRITE(NOR_ADDR_SHIFT(deviceaddress, uwNORMemoryDataWidth, NOR_CMD_ADDRESS_FIRST_BYTE),
 982:stm32f4xx-hal-driver/Src/stm32f4xx_hal_nor.c ****                   NOR_CMD_DATA_FIRST);
 983:stm32f4xx-hal-driver/Src/stm32f4xx_hal_nor.c ****         NOR_WRITE(NOR_ADDR_SHIFT(deviceaddress, uwNORMemoryDataWidth, NOR_CMD_ADDRESS_SECOND_BYTE),
 984:stm32f4xx-hal-driver/Src/stm32f4xx_hal_nor.c ****                   NOR_CMD_DATA_SECOND);
 985:stm32f4xx-hal-driver/Src/stm32f4xx_hal_nor.c ****       }
 986:stm32f4xx-hal-driver/Src/stm32f4xx_hal_nor.c ****       else
 987:stm32f4xx-hal-driver/Src/stm32f4xx_hal_nor.c ****       {
 988:stm32f4xx-hal-driver/Src/stm32f4xx_hal_nor.c ****         /* Issue unlock command sequence */
 989:stm32f4xx-hal-driver/Src/stm32f4xx_hal_nor.c ****         NOR_WRITE(NOR_ADDR_SHIFT(deviceaddress, uwNORMemoryDataWidth, NOR_CMD_ADDRESS_FIRST), NOR_C
 990:stm32f4xx-hal-driver/Src/stm32f4xx_hal_nor.c ****         NOR_WRITE(NOR_ADDR_SHIFT(deviceaddress, uwNORMemoryDataWidth, NOR_CMD_ADDRESS_SECOND), NOR_
 991:stm32f4xx-hal-driver/Src/stm32f4xx_hal_nor.c ****       }
 992:stm32f4xx-hal-driver/Src/stm32f4xx_hal_nor.c ****       /* Write Buffer Load Command */
 993:stm32f4xx-hal-driver/Src/stm32f4xx_hal_nor.c ****       NOR_WRITE((deviceaddress + uwAddress), NOR_CMD_DATA_BUFFER_AND_PROG);
 994:stm32f4xx-hal-driver/Src/stm32f4xx_hal_nor.c ****       NOR_WRITE((deviceaddress + uwAddress), (uint16_t)(uwBufferSize - 1U));
 995:stm32f4xx-hal-driver/Src/stm32f4xx_hal_nor.c ****     }
 996:stm32f4xx-hal-driver/Src/stm32f4xx_hal_nor.c ****     else if (hnor->CommandSet == NOR_INTEL_SHARP_EXT_COMMAND_SET)
 2363              		.loc 1 996 10 is_stmt 1 view .LVU740
 2364              		.loc 1 996 13 is_stmt 0 view .LVU741
 2365 005e 012F     		cmp	r7, #1
 2366 0060 53D0     		beq	.L246
 2367              	.LVL148:
 2368              	.L234:
 997:stm32f4xx-hal-driver/Src/stm32f4xx_hal_nor.c ****     {
 998:stm32f4xx-hal-driver/Src/stm32f4xx_hal_nor.c ****       /* Write Buffer Load Command */
 999:stm32f4xx-hal-driver/Src/stm32f4xx_hal_nor.c ****       NOR_WRITE((deviceaddress + uwAddress), NOR_CMD_BUFFERED_PROGRAM);
1000:stm32f4xx-hal-driver/Src/stm32f4xx_hal_nor.c ****       NOR_WRITE((deviceaddress + uwAddress), (uint16_t)(uwBufferSize - 1U));
1001:stm32f4xx-hal-driver/Src/stm32f4xx_hal_nor.c ****     }
1002:stm32f4xx-hal-driver/Src/stm32f4xx_hal_nor.c ****     else
1003:stm32f4xx-hal-driver/Src/stm32f4xx_hal_nor.c ****     {
1004:stm32f4xx-hal-driver/Src/stm32f4xx_hal_nor.c ****       /* Primary command set not supported by the driver */
1005:stm32f4xx-hal-driver/Src/stm32f4xx_hal_nor.c ****       status = HAL_ERROR;
1006:stm32f4xx-hal-driver/Src/stm32f4xx_hal_nor.c ****     }
1007:stm32f4xx-hal-driver/Src/stm32f4xx_hal_nor.c **** 
1008:stm32f4xx-hal-driver/Src/stm32f4xx_hal_nor.c ****     if (status != HAL_ERROR)
1009:stm32f4xx-hal-driver/Src/stm32f4xx_hal_nor.c ****     {
1010:stm32f4xx-hal-driver/Src/stm32f4xx_hal_nor.c ****       /* Load Data into NOR Buffer */
ARM GAS  /tmp/ccEpvYTV.s 			page 72


1011:stm32f4xx-hal-driver/Src/stm32f4xx_hal_nor.c ****       while (p_currentaddress <= p_endaddress)
1012:stm32f4xx-hal-driver/Src/stm32f4xx_hal_nor.c ****       {
1013:stm32f4xx-hal-driver/Src/stm32f4xx_hal_nor.c ****         NOR_WRITE(p_currentaddress, *data);
1014:stm32f4xx-hal-driver/Src/stm32f4xx_hal_nor.c **** 
1015:stm32f4xx-hal-driver/Src/stm32f4xx_hal_nor.c ****         data++;
1016:stm32f4xx-hal-driver/Src/stm32f4xx_hal_nor.c ****         p_currentaddress ++;
1017:stm32f4xx-hal-driver/Src/stm32f4xx_hal_nor.c ****       }
1018:stm32f4xx-hal-driver/Src/stm32f4xx_hal_nor.c **** 
1019:stm32f4xx-hal-driver/Src/stm32f4xx_hal_nor.c ****       if (hnor->CommandSet == NOR_AMD_FUJITSU_COMMAND_SET)
1020:stm32f4xx-hal-driver/Src/stm32f4xx_hal_nor.c ****       {
1021:stm32f4xx-hal-driver/Src/stm32f4xx_hal_nor.c ****         NOR_WRITE((deviceaddress + uwAddress), NOR_CMD_DATA_BUFFER_AND_PROG_CONFIRM);
1022:stm32f4xx-hal-driver/Src/stm32f4xx_hal_nor.c ****       }
1023:stm32f4xx-hal-driver/Src/stm32f4xx_hal_nor.c ****       else /* => hnor->CommandSet == NOR_INTEL_SHARP_EXT_COMMAND_SET */
1024:stm32f4xx-hal-driver/Src/stm32f4xx_hal_nor.c ****       {
1025:stm32f4xx-hal-driver/Src/stm32f4xx_hal_nor.c ****         NOR_WRITE((deviceaddress + uwAddress), NOR_CMD_CONFIRM);
 2369              		.loc 1 1025 9 is_stmt 1 discriminator 1 view .LVU742
1026:stm32f4xx-hal-driver/Src/stm32f4xx_hal_nor.c ****       }
1027:stm32f4xx-hal-driver/Src/stm32f4xx_hal_nor.c ****     }
1028:stm32f4xx-hal-driver/Src/stm32f4xx_hal_nor.c **** 
1029:stm32f4xx-hal-driver/Src/stm32f4xx_hal_nor.c ****     /* Check the NOR controller state */
1030:stm32f4xx-hal-driver/Src/stm32f4xx_hal_nor.c ****     hnor->State = HAL_NOR_STATE_READY;
 2370              		.loc 1 1030 5 discriminator 1 view .LVU743
 2371              		.loc 1 1030 17 is_stmt 0 discriminator 1 view .LVU744
 2372 0062 0123     		movs	r3, #1
 2373 0064 85F84930 		strb	r3, [r5, #73]
1031:stm32f4xx-hal-driver/Src/stm32f4xx_hal_nor.c **** 
1032:stm32f4xx-hal-driver/Src/stm32f4xx_hal_nor.c ****     /* Process unlocked */
1033:stm32f4xx-hal-driver/Src/stm32f4xx_hal_nor.c ****     __HAL_UNLOCK(hnor);
 2374              		.loc 1 1033 5 is_stmt 1 discriminator 1 view .LVU745
 2375              		.loc 1 1033 5 discriminator 1 view .LVU746
 2376 0068 0023     		movs	r3, #0
 2377 006a 85F84830 		strb	r3, [r5, #72]
 2378              		.loc 1 1033 5 discriminator 1 view .LVU747
1034:stm32f4xx-hal-driver/Src/stm32f4xx_hal_nor.c ****   }
1035:stm32f4xx-hal-driver/Src/stm32f4xx_hal_nor.c ****   else
1036:stm32f4xx-hal-driver/Src/stm32f4xx_hal_nor.c ****   {
1037:stm32f4xx-hal-driver/Src/stm32f4xx_hal_nor.c ****     return HAL_ERROR;
1038:stm32f4xx-hal-driver/Src/stm32f4xx_hal_nor.c ****   }
1039:stm32f4xx-hal-driver/Src/stm32f4xx_hal_nor.c **** 
1040:stm32f4xx-hal-driver/Src/stm32f4xx_hal_nor.c ****   return status;
 2379              		.loc 1 1040 3 discriminator 1 view .LVU748
 2380              		.loc 1 1040 10 is_stmt 0 discriminator 1 view .LVU749
 2381 006e 6AE0     		b	.L220
 2382              	.LVL149:
 2383              	.L241:
 961:stm32f4xx-hal-driver/Src/stm32f4xx_hal_nor.c ****     }
 2384              		.loc 1 961 21 view .LVU750
 2385 0070 4FF0C846 		mov	r6, #1677721600
 2386 0074 EBE7     		b	.L221
 2387              	.LVL150:
 2388              	.L245:
 978:stm32f4xx-hal-driver/Src/stm32f4xx_hal_nor.c ****       {
 2389              		.loc 1 978 7 is_stmt 1 view .LVU751
 978:stm32f4xx-hal-driver/Src/stm32f4xx_hal_nor.c ****       {
 2390              		.loc 1 978 32 is_stmt 0 view .LVU752
 2391 0076 3649     		ldr	r1, .L253
 2392              	.LVL151:
ARM GAS  /tmp/ccEpvYTV.s 			page 73


 978:stm32f4xx-hal-driver/Src/stm32f4xx_hal_nor.c ****       {
 2393              		.loc 1 978 32 view .LVU753
 2394 0078 0968     		ldr	r1, [r1]
 978:stm32f4xx-hal-driver/Src/stm32f4xx_hal_nor.c ****       {
 2395              		.loc 1 978 10 view .LVU754
 2396 007a 69BB     		cbnz	r1, .L223
 981:stm32f4xx-hal-driver/Src/stm32f4xx_hal_nor.c ****                   NOR_CMD_DATA_FIRST);
 2397              		.loc 1 981 9 is_stmt 1 view .LVU755
 981:stm32f4xx-hal-driver/Src/stm32f4xx_hal_nor.c ****                   NOR_CMD_DATA_FIRST);
 2398              		.loc 1 981 9 view .LVU756
 2399 007c 0129     		cmp	r1, #1
 2400 007e 24D0     		beq	.L247
 981:stm32f4xx-hal-driver/Src/stm32f4xx_hal_nor.c ****                   NOR_CMD_DATA_FIRST);
 2401              		.loc 1 981 9 is_stmt 0 discriminator 2 view .LVU757
 2402 0080 06F6AA21 		addw	r1, r6, #2730
 2403              	.L225:
 981:stm32f4xx-hal-driver/Src/stm32f4xx_hal_nor.c ****                   NOR_CMD_DATA_FIRST);
 2404              		.loc 1 981 9 discriminator 4 view .LVU758
 2405 0084 AA20     		movs	r0, #170
 2406 0086 0880     		strh	r0, [r1]	@ movhi
 981:stm32f4xx-hal-driver/Src/stm32f4xx_hal_nor.c ****                   NOR_CMD_DATA_FIRST);
 2407              		.loc 1 981 9 is_stmt 1 discriminator 4 view .LVU759
 2408              	.LBB214:
 2409              	.LBI214:
 275:CMSIS_5/CMSIS/Core/Include/cmsis_gcc.h **** {
 2410              		.loc 2 275 27 discriminator 4 view .LVU760
 2411              	.LBB215:
 277:CMSIS_5/CMSIS/Core/Include/cmsis_gcc.h **** }
 2412              		.loc 2 277 3 discriminator 4 view .LVU761
 2413              		.syntax unified
 2414              	@ 277 "CMSIS_5/CMSIS/Core/Include/cmsis_gcc.h" 1
 2415 0088 BFF34F8F 		dsb 0xF
 2416              	@ 0 "" 2
 2417              		.thumb
 2418              		.syntax unified
 2419              	.LBE215:
 2420              	.LBE214:
 981:stm32f4xx-hal-driver/Src/stm32f4xx_hal_nor.c ****                   NOR_CMD_DATA_FIRST);
 2421              		.loc 1 981 9 discriminator 4 view .LVU762
 983:stm32f4xx-hal-driver/Src/stm32f4xx_hal_nor.c ****                   NOR_CMD_DATA_SECOND);
 2422              		.loc 1 983 9 discriminator 4 view .LVU763
 983:stm32f4xx-hal-driver/Src/stm32f4xx_hal_nor.c ****                   NOR_CMD_DATA_SECOND);
 2423              		.loc 1 983 9 discriminator 4 view .LVU764
 2424 008c 3049     		ldr	r1, .L253
 2425 008e 0968     		ldr	r1, [r1]
 2426 0090 0129     		cmp	r1, #1
 2427 0092 1ED0     		beq	.L248
 983:stm32f4xx-hal-driver/Src/stm32f4xx_hal_nor.c ****                   NOR_CMD_DATA_SECOND);
 2428              		.loc 1 983 9 is_stmt 0 discriminator 2 view .LVU765
 2429 0094 06F25556 		addw	r6, r6, #1365
 2430              	.LVL152:
 2431              	.L227:
 983:stm32f4xx-hal-driver/Src/stm32f4xx_hal_nor.c ****                   NOR_CMD_DATA_SECOND);
 2432              		.loc 1 983 9 discriminator 4 view .LVU766
 2433 0098 5521     		movs	r1, #85
 2434 009a 3180     		strh	r1, [r6]	@ movhi
 983:stm32f4xx-hal-driver/Src/stm32f4xx_hal_nor.c ****                   NOR_CMD_DATA_SECOND);
ARM GAS  /tmp/ccEpvYTV.s 			page 74


 2435              		.loc 1 983 9 is_stmt 1 discriminator 4 view .LVU767
 2436              	.LBB216:
 2437              	.LBI216:
 275:CMSIS_5/CMSIS/Core/Include/cmsis_gcc.h **** {
 2438              		.loc 2 275 27 discriminator 4 view .LVU768
 2439              	.LBB217:
 277:CMSIS_5/CMSIS/Core/Include/cmsis_gcc.h **** }
 2440              		.loc 2 277 3 discriminator 4 view .LVU769
 2441              		.syntax unified
 2442              	@ 277 "CMSIS_5/CMSIS/Core/Include/cmsis_gcc.h" 1
 2443 009c BFF34F8F 		dsb 0xF
 2444              	@ 0 "" 2
 2445              		.thumb
 2446              		.syntax unified
 2447              	.L228:
 2448              	.LBE217:
 2449              	.LBE216:
 990:stm32f4xx-hal-driver/Src/stm32f4xx_hal_nor.c ****       }
 2450              		.loc 1 990 9 discriminator 5 view .LVU770
 993:stm32f4xx-hal-driver/Src/stm32f4xx_hal_nor.c ****       NOR_WRITE((deviceaddress + uwAddress), (uint16_t)(uwBufferSize - 1U));
 2451              		.loc 1 993 7 discriminator 5 view .LVU771
 993:stm32f4xx-hal-driver/Src/stm32f4xx_hal_nor.c ****       NOR_WRITE((deviceaddress + uwAddress), (uint16_t)(uwBufferSize - 1U));
 2452              		.loc 1 993 7 discriminator 5 view .LVU772
 2453 00a0 2521     		movs	r1, #37
 2454 00a2 ACF80010 		strh	r1, [ip]	@ movhi
 993:stm32f4xx-hal-driver/Src/stm32f4xx_hal_nor.c ****       NOR_WRITE((deviceaddress + uwAddress), (uint16_t)(uwBufferSize - 1U));
 2455              		.loc 1 993 7 discriminator 5 view .LVU773
 2456              	.LBB218:
 2457              	.LBI218:
 275:CMSIS_5/CMSIS/Core/Include/cmsis_gcc.h **** {
 2458              		.loc 2 275 27 discriminator 5 view .LVU774
 2459              	.LBB219:
 277:CMSIS_5/CMSIS/Core/Include/cmsis_gcc.h **** }
 2460              		.loc 2 277 3 discriminator 5 view .LVU775
 2461              		.syntax unified
 2462              	@ 277 "CMSIS_5/CMSIS/Core/Include/cmsis_gcc.h" 1
 2463 00a6 BFF34F8F 		dsb 0xF
 2464              	@ 0 "" 2
 2465              		.thumb
 2466              		.syntax unified
 2467              	.LBE219:
 2468              	.LBE218:
 993:stm32f4xx-hal-driver/Src/stm32f4xx_hal_nor.c ****       NOR_WRITE((deviceaddress + uwAddress), (uint16_t)(uwBufferSize - 1U));
 2469              		.loc 1 993 7 discriminator 5 view .LVU776
 994:stm32f4xx-hal-driver/Src/stm32f4xx_hal_nor.c ****     }
 2470              		.loc 1 994 7 discriminator 5 view .LVU777
 994:stm32f4xx-hal-driver/Src/stm32f4xx_hal_nor.c ****     }
 2471              		.loc 1 994 7 discriminator 5 view .LVU778
 2472 00aa 013B     		subs	r3, r3, #1
 2473              	.LVL153:
 994:stm32f4xx-hal-driver/Src/stm32f4xx_hal_nor.c ****     }
 2474              		.loc 1 994 7 is_stmt 0 discriminator 5 view .LVU779
 2475 00ac 9BB2     		uxth	r3, r3
 2476              	.LVL154:
 994:stm32f4xx-hal-driver/Src/stm32f4xx_hal_nor.c ****     }
 2477              		.loc 1 994 7 discriminator 5 view .LVU780
 2478 00ae ACF80030 		strh	r3, [ip]	@ movhi
ARM GAS  /tmp/ccEpvYTV.s 			page 75


 994:stm32f4xx-hal-driver/Src/stm32f4xx_hal_nor.c ****     }
 2479              		.loc 1 994 7 is_stmt 1 discriminator 5 view .LVU781
 2480              	.LBB220:
 2481              	.LBI220:
 275:CMSIS_5/CMSIS/Core/Include/cmsis_gcc.h **** {
 2482              		.loc 2 275 27 discriminator 5 view .LVU782
 2483              	.LBB221:
 277:CMSIS_5/CMSIS/Core/Include/cmsis_gcc.h **** }
 2484              		.loc 2 277 3 discriminator 5 view .LVU783
 2485              		.syntax unified
 2486              	@ 277 "CMSIS_5/CMSIS/Core/Include/cmsis_gcc.h" 1
 2487 00b2 BFF34F8F 		dsb 0xF
 2488              	@ 0 "" 2
 277:CMSIS_5/CMSIS/Core/Include/cmsis_gcc.h **** }
 2489              		.loc 2 277 3 is_stmt 0 discriminator 5 view .LVU784
 2490              		.thumb
 2491              		.syntax unified
 2492              	.LBE221:
 2493              	.LBE220:
1008:stm32f4xx-hal-driver/Src/stm32f4xx_hal_nor.c ****     {
 2494              		.loc 1 1008 5 is_stmt 1 discriminator 5 view .LVU785
 2495              	.L235:
 965:stm32f4xx-hal-driver/Src/stm32f4xx_hal_nor.c ****     }
 2496              		.loc 1 965 21 is_stmt 0 view .LVU786
 2497 00b6 6346     		mov	r3, ip
 2498              	.LVL155:
 2499              	.L233:
1011:stm32f4xx-hal-driver/Src/stm32f4xx_hal_nor.c ****       {
 2500              		.loc 1 1011 13 is_stmt 1 view .LVU787
 2501 00b8 A342     		cmp	r3, r4
 2502 00ba 32D8     		bhi	.L249
1013:stm32f4xx-hal-driver/Src/stm32f4xx_hal_nor.c **** 
 2503              		.loc 1 1013 9 view .LVU788
1013:stm32f4xx-hal-driver/Src/stm32f4xx_hal_nor.c **** 
 2504              		.loc 1 1013 9 view .LVU789
 2505 00bc 32F8021B 		ldrh	r1, [r2], #2
 2506              	.LVL156:
1013:stm32f4xx-hal-driver/Src/stm32f4xx_hal_nor.c **** 
 2507              		.loc 1 1013 9 is_stmt 0 view .LVU790
 2508 00c0 23F8021B 		strh	r1, [r3], #2	@ movhi
 2509              	.LVL157:
1013:stm32f4xx-hal-driver/Src/stm32f4xx_hal_nor.c **** 
 2510              		.loc 1 1013 9 is_stmt 1 view .LVU791
 2511              	.LBB222:
 2512              	.LBI222:
 275:CMSIS_5/CMSIS/Core/Include/cmsis_gcc.h **** {
 2513              		.loc 2 275 27 view .LVU792
 2514              	.LBB223:
 277:CMSIS_5/CMSIS/Core/Include/cmsis_gcc.h **** }
 2515              		.loc 2 277 3 view .LVU793
 2516              		.syntax unified
 2517              	@ 277 "CMSIS_5/CMSIS/Core/Include/cmsis_gcc.h" 1
 2518 00c4 BFF34F8F 		dsb 0xF
 2519              	@ 0 "" 2
 2520              		.thumb
 2521              		.syntax unified
 2522              	.LBE223:
ARM GAS  /tmp/ccEpvYTV.s 			page 76


 2523              	.LBE222:
1013:stm32f4xx-hal-driver/Src/stm32f4xx_hal_nor.c **** 
 2524              		.loc 1 1013 9 view .LVU794
1015:stm32f4xx-hal-driver/Src/stm32f4xx_hal_nor.c ****         p_currentaddress ++;
 2525              		.loc 1 1015 9 view .LVU795
 2526              	.LVL158:
1016:stm32f4xx-hal-driver/Src/stm32f4xx_hal_nor.c ****       }
 2527              		.loc 1 1016 9 view .LVU796
1016:stm32f4xx-hal-driver/Src/stm32f4xx_hal_nor.c ****       }
 2528              		.loc 1 1016 9 is_stmt 0 view .LVU797
 2529 00c8 F6E7     		b	.L233
 2530              	.LVL159:
 2531              	.L247:
 981:stm32f4xx-hal-driver/Src/stm32f4xx_hal_nor.c ****                   NOR_CMD_DATA_FIRST);
 2532              		.loc 1 981 9 discriminator 1 view .LVU798
 2533 00ca 06F5AA51 		add	r1, r6, #5440
 2534 00ce 1431     		adds	r1, r1, #20
 2535 00d0 D8E7     		b	.L225
 2536              	.L248:
 983:stm32f4xx-hal-driver/Src/stm32f4xx_hal_nor.c ****                   NOR_CMD_DATA_SECOND);
 2537              		.loc 1 983 9 discriminator 1 view .LVU799
 2538 00d2 06F6AA26 		addw	r6, r6, #2730
 2539              	.LVL160:
 983:stm32f4xx-hal-driver/Src/stm32f4xx_hal_nor.c ****                   NOR_CMD_DATA_SECOND);
 2540              		.loc 1 983 9 discriminator 1 view .LVU800
 2541 00d6 DFE7     		b	.L227
 2542              	.LVL161:
 2543              	.L223:
 989:stm32f4xx-hal-driver/Src/stm32f4xx_hal_nor.c ****         NOR_WRITE(NOR_ADDR_SHIFT(deviceaddress, uwNORMemoryDataWidth, NOR_CMD_ADDRESS_SECOND), NOR_
 2544              		.loc 1 989 9 is_stmt 1 view .LVU801
 989:stm32f4xx-hal-driver/Src/stm32f4xx_hal_nor.c ****         NOR_WRITE(NOR_ADDR_SHIFT(deviceaddress, uwNORMemoryDataWidth, NOR_CMD_ADDRESS_SECOND), NOR_
 2545              		.loc 1 989 9 view .LVU802
 2546 00d8 0129     		cmp	r1, #1
 2547 00da 10D0     		beq	.L250
 989:stm32f4xx-hal-driver/Src/stm32f4xx_hal_nor.c ****         NOR_WRITE(NOR_ADDR_SHIFT(deviceaddress, uwNORMemoryDataWidth, NOR_CMD_ADDRESS_SECOND), NOR_
 2548              		.loc 1 989 9 is_stmt 0 discriminator 2 view .LVU803
 2549 00dc 06F25550 		addw	r0, r6, #1365
 2550              	.L230:
 989:stm32f4xx-hal-driver/Src/stm32f4xx_hal_nor.c ****         NOR_WRITE(NOR_ADDR_SHIFT(deviceaddress, uwNORMemoryDataWidth, NOR_CMD_ADDRESS_SECOND), NOR_
 2551              		.loc 1 989 9 discriminator 4 view .LVU804
 2552 00e0 AA21     		movs	r1, #170
 2553 00e2 0180     		strh	r1, [r0]	@ movhi
 989:stm32f4xx-hal-driver/Src/stm32f4xx_hal_nor.c ****         NOR_WRITE(NOR_ADDR_SHIFT(deviceaddress, uwNORMemoryDataWidth, NOR_CMD_ADDRESS_SECOND), NOR_
 2554              		.loc 1 989 9 is_stmt 1 discriminator 4 view .LVU805
 2555              	.LBB224:
 2556              	.LBI224:
 275:CMSIS_5/CMSIS/Core/Include/cmsis_gcc.h **** {
 2557              		.loc 2 275 27 discriminator 4 view .LVU806
 2558              	.LBB225:
 277:CMSIS_5/CMSIS/Core/Include/cmsis_gcc.h **** }
 2559              		.loc 2 277 3 discriminator 4 view .LVU807
 2560              		.syntax unified
 2561              	@ 277 "CMSIS_5/CMSIS/Core/Include/cmsis_gcc.h" 1
 2562 00e4 BFF34F8F 		dsb 0xF
 2563              	@ 0 "" 2
 2564              		.thumb
 2565              		.syntax unified
ARM GAS  /tmp/ccEpvYTV.s 			page 77


 2566              	.LBE225:
 2567              	.LBE224:
 989:stm32f4xx-hal-driver/Src/stm32f4xx_hal_nor.c ****         NOR_WRITE(NOR_ADDR_SHIFT(deviceaddress, uwNORMemoryDataWidth, NOR_CMD_ADDRESS_SECOND), NOR_
 2568              		.loc 1 989 9 discriminator 4 view .LVU808
 990:stm32f4xx-hal-driver/Src/stm32f4xx_hal_nor.c ****       }
 2569              		.loc 1 990 9 discriminator 4 view .LVU809
 990:stm32f4xx-hal-driver/Src/stm32f4xx_hal_nor.c ****       }
 2570              		.loc 1 990 9 discriminator 4 view .LVU810
 2571 00e8 1949     		ldr	r1, .L253
 2572 00ea 0968     		ldr	r1, [r1]
 2573 00ec 0129     		cmp	r1, #1
 2574 00ee 09D0     		beq	.L251
 990:stm32f4xx-hal-driver/Src/stm32f4xx_hal_nor.c ****       }
 2575              		.loc 1 990 9 is_stmt 0 discriminator 2 view .LVU811
 2576 00f0 06F2AA26 		addw	r6, r6, #682
 2577              	.LVL162:
 2578              	.L232:
 990:stm32f4xx-hal-driver/Src/stm32f4xx_hal_nor.c ****       }
 2579              		.loc 1 990 9 discriminator 4 view .LVU812
 2580 00f4 5521     		movs	r1, #85
 2581 00f6 3180     		strh	r1, [r6]	@ movhi
 990:stm32f4xx-hal-driver/Src/stm32f4xx_hal_nor.c ****       }
 2582              		.loc 1 990 9 is_stmt 1 discriminator 4 view .LVU813
 2583              	.LBB226:
 2584              	.LBI226:
 275:CMSIS_5/CMSIS/Core/Include/cmsis_gcc.h **** {
 2585              		.loc 2 275 27 discriminator 4 view .LVU814
 2586              	.LBB227:
 277:CMSIS_5/CMSIS/Core/Include/cmsis_gcc.h **** }
 2587              		.loc 2 277 3 discriminator 4 view .LVU815
 2588              		.syntax unified
 2589              	@ 277 "CMSIS_5/CMSIS/Core/Include/cmsis_gcc.h" 1
 2590 00f8 BFF34F8F 		dsb 0xF
 2591              	@ 0 "" 2
 2592              		.loc 2 278 1 is_stmt 0 discriminator 4 view .LVU816
 2593              		.thumb
 2594              		.syntax unified
 2595 00fc D0E7     		b	.L228
 2596              	.LVL163:
 2597              	.L250:
 2598              		.loc 2 278 1 discriminator 4 view .LVU817
 2599              	.LBE227:
 2600              	.LBE226:
 989:stm32f4xx-hal-driver/Src/stm32f4xx_hal_nor.c ****         NOR_WRITE(NOR_ADDR_SHIFT(deviceaddress, uwNORMemoryDataWidth, NOR_CMD_ADDRESS_SECOND), NOR_
 2601              		.loc 1 989 9 discriminator 1 view .LVU818
 2602 00fe 06F6AA20 		addw	r0, r6, #2730
 2603 0102 EDE7     		b	.L230
 2604              	.L251:
 990:stm32f4xx-hal-driver/Src/stm32f4xx_hal_nor.c ****       }
 2605              		.loc 1 990 9 discriminator 1 view .LVU819
 2606 0104 06F25456 		addw	r6, r6, #1364
 2607              	.LVL164:
 990:stm32f4xx-hal-driver/Src/stm32f4xx_hal_nor.c ****       }
 2608              		.loc 1 990 9 discriminator 1 view .LVU820
 2609 0108 F4E7     		b	.L232
 2610              	.LVL165:
 2611              	.L246:
ARM GAS  /tmp/ccEpvYTV.s 			page 78


 999:stm32f4xx-hal-driver/Src/stm32f4xx_hal_nor.c ****       NOR_WRITE((deviceaddress + uwAddress), (uint16_t)(uwBufferSize - 1U));
 2612              		.loc 1 999 7 is_stmt 1 view .LVU821
 999:stm32f4xx-hal-driver/Src/stm32f4xx_hal_nor.c ****       NOR_WRITE((deviceaddress + uwAddress), (uint16_t)(uwBufferSize - 1U));
 2613              		.loc 1 999 7 view .LVU822
 2614 010a E821     		movs	r1, #232
 2615              	.LVL166:
 999:stm32f4xx-hal-driver/Src/stm32f4xx_hal_nor.c ****       NOR_WRITE((deviceaddress + uwAddress), (uint16_t)(uwBufferSize - 1U));
 2616              		.loc 1 999 7 is_stmt 0 view .LVU823
 2617 010c ACF80010 		strh	r1, [ip]	@ movhi
 999:stm32f4xx-hal-driver/Src/stm32f4xx_hal_nor.c ****       NOR_WRITE((deviceaddress + uwAddress), (uint16_t)(uwBufferSize - 1U));
 2618              		.loc 1 999 7 is_stmt 1 view .LVU824
 2619              	.LBB228:
 2620              	.LBI228:
 275:CMSIS_5/CMSIS/Core/Include/cmsis_gcc.h **** {
 2621              		.loc 2 275 27 view .LVU825
 2622              	.LBB229:
 277:CMSIS_5/CMSIS/Core/Include/cmsis_gcc.h **** }
 2623              		.loc 2 277 3 view .LVU826
 2624              		.syntax unified
 2625              	@ 277 "CMSIS_5/CMSIS/Core/Include/cmsis_gcc.h" 1
 2626 0110 BFF34F8F 		dsb 0xF
 2627              	@ 0 "" 2
 2628              		.thumb
 2629              		.syntax unified
 2630              	.LBE229:
 2631              	.LBE228:
 999:stm32f4xx-hal-driver/Src/stm32f4xx_hal_nor.c ****       NOR_WRITE((deviceaddress + uwAddress), (uint16_t)(uwBufferSize - 1U));
 2632              		.loc 1 999 7 view .LVU827
1000:stm32f4xx-hal-driver/Src/stm32f4xx_hal_nor.c ****     }
 2633              		.loc 1 1000 7 view .LVU828
1000:stm32f4xx-hal-driver/Src/stm32f4xx_hal_nor.c ****     }
 2634              		.loc 1 1000 7 view .LVU829
 2635 0114 013B     		subs	r3, r3, #1
 2636              	.LVL167:
1000:stm32f4xx-hal-driver/Src/stm32f4xx_hal_nor.c ****     }
 2637              		.loc 1 1000 7 is_stmt 0 view .LVU830
 2638 0116 9BB2     		uxth	r3, r3
 2639              	.LVL168:
1000:stm32f4xx-hal-driver/Src/stm32f4xx_hal_nor.c ****     }
 2640              		.loc 1 1000 7 view .LVU831
 2641 0118 ACF80030 		strh	r3, [ip]	@ movhi
1000:stm32f4xx-hal-driver/Src/stm32f4xx_hal_nor.c ****     }
 2642              		.loc 1 1000 7 is_stmt 1 view .LVU832
 2643              	.LBB230:
 2644              	.LBI230:
 275:CMSIS_5/CMSIS/Core/Include/cmsis_gcc.h **** {
 2645              		.loc 2 275 27 view .LVU833
 2646              	.LBB231:
 277:CMSIS_5/CMSIS/Core/Include/cmsis_gcc.h **** }
 2647              		.loc 2 277 3 view .LVU834
 2648              		.syntax unified
 2649              	@ 277 "CMSIS_5/CMSIS/Core/Include/cmsis_gcc.h" 1
 2650 011c BFF34F8F 		dsb 0xF
 2651              	@ 0 "" 2
 277:CMSIS_5/CMSIS/Core/Include/cmsis_gcc.h **** }
 2652              		.loc 2 277 3 is_stmt 0 view .LVU835
 2653              		.thumb
ARM GAS  /tmp/ccEpvYTV.s 			page 79


 2654              		.syntax unified
 2655              	.LBE231:
 2656              	.LBE230:
1008:stm32f4xx-hal-driver/Src/stm32f4xx_hal_nor.c ****     {
 2657              		.loc 1 1008 5 is_stmt 1 view .LVU836
 2658 0120 C9E7     		b	.L235
 2659              	.LVL169:
 2660              	.L249:
1019:stm32f4xx-hal-driver/Src/stm32f4xx_hal_nor.c ****       {
 2661              		.loc 1 1019 7 view .LVU837
1019:stm32f4xx-hal-driver/Src/stm32f4xx_hal_nor.c ****       {
 2662              		.loc 1 1019 15 is_stmt 0 view .LVU838
 2663 0122 EB6C     		ldr	r3, [r5, #76]
 2664              	.LVL170:
1019:stm32f4xx-hal-driver/Src/stm32f4xx_hal_nor.c ****       {
 2665              		.loc 1 1019 10 view .LVU839
 2666 0124 022B     		cmp	r3, #2
 2667 0126 06D0     		beq	.L252
1025:stm32f4xx-hal-driver/Src/stm32f4xx_hal_nor.c ****       }
 2668              		.loc 1 1025 9 is_stmt 1 view .LVU840
1025:stm32f4xx-hal-driver/Src/stm32f4xx_hal_nor.c ****       }
 2669              		.loc 1 1025 9 view .LVU841
 2670 0128 D023     		movs	r3, #208
 2671 012a ACF80030 		strh	r3, [ip]	@ movhi
1025:stm32f4xx-hal-driver/Src/stm32f4xx_hal_nor.c ****       }
 2672              		.loc 1 1025 9 view .LVU842
 2673              	.LBB232:
 2674              	.LBI232:
 275:CMSIS_5/CMSIS/Core/Include/cmsis_gcc.h **** {
 2675              		.loc 2 275 27 view .LVU843
 2676              	.LBB233:
 277:CMSIS_5/CMSIS/Core/Include/cmsis_gcc.h **** }
 2677              		.loc 2 277 3 view .LVU844
 2678              		.syntax unified
 2679              	@ 277 "CMSIS_5/CMSIS/Core/Include/cmsis_gcc.h" 1
 2680 012e BFF34F8F 		dsb 0xF
 2681              	@ 0 "" 2
 2682              		.loc 2 278 1 is_stmt 0 view .LVU845
 2683              		.thumb
 2684              		.syntax unified
 2685 0132 0020     		movs	r0, #0
 2686 0134 95E7     		b	.L234
 2687              	.L252:
 2688              	.LBE233:
 2689              	.LBE232:
1021:stm32f4xx-hal-driver/Src/stm32f4xx_hal_nor.c ****       }
 2690              		.loc 1 1021 9 is_stmt 1 view .LVU846
1021:stm32f4xx-hal-driver/Src/stm32f4xx_hal_nor.c ****       }
 2691              		.loc 1 1021 9 view .LVU847
 2692 0136 2923     		movs	r3, #41
 2693 0138 ACF80030 		strh	r3, [ip]	@ movhi
1021:stm32f4xx-hal-driver/Src/stm32f4xx_hal_nor.c ****       }
 2694              		.loc 1 1021 9 view .LVU848
 2695              	.LBB234:
 2696              	.LBI234:
 275:CMSIS_5/CMSIS/Core/Include/cmsis_gcc.h **** {
 2697              		.loc 2 275 27 view .LVU849
ARM GAS  /tmp/ccEpvYTV.s 			page 80


 2698              	.LBB235:
 277:CMSIS_5/CMSIS/Core/Include/cmsis_gcc.h **** }
 2699              		.loc 2 277 3 view .LVU850
 2700              		.syntax unified
 2701              	@ 277 "CMSIS_5/CMSIS/Core/Include/cmsis_gcc.h" 1
 2702 013c BFF34F8F 		dsb 0xF
 2703              	@ 0 "" 2
 2704              		.loc 2 278 1 is_stmt 0 view .LVU851
 2705              		.thumb
 2706              		.syntax unified
 2707 0140 0020     		movs	r0, #0
 2708 0142 8EE7     		b	.L234
 2709              	.LVL171:
 2710              	.L238:
 2711              		.loc 2 278 1 view .LVU852
 2712              	.LBE235:
 2713              	.LBE234:
1037:stm32f4xx-hal-driver/Src/stm32f4xx_hal_nor.c ****   }
 2714              		.loc 1 1037 12 view .LVU853
 2715 0144 0120     		movs	r0, #1
 2716              	.LVL172:
 2717              	.L220:
1041:stm32f4xx-hal-driver/Src/stm32f4xx_hal_nor.c **** 
1042:stm32f4xx-hal-driver/Src/stm32f4xx_hal_nor.c **** }
 2718              		.loc 1 1042 1 view .LVU854
 2719 0146 F0BC     		pop	{r4, r5, r6, r7}
 2720              	.LCFI17:
 2721              		.cfi_remember_state
 2722              		.cfi_restore 7
 2723              		.cfi_restore 6
 2724              		.cfi_restore 5
 2725              		.cfi_restore 4
 2726              		.cfi_def_cfa_offset 0
 2727              	.LVL173:
 2728              		.loc 1 1042 1 view .LVU855
 2729 0148 7047     		bx	lr
 2730              	.LVL174:
 2731              	.L239:
 2732              	.LCFI18:
 2733              		.cfi_restore_state
 949:stm32f4xx-hal-driver/Src/stm32f4xx_hal_nor.c **** 
 2734              		.loc 1 949 5 view .LVU856
 2735 014a 0220     		movs	r0, #2
 2736 014c FBE7     		b	.L220
 2737              	.L254:
 2738 014e 00BF     		.align	2
 2739              	.L253:
 2740 0150 00000000 		.word	.LANCHOR0
 2741              		.cfi_endproc
 2742              	.LFE249:
 2744              		.section	.text.HAL_NOR_Erase_Block,"ax",%progbits
 2745              		.align	1
 2746              		.global	HAL_NOR_Erase_Block
 2747              		.syntax unified
 2748              		.thumb
 2749              		.thumb_func
 2750              		.fpu fpv4-sp-d16
ARM GAS  /tmp/ccEpvYTV.s 			page 81


 2752              	HAL_NOR_Erase_Block:
 2753              	.LVL175:
 2754              	.LFB250:
1043:stm32f4xx-hal-driver/Src/stm32f4xx_hal_nor.c **** 
1044:stm32f4xx-hal-driver/Src/stm32f4xx_hal_nor.c **** /**
1045:stm32f4xx-hal-driver/Src/stm32f4xx_hal_nor.c ****   * @brief  Erase the specified block of the NOR memory
1046:stm32f4xx-hal-driver/Src/stm32f4xx_hal_nor.c ****   * @param  hnor pointer to a NOR_HandleTypeDef structure that contains
1047:stm32f4xx-hal-driver/Src/stm32f4xx_hal_nor.c ****   *                the configuration information for NOR module.
1048:stm32f4xx-hal-driver/Src/stm32f4xx_hal_nor.c ****   * @param  BlockAddress  Block to erase address
1049:stm32f4xx-hal-driver/Src/stm32f4xx_hal_nor.c ****   * @param  Address Device address
1050:stm32f4xx-hal-driver/Src/stm32f4xx_hal_nor.c ****   * @retval HAL status
1051:stm32f4xx-hal-driver/Src/stm32f4xx_hal_nor.c ****   */
1052:stm32f4xx-hal-driver/Src/stm32f4xx_hal_nor.c **** HAL_StatusTypeDef HAL_NOR_Erase_Block(NOR_HandleTypeDef *hnor, uint32_t BlockAddress, uint32_t Addr
1053:stm32f4xx-hal-driver/Src/stm32f4xx_hal_nor.c **** {
 2755              		.loc 1 1053 1 is_stmt 1 view -0
 2756              		.cfi_startproc
 2757              		@ args = 0, pretend = 0, frame = 0
 2758              		@ frame_needed = 0, uses_anonymous_args = 0
 2759              		@ link register save eliminated.
 2760              		.loc 1 1053 1 is_stmt 0 view .LVU858
 2761 0000 30B4     		push	{r4, r5}
 2762              	.LCFI19:
 2763              		.cfi_def_cfa_offset 8
 2764              		.cfi_offset 4, -8
 2765              		.cfi_offset 5, -4
 2766 0002 0446     		mov	r4, r0
1054:stm32f4xx-hal-driver/Src/stm32f4xx_hal_nor.c ****   uint32_t deviceaddress;
 2767              		.loc 1 1054 3 is_stmt 1 view .LVU859
1055:stm32f4xx-hal-driver/Src/stm32f4xx_hal_nor.c ****   HAL_StatusTypeDef status = HAL_OK;
 2768              		.loc 1 1055 3 view .LVU860
 2769              	.LVL176:
1056:stm32f4xx-hal-driver/Src/stm32f4xx_hal_nor.c **** 
1057:stm32f4xx-hal-driver/Src/stm32f4xx_hal_nor.c ****   /* Check the NOR controller state */
1058:stm32f4xx-hal-driver/Src/stm32f4xx_hal_nor.c ****   if (hnor->State == HAL_NOR_STATE_BUSY)
 2770              		.loc 1 1058 3 view .LVU861
 2771              		.loc 1 1058 11 is_stmt 0 view .LVU862
 2772 0004 90F84930 		ldrb	r3, [r0, #73]	@ zero_extendqisi2
 2773 0008 D8B2     		uxtb	r0, r3
 2774              	.LVL177:
 2775              		.loc 1 1058 6 view .LVU863
 2776 000a 0228     		cmp	r0, #2
 2777 000c 00F0B080 		beq	.L256
1059:stm32f4xx-hal-driver/Src/stm32f4xx_hal_nor.c ****   {
1060:stm32f4xx-hal-driver/Src/stm32f4xx_hal_nor.c ****     return HAL_BUSY;
1061:stm32f4xx-hal-driver/Src/stm32f4xx_hal_nor.c ****   }
1062:stm32f4xx-hal-driver/Src/stm32f4xx_hal_nor.c ****   else if (hnor->State == HAL_NOR_STATE_READY)
 2778              		.loc 1 1062 8 is_stmt 1 view .LVU864
 2779              		.loc 1 1062 16 is_stmt 0 view .LVU865
 2780 0010 94F84930 		ldrb	r3, [r4, #73]	@ zero_extendqisi2
 2781 0014 D8B2     		uxtb	r0, r3
 2782              		.loc 1 1062 11 view .LVU866
 2783 0016 0128     		cmp	r0, #1
 2784 0018 40F0A980 		bne	.L278
1063:stm32f4xx-hal-driver/Src/stm32f4xx_hal_nor.c ****   {
1064:stm32f4xx-hal-driver/Src/stm32f4xx_hal_nor.c ****     /* Process Locked */
1065:stm32f4xx-hal-driver/Src/stm32f4xx_hal_nor.c ****     __HAL_LOCK(hnor);
 2785              		.loc 1 1065 5 is_stmt 1 view .LVU867
ARM GAS  /tmp/ccEpvYTV.s 			page 82


 2786              		.loc 1 1065 5 view .LVU868
 2787 001c 94F84830 		ldrb	r3, [r4, #72]	@ zero_extendqisi2
 2788 0020 012B     		cmp	r3, #1
 2789 0022 00F0A780 		beq	.L279
 2790              		.loc 1 1065 5 discriminator 2 view .LVU869
 2791 0026 0123     		movs	r3, #1
 2792 0028 84F84830 		strb	r3, [r4, #72]
 2793              		.loc 1 1065 5 discriminator 2 view .LVU870
1066:stm32f4xx-hal-driver/Src/stm32f4xx_hal_nor.c **** 
1067:stm32f4xx-hal-driver/Src/stm32f4xx_hal_nor.c ****     /* Update the NOR controller state */
1068:stm32f4xx-hal-driver/Src/stm32f4xx_hal_nor.c ****     hnor->State = HAL_NOR_STATE_BUSY;
 2794              		.loc 1 1068 5 discriminator 2 view .LVU871
 2795              		.loc 1 1068 17 is_stmt 0 discriminator 2 view .LVU872
 2796 002c 0223     		movs	r3, #2
 2797 002e 84F84930 		strb	r3, [r4, #73]
1069:stm32f4xx-hal-driver/Src/stm32f4xx_hal_nor.c **** 
1070:stm32f4xx-hal-driver/Src/stm32f4xx_hal_nor.c ****     /* Select the NOR device address */
1071:stm32f4xx-hal-driver/Src/stm32f4xx_hal_nor.c ****     if (hnor->Init.NSBank == FMC_NORSRAM_BANK1)
 2798              		.loc 1 1071 5 is_stmt 1 discriminator 2 view .LVU873
 2799              		.loc 1 1071 19 is_stmt 0 discriminator 2 view .LVU874
 2800 0032 A368     		ldr	r3, [r4, #8]
 2801              		.loc 1 1071 8 discriminator 2 view .LVU875
 2802 0034 4BB1     		cbz	r3, .L280
1072:stm32f4xx-hal-driver/Src/stm32f4xx_hal_nor.c ****     {
1073:stm32f4xx-hal-driver/Src/stm32f4xx_hal_nor.c ****       deviceaddress = NOR_MEMORY_ADRESS1;
1074:stm32f4xx-hal-driver/Src/stm32f4xx_hal_nor.c ****     }
1075:stm32f4xx-hal-driver/Src/stm32f4xx_hal_nor.c ****     else if (hnor->Init.NSBank == FMC_NORSRAM_BANK2)
 2803              		.loc 1 1075 10 is_stmt 1 view .LVU876
 2804              		.loc 1 1075 13 is_stmt 0 view .LVU877
 2805 0036 022B     		cmp	r3, #2
 2806 0038 15D0     		beq	.L281
1076:stm32f4xx-hal-driver/Src/stm32f4xx_hal_nor.c ****     {
1077:stm32f4xx-hal-driver/Src/stm32f4xx_hal_nor.c ****       deviceaddress = NOR_MEMORY_ADRESS2;
1078:stm32f4xx-hal-driver/Src/stm32f4xx_hal_nor.c ****     }
1079:stm32f4xx-hal-driver/Src/stm32f4xx_hal_nor.c ****     else if (hnor->Init.NSBank == FMC_NORSRAM_BANK3)
 2807              		.loc 1 1079 10 is_stmt 1 view .LVU878
 2808              		.loc 1 1079 13 is_stmt 0 view .LVU879
 2809 003a 042B     		cmp	r3, #4
 2810 003c 02D0     		beq	.L284
1080:stm32f4xx-hal-driver/Src/stm32f4xx_hal_nor.c ****     {
1081:stm32f4xx-hal-driver/Src/stm32f4xx_hal_nor.c ****       deviceaddress = NOR_MEMORY_ADRESS3;
1082:stm32f4xx-hal-driver/Src/stm32f4xx_hal_nor.c ****     }
1083:stm32f4xx-hal-driver/Src/stm32f4xx_hal_nor.c ****     else /* FMC_NORSRAM_BANK4 */
1084:stm32f4xx-hal-driver/Src/stm32f4xx_hal_nor.c ****     {
1085:stm32f4xx-hal-driver/Src/stm32f4xx_hal_nor.c ****       deviceaddress = NOR_MEMORY_ADRESS4;
 2811              		.loc 1 1085 21 view .LVU880
 2812 003e 4FF0D843 		mov	r3, #1811939328
 2813 0042 04E0     		b	.L257
 2814              	.L284:
1081:stm32f4xx-hal-driver/Src/stm32f4xx_hal_nor.c ****     }
 2815              		.loc 1 1081 21 view .LVU881
 2816 0044 4FF0D043 		mov	r3, #1744830464
 2817 0048 01E0     		b	.L257
 2818              	.L280:
1073:stm32f4xx-hal-driver/Src/stm32f4xx_hal_nor.c ****     }
 2819              		.loc 1 1073 21 view .LVU882
 2820 004a 4FF0C043 		mov	r3, #1610612736
ARM GAS  /tmp/ccEpvYTV.s 			page 83


 2821              	.L257:
 2822              	.LVL178:
1086:stm32f4xx-hal-driver/Src/stm32f4xx_hal_nor.c ****     }
1087:stm32f4xx-hal-driver/Src/stm32f4xx_hal_nor.c **** 
1088:stm32f4xx-hal-driver/Src/stm32f4xx_hal_nor.c ****     /* Send block erase command sequence */
1089:stm32f4xx-hal-driver/Src/stm32f4xx_hal_nor.c ****     if (hnor->CommandSet == NOR_AMD_FUJITSU_COMMAND_SET)
 2823              		.loc 1 1089 5 is_stmt 1 view .LVU883
 2824              		.loc 1 1089 13 is_stmt 0 view .LVU884
 2825 004e E56C     		ldr	r5, [r4, #76]
 2826              		.loc 1 1089 8 view .LVU885
 2827 0050 022D     		cmp	r5, #2
 2828 0052 0BD0     		beq	.L285
1090:stm32f4xx-hal-driver/Src/stm32f4xx_hal_nor.c ****     {
1091:stm32f4xx-hal-driver/Src/stm32f4xx_hal_nor.c ****       if (uwNORMemoryDataWidth == NOR_MEMORY_8B)
1092:stm32f4xx-hal-driver/Src/stm32f4xx_hal_nor.c ****       {
1093:stm32f4xx-hal-driver/Src/stm32f4xx_hal_nor.c ****         NOR_WRITE(NOR_ADDR_SHIFT(deviceaddress, uwNORMemoryDataWidth, NOR_CMD_ADDRESS_FIRST_BYTE),
1094:stm32f4xx-hal-driver/Src/stm32f4xx_hal_nor.c ****                   NOR_CMD_DATA_FIRST);
1095:stm32f4xx-hal-driver/Src/stm32f4xx_hal_nor.c ****         NOR_WRITE(NOR_ADDR_SHIFT(deviceaddress, uwNORMemoryDataWidth, NOR_CMD_ADDRESS_SECOND_BYTE),
1096:stm32f4xx-hal-driver/Src/stm32f4xx_hal_nor.c ****                   NOR_CMD_DATA_SECOND);
1097:stm32f4xx-hal-driver/Src/stm32f4xx_hal_nor.c ****         NOR_WRITE(NOR_ADDR_SHIFT(deviceaddress, uwNORMemoryDataWidth, NOR_CMD_ADDRESS_THIRD_BYTE),
1098:stm32f4xx-hal-driver/Src/stm32f4xx_hal_nor.c ****                   NOR_CMD_DATA_CHIP_BLOCK_ERASE_THIRD);
1099:stm32f4xx-hal-driver/Src/stm32f4xx_hal_nor.c ****       }
1100:stm32f4xx-hal-driver/Src/stm32f4xx_hal_nor.c ****       else
1101:stm32f4xx-hal-driver/Src/stm32f4xx_hal_nor.c ****       {
1102:stm32f4xx-hal-driver/Src/stm32f4xx_hal_nor.c ****         NOR_WRITE(NOR_ADDR_SHIFT(deviceaddress, uwNORMemoryDataWidth, NOR_CMD_ADDRESS_FIRST), NOR_C
1103:stm32f4xx-hal-driver/Src/stm32f4xx_hal_nor.c ****         NOR_WRITE(NOR_ADDR_SHIFT(deviceaddress, uwNORMemoryDataWidth, NOR_CMD_ADDRESS_SECOND), NOR_
1104:stm32f4xx-hal-driver/Src/stm32f4xx_hal_nor.c ****         NOR_WRITE(NOR_ADDR_SHIFT(deviceaddress, uwNORMemoryDataWidth, NOR_CMD_ADDRESS_THIRD),
1105:stm32f4xx-hal-driver/Src/stm32f4xx_hal_nor.c ****                   NOR_CMD_DATA_CHIP_BLOCK_ERASE_THIRD);
1106:stm32f4xx-hal-driver/Src/stm32f4xx_hal_nor.c ****         NOR_WRITE(NOR_ADDR_SHIFT(deviceaddress, uwNORMemoryDataWidth, NOR_CMD_ADDRESS_FOURTH),
1107:stm32f4xx-hal-driver/Src/stm32f4xx_hal_nor.c ****                   NOR_CMD_DATA_CHIP_BLOCK_ERASE_FOURTH);
1108:stm32f4xx-hal-driver/Src/stm32f4xx_hal_nor.c ****         NOR_WRITE(NOR_ADDR_SHIFT(deviceaddress, uwNORMemoryDataWidth, NOR_CMD_ADDRESS_FIFTH),
1109:stm32f4xx-hal-driver/Src/stm32f4xx_hal_nor.c ****                   NOR_CMD_DATA_CHIP_BLOCK_ERASE_FIFTH);
1110:stm32f4xx-hal-driver/Src/stm32f4xx_hal_nor.c ****       }
1111:stm32f4xx-hal-driver/Src/stm32f4xx_hal_nor.c ****       NOR_WRITE((uint32_t)(BlockAddress + Address), NOR_CMD_DATA_BLOCK_ERASE);
1112:stm32f4xx-hal-driver/Src/stm32f4xx_hal_nor.c ****     }
1113:stm32f4xx-hal-driver/Src/stm32f4xx_hal_nor.c ****     else if (hnor->CommandSet == NOR_INTEL_SHARP_EXT_COMMAND_SET)
 2829              		.loc 1 1113 10 is_stmt 1 view .LVU886
 2830              		.loc 1 1113 13 is_stmt 0 view .LVU887
 2831 0054 012D     		cmp	r5, #1
 2832 0056 79D0     		beq	.L286
 2833              	.LVL179:
 2834              	.L277:
1114:stm32f4xx-hal-driver/Src/stm32f4xx_hal_nor.c ****     {
1115:stm32f4xx-hal-driver/Src/stm32f4xx_hal_nor.c ****       NOR_WRITE((BlockAddress + Address), NOR_CMD_BLOCK_UNLOCK);
1116:stm32f4xx-hal-driver/Src/stm32f4xx_hal_nor.c ****       NOR_WRITE((BlockAddress + Address), NOR_CMD_CONFIRM);
1117:stm32f4xx-hal-driver/Src/stm32f4xx_hal_nor.c ****       NOR_WRITE((BlockAddress + Address), NOR_CMD_BLOCK_ERASE);
1118:stm32f4xx-hal-driver/Src/stm32f4xx_hal_nor.c ****       NOR_WRITE((BlockAddress + Address), NOR_CMD_CONFIRM);
1119:stm32f4xx-hal-driver/Src/stm32f4xx_hal_nor.c ****     }
1120:stm32f4xx-hal-driver/Src/stm32f4xx_hal_nor.c ****     else
1121:stm32f4xx-hal-driver/Src/stm32f4xx_hal_nor.c ****     {
1122:stm32f4xx-hal-driver/Src/stm32f4xx_hal_nor.c ****       /* Primary command set not supported by the driver */
1123:stm32f4xx-hal-driver/Src/stm32f4xx_hal_nor.c ****       status = HAL_ERROR;
1124:stm32f4xx-hal-driver/Src/stm32f4xx_hal_nor.c ****     }
1125:stm32f4xx-hal-driver/Src/stm32f4xx_hal_nor.c **** 
1126:stm32f4xx-hal-driver/Src/stm32f4xx_hal_nor.c ****     /* Check the NOR memory status and update the controller state */
1127:stm32f4xx-hal-driver/Src/stm32f4xx_hal_nor.c ****     hnor->State = HAL_NOR_STATE_READY;
 2835              		.loc 1 1127 5 is_stmt 1 view .LVU888
ARM GAS  /tmp/ccEpvYTV.s 			page 84


 2836              		.loc 1 1127 17 is_stmt 0 view .LVU889
 2837 0058 0123     		movs	r3, #1
 2838 005a 84F84930 		strb	r3, [r4, #73]
1128:stm32f4xx-hal-driver/Src/stm32f4xx_hal_nor.c **** 
1129:stm32f4xx-hal-driver/Src/stm32f4xx_hal_nor.c ****     /* Process unlocked */
1130:stm32f4xx-hal-driver/Src/stm32f4xx_hal_nor.c ****     __HAL_UNLOCK(hnor);
 2839              		.loc 1 1130 5 is_stmt 1 view .LVU890
 2840              		.loc 1 1130 5 view .LVU891
 2841 005e 0023     		movs	r3, #0
 2842 0060 84F84830 		strb	r3, [r4, #72]
 2843              		.loc 1 1130 5 view .LVU892
1131:stm32f4xx-hal-driver/Src/stm32f4xx_hal_nor.c ****   }
1132:stm32f4xx-hal-driver/Src/stm32f4xx_hal_nor.c ****   else
1133:stm32f4xx-hal-driver/Src/stm32f4xx_hal_nor.c ****   {
1134:stm32f4xx-hal-driver/Src/stm32f4xx_hal_nor.c ****     return HAL_ERROR;
1135:stm32f4xx-hal-driver/Src/stm32f4xx_hal_nor.c ****   }
1136:stm32f4xx-hal-driver/Src/stm32f4xx_hal_nor.c **** 
1137:stm32f4xx-hal-driver/Src/stm32f4xx_hal_nor.c ****   return status;
 2844              		.loc 1 1137 3 view .LVU893
 2845              		.loc 1 1137 10 is_stmt 0 view .LVU894
 2846 0064 84E0     		b	.L256
 2847              	.LVL180:
 2848              	.L281:
1077:stm32f4xx-hal-driver/Src/stm32f4xx_hal_nor.c ****     }
 2849              		.loc 1 1077 21 view .LVU895
 2850 0066 4FF0C843 		mov	r3, #1677721600
 2851 006a F0E7     		b	.L257
 2852              	.LVL181:
 2853              	.L285:
1091:stm32f4xx-hal-driver/Src/stm32f4xx_hal_nor.c ****       {
 2854              		.loc 1 1091 7 is_stmt 1 view .LVU896
1091:stm32f4xx-hal-driver/Src/stm32f4xx_hal_nor.c ****       {
 2855              		.loc 1 1091 32 is_stmt 0 view .LVU897
 2856 006c 4248     		ldr	r0, .L295
 2857 006e 0068     		ldr	r0, [r0]
1091:stm32f4xx-hal-driver/Src/stm32f4xx_hal_nor.c ****       {
 2858              		.loc 1 1091 10 view .LVU898
 2859 0070 60BB     		cbnz	r0, .L259
1093:stm32f4xx-hal-driver/Src/stm32f4xx_hal_nor.c ****                   NOR_CMD_DATA_FIRST);
 2860              		.loc 1 1093 9 is_stmt 1 view .LVU899
1093:stm32f4xx-hal-driver/Src/stm32f4xx_hal_nor.c ****                   NOR_CMD_DATA_FIRST);
 2861              		.loc 1 1093 9 view .LVU900
 2862 0072 0128     		cmp	r0, #1
 2863 0074 1FD0     		beq	.L287
1093:stm32f4xx-hal-driver/Src/stm32f4xx_hal_nor.c ****                   NOR_CMD_DATA_FIRST);
 2864              		.loc 1 1093 9 is_stmt 0 discriminator 2 view .LVU901
 2865 0076 03F6AA20 		addw	r0, r3, #2730
 2866              	.L261:
1093:stm32f4xx-hal-driver/Src/stm32f4xx_hal_nor.c ****                   NOR_CMD_DATA_FIRST);
 2867              		.loc 1 1093 9 discriminator 4 view .LVU902
 2868 007a AA25     		movs	r5, #170
 2869 007c 0580     		strh	r5, [r0]	@ movhi
1093:stm32f4xx-hal-driver/Src/stm32f4xx_hal_nor.c ****                   NOR_CMD_DATA_FIRST);
 2870              		.loc 1 1093 9 is_stmt 1 discriminator 4 view .LVU903
 2871              	.LBB236:
 2872              	.LBI236:
 275:CMSIS_5/CMSIS/Core/Include/cmsis_gcc.h **** {
ARM GAS  /tmp/ccEpvYTV.s 			page 85


 2873              		.loc 2 275 27 discriminator 4 view .LVU904
 2874              	.LBB237:
 277:CMSIS_5/CMSIS/Core/Include/cmsis_gcc.h **** }
 2875              		.loc 2 277 3 discriminator 4 view .LVU905
 2876              		.syntax unified
 2877              	@ 277 "CMSIS_5/CMSIS/Core/Include/cmsis_gcc.h" 1
 2878 007e BFF34F8F 		dsb 0xF
 2879              	@ 0 "" 2
 2880              		.thumb
 2881              		.syntax unified
 2882              	.LBE237:
 2883              	.LBE236:
1093:stm32f4xx-hal-driver/Src/stm32f4xx_hal_nor.c ****                   NOR_CMD_DATA_FIRST);
 2884              		.loc 1 1093 9 discriminator 4 view .LVU906
1095:stm32f4xx-hal-driver/Src/stm32f4xx_hal_nor.c ****                   NOR_CMD_DATA_SECOND);
 2885              		.loc 1 1095 9 discriminator 4 view .LVU907
1095:stm32f4xx-hal-driver/Src/stm32f4xx_hal_nor.c ****                   NOR_CMD_DATA_SECOND);
 2886              		.loc 1 1095 9 discriminator 4 view .LVU908
 2887 0082 3D48     		ldr	r0, .L295
 2888 0084 0068     		ldr	r0, [r0]
 2889 0086 0128     		cmp	r0, #1
 2890 0088 19D0     		beq	.L288
1095:stm32f4xx-hal-driver/Src/stm32f4xx_hal_nor.c ****                   NOR_CMD_DATA_SECOND);
 2891              		.loc 1 1095 9 is_stmt 0 discriminator 2 view .LVU909
 2892 008a 03F25550 		addw	r0, r3, #1365
 2893              	.L263:
1095:stm32f4xx-hal-driver/Src/stm32f4xx_hal_nor.c ****                   NOR_CMD_DATA_SECOND);
 2894              		.loc 1 1095 9 discriminator 4 view .LVU910
 2895 008e 5525     		movs	r5, #85
 2896 0090 0580     		strh	r5, [r0]	@ movhi
1095:stm32f4xx-hal-driver/Src/stm32f4xx_hal_nor.c ****                   NOR_CMD_DATA_SECOND);
 2897              		.loc 1 1095 9 is_stmt 1 discriminator 4 view .LVU911
 2898              	.LBB238:
 2899              	.LBI238:
 275:CMSIS_5/CMSIS/Core/Include/cmsis_gcc.h **** {
 2900              		.loc 2 275 27 discriminator 4 view .LVU912
 2901              	.LBB239:
 277:CMSIS_5/CMSIS/Core/Include/cmsis_gcc.h **** }
 2902              		.loc 2 277 3 discriminator 4 view .LVU913
 2903              		.syntax unified
 2904              	@ 277 "CMSIS_5/CMSIS/Core/Include/cmsis_gcc.h" 1
 2905 0092 BFF34F8F 		dsb 0xF
 2906              	@ 0 "" 2
 2907              		.thumb
 2908              		.syntax unified
 2909              	.LBE239:
 2910              	.LBE238:
1095:stm32f4xx-hal-driver/Src/stm32f4xx_hal_nor.c ****                   NOR_CMD_DATA_SECOND);
 2911              		.loc 1 1095 9 discriminator 4 view .LVU914
1097:stm32f4xx-hal-driver/Src/stm32f4xx_hal_nor.c ****                   NOR_CMD_DATA_CHIP_BLOCK_ERASE_THIRD);
 2912              		.loc 1 1097 9 discriminator 4 view .LVU915
1097:stm32f4xx-hal-driver/Src/stm32f4xx_hal_nor.c ****                   NOR_CMD_DATA_CHIP_BLOCK_ERASE_THIRD);
 2913              		.loc 1 1097 9 discriminator 4 view .LVU916
 2914 0096 3848     		ldr	r0, .L295
 2915 0098 0068     		ldr	r0, [r0]
 2916 009a 0128     		cmp	r0, #1
 2917 009c 12D0     		beq	.L289
ARM GAS  /tmp/ccEpvYTV.s 			page 86


1097:stm32f4xx-hal-driver/Src/stm32f4xx_hal_nor.c ****                   NOR_CMD_DATA_CHIP_BLOCK_ERASE_THIRD);
 2918              		.loc 1 1097 9 is_stmt 0 discriminator 2 view .LVU917
 2919 009e 03F6AA23 		addw	r3, r3, #2730
 2920              	.LVL182:
 2921              	.L265:
1097:stm32f4xx-hal-driver/Src/stm32f4xx_hal_nor.c ****                   NOR_CMD_DATA_CHIP_BLOCK_ERASE_THIRD);
 2922              		.loc 1 1097 9 discriminator 4 view .LVU918
 2923 00a2 8020     		movs	r0, #128
 2924 00a4 1880     		strh	r0, [r3]	@ movhi
1097:stm32f4xx-hal-driver/Src/stm32f4xx_hal_nor.c ****                   NOR_CMD_DATA_CHIP_BLOCK_ERASE_THIRD);
 2925              		.loc 1 1097 9 is_stmt 1 discriminator 4 view .LVU919
 2926              	.LBB240:
 2927              	.LBI240:
 275:CMSIS_5/CMSIS/Core/Include/cmsis_gcc.h **** {
 2928              		.loc 2 275 27 discriminator 4 view .LVU920
 2929              	.LBB241:
 277:CMSIS_5/CMSIS/Core/Include/cmsis_gcc.h **** }
 2930              		.loc 2 277 3 discriminator 4 view .LVU921
 2931              		.syntax unified
 2932              	@ 277 "CMSIS_5/CMSIS/Core/Include/cmsis_gcc.h" 1
 2933 00a6 BFF34F8F 		dsb 0xF
 2934              	@ 0 "" 2
 2935              		.thumb
 2936              		.syntax unified
 2937              	.L266:
 2938              	.LBE241:
 2939              	.LBE240:
1108:stm32f4xx-hal-driver/Src/stm32f4xx_hal_nor.c ****                   NOR_CMD_DATA_CHIP_BLOCK_ERASE_FIFTH);
 2940              		.loc 1 1108 9 discriminator 5 view .LVU922
1111:stm32f4xx-hal-driver/Src/stm32f4xx_hal_nor.c ****     }
 2941              		.loc 1 1111 7 discriminator 5 view .LVU923
1111:stm32f4xx-hal-driver/Src/stm32f4xx_hal_nor.c ****     }
 2942              		.loc 1 1111 7 discriminator 5 view .LVU924
 2943 00aa 3023     		movs	r3, #48
 2944 00ac 8B52     		strh	r3, [r1, r2]	@ movhi
1111:stm32f4xx-hal-driver/Src/stm32f4xx_hal_nor.c ****     }
 2945              		.loc 1 1111 7 discriminator 5 view .LVU925
 2946              	.LBB242:
 2947              	.LBI242:
 275:CMSIS_5/CMSIS/Core/Include/cmsis_gcc.h **** {
 2948              		.loc 2 275 27 discriminator 5 view .LVU926
 2949              	.LBB243:
 277:CMSIS_5/CMSIS/Core/Include/cmsis_gcc.h **** }
 2950              		.loc 2 277 3 discriminator 5 view .LVU927
 2951              		.syntax unified
 2952              	@ 277 "CMSIS_5/CMSIS/Core/Include/cmsis_gcc.h" 1
 2953 00ae BFF34F8F 		dsb 0xF
 2954              	@ 0 "" 2
 2955              		.thumb
 2956              		.syntax unified
 2957              	.LBE243:
 2958              	.LBE242:
1055:stm32f4xx-hal-driver/Src/stm32f4xx_hal_nor.c **** 
 2959              		.loc 1 1055 21 is_stmt 0 discriminator 5 view .LVU928
 2960 00b2 0020     		movs	r0, #0
 2961              	.LBB245:
 2962              	.LBB244:
ARM GAS  /tmp/ccEpvYTV.s 			page 87


 2963              		.loc 2 278 1 discriminator 5 view .LVU929
 2964 00b4 D0E7     		b	.L277
 2965              	.LVL183:
 2966              	.L287:
 2967              		.loc 2 278 1 discriminator 5 view .LVU930
 2968              	.LBE244:
 2969              	.LBE245:
1093:stm32f4xx-hal-driver/Src/stm32f4xx_hal_nor.c ****                   NOR_CMD_DATA_FIRST);
 2970              		.loc 1 1093 9 discriminator 1 view .LVU931
 2971 00b6 03F5AA50 		add	r0, r3, #5440
 2972 00ba 1430     		adds	r0, r0, #20
 2973 00bc DDE7     		b	.L261
 2974              	.L288:
1095:stm32f4xx-hal-driver/Src/stm32f4xx_hal_nor.c ****                   NOR_CMD_DATA_SECOND);
 2975              		.loc 1 1095 9 discriminator 1 view .LVU932
 2976 00be 03F6AA20 		addw	r0, r3, #2730
 2977 00c2 E4E7     		b	.L263
 2978              	.L289:
1097:stm32f4xx-hal-driver/Src/stm32f4xx_hal_nor.c ****                   NOR_CMD_DATA_CHIP_BLOCK_ERASE_THIRD);
 2979              		.loc 1 1097 9 discriminator 1 view .LVU933
 2980 00c4 03F5AA53 		add	r3, r3, #5440
 2981              	.LVL184:
1097:stm32f4xx-hal-driver/Src/stm32f4xx_hal_nor.c ****                   NOR_CMD_DATA_CHIP_BLOCK_ERASE_THIRD);
 2982              		.loc 1 1097 9 discriminator 1 view .LVU934
 2983 00c8 1433     		adds	r3, r3, #20
 2984              	.LVL185:
1097:stm32f4xx-hal-driver/Src/stm32f4xx_hal_nor.c ****                   NOR_CMD_DATA_CHIP_BLOCK_ERASE_THIRD);
 2985              		.loc 1 1097 9 discriminator 1 view .LVU935
 2986 00ca EAE7     		b	.L265
 2987              	.LVL186:
 2988              	.L259:
1102:stm32f4xx-hal-driver/Src/stm32f4xx_hal_nor.c ****         NOR_WRITE(NOR_ADDR_SHIFT(deviceaddress, uwNORMemoryDataWidth, NOR_CMD_ADDRESS_SECOND), NOR_
 2989              		.loc 1 1102 9 is_stmt 1 view .LVU936
1102:stm32f4xx-hal-driver/Src/stm32f4xx_hal_nor.c ****         NOR_WRITE(NOR_ADDR_SHIFT(deviceaddress, uwNORMemoryDataWidth, NOR_CMD_ADDRESS_SECOND), NOR_
 2990              		.loc 1 1102 9 view .LVU937
 2991 00cc 0128     		cmp	r0, #1
 2992 00ce 2ED0     		beq	.L290
1102:stm32f4xx-hal-driver/Src/stm32f4xx_hal_nor.c ****         NOR_WRITE(NOR_ADDR_SHIFT(deviceaddress, uwNORMemoryDataWidth, NOR_CMD_ADDRESS_SECOND), NOR_
 2993              		.loc 1 1102 9 is_stmt 0 discriminator 2 view .LVU938
 2994 00d0 03F25550 		addw	r0, r3, #1365
 2995              	.L268:
1102:stm32f4xx-hal-driver/Src/stm32f4xx_hal_nor.c ****         NOR_WRITE(NOR_ADDR_SHIFT(deviceaddress, uwNORMemoryDataWidth, NOR_CMD_ADDRESS_SECOND), NOR_
 2996              		.loc 1 1102 9 discriminator 4 view .LVU939
 2997 00d4 AA25     		movs	r5, #170
 2998 00d6 0580     		strh	r5, [r0]	@ movhi
1102:stm32f4xx-hal-driver/Src/stm32f4xx_hal_nor.c ****         NOR_WRITE(NOR_ADDR_SHIFT(deviceaddress, uwNORMemoryDataWidth, NOR_CMD_ADDRESS_SECOND), NOR_
 2999              		.loc 1 1102 9 is_stmt 1 discriminator 4 view .LVU940
 3000              	.LBB246:
 3001              	.LBI246:
 275:CMSIS_5/CMSIS/Core/Include/cmsis_gcc.h **** {
 3002              		.loc 2 275 27 discriminator 4 view .LVU941
 3003              	.LBB247:
 277:CMSIS_5/CMSIS/Core/Include/cmsis_gcc.h **** }
 3004              		.loc 2 277 3 discriminator 4 view .LVU942
 3005              		.syntax unified
 3006              	@ 277 "CMSIS_5/CMSIS/Core/Include/cmsis_gcc.h" 1
 3007 00d8 BFF34F8F 		dsb 0xF
ARM GAS  /tmp/ccEpvYTV.s 			page 88


 3008              	@ 0 "" 2
 3009              		.thumb
 3010              		.syntax unified
 3011              	.LBE247:
 3012              	.LBE246:
1102:stm32f4xx-hal-driver/Src/stm32f4xx_hal_nor.c ****         NOR_WRITE(NOR_ADDR_SHIFT(deviceaddress, uwNORMemoryDataWidth, NOR_CMD_ADDRESS_SECOND), NOR_
 3013              		.loc 1 1102 9 discriminator 4 view .LVU943
1103:stm32f4xx-hal-driver/Src/stm32f4xx_hal_nor.c ****         NOR_WRITE(NOR_ADDR_SHIFT(deviceaddress, uwNORMemoryDataWidth, NOR_CMD_ADDRESS_THIRD),
 3014              		.loc 1 1103 9 discriminator 4 view .LVU944
1103:stm32f4xx-hal-driver/Src/stm32f4xx_hal_nor.c ****         NOR_WRITE(NOR_ADDR_SHIFT(deviceaddress, uwNORMemoryDataWidth, NOR_CMD_ADDRESS_THIRD),
 3015              		.loc 1 1103 9 discriminator 4 view .LVU945
 3016 00dc 2648     		ldr	r0, .L295
 3017 00de 0068     		ldr	r0, [r0]
 3018 00e0 0128     		cmp	r0, #1
 3019 00e2 27D0     		beq	.L291
1103:stm32f4xx-hal-driver/Src/stm32f4xx_hal_nor.c ****         NOR_WRITE(NOR_ADDR_SHIFT(deviceaddress, uwNORMemoryDataWidth, NOR_CMD_ADDRESS_THIRD),
 3020              		.loc 1 1103 9 is_stmt 0 discriminator 2 view .LVU946
 3021 00e4 03F2AA20 		addw	r0, r3, #682
 3022              	.L270:
1103:stm32f4xx-hal-driver/Src/stm32f4xx_hal_nor.c ****         NOR_WRITE(NOR_ADDR_SHIFT(deviceaddress, uwNORMemoryDataWidth, NOR_CMD_ADDRESS_THIRD),
 3023              		.loc 1 1103 9 discriminator 4 view .LVU947
 3024 00e8 5525     		movs	r5, #85
 3025 00ea 0580     		strh	r5, [r0]	@ movhi
1103:stm32f4xx-hal-driver/Src/stm32f4xx_hal_nor.c ****         NOR_WRITE(NOR_ADDR_SHIFT(deviceaddress, uwNORMemoryDataWidth, NOR_CMD_ADDRESS_THIRD),
 3026              		.loc 1 1103 9 is_stmt 1 discriminator 4 view .LVU948
 3027              	.LBB248:
 3028              	.LBI248:
 275:CMSIS_5/CMSIS/Core/Include/cmsis_gcc.h **** {
 3029              		.loc 2 275 27 discriminator 4 view .LVU949
 3030              	.LBB249:
 277:CMSIS_5/CMSIS/Core/Include/cmsis_gcc.h **** }
 3031              		.loc 2 277 3 discriminator 4 view .LVU950
 3032              		.syntax unified
 3033              	@ 277 "CMSIS_5/CMSIS/Core/Include/cmsis_gcc.h" 1
 3034 00ec BFF34F8F 		dsb 0xF
 3035              	@ 0 "" 2
 3036              		.thumb
 3037              		.syntax unified
 3038              	.LBE249:
 3039              	.LBE248:
1103:stm32f4xx-hal-driver/Src/stm32f4xx_hal_nor.c ****         NOR_WRITE(NOR_ADDR_SHIFT(deviceaddress, uwNORMemoryDataWidth, NOR_CMD_ADDRESS_THIRD),
 3040              		.loc 1 1103 9 discriminator 4 view .LVU951
1104:stm32f4xx-hal-driver/Src/stm32f4xx_hal_nor.c ****                   NOR_CMD_DATA_CHIP_BLOCK_ERASE_THIRD);
 3041              		.loc 1 1104 9 discriminator 4 view .LVU952
1104:stm32f4xx-hal-driver/Src/stm32f4xx_hal_nor.c ****                   NOR_CMD_DATA_CHIP_BLOCK_ERASE_THIRD);
 3042              		.loc 1 1104 9 discriminator 4 view .LVU953
 3043 00f0 2148     		ldr	r0, .L295
 3044 00f2 0068     		ldr	r0, [r0]
 3045 00f4 0128     		cmp	r0, #1
 3046 00f6 20D0     		beq	.L292
1104:stm32f4xx-hal-driver/Src/stm32f4xx_hal_nor.c ****                   NOR_CMD_DATA_CHIP_BLOCK_ERASE_THIRD);
 3047              		.loc 1 1104 9 is_stmt 0 discriminator 2 view .LVU954
 3048 00f8 03F25550 		addw	r0, r3, #1365
 3049              	.L272:
1104:stm32f4xx-hal-driver/Src/stm32f4xx_hal_nor.c ****                   NOR_CMD_DATA_CHIP_BLOCK_ERASE_THIRD);
 3050              		.loc 1 1104 9 discriminator 4 view .LVU955
 3051 00fc 8025     		movs	r5, #128
ARM GAS  /tmp/ccEpvYTV.s 			page 89


 3052 00fe 0580     		strh	r5, [r0]	@ movhi
1104:stm32f4xx-hal-driver/Src/stm32f4xx_hal_nor.c ****                   NOR_CMD_DATA_CHIP_BLOCK_ERASE_THIRD);
 3053              		.loc 1 1104 9 is_stmt 1 discriminator 4 view .LVU956
 3054              	.LBB250:
 3055              	.LBI250:
 275:CMSIS_5/CMSIS/Core/Include/cmsis_gcc.h **** {
 3056              		.loc 2 275 27 discriminator 4 view .LVU957
 3057              	.LBB251:
 277:CMSIS_5/CMSIS/Core/Include/cmsis_gcc.h **** }
 3058              		.loc 2 277 3 discriminator 4 view .LVU958
 3059              		.syntax unified
 3060              	@ 277 "CMSIS_5/CMSIS/Core/Include/cmsis_gcc.h" 1
 3061 0100 BFF34F8F 		dsb 0xF
 3062              	@ 0 "" 2
 3063              		.thumb
 3064              		.syntax unified
 3065              	.LBE251:
 3066              	.LBE250:
1104:stm32f4xx-hal-driver/Src/stm32f4xx_hal_nor.c ****                   NOR_CMD_DATA_CHIP_BLOCK_ERASE_THIRD);
 3067              		.loc 1 1104 9 discriminator 4 view .LVU959
1106:stm32f4xx-hal-driver/Src/stm32f4xx_hal_nor.c ****                   NOR_CMD_DATA_CHIP_BLOCK_ERASE_FOURTH);
 3068              		.loc 1 1106 9 discriminator 4 view .LVU960
1106:stm32f4xx-hal-driver/Src/stm32f4xx_hal_nor.c ****                   NOR_CMD_DATA_CHIP_BLOCK_ERASE_FOURTH);
 3069              		.loc 1 1106 9 discriminator 4 view .LVU961
 3070 0104 1C48     		ldr	r0, .L295
 3071 0106 0068     		ldr	r0, [r0]
 3072 0108 0128     		cmp	r0, #1
 3073 010a 19D0     		beq	.L293
1106:stm32f4xx-hal-driver/Src/stm32f4xx_hal_nor.c ****                   NOR_CMD_DATA_CHIP_BLOCK_ERASE_FOURTH);
 3074              		.loc 1 1106 9 is_stmt 0 discriminator 2 view .LVU962
 3075 010c 03F25550 		addw	r0, r3, #1365
 3076              	.L274:
1106:stm32f4xx-hal-driver/Src/stm32f4xx_hal_nor.c ****                   NOR_CMD_DATA_CHIP_BLOCK_ERASE_FOURTH);
 3077              		.loc 1 1106 9 discriminator 4 view .LVU963
 3078 0110 AA25     		movs	r5, #170
 3079 0112 0580     		strh	r5, [r0]	@ movhi
1106:stm32f4xx-hal-driver/Src/stm32f4xx_hal_nor.c ****                   NOR_CMD_DATA_CHIP_BLOCK_ERASE_FOURTH);
 3080              		.loc 1 1106 9 is_stmt 1 discriminator 4 view .LVU964
 3081              	.LBB252:
 3082              	.LBI252:
 275:CMSIS_5/CMSIS/Core/Include/cmsis_gcc.h **** {
 3083              		.loc 2 275 27 discriminator 4 view .LVU965
 3084              	.LBB253:
 277:CMSIS_5/CMSIS/Core/Include/cmsis_gcc.h **** }
 3085              		.loc 2 277 3 discriminator 4 view .LVU966
 3086              		.syntax unified
 3087              	@ 277 "CMSIS_5/CMSIS/Core/Include/cmsis_gcc.h" 1
 3088 0114 BFF34F8F 		dsb 0xF
 3089              	@ 0 "" 2
 3090              		.thumb
 3091              		.syntax unified
 3092              	.LBE253:
 3093              	.LBE252:
1106:stm32f4xx-hal-driver/Src/stm32f4xx_hal_nor.c ****                   NOR_CMD_DATA_CHIP_BLOCK_ERASE_FOURTH);
 3094              		.loc 1 1106 9 discriminator 4 view .LVU967
1108:stm32f4xx-hal-driver/Src/stm32f4xx_hal_nor.c ****                   NOR_CMD_DATA_CHIP_BLOCK_ERASE_FIFTH);
 3095              		.loc 1 1108 9 discriminator 4 view .LVU968
ARM GAS  /tmp/ccEpvYTV.s 			page 90


1108:stm32f4xx-hal-driver/Src/stm32f4xx_hal_nor.c ****                   NOR_CMD_DATA_CHIP_BLOCK_ERASE_FIFTH);
 3096              		.loc 1 1108 9 discriminator 4 view .LVU969
 3097 0118 1748     		ldr	r0, .L295
 3098 011a 0068     		ldr	r0, [r0]
 3099 011c 0128     		cmp	r0, #1
 3100 011e 12D0     		beq	.L294
1108:stm32f4xx-hal-driver/Src/stm32f4xx_hal_nor.c ****                   NOR_CMD_DATA_CHIP_BLOCK_ERASE_FIFTH);
 3101              		.loc 1 1108 9 is_stmt 0 discriminator 2 view .LVU970
 3102 0120 03F2AA23 		addw	r3, r3, #682
 3103              	.LVL187:
 3104              	.L276:
1108:stm32f4xx-hal-driver/Src/stm32f4xx_hal_nor.c ****                   NOR_CMD_DATA_CHIP_BLOCK_ERASE_FIFTH);
 3105              		.loc 1 1108 9 discriminator 4 view .LVU971
 3106 0124 5520     		movs	r0, #85
 3107 0126 1880     		strh	r0, [r3]	@ movhi
1108:stm32f4xx-hal-driver/Src/stm32f4xx_hal_nor.c ****                   NOR_CMD_DATA_CHIP_BLOCK_ERASE_FIFTH);
 3108              		.loc 1 1108 9 is_stmt 1 discriminator 4 view .LVU972
 3109              	.LBB254:
 3110              	.LBI254:
 275:CMSIS_5/CMSIS/Core/Include/cmsis_gcc.h **** {
 3111              		.loc 2 275 27 discriminator 4 view .LVU973
 3112              	.LBB255:
 277:CMSIS_5/CMSIS/Core/Include/cmsis_gcc.h **** }
 3113              		.loc 2 277 3 discriminator 4 view .LVU974
 3114              		.syntax unified
 3115              	@ 277 "CMSIS_5/CMSIS/Core/Include/cmsis_gcc.h" 1
 3116 0128 BFF34F8F 		dsb 0xF
 3117              	@ 0 "" 2
 3118              		.loc 2 278 1 is_stmt 0 discriminator 4 view .LVU975
 3119              		.thumb
 3120              		.syntax unified
 3121 012c BDE7     		b	.L266
 3122              	.LVL188:
 3123              	.L290:
 3124              		.loc 2 278 1 discriminator 4 view .LVU976
 3125              	.LBE255:
 3126              	.LBE254:
1102:stm32f4xx-hal-driver/Src/stm32f4xx_hal_nor.c ****         NOR_WRITE(NOR_ADDR_SHIFT(deviceaddress, uwNORMemoryDataWidth, NOR_CMD_ADDRESS_SECOND), NOR_
 3127              		.loc 1 1102 9 discriminator 1 view .LVU977
 3128 012e 03F6AA20 		addw	r0, r3, #2730
 3129 0132 CFE7     		b	.L268
 3130              	.L291:
1103:stm32f4xx-hal-driver/Src/stm32f4xx_hal_nor.c ****         NOR_WRITE(NOR_ADDR_SHIFT(deviceaddress, uwNORMemoryDataWidth, NOR_CMD_ADDRESS_THIRD),
 3131              		.loc 1 1103 9 discriminator 1 view .LVU978
 3132 0134 03F25450 		addw	r0, r3, #1364
 3133 0138 D6E7     		b	.L270
 3134              	.L292:
1104:stm32f4xx-hal-driver/Src/stm32f4xx_hal_nor.c ****                   NOR_CMD_DATA_CHIP_BLOCK_ERASE_THIRD);
 3135              		.loc 1 1104 9 discriminator 1 view .LVU979
 3136 013a 03F6AA20 		addw	r0, r3, #2730
 3137 013e DDE7     		b	.L272
 3138              	.L293:
1106:stm32f4xx-hal-driver/Src/stm32f4xx_hal_nor.c ****                   NOR_CMD_DATA_CHIP_BLOCK_ERASE_FOURTH);
 3139              		.loc 1 1106 9 discriminator 1 view .LVU980
 3140 0140 03F6AA20 		addw	r0, r3, #2730
 3141 0144 E4E7     		b	.L274
 3142              	.L294:
ARM GAS  /tmp/ccEpvYTV.s 			page 91


1108:stm32f4xx-hal-driver/Src/stm32f4xx_hal_nor.c ****                   NOR_CMD_DATA_CHIP_BLOCK_ERASE_FIFTH);
 3143              		.loc 1 1108 9 discriminator 1 view .LVU981
 3144 0146 03F25453 		addw	r3, r3, #1364
 3145              	.LVL189:
1108:stm32f4xx-hal-driver/Src/stm32f4xx_hal_nor.c ****                   NOR_CMD_DATA_CHIP_BLOCK_ERASE_FIFTH);
 3146              		.loc 1 1108 9 discriminator 1 view .LVU982
 3147 014a EBE7     		b	.L276
 3148              	.LVL190:
 3149              	.L286:
1115:stm32f4xx-hal-driver/Src/stm32f4xx_hal_nor.c ****       NOR_WRITE((BlockAddress + Address), NOR_CMD_CONFIRM);
 3150              		.loc 1 1115 7 is_stmt 1 view .LVU983
1115:stm32f4xx-hal-driver/Src/stm32f4xx_hal_nor.c ****       NOR_WRITE((BlockAddress + Address), NOR_CMD_CONFIRM);
 3151              		.loc 1 1115 7 view .LVU984
 3152 014c 6023     		movs	r3, #96
 3153              	.LVL191:
1115:stm32f4xx-hal-driver/Src/stm32f4xx_hal_nor.c ****       NOR_WRITE((BlockAddress + Address), NOR_CMD_CONFIRM);
 3154              		.loc 1 1115 7 is_stmt 0 view .LVU985
 3155 014e 8B52     		strh	r3, [r1, r2]	@ movhi
1115:stm32f4xx-hal-driver/Src/stm32f4xx_hal_nor.c ****       NOR_WRITE((BlockAddress + Address), NOR_CMD_CONFIRM);
 3156              		.loc 1 1115 7 is_stmt 1 view .LVU986
 3157              	.LBB256:
 3158              	.LBI256:
 275:CMSIS_5/CMSIS/Core/Include/cmsis_gcc.h **** {
 3159              		.loc 2 275 27 view .LVU987
 3160              	.LBB257:
 277:CMSIS_5/CMSIS/Core/Include/cmsis_gcc.h **** }
 3161              		.loc 2 277 3 view .LVU988
 3162              		.syntax unified
 3163              	@ 277 "CMSIS_5/CMSIS/Core/Include/cmsis_gcc.h" 1
 3164 0150 BFF34F8F 		dsb 0xF
 3165              	@ 0 "" 2
 3166              		.thumb
 3167              		.syntax unified
 3168              	.LBE257:
 3169              	.LBE256:
1115:stm32f4xx-hal-driver/Src/stm32f4xx_hal_nor.c ****       NOR_WRITE((BlockAddress + Address), NOR_CMD_CONFIRM);
 3170              		.loc 1 1115 7 view .LVU989
1116:stm32f4xx-hal-driver/Src/stm32f4xx_hal_nor.c ****       NOR_WRITE((BlockAddress + Address), NOR_CMD_BLOCK_ERASE);
 3171              		.loc 1 1116 7 view .LVU990
1116:stm32f4xx-hal-driver/Src/stm32f4xx_hal_nor.c ****       NOR_WRITE((BlockAddress + Address), NOR_CMD_BLOCK_ERASE);
 3172              		.loc 1 1116 7 view .LVU991
 3173 0154 D023     		movs	r3, #208
 3174 0156 8B52     		strh	r3, [r1, r2]	@ movhi
1116:stm32f4xx-hal-driver/Src/stm32f4xx_hal_nor.c ****       NOR_WRITE((BlockAddress + Address), NOR_CMD_BLOCK_ERASE);
 3175              		.loc 1 1116 7 view .LVU992
 3176              	.LBB258:
 3177              	.LBI258:
 275:CMSIS_5/CMSIS/Core/Include/cmsis_gcc.h **** {
 3178              		.loc 2 275 27 view .LVU993
 3179              	.LBB259:
 277:CMSIS_5/CMSIS/Core/Include/cmsis_gcc.h **** }
 3180              		.loc 2 277 3 view .LVU994
 3181              		.syntax unified
 3182              	@ 277 "CMSIS_5/CMSIS/Core/Include/cmsis_gcc.h" 1
 3183 0158 BFF34F8F 		dsb 0xF
 3184              	@ 0 "" 2
 3185              		.thumb
ARM GAS  /tmp/ccEpvYTV.s 			page 92


 3186              		.syntax unified
 3187              	.LBE259:
 3188              	.LBE258:
1116:stm32f4xx-hal-driver/Src/stm32f4xx_hal_nor.c ****       NOR_WRITE((BlockAddress + Address), NOR_CMD_BLOCK_ERASE);
 3189              		.loc 1 1116 7 view .LVU995
1117:stm32f4xx-hal-driver/Src/stm32f4xx_hal_nor.c ****       NOR_WRITE((BlockAddress + Address), NOR_CMD_CONFIRM);
 3190              		.loc 1 1117 7 view .LVU996
1117:stm32f4xx-hal-driver/Src/stm32f4xx_hal_nor.c ****       NOR_WRITE((BlockAddress + Address), NOR_CMD_CONFIRM);
 3191              		.loc 1 1117 7 view .LVU997
 3192 015c 2020     		movs	r0, #32
 3193 015e 8852     		strh	r0, [r1, r2]	@ movhi
1117:stm32f4xx-hal-driver/Src/stm32f4xx_hal_nor.c ****       NOR_WRITE((BlockAddress + Address), NOR_CMD_CONFIRM);
 3194              		.loc 1 1117 7 view .LVU998
 3195              	.LBB260:
 3196              	.LBI260:
 275:CMSIS_5/CMSIS/Core/Include/cmsis_gcc.h **** {
 3197              		.loc 2 275 27 view .LVU999
 3198              	.LBB261:
 277:CMSIS_5/CMSIS/Core/Include/cmsis_gcc.h **** }
 3199              		.loc 2 277 3 view .LVU1000
 3200              		.syntax unified
 3201              	@ 277 "CMSIS_5/CMSIS/Core/Include/cmsis_gcc.h" 1
 3202 0160 BFF34F8F 		dsb 0xF
 3203              	@ 0 "" 2
 3204              		.thumb
 3205              		.syntax unified
 3206              	.LBE261:
 3207              	.LBE260:
1117:stm32f4xx-hal-driver/Src/stm32f4xx_hal_nor.c ****       NOR_WRITE((BlockAddress + Address), NOR_CMD_CONFIRM);
 3208              		.loc 1 1117 7 view .LVU1001
1118:stm32f4xx-hal-driver/Src/stm32f4xx_hal_nor.c ****     }
 3209              		.loc 1 1118 7 view .LVU1002
1118:stm32f4xx-hal-driver/Src/stm32f4xx_hal_nor.c ****     }
 3210              		.loc 1 1118 7 view .LVU1003
 3211 0164 8B52     		strh	r3, [r1, r2]	@ movhi
1118:stm32f4xx-hal-driver/Src/stm32f4xx_hal_nor.c ****     }
 3212              		.loc 1 1118 7 view .LVU1004
 3213              	.LBB262:
 3214              	.LBI262:
 275:CMSIS_5/CMSIS/Core/Include/cmsis_gcc.h **** {
 3215              		.loc 2 275 27 view .LVU1005
 3216              	.LBB263:
 277:CMSIS_5/CMSIS/Core/Include/cmsis_gcc.h **** }
 3217              		.loc 2 277 3 view .LVU1006
 3218              		.syntax unified
 3219              	@ 277 "CMSIS_5/CMSIS/Core/Include/cmsis_gcc.h" 1
 3220 0166 BFF34F8F 		dsb 0xF
 3221              	@ 0 "" 2
 3222              		.thumb
 3223              		.syntax unified
 3224              	.LBE263:
 3225              	.LBE262:
1055:stm32f4xx-hal-driver/Src/stm32f4xx_hal_nor.c **** 
 3226              		.loc 1 1055 21 is_stmt 0 view .LVU1007
 3227 016a 0020     		movs	r0, #0
 3228              	.LBB265:
 3229              	.LBB264:
ARM GAS  /tmp/ccEpvYTV.s 			page 93


 3230              		.loc 2 278 1 view .LVU1008
 3231 016c 74E7     		b	.L277
 3232              	.L278:
 3233              		.loc 2 278 1 view .LVU1009
 3234              	.LBE264:
 3235              	.LBE265:
1134:stm32f4xx-hal-driver/Src/stm32f4xx_hal_nor.c ****   }
 3236              		.loc 1 1134 12 view .LVU1010
 3237 016e 0120     		movs	r0, #1
 3238              	.LVL192:
 3239              	.L256:
1138:stm32f4xx-hal-driver/Src/stm32f4xx_hal_nor.c **** 
1139:stm32f4xx-hal-driver/Src/stm32f4xx_hal_nor.c **** }
 3240              		.loc 1 1139 1 view .LVU1011
 3241 0170 30BC     		pop	{r4, r5}
 3242              	.LCFI20:
 3243              		.cfi_remember_state
 3244              		.cfi_restore 5
 3245              		.cfi_restore 4
 3246              		.cfi_def_cfa_offset 0
 3247              	.LVL193:
 3248              		.loc 1 1139 1 view .LVU1012
 3249 0172 7047     		bx	lr
 3250              	.LVL194:
 3251              	.L279:
 3252              	.LCFI21:
 3253              		.cfi_restore_state
1065:stm32f4xx-hal-driver/Src/stm32f4xx_hal_nor.c **** 
 3254              		.loc 1 1065 5 view .LVU1013
 3255 0174 0220     		movs	r0, #2
 3256 0176 FBE7     		b	.L256
 3257              	.L296:
 3258              		.align	2
 3259              	.L295:
 3260 0178 00000000 		.word	.LANCHOR0
 3261              		.cfi_endproc
 3262              	.LFE250:
 3264              		.section	.text.HAL_NOR_Erase_Chip,"ax",%progbits
 3265              		.align	1
 3266              		.global	HAL_NOR_Erase_Chip
 3267              		.syntax unified
 3268              		.thumb
 3269              		.thumb_func
 3270              		.fpu fpv4-sp-d16
 3272              	HAL_NOR_Erase_Chip:
 3273              	.LVL195:
 3274              	.LFB251:
1140:stm32f4xx-hal-driver/Src/stm32f4xx_hal_nor.c **** 
1141:stm32f4xx-hal-driver/Src/stm32f4xx_hal_nor.c **** /**
1142:stm32f4xx-hal-driver/Src/stm32f4xx_hal_nor.c ****   * @brief  Erase the entire NOR chip.
1143:stm32f4xx-hal-driver/Src/stm32f4xx_hal_nor.c ****   * @param  hnor pointer to a NOR_HandleTypeDef structure that contains
1144:stm32f4xx-hal-driver/Src/stm32f4xx_hal_nor.c ****   *                the configuration information for NOR module.
1145:stm32f4xx-hal-driver/Src/stm32f4xx_hal_nor.c ****   * @param  Address  Device address
1146:stm32f4xx-hal-driver/Src/stm32f4xx_hal_nor.c ****   * @retval HAL status
1147:stm32f4xx-hal-driver/Src/stm32f4xx_hal_nor.c ****   */
1148:stm32f4xx-hal-driver/Src/stm32f4xx_hal_nor.c **** HAL_StatusTypeDef HAL_NOR_Erase_Chip(NOR_HandleTypeDef *hnor, uint32_t Address)
1149:stm32f4xx-hal-driver/Src/stm32f4xx_hal_nor.c **** {
ARM GAS  /tmp/ccEpvYTV.s 			page 94


 3275              		.loc 1 1149 1 is_stmt 1 view -0
 3276              		.cfi_startproc
 3277              		@ args = 0, pretend = 0, frame = 0
 3278              		@ frame_needed = 0, uses_anonymous_args = 0
 3279              		@ link register save eliminated.
 3280              		.loc 1 1149 1 is_stmt 0 view .LVU1015
 3281 0000 0246     		mov	r2, r0
1150:stm32f4xx-hal-driver/Src/stm32f4xx_hal_nor.c ****   uint32_t deviceaddress;
 3282              		.loc 1 1150 3 is_stmt 1 view .LVU1016
1151:stm32f4xx-hal-driver/Src/stm32f4xx_hal_nor.c ****   HAL_StatusTypeDef status = HAL_OK;
 3283              		.loc 1 1151 3 view .LVU1017
 3284              	.LVL196:
1152:stm32f4xx-hal-driver/Src/stm32f4xx_hal_nor.c ****   UNUSED(Address);
 3285              		.loc 1 1152 3 view .LVU1018
1153:stm32f4xx-hal-driver/Src/stm32f4xx_hal_nor.c **** 
1154:stm32f4xx-hal-driver/Src/stm32f4xx_hal_nor.c ****   /* Check the NOR controller state */
1155:stm32f4xx-hal-driver/Src/stm32f4xx_hal_nor.c ****   if (hnor->State == HAL_NOR_STATE_BUSY)
 3286              		.loc 1 1155 3 view .LVU1019
 3287              		.loc 1 1155 11 is_stmt 0 view .LVU1020
 3288 0002 90F84930 		ldrb	r3, [r0, #73]	@ zero_extendqisi2
 3289 0006 D8B2     		uxtb	r0, r3
 3290              	.LVL197:
 3291              		.loc 1 1155 6 view .LVU1021
 3292 0008 0228     		cmp	r0, #2
 3293 000a 00F0A980 		beq	.L298
1156:stm32f4xx-hal-driver/Src/stm32f4xx_hal_nor.c ****   {
1157:stm32f4xx-hal-driver/Src/stm32f4xx_hal_nor.c ****     return HAL_BUSY;
1158:stm32f4xx-hal-driver/Src/stm32f4xx_hal_nor.c ****   }
1159:stm32f4xx-hal-driver/Src/stm32f4xx_hal_nor.c ****   else if (hnor->State == HAL_NOR_STATE_READY)
 3294              		.loc 1 1159 8 is_stmt 1 view .LVU1022
 3295              		.loc 1 1159 16 is_stmt 0 view .LVU1023
 3296 000e 92F84930 		ldrb	r3, [r2, #73]	@ zero_extendqisi2
 3297 0012 D8B2     		uxtb	r0, r3
 3298              		.loc 1 1159 11 view .LVU1024
 3299 0014 0128     		cmp	r0, #1
 3300 0016 40F0A080 		bne	.L320
1160:stm32f4xx-hal-driver/Src/stm32f4xx_hal_nor.c ****   {
1161:stm32f4xx-hal-driver/Src/stm32f4xx_hal_nor.c ****     /* Process Locked */
1162:stm32f4xx-hal-driver/Src/stm32f4xx_hal_nor.c ****     __HAL_LOCK(hnor);
 3301              		.loc 1 1162 5 is_stmt 1 view .LVU1025
 3302              		.loc 1 1162 5 view .LVU1026
 3303 001a 92F84830 		ldrb	r3, [r2, #72]	@ zero_extendqisi2
 3304 001e 012B     		cmp	r3, #1
 3305 0020 00F09D80 		beq	.L321
 3306              		.loc 1 1162 5 discriminator 2 view .LVU1027
 3307 0024 0123     		movs	r3, #1
 3308 0026 82F84830 		strb	r3, [r2, #72]
 3309              		.loc 1 1162 5 discriminator 2 view .LVU1028
1163:stm32f4xx-hal-driver/Src/stm32f4xx_hal_nor.c **** 
1164:stm32f4xx-hal-driver/Src/stm32f4xx_hal_nor.c ****     /* Update the NOR controller state */
1165:stm32f4xx-hal-driver/Src/stm32f4xx_hal_nor.c ****     hnor->State = HAL_NOR_STATE_BUSY;
 3310              		.loc 1 1165 5 discriminator 2 view .LVU1029
 3311              		.loc 1 1165 17 is_stmt 0 discriminator 2 view .LVU1030
 3312 002a 0223     		movs	r3, #2
 3313 002c 82F84930 		strb	r3, [r2, #73]
1166:stm32f4xx-hal-driver/Src/stm32f4xx_hal_nor.c **** 
1167:stm32f4xx-hal-driver/Src/stm32f4xx_hal_nor.c ****     /* Select the NOR device address */
ARM GAS  /tmp/ccEpvYTV.s 			page 95


1168:stm32f4xx-hal-driver/Src/stm32f4xx_hal_nor.c ****     if (hnor->Init.NSBank == FMC_NORSRAM_BANK1)
 3314              		.loc 1 1168 5 is_stmt 1 discriminator 2 view .LVU1031
 3315              		.loc 1 1168 19 is_stmt 0 discriminator 2 view .LVU1032
 3316 0030 9368     		ldr	r3, [r2, #8]
 3317              		.loc 1 1168 8 discriminator 2 view .LVU1033
 3318 0032 4BB1     		cbz	r3, .L322
1169:stm32f4xx-hal-driver/Src/stm32f4xx_hal_nor.c ****     {
1170:stm32f4xx-hal-driver/Src/stm32f4xx_hal_nor.c ****       deviceaddress = NOR_MEMORY_ADRESS1;
1171:stm32f4xx-hal-driver/Src/stm32f4xx_hal_nor.c ****     }
1172:stm32f4xx-hal-driver/Src/stm32f4xx_hal_nor.c ****     else if (hnor->Init.NSBank == FMC_NORSRAM_BANK2)
 3319              		.loc 1 1172 10 is_stmt 1 view .LVU1034
 3320              		.loc 1 1172 13 is_stmt 0 view .LVU1035
 3321 0034 022B     		cmp	r3, #2
 3322 0036 13D0     		beq	.L323
1173:stm32f4xx-hal-driver/Src/stm32f4xx_hal_nor.c ****     {
1174:stm32f4xx-hal-driver/Src/stm32f4xx_hal_nor.c ****       deviceaddress = NOR_MEMORY_ADRESS2;
1175:stm32f4xx-hal-driver/Src/stm32f4xx_hal_nor.c ****     }
1176:stm32f4xx-hal-driver/Src/stm32f4xx_hal_nor.c ****     else if (hnor->Init.NSBank == FMC_NORSRAM_BANK3)
 3323              		.loc 1 1176 10 is_stmt 1 view .LVU1036
 3324              		.loc 1 1176 13 is_stmt 0 view .LVU1037
 3325 0038 042B     		cmp	r3, #4
 3326 003a 02D0     		beq	.L325
1177:stm32f4xx-hal-driver/Src/stm32f4xx_hal_nor.c ****     {
1178:stm32f4xx-hal-driver/Src/stm32f4xx_hal_nor.c ****       deviceaddress = NOR_MEMORY_ADRESS3;
1179:stm32f4xx-hal-driver/Src/stm32f4xx_hal_nor.c ****     }
1180:stm32f4xx-hal-driver/Src/stm32f4xx_hal_nor.c ****     else /* FMC_NORSRAM_BANK4 */
1181:stm32f4xx-hal-driver/Src/stm32f4xx_hal_nor.c ****     {
1182:stm32f4xx-hal-driver/Src/stm32f4xx_hal_nor.c ****       deviceaddress = NOR_MEMORY_ADRESS4;
 3327              		.loc 1 1182 21 view .LVU1038
 3328 003c 4FF0D843 		mov	r3, #1811939328
 3329 0040 04E0     		b	.L299
 3330              	.L325:
1178:stm32f4xx-hal-driver/Src/stm32f4xx_hal_nor.c ****     }
 3331              		.loc 1 1178 21 view .LVU1039
 3332 0042 4FF0D043 		mov	r3, #1744830464
 3333 0046 01E0     		b	.L299
 3334              	.L322:
1170:stm32f4xx-hal-driver/Src/stm32f4xx_hal_nor.c ****     }
 3335              		.loc 1 1170 21 view .LVU1040
 3336 0048 4FF0C043 		mov	r3, #1610612736
 3337              	.L299:
 3338              	.LVL198:
1183:stm32f4xx-hal-driver/Src/stm32f4xx_hal_nor.c ****     }
1184:stm32f4xx-hal-driver/Src/stm32f4xx_hal_nor.c **** 
1185:stm32f4xx-hal-driver/Src/stm32f4xx_hal_nor.c ****     /* Send NOR chip erase command sequence */
1186:stm32f4xx-hal-driver/Src/stm32f4xx_hal_nor.c ****     if (hnor->CommandSet == NOR_AMD_FUJITSU_COMMAND_SET)
 3339              		.loc 1 1186 5 is_stmt 1 view .LVU1041
 3340              		.loc 1 1186 13 is_stmt 0 view .LVU1042
 3341 004c D16C     		ldr	r1, [r2, #76]
 3342              	.LVL199:
 3343              		.loc 1 1186 8 view .LVU1043
 3344 004e 0229     		cmp	r1, #2
 3345 0050 09D0     		beq	.L326
 3346              	.LVL200:
 3347              	.L300:
1187:stm32f4xx-hal-driver/Src/stm32f4xx_hal_nor.c ****     {
1188:stm32f4xx-hal-driver/Src/stm32f4xx_hal_nor.c ****       if (uwNORMemoryDataWidth == NOR_MEMORY_8B)
ARM GAS  /tmp/ccEpvYTV.s 			page 96


1189:stm32f4xx-hal-driver/Src/stm32f4xx_hal_nor.c ****       {
1190:stm32f4xx-hal-driver/Src/stm32f4xx_hal_nor.c ****         NOR_WRITE(NOR_ADDR_SHIFT(deviceaddress, uwNORMemoryDataWidth, NOR_CMD_ADDRESS_FIRST_BYTE),
1191:stm32f4xx-hal-driver/Src/stm32f4xx_hal_nor.c ****                   NOR_CMD_DATA_FIRST);
1192:stm32f4xx-hal-driver/Src/stm32f4xx_hal_nor.c ****         NOR_WRITE(NOR_ADDR_SHIFT(deviceaddress, uwNORMemoryDataWidth, NOR_CMD_ADDRESS_SECOND_BYTE),
1193:stm32f4xx-hal-driver/Src/stm32f4xx_hal_nor.c ****                   NOR_CMD_DATA_SECOND);
1194:stm32f4xx-hal-driver/Src/stm32f4xx_hal_nor.c ****         NOR_WRITE(NOR_ADDR_SHIFT(deviceaddress, uwNORMemoryDataWidth, NOR_CMD_ADDRESS_THIRD_BYTE),
1195:stm32f4xx-hal-driver/Src/stm32f4xx_hal_nor.c ****                   NOR_CMD_DATA_CHIP_BLOCK_ERASE_THIRD);
1196:stm32f4xx-hal-driver/Src/stm32f4xx_hal_nor.c ****       }
1197:stm32f4xx-hal-driver/Src/stm32f4xx_hal_nor.c ****       else
1198:stm32f4xx-hal-driver/Src/stm32f4xx_hal_nor.c ****       {
1199:stm32f4xx-hal-driver/Src/stm32f4xx_hal_nor.c ****         NOR_WRITE(NOR_ADDR_SHIFT(deviceaddress, uwNORMemoryDataWidth, NOR_CMD_ADDRESS_FIRST), NOR_C
1200:stm32f4xx-hal-driver/Src/stm32f4xx_hal_nor.c ****         NOR_WRITE(NOR_ADDR_SHIFT(deviceaddress, uwNORMemoryDataWidth, NOR_CMD_ADDRESS_SECOND), NOR_
1201:stm32f4xx-hal-driver/Src/stm32f4xx_hal_nor.c ****         NOR_WRITE(NOR_ADDR_SHIFT(deviceaddress, uwNORMemoryDataWidth, NOR_CMD_ADDRESS_THIRD),
1202:stm32f4xx-hal-driver/Src/stm32f4xx_hal_nor.c ****                   NOR_CMD_DATA_CHIP_BLOCK_ERASE_THIRD);
1203:stm32f4xx-hal-driver/Src/stm32f4xx_hal_nor.c ****         NOR_WRITE(NOR_ADDR_SHIFT(deviceaddress, uwNORMemoryDataWidth, NOR_CMD_ADDRESS_FOURTH),
1204:stm32f4xx-hal-driver/Src/stm32f4xx_hal_nor.c ****                   NOR_CMD_DATA_CHIP_BLOCK_ERASE_FOURTH);
1205:stm32f4xx-hal-driver/Src/stm32f4xx_hal_nor.c ****         NOR_WRITE(NOR_ADDR_SHIFT(deviceaddress, uwNORMemoryDataWidth, NOR_CMD_ADDRESS_FIFTH),
1206:stm32f4xx-hal-driver/Src/stm32f4xx_hal_nor.c ****                   NOR_CMD_DATA_CHIP_BLOCK_ERASE_FIFTH);
1207:stm32f4xx-hal-driver/Src/stm32f4xx_hal_nor.c ****         NOR_WRITE(NOR_ADDR_SHIFT(deviceaddress, uwNORMemoryDataWidth, NOR_CMD_ADDRESS_SIXTH),
1208:stm32f4xx-hal-driver/Src/stm32f4xx_hal_nor.c ****                   NOR_CMD_DATA_CHIP_ERASE);
1209:stm32f4xx-hal-driver/Src/stm32f4xx_hal_nor.c ****       }
1210:stm32f4xx-hal-driver/Src/stm32f4xx_hal_nor.c ****     }
1211:stm32f4xx-hal-driver/Src/stm32f4xx_hal_nor.c ****     else
1212:stm32f4xx-hal-driver/Src/stm32f4xx_hal_nor.c ****     {
1213:stm32f4xx-hal-driver/Src/stm32f4xx_hal_nor.c ****       /* Primary command set not supported by the driver */
1214:stm32f4xx-hal-driver/Src/stm32f4xx_hal_nor.c ****       status = HAL_ERROR;
1215:stm32f4xx-hal-driver/Src/stm32f4xx_hal_nor.c ****     }
1216:stm32f4xx-hal-driver/Src/stm32f4xx_hal_nor.c **** 
1217:stm32f4xx-hal-driver/Src/stm32f4xx_hal_nor.c ****     /* Check the NOR memory status and update the controller state */
1218:stm32f4xx-hal-driver/Src/stm32f4xx_hal_nor.c ****     hnor->State = HAL_NOR_STATE_READY;
 3348              		.loc 1 1218 5 is_stmt 1 view .LVU1044
 3349              		.loc 1 1218 17 is_stmt 0 view .LVU1045
 3350 0052 0123     		movs	r3, #1
 3351 0054 82F84930 		strb	r3, [r2, #73]
1219:stm32f4xx-hal-driver/Src/stm32f4xx_hal_nor.c **** 
1220:stm32f4xx-hal-driver/Src/stm32f4xx_hal_nor.c ****     /* Process unlocked */
1221:stm32f4xx-hal-driver/Src/stm32f4xx_hal_nor.c ****     __HAL_UNLOCK(hnor);
 3352              		.loc 1 1221 5 is_stmt 1 view .LVU1046
 3353              		.loc 1 1221 5 view .LVU1047
 3354 0058 0023     		movs	r3, #0
 3355 005a 82F84830 		strb	r3, [r2, #72]
 3356              		.loc 1 1221 5 view .LVU1048
1222:stm32f4xx-hal-driver/Src/stm32f4xx_hal_nor.c ****   }
1223:stm32f4xx-hal-driver/Src/stm32f4xx_hal_nor.c ****   else
1224:stm32f4xx-hal-driver/Src/stm32f4xx_hal_nor.c ****   {
1225:stm32f4xx-hal-driver/Src/stm32f4xx_hal_nor.c ****     return HAL_ERROR;
1226:stm32f4xx-hal-driver/Src/stm32f4xx_hal_nor.c ****   }
1227:stm32f4xx-hal-driver/Src/stm32f4xx_hal_nor.c **** 
1228:stm32f4xx-hal-driver/Src/stm32f4xx_hal_nor.c ****   return status;
 3357              		.loc 1 1228 3 view .LVU1049
 3358              		.loc 1 1228 10 is_stmt 0 view .LVU1050
 3359 005e 7047     		bx	lr
 3360              	.LVL201:
 3361              	.L323:
1174:stm32f4xx-hal-driver/Src/stm32f4xx_hal_nor.c ****     }
 3362              		.loc 1 1174 21 view .LVU1051
 3363 0060 4FF0C843 		mov	r3, #1677721600
ARM GAS  /tmp/ccEpvYTV.s 			page 97


 3364 0064 F2E7     		b	.L299
 3365              	.LVL202:
 3366              	.L326:
1188:stm32f4xx-hal-driver/Src/stm32f4xx_hal_nor.c ****       {
 3367              		.loc 1 1188 7 is_stmt 1 view .LVU1052
1188:stm32f4xx-hal-driver/Src/stm32f4xx_hal_nor.c ****       {
 3368              		.loc 1 1188 32 is_stmt 0 view .LVU1053
 3369 0066 3F49     		ldr	r1, .L336
 3370 0068 0968     		ldr	r1, [r1]
1188:stm32f4xx-hal-driver/Src/stm32f4xx_hal_nor.c ****       {
 3371              		.loc 1 1188 10 view .LVU1054
 3372 006a 41BB     		cbnz	r1, .L301
1190:stm32f4xx-hal-driver/Src/stm32f4xx_hal_nor.c ****                   NOR_CMD_DATA_FIRST);
 3373              		.loc 1 1190 9 is_stmt 1 view .LVU1055
1190:stm32f4xx-hal-driver/Src/stm32f4xx_hal_nor.c ****                   NOR_CMD_DATA_FIRST);
 3374              		.loc 1 1190 9 view .LVU1056
 3375 006c 0129     		cmp	r1, #1
 3376 006e 1BD0     		beq	.L327
1190:stm32f4xx-hal-driver/Src/stm32f4xx_hal_nor.c ****                   NOR_CMD_DATA_FIRST);
 3377              		.loc 1 1190 9 is_stmt 0 discriminator 2 view .LVU1057
 3378 0070 03F6AA21 		addw	r1, r3, #2730
 3379              	.L303:
1190:stm32f4xx-hal-driver/Src/stm32f4xx_hal_nor.c ****                   NOR_CMD_DATA_FIRST);
 3380              		.loc 1 1190 9 discriminator 4 view .LVU1058
 3381 0074 AA20     		movs	r0, #170
 3382 0076 0880     		strh	r0, [r1]	@ movhi
1190:stm32f4xx-hal-driver/Src/stm32f4xx_hal_nor.c ****                   NOR_CMD_DATA_FIRST);
 3383              		.loc 1 1190 9 is_stmt 1 discriminator 4 view .LVU1059
 3384              	.LBB266:
 3385              	.LBI266:
 275:CMSIS_5/CMSIS/Core/Include/cmsis_gcc.h **** {
 3386              		.loc 2 275 27 discriminator 4 view .LVU1060
 3387              	.LBB267:
 277:CMSIS_5/CMSIS/Core/Include/cmsis_gcc.h **** }
 3388              		.loc 2 277 3 discriminator 4 view .LVU1061
 3389              		.syntax unified
 3390              	@ 277 "CMSIS_5/CMSIS/Core/Include/cmsis_gcc.h" 1
 3391 0078 BFF34F8F 		dsb 0xF
 3392              	@ 0 "" 2
 3393              		.thumb
 3394              		.syntax unified
 3395              	.LBE267:
 3396              	.LBE266:
1190:stm32f4xx-hal-driver/Src/stm32f4xx_hal_nor.c ****                   NOR_CMD_DATA_FIRST);
 3397              		.loc 1 1190 9 discriminator 4 view .LVU1062
1192:stm32f4xx-hal-driver/Src/stm32f4xx_hal_nor.c ****                   NOR_CMD_DATA_SECOND);
 3398              		.loc 1 1192 9 discriminator 4 view .LVU1063
1192:stm32f4xx-hal-driver/Src/stm32f4xx_hal_nor.c ****                   NOR_CMD_DATA_SECOND);
 3399              		.loc 1 1192 9 discriminator 4 view .LVU1064
 3400 007c 3949     		ldr	r1, .L336
 3401 007e 0968     		ldr	r1, [r1]
 3402 0080 0129     		cmp	r1, #1
 3403 0082 15D0     		beq	.L328
1192:stm32f4xx-hal-driver/Src/stm32f4xx_hal_nor.c ****                   NOR_CMD_DATA_SECOND);
 3404              		.loc 1 1192 9 is_stmt 0 discriminator 2 view .LVU1065
 3405 0084 03F25551 		addw	r1, r3, #1365
 3406              	.L305:
ARM GAS  /tmp/ccEpvYTV.s 			page 98


1192:stm32f4xx-hal-driver/Src/stm32f4xx_hal_nor.c ****                   NOR_CMD_DATA_SECOND);
 3407              		.loc 1 1192 9 discriminator 4 view .LVU1066
 3408 0088 5520     		movs	r0, #85
 3409 008a 0880     		strh	r0, [r1]	@ movhi
1192:stm32f4xx-hal-driver/Src/stm32f4xx_hal_nor.c ****                   NOR_CMD_DATA_SECOND);
 3410              		.loc 1 1192 9 is_stmt 1 discriminator 4 view .LVU1067
 3411              	.LBB268:
 3412              	.LBI268:
 275:CMSIS_5/CMSIS/Core/Include/cmsis_gcc.h **** {
 3413              		.loc 2 275 27 discriminator 4 view .LVU1068
 3414              	.LBB269:
 277:CMSIS_5/CMSIS/Core/Include/cmsis_gcc.h **** }
 3415              		.loc 2 277 3 discriminator 4 view .LVU1069
 3416              		.syntax unified
 3417              	@ 277 "CMSIS_5/CMSIS/Core/Include/cmsis_gcc.h" 1
 3418 008c BFF34F8F 		dsb 0xF
 3419              	@ 0 "" 2
 3420              		.thumb
 3421              		.syntax unified
 3422              	.LBE269:
 3423              	.LBE268:
1192:stm32f4xx-hal-driver/Src/stm32f4xx_hal_nor.c ****                   NOR_CMD_DATA_SECOND);
 3424              		.loc 1 1192 9 discriminator 4 view .LVU1070
1194:stm32f4xx-hal-driver/Src/stm32f4xx_hal_nor.c ****                   NOR_CMD_DATA_CHIP_BLOCK_ERASE_THIRD);
 3425              		.loc 1 1194 9 discriminator 4 view .LVU1071
1194:stm32f4xx-hal-driver/Src/stm32f4xx_hal_nor.c ****                   NOR_CMD_DATA_CHIP_BLOCK_ERASE_THIRD);
 3426              		.loc 1 1194 9 discriminator 4 view .LVU1072
 3427 0090 3449     		ldr	r1, .L336
 3428 0092 0968     		ldr	r1, [r1]
 3429 0094 0129     		cmp	r1, #1
 3430 0096 0ED0     		beq	.L329
1194:stm32f4xx-hal-driver/Src/stm32f4xx_hal_nor.c ****                   NOR_CMD_DATA_CHIP_BLOCK_ERASE_THIRD);
 3431              		.loc 1 1194 9 is_stmt 0 discriminator 2 view .LVU1073
 3432 0098 03F6AA23 		addw	r3, r3, #2730
 3433              	.LVL203:
 3434              	.L307:
1194:stm32f4xx-hal-driver/Src/stm32f4xx_hal_nor.c ****                   NOR_CMD_DATA_CHIP_BLOCK_ERASE_THIRD);
 3435              		.loc 1 1194 9 discriminator 4 view .LVU1074
 3436 009c 8021     		movs	r1, #128
 3437 009e 1980     		strh	r1, [r3]	@ movhi
1194:stm32f4xx-hal-driver/Src/stm32f4xx_hal_nor.c ****                   NOR_CMD_DATA_CHIP_BLOCK_ERASE_THIRD);
 3438              		.loc 1 1194 9 is_stmt 1 discriminator 4 view .LVU1075
 3439              	.LBB270:
 3440              	.LBI270:
 275:CMSIS_5/CMSIS/Core/Include/cmsis_gcc.h **** {
 3441              		.loc 2 275 27 discriminator 4 view .LVU1076
 3442              	.LBB271:
 277:CMSIS_5/CMSIS/Core/Include/cmsis_gcc.h **** }
 3443              		.loc 2 277 3 discriminator 4 view .LVU1077
 3444              		.syntax unified
 3445              	@ 277 "CMSIS_5/CMSIS/Core/Include/cmsis_gcc.h" 1
 3446 00a0 BFF34F8F 		dsb 0xF
 3447              	@ 0 "" 2
 3448              		.thumb
 3449              		.syntax unified
 3450              	.LBE271:
 3451              	.LBE270:
ARM GAS  /tmp/ccEpvYTV.s 			page 99


1151:stm32f4xx-hal-driver/Src/stm32f4xx_hal_nor.c ****   UNUSED(Address);
 3452              		.loc 1 1151 21 is_stmt 0 discriminator 4 view .LVU1078
 3453 00a4 0020     		movs	r0, #0
 3454              	.LBB273:
 3455              	.LBB272:
 3456              		.loc 2 278 1 discriminator 4 view .LVU1079
 3457 00a6 D4E7     		b	.L300
 3458              	.LVL204:
 3459              	.L327:
 3460              		.loc 2 278 1 discriminator 4 view .LVU1080
 3461              	.LBE272:
 3462              	.LBE273:
1190:stm32f4xx-hal-driver/Src/stm32f4xx_hal_nor.c ****                   NOR_CMD_DATA_FIRST);
 3463              		.loc 1 1190 9 discriminator 1 view .LVU1081
 3464 00a8 03F5AA51 		add	r1, r3, #5440
 3465 00ac 1431     		adds	r1, r1, #20
 3466 00ae E1E7     		b	.L303
 3467              	.L328:
1192:stm32f4xx-hal-driver/Src/stm32f4xx_hal_nor.c ****                   NOR_CMD_DATA_SECOND);
 3468              		.loc 1 1192 9 discriminator 1 view .LVU1082
 3469 00b0 03F6AA21 		addw	r1, r3, #2730
 3470 00b4 E8E7     		b	.L305
 3471              	.L329:
1194:stm32f4xx-hal-driver/Src/stm32f4xx_hal_nor.c ****                   NOR_CMD_DATA_CHIP_BLOCK_ERASE_THIRD);
 3472              		.loc 1 1194 9 discriminator 1 view .LVU1083
 3473 00b6 03F5AA53 		add	r3, r3, #5440
 3474              	.LVL205:
1194:stm32f4xx-hal-driver/Src/stm32f4xx_hal_nor.c ****                   NOR_CMD_DATA_CHIP_BLOCK_ERASE_THIRD);
 3475              		.loc 1 1194 9 discriminator 1 view .LVU1084
 3476 00ba 1433     		adds	r3, r3, #20
 3477              	.LVL206:
1194:stm32f4xx-hal-driver/Src/stm32f4xx_hal_nor.c ****                   NOR_CMD_DATA_CHIP_BLOCK_ERASE_THIRD);
 3478              		.loc 1 1194 9 discriminator 1 view .LVU1085
 3479 00bc EEE7     		b	.L307
 3480              	.LVL207:
 3481              	.L301:
1199:stm32f4xx-hal-driver/Src/stm32f4xx_hal_nor.c ****         NOR_WRITE(NOR_ADDR_SHIFT(deviceaddress, uwNORMemoryDataWidth, NOR_CMD_ADDRESS_SECOND), NOR_
 3482              		.loc 1 1199 9 is_stmt 1 view .LVU1086
1199:stm32f4xx-hal-driver/Src/stm32f4xx_hal_nor.c ****         NOR_WRITE(NOR_ADDR_SHIFT(deviceaddress, uwNORMemoryDataWidth, NOR_CMD_ADDRESS_SECOND), NOR_
 3483              		.loc 1 1199 9 view .LVU1087
 3484 00be 0129     		cmp	r1, #1
 3485 00c0 39D0     		beq	.L330
1199:stm32f4xx-hal-driver/Src/stm32f4xx_hal_nor.c ****         NOR_WRITE(NOR_ADDR_SHIFT(deviceaddress, uwNORMemoryDataWidth, NOR_CMD_ADDRESS_SECOND), NOR_
 3486              		.loc 1 1199 9 is_stmt 0 discriminator 2 view .LVU1088
 3487 00c2 03F25551 		addw	r1, r3, #1365
 3488              	.L309:
1199:stm32f4xx-hal-driver/Src/stm32f4xx_hal_nor.c ****         NOR_WRITE(NOR_ADDR_SHIFT(deviceaddress, uwNORMemoryDataWidth, NOR_CMD_ADDRESS_SECOND), NOR_
 3489              		.loc 1 1199 9 discriminator 4 view .LVU1089
 3490 00c6 AA20     		movs	r0, #170
 3491 00c8 0880     		strh	r0, [r1]	@ movhi
1199:stm32f4xx-hal-driver/Src/stm32f4xx_hal_nor.c ****         NOR_WRITE(NOR_ADDR_SHIFT(deviceaddress, uwNORMemoryDataWidth, NOR_CMD_ADDRESS_SECOND), NOR_
 3492              		.loc 1 1199 9 is_stmt 1 discriminator 4 view .LVU1090
 3493              	.LBB274:
 3494              	.LBI274:
 275:CMSIS_5/CMSIS/Core/Include/cmsis_gcc.h **** {
 3495              		.loc 2 275 27 discriminator 4 view .LVU1091
 3496              	.LBB275:
ARM GAS  /tmp/ccEpvYTV.s 			page 100


 277:CMSIS_5/CMSIS/Core/Include/cmsis_gcc.h **** }
 3497              		.loc 2 277 3 discriminator 4 view .LVU1092
 3498              		.syntax unified
 3499              	@ 277 "CMSIS_5/CMSIS/Core/Include/cmsis_gcc.h" 1
 3500 00ca BFF34F8F 		dsb 0xF
 3501              	@ 0 "" 2
 3502              		.thumb
 3503              		.syntax unified
 3504              	.LBE275:
 3505              	.LBE274:
1199:stm32f4xx-hal-driver/Src/stm32f4xx_hal_nor.c ****         NOR_WRITE(NOR_ADDR_SHIFT(deviceaddress, uwNORMemoryDataWidth, NOR_CMD_ADDRESS_SECOND), NOR_
 3506              		.loc 1 1199 9 discriminator 4 view .LVU1093
1200:stm32f4xx-hal-driver/Src/stm32f4xx_hal_nor.c ****         NOR_WRITE(NOR_ADDR_SHIFT(deviceaddress, uwNORMemoryDataWidth, NOR_CMD_ADDRESS_THIRD),
 3507              		.loc 1 1200 9 discriminator 4 view .LVU1094
1200:stm32f4xx-hal-driver/Src/stm32f4xx_hal_nor.c ****         NOR_WRITE(NOR_ADDR_SHIFT(deviceaddress, uwNORMemoryDataWidth, NOR_CMD_ADDRESS_THIRD),
 3508              		.loc 1 1200 9 discriminator 4 view .LVU1095
 3509 00ce 2549     		ldr	r1, .L336
 3510 00d0 0968     		ldr	r1, [r1]
 3511 00d2 0129     		cmp	r1, #1
 3512 00d4 32D0     		beq	.L331
1200:stm32f4xx-hal-driver/Src/stm32f4xx_hal_nor.c ****         NOR_WRITE(NOR_ADDR_SHIFT(deviceaddress, uwNORMemoryDataWidth, NOR_CMD_ADDRESS_THIRD),
 3513              		.loc 1 1200 9 is_stmt 0 discriminator 2 view .LVU1096
 3514 00d6 03F2AA21 		addw	r1, r3, #682
 3515              	.L311:
1200:stm32f4xx-hal-driver/Src/stm32f4xx_hal_nor.c ****         NOR_WRITE(NOR_ADDR_SHIFT(deviceaddress, uwNORMemoryDataWidth, NOR_CMD_ADDRESS_THIRD),
 3516              		.loc 1 1200 9 discriminator 4 view .LVU1097
 3517 00da 5520     		movs	r0, #85
 3518 00dc 0880     		strh	r0, [r1]	@ movhi
1200:stm32f4xx-hal-driver/Src/stm32f4xx_hal_nor.c ****         NOR_WRITE(NOR_ADDR_SHIFT(deviceaddress, uwNORMemoryDataWidth, NOR_CMD_ADDRESS_THIRD),
 3519              		.loc 1 1200 9 is_stmt 1 discriminator 4 view .LVU1098
 3520              	.LBB276:
 3521              	.LBI276:
 275:CMSIS_5/CMSIS/Core/Include/cmsis_gcc.h **** {
 3522              		.loc 2 275 27 discriminator 4 view .LVU1099
 3523              	.LBB277:
 277:CMSIS_5/CMSIS/Core/Include/cmsis_gcc.h **** }
 3524              		.loc 2 277 3 discriminator 4 view .LVU1100
 3525              		.syntax unified
 3526              	@ 277 "CMSIS_5/CMSIS/Core/Include/cmsis_gcc.h" 1
 3527 00de BFF34F8F 		dsb 0xF
 3528              	@ 0 "" 2
 3529              		.thumb
 3530              		.syntax unified
 3531              	.LBE277:
 3532              	.LBE276:
1200:stm32f4xx-hal-driver/Src/stm32f4xx_hal_nor.c ****         NOR_WRITE(NOR_ADDR_SHIFT(deviceaddress, uwNORMemoryDataWidth, NOR_CMD_ADDRESS_THIRD),
 3533              		.loc 1 1200 9 discriminator 4 view .LVU1101
1201:stm32f4xx-hal-driver/Src/stm32f4xx_hal_nor.c ****                   NOR_CMD_DATA_CHIP_BLOCK_ERASE_THIRD);
 3534              		.loc 1 1201 9 discriminator 4 view .LVU1102
1201:stm32f4xx-hal-driver/Src/stm32f4xx_hal_nor.c ****                   NOR_CMD_DATA_CHIP_BLOCK_ERASE_THIRD);
 3535              		.loc 1 1201 9 discriminator 4 view .LVU1103
 3536 00e2 2049     		ldr	r1, .L336
 3537 00e4 0968     		ldr	r1, [r1]
 3538 00e6 0129     		cmp	r1, #1
 3539 00e8 2BD0     		beq	.L332
1201:stm32f4xx-hal-driver/Src/stm32f4xx_hal_nor.c ****                   NOR_CMD_DATA_CHIP_BLOCK_ERASE_THIRD);
 3540              		.loc 1 1201 9 is_stmt 0 discriminator 2 view .LVU1104
ARM GAS  /tmp/ccEpvYTV.s 			page 101


 3541 00ea 03F25551 		addw	r1, r3, #1365
 3542              	.L313:
1201:stm32f4xx-hal-driver/Src/stm32f4xx_hal_nor.c ****                   NOR_CMD_DATA_CHIP_BLOCK_ERASE_THIRD);
 3543              		.loc 1 1201 9 discriminator 4 view .LVU1105
 3544 00ee 8020     		movs	r0, #128
 3545 00f0 0880     		strh	r0, [r1]	@ movhi
1201:stm32f4xx-hal-driver/Src/stm32f4xx_hal_nor.c ****                   NOR_CMD_DATA_CHIP_BLOCK_ERASE_THIRD);
 3546              		.loc 1 1201 9 is_stmt 1 discriminator 4 view .LVU1106
 3547              	.LBB278:
 3548              	.LBI278:
 275:CMSIS_5/CMSIS/Core/Include/cmsis_gcc.h **** {
 3549              		.loc 2 275 27 discriminator 4 view .LVU1107
 3550              	.LBB279:
 277:CMSIS_5/CMSIS/Core/Include/cmsis_gcc.h **** }
 3551              		.loc 2 277 3 discriminator 4 view .LVU1108
 3552              		.syntax unified
 3553              	@ 277 "CMSIS_5/CMSIS/Core/Include/cmsis_gcc.h" 1
 3554 00f2 BFF34F8F 		dsb 0xF
 3555              	@ 0 "" 2
 3556              		.thumb
 3557              		.syntax unified
 3558              	.LBE279:
 3559              	.LBE278:
1201:stm32f4xx-hal-driver/Src/stm32f4xx_hal_nor.c ****                   NOR_CMD_DATA_CHIP_BLOCK_ERASE_THIRD);
 3560              		.loc 1 1201 9 discriminator 4 view .LVU1109
1203:stm32f4xx-hal-driver/Src/stm32f4xx_hal_nor.c ****                   NOR_CMD_DATA_CHIP_BLOCK_ERASE_FOURTH);
 3561              		.loc 1 1203 9 discriminator 4 view .LVU1110
1203:stm32f4xx-hal-driver/Src/stm32f4xx_hal_nor.c ****                   NOR_CMD_DATA_CHIP_BLOCK_ERASE_FOURTH);
 3562              		.loc 1 1203 9 discriminator 4 view .LVU1111
 3563 00f6 1B49     		ldr	r1, .L336
 3564 00f8 0968     		ldr	r1, [r1]
 3565 00fa 0129     		cmp	r1, #1
 3566 00fc 24D0     		beq	.L333
1203:stm32f4xx-hal-driver/Src/stm32f4xx_hal_nor.c ****                   NOR_CMD_DATA_CHIP_BLOCK_ERASE_FOURTH);
 3567              		.loc 1 1203 9 is_stmt 0 discriminator 2 view .LVU1112
 3568 00fe 03F25551 		addw	r1, r3, #1365
 3569              	.L315:
1203:stm32f4xx-hal-driver/Src/stm32f4xx_hal_nor.c ****                   NOR_CMD_DATA_CHIP_BLOCK_ERASE_FOURTH);
 3570              		.loc 1 1203 9 discriminator 4 view .LVU1113
 3571 0102 AA20     		movs	r0, #170
 3572 0104 0880     		strh	r0, [r1]	@ movhi
1203:stm32f4xx-hal-driver/Src/stm32f4xx_hal_nor.c ****                   NOR_CMD_DATA_CHIP_BLOCK_ERASE_FOURTH);
 3573              		.loc 1 1203 9 is_stmt 1 discriminator 4 view .LVU1114
 3574              	.LBB280:
 3575              	.LBI280:
 275:CMSIS_5/CMSIS/Core/Include/cmsis_gcc.h **** {
 3576              		.loc 2 275 27 discriminator 4 view .LVU1115
 3577              	.LBB281:
 277:CMSIS_5/CMSIS/Core/Include/cmsis_gcc.h **** }
 3578              		.loc 2 277 3 discriminator 4 view .LVU1116
 3579              		.syntax unified
 3580              	@ 277 "CMSIS_5/CMSIS/Core/Include/cmsis_gcc.h" 1
 3581 0106 BFF34F8F 		dsb 0xF
 3582              	@ 0 "" 2
 3583              		.thumb
 3584              		.syntax unified
 3585              	.LBE281:
ARM GAS  /tmp/ccEpvYTV.s 			page 102


 3586              	.LBE280:
1203:stm32f4xx-hal-driver/Src/stm32f4xx_hal_nor.c ****                   NOR_CMD_DATA_CHIP_BLOCK_ERASE_FOURTH);
 3587              		.loc 1 1203 9 discriminator 4 view .LVU1117
1205:stm32f4xx-hal-driver/Src/stm32f4xx_hal_nor.c ****                   NOR_CMD_DATA_CHIP_BLOCK_ERASE_FIFTH);
 3588              		.loc 1 1205 9 discriminator 4 view .LVU1118
1205:stm32f4xx-hal-driver/Src/stm32f4xx_hal_nor.c ****                   NOR_CMD_DATA_CHIP_BLOCK_ERASE_FIFTH);
 3589              		.loc 1 1205 9 discriminator 4 view .LVU1119
 3590 010a 1649     		ldr	r1, .L336
 3591 010c 0968     		ldr	r1, [r1]
 3592 010e 0129     		cmp	r1, #1
 3593 0110 1DD0     		beq	.L334
1205:stm32f4xx-hal-driver/Src/stm32f4xx_hal_nor.c ****                   NOR_CMD_DATA_CHIP_BLOCK_ERASE_FIFTH);
 3594              		.loc 1 1205 9 is_stmt 0 discriminator 2 view .LVU1120
 3595 0112 03F2AA21 		addw	r1, r3, #682
 3596              	.L317:
1205:stm32f4xx-hal-driver/Src/stm32f4xx_hal_nor.c ****                   NOR_CMD_DATA_CHIP_BLOCK_ERASE_FIFTH);
 3597              		.loc 1 1205 9 discriminator 4 view .LVU1121
 3598 0116 5520     		movs	r0, #85
 3599 0118 0880     		strh	r0, [r1]	@ movhi
1205:stm32f4xx-hal-driver/Src/stm32f4xx_hal_nor.c ****                   NOR_CMD_DATA_CHIP_BLOCK_ERASE_FIFTH);
 3600              		.loc 1 1205 9 is_stmt 1 discriminator 4 view .LVU1122
 3601              	.LBB282:
 3602              	.LBI282:
 275:CMSIS_5/CMSIS/Core/Include/cmsis_gcc.h **** {
 3603              		.loc 2 275 27 discriminator 4 view .LVU1123
 3604              	.LBB283:
 277:CMSIS_5/CMSIS/Core/Include/cmsis_gcc.h **** }
 3605              		.loc 2 277 3 discriminator 4 view .LVU1124
 3606              		.syntax unified
 3607              	@ 277 "CMSIS_5/CMSIS/Core/Include/cmsis_gcc.h" 1
 3608 011a BFF34F8F 		dsb 0xF
 3609              	@ 0 "" 2
 3610              		.thumb
 3611              		.syntax unified
 3612              	.LBE283:
 3613              	.LBE282:
1205:stm32f4xx-hal-driver/Src/stm32f4xx_hal_nor.c ****                   NOR_CMD_DATA_CHIP_BLOCK_ERASE_FIFTH);
 3614              		.loc 1 1205 9 discriminator 4 view .LVU1125
1207:stm32f4xx-hal-driver/Src/stm32f4xx_hal_nor.c ****                   NOR_CMD_DATA_CHIP_ERASE);
 3615              		.loc 1 1207 9 discriminator 4 view .LVU1126
1207:stm32f4xx-hal-driver/Src/stm32f4xx_hal_nor.c ****                   NOR_CMD_DATA_CHIP_ERASE);
 3616              		.loc 1 1207 9 discriminator 4 view .LVU1127
 3617 011e 1149     		ldr	r1, .L336
 3618 0120 0968     		ldr	r1, [r1]
 3619 0122 0129     		cmp	r1, #1
 3620 0124 16D0     		beq	.L335
1207:stm32f4xx-hal-driver/Src/stm32f4xx_hal_nor.c ****                   NOR_CMD_DATA_CHIP_ERASE);
 3621              		.loc 1 1207 9 is_stmt 0 discriminator 2 view .LVU1128
 3622 0126 03F25553 		addw	r3, r3, #1365
 3623              	.LVL208:
 3624              	.L319:
1207:stm32f4xx-hal-driver/Src/stm32f4xx_hal_nor.c ****                   NOR_CMD_DATA_CHIP_ERASE);
 3625              		.loc 1 1207 9 discriminator 4 view .LVU1129
 3626 012a 1021     		movs	r1, #16
 3627 012c 1980     		strh	r1, [r3]	@ movhi
1207:stm32f4xx-hal-driver/Src/stm32f4xx_hal_nor.c ****                   NOR_CMD_DATA_CHIP_ERASE);
 3628              		.loc 1 1207 9 is_stmt 1 discriminator 4 view .LVU1130
ARM GAS  /tmp/ccEpvYTV.s 			page 103


 3629              	.LBB284:
 3630              	.LBI284:
 275:CMSIS_5/CMSIS/Core/Include/cmsis_gcc.h **** {
 3631              		.loc 2 275 27 discriminator 4 view .LVU1131
 3632              	.LBB285:
 277:CMSIS_5/CMSIS/Core/Include/cmsis_gcc.h **** }
 3633              		.loc 2 277 3 discriminator 4 view .LVU1132
 3634              		.syntax unified
 3635              	@ 277 "CMSIS_5/CMSIS/Core/Include/cmsis_gcc.h" 1
 3636 012e BFF34F8F 		dsb 0xF
 3637              	@ 0 "" 2
 3638              		.thumb
 3639              		.syntax unified
 3640              	.LBE285:
 3641              	.LBE284:
1151:stm32f4xx-hal-driver/Src/stm32f4xx_hal_nor.c ****   UNUSED(Address);
 3642              		.loc 1 1151 21 is_stmt 0 discriminator 4 view .LVU1133
 3643 0132 0020     		movs	r0, #0
 3644              	.LBB287:
 3645              	.LBB286:
 3646              		.loc 2 278 1 discriminator 4 view .LVU1134
 3647 0134 8DE7     		b	.L300
 3648              	.LVL209:
 3649              	.L330:
 3650              		.loc 2 278 1 discriminator 4 view .LVU1135
 3651              	.LBE286:
 3652              	.LBE287:
1199:stm32f4xx-hal-driver/Src/stm32f4xx_hal_nor.c ****         NOR_WRITE(NOR_ADDR_SHIFT(deviceaddress, uwNORMemoryDataWidth, NOR_CMD_ADDRESS_SECOND), NOR_
 3653              		.loc 1 1199 9 discriminator 1 view .LVU1136
 3654 0136 03F6AA21 		addw	r1, r3, #2730
 3655 013a C4E7     		b	.L309
 3656              	.L331:
1200:stm32f4xx-hal-driver/Src/stm32f4xx_hal_nor.c ****         NOR_WRITE(NOR_ADDR_SHIFT(deviceaddress, uwNORMemoryDataWidth, NOR_CMD_ADDRESS_THIRD),
 3657              		.loc 1 1200 9 discriminator 1 view .LVU1137
 3658 013c 03F25451 		addw	r1, r3, #1364
 3659 0140 CBE7     		b	.L311
 3660              	.L332:
1201:stm32f4xx-hal-driver/Src/stm32f4xx_hal_nor.c ****                   NOR_CMD_DATA_CHIP_BLOCK_ERASE_THIRD);
 3661              		.loc 1 1201 9 discriminator 1 view .LVU1138
 3662 0142 03F6AA21 		addw	r1, r3, #2730
 3663 0146 D2E7     		b	.L313
 3664              	.L333:
1203:stm32f4xx-hal-driver/Src/stm32f4xx_hal_nor.c ****                   NOR_CMD_DATA_CHIP_BLOCK_ERASE_FOURTH);
 3665              		.loc 1 1203 9 discriminator 1 view .LVU1139
 3666 0148 03F6AA21 		addw	r1, r3, #2730
 3667 014c D9E7     		b	.L315
 3668              	.L334:
1205:stm32f4xx-hal-driver/Src/stm32f4xx_hal_nor.c ****                   NOR_CMD_DATA_CHIP_BLOCK_ERASE_FIFTH);
 3669              		.loc 1 1205 9 discriminator 1 view .LVU1140
 3670 014e 03F25451 		addw	r1, r3, #1364
 3671 0152 E0E7     		b	.L317
 3672              	.L335:
1207:stm32f4xx-hal-driver/Src/stm32f4xx_hal_nor.c ****                   NOR_CMD_DATA_CHIP_ERASE);
 3673              		.loc 1 1207 9 discriminator 1 view .LVU1141
 3674 0154 03F6AA23 		addw	r3, r3, #2730
 3675              	.LVL210:
1207:stm32f4xx-hal-driver/Src/stm32f4xx_hal_nor.c ****                   NOR_CMD_DATA_CHIP_ERASE);
ARM GAS  /tmp/ccEpvYTV.s 			page 104


 3676              		.loc 1 1207 9 discriminator 1 view .LVU1142
 3677 0158 E7E7     		b	.L319
 3678              	.LVL211:
 3679              	.L320:
1225:stm32f4xx-hal-driver/Src/stm32f4xx_hal_nor.c ****   }
 3680              		.loc 1 1225 12 view .LVU1143
 3681 015a 0120     		movs	r0, #1
 3682 015c 7047     		bx	lr
 3683              	.L321:
1162:stm32f4xx-hal-driver/Src/stm32f4xx_hal_nor.c **** 
 3684              		.loc 1 1162 5 view .LVU1144
 3685 015e 0220     		movs	r0, #2
 3686              	.L298:
1229:stm32f4xx-hal-driver/Src/stm32f4xx_hal_nor.c **** }
 3687              		.loc 1 1229 1 view .LVU1145
 3688 0160 7047     		bx	lr
 3689              	.L337:
 3690 0162 00BF     		.align	2
 3691              	.L336:
 3692 0164 00000000 		.word	.LANCHOR0
 3693              		.cfi_endproc
 3694              	.LFE251:
 3696              		.section	.text.HAL_NOR_Read_CFI,"ax",%progbits
 3697              		.align	1
 3698              		.global	HAL_NOR_Read_CFI
 3699              		.syntax unified
 3700              		.thumb
 3701              		.thumb_func
 3702              		.fpu fpv4-sp-d16
 3704              	HAL_NOR_Read_CFI:
 3705              	.LVL212:
 3706              	.LFB252:
1230:stm32f4xx-hal-driver/Src/stm32f4xx_hal_nor.c **** 
1231:stm32f4xx-hal-driver/Src/stm32f4xx_hal_nor.c **** /**
1232:stm32f4xx-hal-driver/Src/stm32f4xx_hal_nor.c ****   * @brief  Read NOR flash CFI IDs
1233:stm32f4xx-hal-driver/Src/stm32f4xx_hal_nor.c ****   * @param  hnor pointer to a NOR_HandleTypeDef structure that contains
1234:stm32f4xx-hal-driver/Src/stm32f4xx_hal_nor.c ****   *                the configuration information for NOR module.
1235:stm32f4xx-hal-driver/Src/stm32f4xx_hal_nor.c ****   * @param  pNOR_CFI  pointer to NOR CFI IDs structure
1236:stm32f4xx-hal-driver/Src/stm32f4xx_hal_nor.c ****   * @retval HAL status
1237:stm32f4xx-hal-driver/Src/stm32f4xx_hal_nor.c ****   */
1238:stm32f4xx-hal-driver/Src/stm32f4xx_hal_nor.c **** HAL_StatusTypeDef HAL_NOR_Read_CFI(NOR_HandleTypeDef *hnor, NOR_CFITypeDef *pNOR_CFI)
1239:stm32f4xx-hal-driver/Src/stm32f4xx_hal_nor.c **** {
 3707              		.loc 1 1239 1 is_stmt 1 view -0
 3708              		.cfi_startproc
 3709              		@ args = 0, pretend = 0, frame = 0
 3710              		@ frame_needed = 0, uses_anonymous_args = 0
 3711              		@ link register save eliminated.
 3712              		.loc 1 1239 1 is_stmt 0 view .LVU1147
 3713 0000 30B4     		push	{r4, r5}
 3714              	.LCFI22:
 3715              		.cfi_def_cfa_offset 8
 3716              		.cfi_offset 4, -8
 3717              		.cfi_offset 5, -4
 3718 0002 0446     		mov	r4, r0
1240:stm32f4xx-hal-driver/Src/stm32f4xx_hal_nor.c ****   uint32_t deviceaddress;
 3719              		.loc 1 1240 3 is_stmt 1 view .LVU1148
1241:stm32f4xx-hal-driver/Src/stm32f4xx_hal_nor.c ****   HAL_NOR_StateTypeDef state;
ARM GAS  /tmp/ccEpvYTV.s 			page 105


 3720              		.loc 1 1241 3 view .LVU1149
1242:stm32f4xx-hal-driver/Src/stm32f4xx_hal_nor.c **** 
1243:stm32f4xx-hal-driver/Src/stm32f4xx_hal_nor.c ****   /* Check the NOR controller state */
1244:stm32f4xx-hal-driver/Src/stm32f4xx_hal_nor.c ****   state = hnor->State;
 3721              		.loc 1 1244 3 view .LVU1150
 3722              		.loc 1 1244 9 is_stmt 0 view .LVU1151
 3723 0004 90F84930 		ldrb	r3, [r0, #73]	@ zero_extendqisi2
 3724 0008 D8B2     		uxtb	r0, r3
 3725              	.LVL213:
1245:stm32f4xx-hal-driver/Src/stm32f4xx_hal_nor.c ****   if (state == HAL_NOR_STATE_BUSY)
 3726              		.loc 1 1245 3 is_stmt 1 view .LVU1152
 3727              		.loc 1 1245 6 is_stmt 0 view .LVU1153
 3728 000a 0228     		cmp	r0, #2
 3729 000c 66D0     		beq	.L339
1246:stm32f4xx-hal-driver/Src/stm32f4xx_hal_nor.c ****   {
1247:stm32f4xx-hal-driver/Src/stm32f4xx_hal_nor.c ****     return HAL_BUSY;
1248:stm32f4xx-hal-driver/Src/stm32f4xx_hal_nor.c ****   }
1249:stm32f4xx-hal-driver/Src/stm32f4xx_hal_nor.c ****   else if (state == HAL_NOR_STATE_PROTECTED)
 3730              		.loc 1 1249 8 is_stmt 1 view .LVU1154
 3731              		.loc 1 1249 11 is_stmt 0 view .LVU1155
 3732 000e 0428     		cmp	r0, #4
 3733 0010 61D0     		beq	.L355
1250:stm32f4xx-hal-driver/Src/stm32f4xx_hal_nor.c ****   {
1251:stm32f4xx-hal-driver/Src/stm32f4xx_hal_nor.c ****     return HAL_ERROR;
1252:stm32f4xx-hal-driver/Src/stm32f4xx_hal_nor.c ****   }
1253:stm32f4xx-hal-driver/Src/stm32f4xx_hal_nor.c ****   else if (state == HAL_NOR_STATE_READY)
 3734              		.loc 1 1253 8 is_stmt 1 view .LVU1156
 3735              		.loc 1 1253 11 is_stmt 0 view .LVU1157
 3736 0012 0128     		cmp	r0, #1
 3737 0014 61D1     		bne	.L356
1254:stm32f4xx-hal-driver/Src/stm32f4xx_hal_nor.c ****   {
1255:stm32f4xx-hal-driver/Src/stm32f4xx_hal_nor.c ****     /* Process Locked */
1256:stm32f4xx-hal-driver/Src/stm32f4xx_hal_nor.c ****     __HAL_LOCK(hnor);
 3738              		.loc 1 1256 5 is_stmt 1 view .LVU1158
 3739              		.loc 1 1256 5 view .LVU1159
 3740 0016 94F84830 		ldrb	r3, [r4, #72]	@ zero_extendqisi2
 3741 001a 012B     		cmp	r3, #1
 3742 001c 60D0     		beq	.L357
 3743              		.loc 1 1256 5 discriminator 2 view .LVU1160
 3744 001e 0123     		movs	r3, #1
 3745 0020 84F84830 		strb	r3, [r4, #72]
 3746              		.loc 1 1256 5 discriminator 2 view .LVU1161
1257:stm32f4xx-hal-driver/Src/stm32f4xx_hal_nor.c **** 
1258:stm32f4xx-hal-driver/Src/stm32f4xx_hal_nor.c ****     /* Update the NOR controller state */
1259:stm32f4xx-hal-driver/Src/stm32f4xx_hal_nor.c ****     hnor->State = HAL_NOR_STATE_BUSY;
 3747              		.loc 1 1259 5 discriminator 2 view .LVU1162
 3748              		.loc 1 1259 17 is_stmt 0 discriminator 2 view .LVU1163
 3749 0024 0223     		movs	r3, #2
 3750 0026 84F84930 		strb	r3, [r4, #73]
1260:stm32f4xx-hal-driver/Src/stm32f4xx_hal_nor.c **** 
1261:stm32f4xx-hal-driver/Src/stm32f4xx_hal_nor.c ****     /* Select the NOR device address */
1262:stm32f4xx-hal-driver/Src/stm32f4xx_hal_nor.c ****     if (hnor->Init.NSBank == FMC_NORSRAM_BANK1)
 3751              		.loc 1 1262 5 is_stmt 1 discriminator 2 view .LVU1164
 3752              		.loc 1 1262 19 is_stmt 0 discriminator 2 view .LVU1165
 3753 002a A368     		ldr	r3, [r4, #8]
 3754              		.loc 1 1262 8 discriminator 2 view .LVU1166
 3755 002c 4BB1     		cbz	r3, .L358
ARM GAS  /tmp/ccEpvYTV.s 			page 106


1263:stm32f4xx-hal-driver/Src/stm32f4xx_hal_nor.c ****     {
1264:stm32f4xx-hal-driver/Src/stm32f4xx_hal_nor.c ****       deviceaddress = NOR_MEMORY_ADRESS1;
1265:stm32f4xx-hal-driver/Src/stm32f4xx_hal_nor.c ****     }
1266:stm32f4xx-hal-driver/Src/stm32f4xx_hal_nor.c ****     else if (hnor->Init.NSBank == FMC_NORSRAM_BANK2)
 3756              		.loc 1 1266 10 is_stmt 1 view .LVU1167
 3757              		.loc 1 1266 13 is_stmt 0 view .LVU1168
 3758 002e 022B     		cmp	r3, #2
 3759 0030 34D0     		beq	.L359
1267:stm32f4xx-hal-driver/Src/stm32f4xx_hal_nor.c ****     {
1268:stm32f4xx-hal-driver/Src/stm32f4xx_hal_nor.c ****       deviceaddress = NOR_MEMORY_ADRESS2;
1269:stm32f4xx-hal-driver/Src/stm32f4xx_hal_nor.c ****     }
1270:stm32f4xx-hal-driver/Src/stm32f4xx_hal_nor.c ****     else if (hnor->Init.NSBank == FMC_NORSRAM_BANK3)
 3760              		.loc 1 1270 10 is_stmt 1 view .LVU1169
 3761              		.loc 1 1270 13 is_stmt 0 view .LVU1170
 3762 0032 042B     		cmp	r3, #4
 3763 0034 02D0     		beq	.L362
1271:stm32f4xx-hal-driver/Src/stm32f4xx_hal_nor.c ****     {
1272:stm32f4xx-hal-driver/Src/stm32f4xx_hal_nor.c ****       deviceaddress = NOR_MEMORY_ADRESS3;
1273:stm32f4xx-hal-driver/Src/stm32f4xx_hal_nor.c ****     }
1274:stm32f4xx-hal-driver/Src/stm32f4xx_hal_nor.c ****     else /* FMC_NORSRAM_BANK4 */
1275:stm32f4xx-hal-driver/Src/stm32f4xx_hal_nor.c ****     {
1276:stm32f4xx-hal-driver/Src/stm32f4xx_hal_nor.c ****       deviceaddress = NOR_MEMORY_ADRESS4;
 3764              		.loc 1 1276 21 view .LVU1171
 3765 0036 4FF0D843 		mov	r3, #1811939328
 3766 003a 04E0     		b	.L340
 3767              	.L362:
1272:stm32f4xx-hal-driver/Src/stm32f4xx_hal_nor.c ****     }
 3768              		.loc 1 1272 21 view .LVU1172
 3769 003c 4FF0D043 		mov	r3, #1744830464
 3770 0040 01E0     		b	.L340
 3771              	.L358:
1264:stm32f4xx-hal-driver/Src/stm32f4xx_hal_nor.c ****     }
 3772              		.loc 1 1264 21 view .LVU1173
 3773 0042 4FF0C043 		mov	r3, #1610612736
 3774              	.L340:
 3775              	.LVL214:
1277:stm32f4xx-hal-driver/Src/stm32f4xx_hal_nor.c ****     }
1278:stm32f4xx-hal-driver/Src/stm32f4xx_hal_nor.c **** 
1279:stm32f4xx-hal-driver/Src/stm32f4xx_hal_nor.c ****     /* Send read CFI query command */
1280:stm32f4xx-hal-driver/Src/stm32f4xx_hal_nor.c ****     if (uwNORMemoryDataWidth == NOR_MEMORY_8B)
 3776              		.loc 1 1280 5 is_stmt 1 view .LVU1174
 3777              		.loc 1 1280 30 is_stmt 0 view .LVU1175
 3778 0046 274A     		ldr	r2, .L369
 3779 0048 1268     		ldr	r2, [r2]
 3780              		.loc 1 1280 8 view .LVU1176
 3781 004a 6ABB     		cbnz	r2, .L341
1281:stm32f4xx-hal-driver/Src/stm32f4xx_hal_nor.c ****     {
1282:stm32f4xx-hal-driver/Src/stm32f4xx_hal_nor.c ****       NOR_WRITE(NOR_ADDR_SHIFT(deviceaddress, uwNORMemoryDataWidth, NOR_CMD_ADDRESS_FIRST_CFI_BYTE)
 3782              		.loc 1 1282 7 is_stmt 1 view .LVU1177
 3783              		.loc 1 1282 7 view .LVU1178
 3784 004c 012A     		cmp	r2, #1
 3785 004e 28D0     		beq	.L363
 3786              		.loc 1 1282 7 is_stmt 0 discriminator 2 view .LVU1179
 3787 0050 03F1AA05 		add	r5, r3, #170
 3788              	.L343:
 3789              		.loc 1 1282 7 discriminator 4 view .LVU1180
 3790 0054 9822     		movs	r2, #152
ARM GAS  /tmp/ccEpvYTV.s 			page 107


 3791 0056 2A80     		strh	r2, [r5]	@ movhi
 3792              		.loc 1 1282 7 is_stmt 1 discriminator 4 view .LVU1181
 3793              	.LBB288:
 3794              	.LBI288:
 275:CMSIS_5/CMSIS/Core/Include/cmsis_gcc.h **** {
 3795              		.loc 2 275 27 discriminator 4 view .LVU1182
 3796              	.LBB289:
 277:CMSIS_5/CMSIS/Core/Include/cmsis_gcc.h **** }
 3797              		.loc 2 277 3 discriminator 4 view .LVU1183
 3798              		.syntax unified
 3799              	@ 277 "CMSIS_5/CMSIS/Core/Include/cmsis_gcc.h" 1
 3800 0058 BFF34F8F 		dsb 0xF
 3801              	@ 0 "" 2
 3802              		.thumb
 3803              		.syntax unified
 3804              	.L344:
 3805              	.LBE289:
 3806              	.LBE288:
1283:stm32f4xx-hal-driver/Src/stm32f4xx_hal_nor.c ****                 NOR_CMD_DATA_CFI);
1284:stm32f4xx-hal-driver/Src/stm32f4xx_hal_nor.c ****     }
1285:stm32f4xx-hal-driver/Src/stm32f4xx_hal_nor.c ****     else
1286:stm32f4xx-hal-driver/Src/stm32f4xx_hal_nor.c ****     {
1287:stm32f4xx-hal-driver/Src/stm32f4xx_hal_nor.c ****       NOR_WRITE(NOR_ADDR_SHIFT(deviceaddress, uwNORMemoryDataWidth, NOR_CMD_ADDRESS_FIRST_CFI), NOR
 3807              		.loc 1 1287 7 discriminator 5 view .LVU1184
1288:stm32f4xx-hal-driver/Src/stm32f4xx_hal_nor.c ****     }
1289:stm32f4xx-hal-driver/Src/stm32f4xx_hal_nor.c ****     /* read the NOR CFI information */
1290:stm32f4xx-hal-driver/Src/stm32f4xx_hal_nor.c ****     pNOR_CFI->CFI_1 = *(__IO uint16_t *) NOR_ADDR_SHIFT(deviceaddress, uwNORMemoryDataWidth, CFI1_A
 3808              		.loc 1 1290 5 discriminator 5 view .LVU1185
 3809              		.loc 1 1290 42 is_stmt 0 discriminator 5 view .LVU1186
 3810 005c 214A     		ldr	r2, .L369
 3811 005e 1268     		ldr	r2, [r2]
 3812              		.loc 1 1290 24 discriminator 5 view .LVU1187
 3813 0060 012A     		cmp	r2, #1
 3814 0062 2DD0     		beq	.L364
 3815              		.loc 1 1290 24 discriminator 2 view .LVU1188
 3816 0064 03F16105 		add	r5, r3, #97
 3817              	.L348:
 3818              		.loc 1 1290 23 discriminator 4 view .LVU1189
 3819 0068 2D88     		ldrh	r5, [r5]
 3820              		.loc 1 1290 21 discriminator 4 view .LVU1190
 3821 006a 0D80     		strh	r5, [r1]	@ movhi
1291:stm32f4xx-hal-driver/Src/stm32f4xx_hal_nor.c ****     pNOR_CFI->CFI_2 = *(__IO uint16_t *) NOR_ADDR_SHIFT(deviceaddress, uwNORMemoryDataWidth, CFI2_A
 3822              		.loc 1 1291 5 is_stmt 1 discriminator 4 view .LVU1191
 3823              		.loc 1 1291 24 is_stmt 0 discriminator 4 view .LVU1192
 3824 006c 012A     		cmp	r2, #1
 3825 006e 2AD0     		beq	.L365
 3826              		.loc 1 1291 24 discriminator 2 view .LVU1193
 3827 0070 03F16205 		add	r5, r3, #98
 3828              	.L350:
 3829              		.loc 1 1291 23 discriminator 4 view .LVU1194
 3830 0074 2D88     		ldrh	r5, [r5]
 3831              		.loc 1 1291 21 discriminator 4 view .LVU1195
 3832 0076 4D80     		strh	r5, [r1, #2]	@ movhi
1292:stm32f4xx-hal-driver/Src/stm32f4xx_hal_nor.c ****     pNOR_CFI->CFI_3 = *(__IO uint16_t *) NOR_ADDR_SHIFT(deviceaddress, uwNORMemoryDataWidth, CFI3_A
 3833              		.loc 1 1292 5 is_stmt 1 discriminator 4 view .LVU1196
 3834              		.loc 1 1292 24 is_stmt 0 discriminator 4 view .LVU1197
 3835 0078 012A     		cmp	r2, #1
ARM GAS  /tmp/ccEpvYTV.s 			page 108


 3836 007a 27D0     		beq	.L366
 3837              		.loc 1 1292 24 discriminator 2 view .LVU1198
 3838 007c 03F16305 		add	r5, r3, #99
 3839              	.L352:
 3840              		.loc 1 1292 23 discriminator 4 view .LVU1199
 3841 0080 2D88     		ldrh	r5, [r5]
 3842              		.loc 1 1292 21 discriminator 4 view .LVU1200
 3843 0082 8D80     		strh	r5, [r1, #4]	@ movhi
1293:stm32f4xx-hal-driver/Src/stm32f4xx_hal_nor.c ****     pNOR_CFI->CFI_4 = *(__IO uint16_t *) NOR_ADDR_SHIFT(deviceaddress, uwNORMemoryDataWidth, CFI4_A
 3844              		.loc 1 1293 5 is_stmt 1 discriminator 4 view .LVU1201
 3845              		.loc 1 1293 24 is_stmt 0 discriminator 4 view .LVU1202
 3846 0084 012A     		cmp	r2, #1
 3847 0086 24D0     		beq	.L367
 3848              		.loc 1 1293 24 discriminator 2 view .LVU1203
 3849 0088 6433     		adds	r3, r3, #100
 3850              	.LVL215:
 3851              	.L354:
 3852              		.loc 1 1293 23 discriminator 4 view .LVU1204
 3853 008a 1B88     		ldrh	r3, [r3]
 3854              		.loc 1 1293 21 discriminator 4 view .LVU1205
 3855 008c CB80     		strh	r3, [r1, #6]	@ movhi
1294:stm32f4xx-hal-driver/Src/stm32f4xx_hal_nor.c **** 
1295:stm32f4xx-hal-driver/Src/stm32f4xx_hal_nor.c ****     /* Check the NOR controller state */
1296:stm32f4xx-hal-driver/Src/stm32f4xx_hal_nor.c ****     hnor->State = state;
 3856              		.loc 1 1296 5 is_stmt 1 discriminator 4 view .LVU1206
 3857              		.loc 1 1296 17 is_stmt 0 discriminator 4 view .LVU1207
 3858 008e 84F84900 		strb	r0, [r4, #73]
1297:stm32f4xx-hal-driver/Src/stm32f4xx_hal_nor.c **** 
1298:stm32f4xx-hal-driver/Src/stm32f4xx_hal_nor.c ****     /* Process unlocked */
1299:stm32f4xx-hal-driver/Src/stm32f4xx_hal_nor.c ****     __HAL_UNLOCK(hnor);
 3859              		.loc 1 1299 5 is_stmt 1 discriminator 4 view .LVU1208
 3860              		.loc 1 1299 5 discriminator 4 view .LVU1209
 3861 0092 0023     		movs	r3, #0
 3862 0094 84F84830 		strb	r3, [r4, #72]
 3863              		.loc 1 1299 5 discriminator 4 view .LVU1210
1300:stm32f4xx-hal-driver/Src/stm32f4xx_hal_nor.c ****   }
1301:stm32f4xx-hal-driver/Src/stm32f4xx_hal_nor.c ****   else
1302:stm32f4xx-hal-driver/Src/stm32f4xx_hal_nor.c ****   {
1303:stm32f4xx-hal-driver/Src/stm32f4xx_hal_nor.c ****     return HAL_ERROR;
1304:stm32f4xx-hal-driver/Src/stm32f4xx_hal_nor.c ****   }
1305:stm32f4xx-hal-driver/Src/stm32f4xx_hal_nor.c **** 
1306:stm32f4xx-hal-driver/Src/stm32f4xx_hal_nor.c ****   return HAL_OK;
 3864              		.loc 1 1306 3 discriminator 4 view .LVU1211
 3865              		.loc 1 1306 10 is_stmt 0 discriminator 4 view .LVU1212
 3866 0098 1846     		mov	r0, r3
 3867              	.LVL216:
 3868              		.loc 1 1306 10 discriminator 4 view .LVU1213
 3869 009a 1FE0     		b	.L339
 3870              	.LVL217:
 3871              	.L359:
1268:stm32f4xx-hal-driver/Src/stm32f4xx_hal_nor.c ****     }
 3872              		.loc 1 1268 21 view .LVU1214
 3873 009c 4FF0C843 		mov	r3, #1677721600
 3874 00a0 D1E7     		b	.L340
 3875              	.LVL218:
 3876              	.L363:
1282:stm32f4xx-hal-driver/Src/stm32f4xx_hal_nor.c ****                 NOR_CMD_DATA_CFI);
ARM GAS  /tmp/ccEpvYTV.s 			page 109


 3877              		.loc 1 1282 7 discriminator 1 view .LVU1215
 3878 00a2 03F5AA75 		add	r5, r3, #340
 3879 00a6 D5E7     		b	.L343
 3880              	.L341:
1287:stm32f4xx-hal-driver/Src/stm32f4xx_hal_nor.c ****     }
 3881              		.loc 1 1287 7 is_stmt 1 view .LVU1216
1287:stm32f4xx-hal-driver/Src/stm32f4xx_hal_nor.c ****     }
 3882              		.loc 1 1287 7 view .LVU1217
 3883 00a8 012A     		cmp	r2, #1
 3884 00aa 06D0     		beq	.L368
1287:stm32f4xx-hal-driver/Src/stm32f4xx_hal_nor.c ****     }
 3885              		.loc 1 1287 7 is_stmt 0 discriminator 2 view .LVU1218
 3886 00ac 03F15505 		add	r5, r3, #85
 3887              	.L346:
1287:stm32f4xx-hal-driver/Src/stm32f4xx_hal_nor.c ****     }
 3888              		.loc 1 1287 7 discriminator 4 view .LVU1219
 3889 00b0 9822     		movs	r2, #152
 3890 00b2 2A80     		strh	r2, [r5]	@ movhi
1287:stm32f4xx-hal-driver/Src/stm32f4xx_hal_nor.c ****     }
 3891              		.loc 1 1287 7 is_stmt 1 discriminator 4 view .LVU1220
 3892              	.LBB290:
 3893              	.LBI290:
 275:CMSIS_5/CMSIS/Core/Include/cmsis_gcc.h **** {
 3894              		.loc 2 275 27 discriminator 4 view .LVU1221
 3895              	.LBB291:
 277:CMSIS_5/CMSIS/Core/Include/cmsis_gcc.h **** }
 3896              		.loc 2 277 3 discriminator 4 view .LVU1222
 3897              		.syntax unified
 3898              	@ 277 "CMSIS_5/CMSIS/Core/Include/cmsis_gcc.h" 1
 3899 00b4 BFF34F8F 		dsb 0xF
 3900              	@ 0 "" 2
 3901              		.loc 2 278 1 is_stmt 0 discriminator 4 view .LVU1223
 3902              		.thumb
 3903              		.syntax unified
 3904 00b8 D0E7     		b	.L344
 3905              	.L368:
 3906              	.LBE291:
 3907              	.LBE290:
1287:stm32f4xx-hal-driver/Src/stm32f4xx_hal_nor.c ****     }
 3908              		.loc 1 1287 7 discriminator 1 view .LVU1224
 3909 00ba 03F1AA05 		add	r5, r3, #170
 3910 00be F7E7     		b	.L346
 3911              	.L364:
1290:stm32f4xx-hal-driver/Src/stm32f4xx_hal_nor.c ****     pNOR_CFI->CFI_2 = *(__IO uint16_t *) NOR_ADDR_SHIFT(deviceaddress, uwNORMemoryDataWidth, CFI2_A
 3912              		.loc 1 1290 24 discriminator 1 view .LVU1225
 3913 00c0 03F1C205 		add	r5, r3, #194
 3914 00c4 D0E7     		b	.L348
 3915              	.L365:
1291:stm32f4xx-hal-driver/Src/stm32f4xx_hal_nor.c ****     pNOR_CFI->CFI_3 = *(__IO uint16_t *) NOR_ADDR_SHIFT(deviceaddress, uwNORMemoryDataWidth, CFI3_A
 3916              		.loc 1 1291 24 discriminator 1 view .LVU1226
 3917 00c6 03F1C405 		add	r5, r3, #196
 3918 00ca D3E7     		b	.L350
 3919              	.L366:
1292:stm32f4xx-hal-driver/Src/stm32f4xx_hal_nor.c ****     pNOR_CFI->CFI_4 = *(__IO uint16_t *) NOR_ADDR_SHIFT(deviceaddress, uwNORMemoryDataWidth, CFI4_A
 3920              		.loc 1 1292 24 discriminator 1 view .LVU1227
 3921 00cc 03F1C605 		add	r5, r3, #198
 3922 00d0 D6E7     		b	.L352
ARM GAS  /tmp/ccEpvYTV.s 			page 110


 3923              	.L367:
1293:stm32f4xx-hal-driver/Src/stm32f4xx_hal_nor.c **** 
 3924              		.loc 1 1293 24 discriminator 1 view .LVU1228
 3925 00d2 C833     		adds	r3, r3, #200
 3926              	.LVL219:
1293:stm32f4xx-hal-driver/Src/stm32f4xx_hal_nor.c **** 
 3927              		.loc 1 1293 24 discriminator 1 view .LVU1229
 3928 00d4 D9E7     		b	.L354
 3929              	.LVL220:
 3930              	.L355:
1251:stm32f4xx-hal-driver/Src/stm32f4xx_hal_nor.c ****   }
 3931              		.loc 1 1251 12 view .LVU1230
 3932 00d6 0120     		movs	r0, #1
 3933              	.LVL221:
1251:stm32f4xx-hal-driver/Src/stm32f4xx_hal_nor.c ****   }
 3934              		.loc 1 1251 12 view .LVU1231
 3935 00d8 00E0     		b	.L339
 3936              	.LVL222:
 3937              	.L356:
1303:stm32f4xx-hal-driver/Src/stm32f4xx_hal_nor.c ****   }
 3938              		.loc 1 1303 12 view .LVU1232
 3939 00da 0120     		movs	r0, #1
 3940              	.LVL223:
 3941              	.L339:
1307:stm32f4xx-hal-driver/Src/stm32f4xx_hal_nor.c **** }
 3942              		.loc 1 1307 1 view .LVU1233
 3943 00dc 30BC     		pop	{r4, r5}
 3944              	.LCFI23:
 3945              		.cfi_remember_state
 3946              		.cfi_restore 5
 3947              		.cfi_restore 4
 3948              		.cfi_def_cfa_offset 0
 3949              	.LVL224:
 3950              		.loc 1 1307 1 view .LVU1234
 3951 00de 7047     		bx	lr
 3952              	.LVL225:
 3953              	.L357:
 3954              	.LCFI24:
 3955              		.cfi_restore_state
1256:stm32f4xx-hal-driver/Src/stm32f4xx_hal_nor.c **** 
 3956              		.loc 1 1256 5 view .LVU1235
 3957 00e0 0220     		movs	r0, #2
 3958              	.LVL226:
1256:stm32f4xx-hal-driver/Src/stm32f4xx_hal_nor.c **** 
 3959              		.loc 1 1256 5 view .LVU1236
 3960 00e2 FBE7     		b	.L339
 3961              	.L370:
 3962              		.align	2
 3963              	.L369:
 3964 00e4 00000000 		.word	.LANCHOR0
 3965              		.cfi_endproc
 3966              	.LFE252:
 3968              		.section	.text.HAL_NOR_WriteOperation_Enable,"ax",%progbits
 3969              		.align	1
 3970              		.global	HAL_NOR_WriteOperation_Enable
 3971              		.syntax unified
 3972              		.thumb
ARM GAS  /tmp/ccEpvYTV.s 			page 111


 3973              		.thumb_func
 3974              		.fpu fpv4-sp-d16
 3976              	HAL_NOR_WriteOperation_Enable:
 3977              	.LVL227:
 3978              	.LFB253:
1308:stm32f4xx-hal-driver/Src/stm32f4xx_hal_nor.c **** 
1309:stm32f4xx-hal-driver/Src/stm32f4xx_hal_nor.c **** #if (USE_HAL_NOR_REGISTER_CALLBACKS == 1)
1310:stm32f4xx-hal-driver/Src/stm32f4xx_hal_nor.c **** /**
1311:stm32f4xx-hal-driver/Src/stm32f4xx_hal_nor.c ****   * @brief  Register a User NOR Callback
1312:stm32f4xx-hal-driver/Src/stm32f4xx_hal_nor.c ****   *         To be used to override the weak predefined callback
1313:stm32f4xx-hal-driver/Src/stm32f4xx_hal_nor.c ****   * @param hnor : NOR handle
1314:stm32f4xx-hal-driver/Src/stm32f4xx_hal_nor.c ****   * @param CallbackId : ID of the callback to be registered
1315:stm32f4xx-hal-driver/Src/stm32f4xx_hal_nor.c ****   *        This parameter can be one of the following values:
1316:stm32f4xx-hal-driver/Src/stm32f4xx_hal_nor.c ****   *          @arg @ref HAL_NOR_MSP_INIT_CB_ID       NOR MspInit callback ID
1317:stm32f4xx-hal-driver/Src/stm32f4xx_hal_nor.c ****   *          @arg @ref HAL_NOR_MSP_DEINIT_CB_ID     NOR MspDeInit callback ID
1318:stm32f4xx-hal-driver/Src/stm32f4xx_hal_nor.c ****   * @param pCallback : pointer to the Callback function
1319:stm32f4xx-hal-driver/Src/stm32f4xx_hal_nor.c ****   * @retval status
1320:stm32f4xx-hal-driver/Src/stm32f4xx_hal_nor.c ****   */
1321:stm32f4xx-hal-driver/Src/stm32f4xx_hal_nor.c **** HAL_StatusTypeDef HAL_NOR_RegisterCallback(NOR_HandleTypeDef *hnor, HAL_NOR_CallbackIDTypeDef Callb
1322:stm32f4xx-hal-driver/Src/stm32f4xx_hal_nor.c ****                                            pNOR_CallbackTypeDef pCallback)
1323:stm32f4xx-hal-driver/Src/stm32f4xx_hal_nor.c **** {
1324:stm32f4xx-hal-driver/Src/stm32f4xx_hal_nor.c ****   HAL_StatusTypeDef status = HAL_OK;
1325:stm32f4xx-hal-driver/Src/stm32f4xx_hal_nor.c ****   HAL_NOR_StateTypeDef state;
1326:stm32f4xx-hal-driver/Src/stm32f4xx_hal_nor.c **** 
1327:stm32f4xx-hal-driver/Src/stm32f4xx_hal_nor.c ****   if (pCallback == NULL)
1328:stm32f4xx-hal-driver/Src/stm32f4xx_hal_nor.c ****   {
1329:stm32f4xx-hal-driver/Src/stm32f4xx_hal_nor.c ****     return HAL_ERROR;
1330:stm32f4xx-hal-driver/Src/stm32f4xx_hal_nor.c ****   }
1331:stm32f4xx-hal-driver/Src/stm32f4xx_hal_nor.c **** 
1332:stm32f4xx-hal-driver/Src/stm32f4xx_hal_nor.c ****   state = hnor->State;
1333:stm32f4xx-hal-driver/Src/stm32f4xx_hal_nor.c ****   if ((state == HAL_NOR_STATE_READY) || (state == HAL_NOR_STATE_RESET) || (state == HAL_NOR_STATE_P
1334:stm32f4xx-hal-driver/Src/stm32f4xx_hal_nor.c ****   {
1335:stm32f4xx-hal-driver/Src/stm32f4xx_hal_nor.c ****     switch (CallbackId)
1336:stm32f4xx-hal-driver/Src/stm32f4xx_hal_nor.c ****     {
1337:stm32f4xx-hal-driver/Src/stm32f4xx_hal_nor.c ****       case HAL_NOR_MSP_INIT_CB_ID :
1338:stm32f4xx-hal-driver/Src/stm32f4xx_hal_nor.c ****         hnor->MspInitCallback = pCallback;
1339:stm32f4xx-hal-driver/Src/stm32f4xx_hal_nor.c ****         break;
1340:stm32f4xx-hal-driver/Src/stm32f4xx_hal_nor.c ****       case HAL_NOR_MSP_DEINIT_CB_ID :
1341:stm32f4xx-hal-driver/Src/stm32f4xx_hal_nor.c ****         hnor->MspDeInitCallback = pCallback;
1342:stm32f4xx-hal-driver/Src/stm32f4xx_hal_nor.c ****         break;
1343:stm32f4xx-hal-driver/Src/stm32f4xx_hal_nor.c ****       default :
1344:stm32f4xx-hal-driver/Src/stm32f4xx_hal_nor.c ****         /* update return status */
1345:stm32f4xx-hal-driver/Src/stm32f4xx_hal_nor.c ****         status =  HAL_ERROR;
1346:stm32f4xx-hal-driver/Src/stm32f4xx_hal_nor.c ****         break;
1347:stm32f4xx-hal-driver/Src/stm32f4xx_hal_nor.c ****     }
1348:stm32f4xx-hal-driver/Src/stm32f4xx_hal_nor.c ****   }
1349:stm32f4xx-hal-driver/Src/stm32f4xx_hal_nor.c ****   else
1350:stm32f4xx-hal-driver/Src/stm32f4xx_hal_nor.c ****   {
1351:stm32f4xx-hal-driver/Src/stm32f4xx_hal_nor.c ****     /* update return status */
1352:stm32f4xx-hal-driver/Src/stm32f4xx_hal_nor.c ****     status =  HAL_ERROR;
1353:stm32f4xx-hal-driver/Src/stm32f4xx_hal_nor.c ****   }
1354:stm32f4xx-hal-driver/Src/stm32f4xx_hal_nor.c **** 
1355:stm32f4xx-hal-driver/Src/stm32f4xx_hal_nor.c ****   return status;
1356:stm32f4xx-hal-driver/Src/stm32f4xx_hal_nor.c **** }
1357:stm32f4xx-hal-driver/Src/stm32f4xx_hal_nor.c **** 
1358:stm32f4xx-hal-driver/Src/stm32f4xx_hal_nor.c **** /**
1359:stm32f4xx-hal-driver/Src/stm32f4xx_hal_nor.c ****   * @brief  Unregister a User NOR Callback
ARM GAS  /tmp/ccEpvYTV.s 			page 112


1360:stm32f4xx-hal-driver/Src/stm32f4xx_hal_nor.c ****   *         NOR Callback is redirected to the weak predefined callback
1361:stm32f4xx-hal-driver/Src/stm32f4xx_hal_nor.c ****   * @param hnor : NOR handle
1362:stm32f4xx-hal-driver/Src/stm32f4xx_hal_nor.c ****   * @param CallbackId : ID of the callback to be unregistered
1363:stm32f4xx-hal-driver/Src/stm32f4xx_hal_nor.c ****   *        This parameter can be one of the following values:
1364:stm32f4xx-hal-driver/Src/stm32f4xx_hal_nor.c ****   *          @arg @ref HAL_NOR_MSP_INIT_CB_ID       NOR MspInit callback ID
1365:stm32f4xx-hal-driver/Src/stm32f4xx_hal_nor.c ****   *          @arg @ref HAL_NOR_MSP_DEINIT_CB_ID     NOR MspDeInit callback ID
1366:stm32f4xx-hal-driver/Src/stm32f4xx_hal_nor.c ****   * @retval status
1367:stm32f4xx-hal-driver/Src/stm32f4xx_hal_nor.c ****   */
1368:stm32f4xx-hal-driver/Src/stm32f4xx_hal_nor.c **** HAL_StatusTypeDef HAL_NOR_UnRegisterCallback(NOR_HandleTypeDef *hnor, HAL_NOR_CallbackIDTypeDef Cal
1369:stm32f4xx-hal-driver/Src/stm32f4xx_hal_nor.c **** {
1370:stm32f4xx-hal-driver/Src/stm32f4xx_hal_nor.c ****   HAL_StatusTypeDef status = HAL_OK;
1371:stm32f4xx-hal-driver/Src/stm32f4xx_hal_nor.c ****   HAL_NOR_StateTypeDef state;
1372:stm32f4xx-hal-driver/Src/stm32f4xx_hal_nor.c **** 
1373:stm32f4xx-hal-driver/Src/stm32f4xx_hal_nor.c ****   state = hnor->State;
1374:stm32f4xx-hal-driver/Src/stm32f4xx_hal_nor.c ****   if ((state == HAL_NOR_STATE_READY) || (state == HAL_NOR_STATE_RESET) || (state == HAL_NOR_STATE_P
1375:stm32f4xx-hal-driver/Src/stm32f4xx_hal_nor.c ****   {
1376:stm32f4xx-hal-driver/Src/stm32f4xx_hal_nor.c ****     switch (CallbackId)
1377:stm32f4xx-hal-driver/Src/stm32f4xx_hal_nor.c ****     {
1378:stm32f4xx-hal-driver/Src/stm32f4xx_hal_nor.c ****       case HAL_NOR_MSP_INIT_CB_ID :
1379:stm32f4xx-hal-driver/Src/stm32f4xx_hal_nor.c ****         hnor->MspInitCallback = HAL_NOR_MspInit;
1380:stm32f4xx-hal-driver/Src/stm32f4xx_hal_nor.c ****         break;
1381:stm32f4xx-hal-driver/Src/stm32f4xx_hal_nor.c ****       case HAL_NOR_MSP_DEINIT_CB_ID :
1382:stm32f4xx-hal-driver/Src/stm32f4xx_hal_nor.c ****         hnor->MspDeInitCallback = HAL_NOR_MspDeInit;
1383:stm32f4xx-hal-driver/Src/stm32f4xx_hal_nor.c ****         break;
1384:stm32f4xx-hal-driver/Src/stm32f4xx_hal_nor.c ****       default :
1385:stm32f4xx-hal-driver/Src/stm32f4xx_hal_nor.c ****         /* update return status */
1386:stm32f4xx-hal-driver/Src/stm32f4xx_hal_nor.c ****         status =  HAL_ERROR;
1387:stm32f4xx-hal-driver/Src/stm32f4xx_hal_nor.c ****         break;
1388:stm32f4xx-hal-driver/Src/stm32f4xx_hal_nor.c ****     }
1389:stm32f4xx-hal-driver/Src/stm32f4xx_hal_nor.c ****   }
1390:stm32f4xx-hal-driver/Src/stm32f4xx_hal_nor.c ****   else
1391:stm32f4xx-hal-driver/Src/stm32f4xx_hal_nor.c ****   {
1392:stm32f4xx-hal-driver/Src/stm32f4xx_hal_nor.c ****     /* update return status */
1393:stm32f4xx-hal-driver/Src/stm32f4xx_hal_nor.c ****     status =  HAL_ERROR;
1394:stm32f4xx-hal-driver/Src/stm32f4xx_hal_nor.c ****   }
1395:stm32f4xx-hal-driver/Src/stm32f4xx_hal_nor.c **** 
1396:stm32f4xx-hal-driver/Src/stm32f4xx_hal_nor.c ****   return status;
1397:stm32f4xx-hal-driver/Src/stm32f4xx_hal_nor.c **** }
1398:stm32f4xx-hal-driver/Src/stm32f4xx_hal_nor.c **** #endif /* (USE_HAL_NOR_REGISTER_CALLBACKS) */
1399:stm32f4xx-hal-driver/Src/stm32f4xx_hal_nor.c **** 
1400:stm32f4xx-hal-driver/Src/stm32f4xx_hal_nor.c **** /**
1401:stm32f4xx-hal-driver/Src/stm32f4xx_hal_nor.c ****   * @}
1402:stm32f4xx-hal-driver/Src/stm32f4xx_hal_nor.c ****   */
1403:stm32f4xx-hal-driver/Src/stm32f4xx_hal_nor.c **** 
1404:stm32f4xx-hal-driver/Src/stm32f4xx_hal_nor.c **** /** @defgroup NOR_Exported_Functions_Group3 NOR Control functions
1405:stm32f4xx-hal-driver/Src/stm32f4xx_hal_nor.c ****   *  @brief   management functions
1406:stm32f4xx-hal-driver/Src/stm32f4xx_hal_nor.c ****   *
1407:stm32f4xx-hal-driver/Src/stm32f4xx_hal_nor.c **** @verbatim
1408:stm32f4xx-hal-driver/Src/stm32f4xx_hal_nor.c ****   ==============================================================================
1409:stm32f4xx-hal-driver/Src/stm32f4xx_hal_nor.c ****                         ##### NOR Control functions #####
1410:stm32f4xx-hal-driver/Src/stm32f4xx_hal_nor.c ****   ==============================================================================
1411:stm32f4xx-hal-driver/Src/stm32f4xx_hal_nor.c ****   [..]
1412:stm32f4xx-hal-driver/Src/stm32f4xx_hal_nor.c ****     This subsection provides a set of functions allowing to control dynamically
1413:stm32f4xx-hal-driver/Src/stm32f4xx_hal_nor.c ****     the NOR interface.
1414:stm32f4xx-hal-driver/Src/stm32f4xx_hal_nor.c **** 
1415:stm32f4xx-hal-driver/Src/stm32f4xx_hal_nor.c **** @endverbatim
1416:stm32f4xx-hal-driver/Src/stm32f4xx_hal_nor.c ****   * @{
ARM GAS  /tmp/ccEpvYTV.s 			page 113


1417:stm32f4xx-hal-driver/Src/stm32f4xx_hal_nor.c ****   */
1418:stm32f4xx-hal-driver/Src/stm32f4xx_hal_nor.c **** 
1419:stm32f4xx-hal-driver/Src/stm32f4xx_hal_nor.c **** /**
1420:stm32f4xx-hal-driver/Src/stm32f4xx_hal_nor.c ****   * @brief  Enables dynamically NOR write operation.
1421:stm32f4xx-hal-driver/Src/stm32f4xx_hal_nor.c ****   * @param  hnor pointer to a NOR_HandleTypeDef structure that contains
1422:stm32f4xx-hal-driver/Src/stm32f4xx_hal_nor.c ****   *                the configuration information for NOR module.
1423:stm32f4xx-hal-driver/Src/stm32f4xx_hal_nor.c ****   * @retval HAL status
1424:stm32f4xx-hal-driver/Src/stm32f4xx_hal_nor.c ****   */
1425:stm32f4xx-hal-driver/Src/stm32f4xx_hal_nor.c **** HAL_StatusTypeDef HAL_NOR_WriteOperation_Enable(NOR_HandleTypeDef *hnor)
1426:stm32f4xx-hal-driver/Src/stm32f4xx_hal_nor.c **** {
 3979              		.loc 1 1426 1 is_stmt 1 view -0
 3980              		.cfi_startproc
 3981              		@ args = 0, pretend = 0, frame = 0
 3982              		@ frame_needed = 0, uses_anonymous_args = 0
 3983              		.loc 1 1426 1 is_stmt 0 view .LVU1238
 3984 0000 38B5     		push	{r3, r4, r5, lr}
 3985              	.LCFI25:
 3986              		.cfi_def_cfa_offset 16
 3987              		.cfi_offset 3, -16
 3988              		.cfi_offset 4, -12
 3989              		.cfi_offset 5, -8
 3990              		.cfi_offset 14, -4
1427:stm32f4xx-hal-driver/Src/stm32f4xx_hal_nor.c ****   /* Check the NOR controller state */
1428:stm32f4xx-hal-driver/Src/stm32f4xx_hal_nor.c ****   if (hnor->State == HAL_NOR_STATE_PROTECTED)
 3991              		.loc 1 1428 3 is_stmt 1 view .LVU1239
 3992              		.loc 1 1428 11 is_stmt 0 view .LVU1240
 3993 0002 90F84930 		ldrb	r3, [r0, #73]	@ zero_extendqisi2
 3994 0006 DBB2     		uxtb	r3, r3
 3995              		.loc 1 1428 6 view .LVU1241
 3996 0008 042B     		cmp	r3, #4
 3997 000a 14D1     		bne	.L373
 3998 000c 0446     		mov	r4, r0
1429:stm32f4xx-hal-driver/Src/stm32f4xx_hal_nor.c ****   {
1430:stm32f4xx-hal-driver/Src/stm32f4xx_hal_nor.c ****     /* Process Locked */
1431:stm32f4xx-hal-driver/Src/stm32f4xx_hal_nor.c ****     __HAL_LOCK(hnor);
 3999              		.loc 1 1431 5 is_stmt 1 view .LVU1242
 4000              		.loc 1 1431 5 view .LVU1243
 4001 000e 90F84830 		ldrb	r3, [r0, #72]	@ zero_extendqisi2
 4002 0012 012B     		cmp	r3, #1
 4003 0014 11D0     		beq	.L374
 4004              		.loc 1 1431 5 discriminator 2 view .LVU1244
 4005 0016 0125     		movs	r5, #1
 4006 0018 80F84850 		strb	r5, [r0, #72]
 4007              		.loc 1 1431 5 discriminator 2 view .LVU1245
1432:stm32f4xx-hal-driver/Src/stm32f4xx_hal_nor.c **** 
1433:stm32f4xx-hal-driver/Src/stm32f4xx_hal_nor.c ****     /* Update the NOR controller state */
1434:stm32f4xx-hal-driver/Src/stm32f4xx_hal_nor.c ****     hnor->State = HAL_NOR_STATE_BUSY;
 4008              		.loc 1 1434 5 discriminator 2 view .LVU1246
 4009              		.loc 1 1434 17 is_stmt 0 discriminator 2 view .LVU1247
 4010 001c 0223     		movs	r3, #2
 4011 001e 80F84930 		strb	r3, [r0, #73]
1435:stm32f4xx-hal-driver/Src/stm32f4xx_hal_nor.c **** 
1436:stm32f4xx-hal-driver/Src/stm32f4xx_hal_nor.c ****     /* Enable write operation */
1437:stm32f4xx-hal-driver/Src/stm32f4xx_hal_nor.c ****     (void)FMC_NORSRAM_WriteOperation_Enable(hnor->Instance, hnor->Init.NSBank);
 4012              		.loc 1 1437 5 is_stmt 1 discriminator 2 view .LVU1248
 4013              		.loc 1 1437 11 is_stmt 0 discriminator 2 view .LVU1249
 4014 0022 8168     		ldr	r1, [r0, #8]
ARM GAS  /tmp/ccEpvYTV.s 			page 114


 4015 0024 0068     		ldr	r0, [r0]
 4016              	.LVL228:
 4017              		.loc 1 1437 11 discriminator 2 view .LVU1250
 4018 0026 FFF7FEFF 		bl	FSMC_NORSRAM_WriteOperation_Enable
 4019              	.LVL229:
1438:stm32f4xx-hal-driver/Src/stm32f4xx_hal_nor.c **** 
1439:stm32f4xx-hal-driver/Src/stm32f4xx_hal_nor.c ****     /* Update the NOR controller state */
1440:stm32f4xx-hal-driver/Src/stm32f4xx_hal_nor.c ****     hnor->State = HAL_NOR_STATE_READY;
 4020              		.loc 1 1440 5 is_stmt 1 discriminator 2 view .LVU1251
 4021              		.loc 1 1440 17 is_stmt 0 discriminator 2 view .LVU1252
 4022 002a 84F84950 		strb	r5, [r4, #73]
1441:stm32f4xx-hal-driver/Src/stm32f4xx_hal_nor.c **** 
1442:stm32f4xx-hal-driver/Src/stm32f4xx_hal_nor.c ****     /* Process unlocked */
1443:stm32f4xx-hal-driver/Src/stm32f4xx_hal_nor.c ****     __HAL_UNLOCK(hnor);
 4023              		.loc 1 1443 5 is_stmt 1 discriminator 2 view .LVU1253
 4024              		.loc 1 1443 5 discriminator 2 view .LVU1254
 4025 002e 0020     		movs	r0, #0
 4026 0030 84F84800 		strb	r0, [r4, #72]
 4027              		.loc 1 1443 5 discriminator 2 view .LVU1255
1444:stm32f4xx-hal-driver/Src/stm32f4xx_hal_nor.c ****   }
1445:stm32f4xx-hal-driver/Src/stm32f4xx_hal_nor.c ****   else
1446:stm32f4xx-hal-driver/Src/stm32f4xx_hal_nor.c ****   {
1447:stm32f4xx-hal-driver/Src/stm32f4xx_hal_nor.c ****     return HAL_ERROR;
1448:stm32f4xx-hal-driver/Src/stm32f4xx_hal_nor.c ****   }
1449:stm32f4xx-hal-driver/Src/stm32f4xx_hal_nor.c **** 
1450:stm32f4xx-hal-driver/Src/stm32f4xx_hal_nor.c ****   return HAL_OK;
 4028              		.loc 1 1450 3 discriminator 2 view .LVU1256
 4029              		.loc 1 1450 10 is_stmt 0 discriminator 2 view .LVU1257
 4030 0034 00E0     		b	.L372
 4031              	.LVL230:
 4032              	.L373:
1447:stm32f4xx-hal-driver/Src/stm32f4xx_hal_nor.c ****   }
 4033              		.loc 1 1447 12 view .LVU1258
 4034 0036 0120     		movs	r0, #1
 4035              	.LVL231:
 4036              	.L372:
1451:stm32f4xx-hal-driver/Src/stm32f4xx_hal_nor.c **** }
 4037              		.loc 1 1451 1 view .LVU1259
 4038 0038 38BD     		pop	{r3, r4, r5, pc}
 4039              	.LVL232:
 4040              	.L374:
1431:stm32f4xx-hal-driver/Src/stm32f4xx_hal_nor.c **** 
 4041              		.loc 1 1431 5 view .LVU1260
 4042 003a 0220     		movs	r0, #2
 4043              	.LVL233:
1431:stm32f4xx-hal-driver/Src/stm32f4xx_hal_nor.c **** 
 4044              		.loc 1 1431 5 view .LVU1261
 4045 003c FCE7     		b	.L372
 4046              		.cfi_endproc
 4047              	.LFE253:
 4049              		.section	.text.HAL_NOR_WriteOperation_Disable,"ax",%progbits
 4050              		.align	1
 4051              		.global	HAL_NOR_WriteOperation_Disable
 4052              		.syntax unified
 4053              		.thumb
 4054              		.thumb_func
 4055              		.fpu fpv4-sp-d16
ARM GAS  /tmp/ccEpvYTV.s 			page 115


 4057              	HAL_NOR_WriteOperation_Disable:
 4058              	.LVL234:
 4059              	.LFB254:
1452:stm32f4xx-hal-driver/Src/stm32f4xx_hal_nor.c **** 
1453:stm32f4xx-hal-driver/Src/stm32f4xx_hal_nor.c **** /**
1454:stm32f4xx-hal-driver/Src/stm32f4xx_hal_nor.c ****   * @brief  Disables dynamically NOR write operation.
1455:stm32f4xx-hal-driver/Src/stm32f4xx_hal_nor.c ****   * @param  hnor pointer to a NOR_HandleTypeDef structure that contains
1456:stm32f4xx-hal-driver/Src/stm32f4xx_hal_nor.c ****   *                the configuration information for NOR module.
1457:stm32f4xx-hal-driver/Src/stm32f4xx_hal_nor.c ****   * @retval HAL status
1458:stm32f4xx-hal-driver/Src/stm32f4xx_hal_nor.c ****   */
1459:stm32f4xx-hal-driver/Src/stm32f4xx_hal_nor.c **** HAL_StatusTypeDef HAL_NOR_WriteOperation_Disable(NOR_HandleTypeDef *hnor)
1460:stm32f4xx-hal-driver/Src/stm32f4xx_hal_nor.c **** {
 4060              		.loc 1 1460 1 is_stmt 1 view -0
 4061              		.cfi_startproc
 4062              		@ args = 0, pretend = 0, frame = 0
 4063              		@ frame_needed = 0, uses_anonymous_args = 0
1461:stm32f4xx-hal-driver/Src/stm32f4xx_hal_nor.c ****   /* Check the NOR controller state */
1462:stm32f4xx-hal-driver/Src/stm32f4xx_hal_nor.c ****   if (hnor->State == HAL_NOR_STATE_READY)
 4064              		.loc 1 1462 3 view .LVU1263
 4065              		.loc 1 1462 11 is_stmt 0 view .LVU1264
 4066 0000 90F84930 		ldrb	r3, [r0, #73]	@ zero_extendqisi2
 4067 0004 DBB2     		uxtb	r3, r3
 4068              		.loc 1 1462 6 view .LVU1265
 4069 0006 012B     		cmp	r3, #1
 4070 0008 16D1     		bne	.L378
1460:stm32f4xx-hal-driver/Src/stm32f4xx_hal_nor.c ****   /* Check the NOR controller state */
 4071              		.loc 1 1460 1 view .LVU1266
 4072 000a 10B5     		push	{r4, lr}
 4073              	.LCFI26:
 4074              		.cfi_def_cfa_offset 8
 4075              		.cfi_offset 4, -8
 4076              		.cfi_offset 14, -4
 4077 000c 0446     		mov	r4, r0
1463:stm32f4xx-hal-driver/Src/stm32f4xx_hal_nor.c ****   {
1464:stm32f4xx-hal-driver/Src/stm32f4xx_hal_nor.c ****     /* Process Locked */
1465:stm32f4xx-hal-driver/Src/stm32f4xx_hal_nor.c ****     __HAL_LOCK(hnor);
 4078              		.loc 1 1465 5 is_stmt 1 view .LVU1267
 4079              		.loc 1 1465 5 view .LVU1268
 4080 000e 90F84830 		ldrb	r3, [r0, #72]	@ zero_extendqisi2
 4081 0012 012B     		cmp	r3, #1
 4082 0014 12D0     		beq	.L379
 4083              		.loc 1 1465 5 discriminator 2 view .LVU1269
 4084 0016 0123     		movs	r3, #1
 4085 0018 80F84830 		strb	r3, [r0, #72]
 4086              		.loc 1 1465 5 discriminator 2 view .LVU1270
1466:stm32f4xx-hal-driver/Src/stm32f4xx_hal_nor.c **** 
1467:stm32f4xx-hal-driver/Src/stm32f4xx_hal_nor.c ****     /* Update the NOR controller state */
1468:stm32f4xx-hal-driver/Src/stm32f4xx_hal_nor.c ****     hnor->State = HAL_NOR_STATE_BUSY;
 4087              		.loc 1 1468 5 discriminator 2 view .LVU1271
 4088              		.loc 1 1468 17 is_stmt 0 discriminator 2 view .LVU1272
 4089 001c 0223     		movs	r3, #2
 4090 001e 80F84930 		strb	r3, [r0, #73]
1469:stm32f4xx-hal-driver/Src/stm32f4xx_hal_nor.c **** 
1470:stm32f4xx-hal-driver/Src/stm32f4xx_hal_nor.c ****     /* Disable write operation */
1471:stm32f4xx-hal-driver/Src/stm32f4xx_hal_nor.c ****     (void)FMC_NORSRAM_WriteOperation_Disable(hnor->Instance, hnor->Init.NSBank);
 4091              		.loc 1 1471 5 is_stmt 1 discriminator 2 view .LVU1273
 4092              		.loc 1 1471 11 is_stmt 0 discriminator 2 view .LVU1274
ARM GAS  /tmp/ccEpvYTV.s 			page 116


 4093 0022 8168     		ldr	r1, [r0, #8]
 4094 0024 0068     		ldr	r0, [r0]
 4095              	.LVL235:
 4096              		.loc 1 1471 11 discriminator 2 view .LVU1275
 4097 0026 FFF7FEFF 		bl	FSMC_NORSRAM_WriteOperation_Disable
 4098              	.LVL236:
1472:stm32f4xx-hal-driver/Src/stm32f4xx_hal_nor.c **** 
1473:stm32f4xx-hal-driver/Src/stm32f4xx_hal_nor.c ****     /* Update the NOR controller state */
1474:stm32f4xx-hal-driver/Src/stm32f4xx_hal_nor.c ****     hnor->State = HAL_NOR_STATE_PROTECTED;
 4099              		.loc 1 1474 5 is_stmt 1 discriminator 2 view .LVU1276
 4100              		.loc 1 1474 17 is_stmt 0 discriminator 2 view .LVU1277
 4101 002a 0423     		movs	r3, #4
 4102 002c 84F84930 		strb	r3, [r4, #73]
1475:stm32f4xx-hal-driver/Src/stm32f4xx_hal_nor.c **** 
1476:stm32f4xx-hal-driver/Src/stm32f4xx_hal_nor.c ****     /* Process unlocked */
1477:stm32f4xx-hal-driver/Src/stm32f4xx_hal_nor.c ****     __HAL_UNLOCK(hnor);
 4103              		.loc 1 1477 5 is_stmt 1 discriminator 2 view .LVU1278
 4104              		.loc 1 1477 5 discriminator 2 view .LVU1279
 4105 0030 0020     		movs	r0, #0
 4106 0032 84F84800 		strb	r0, [r4, #72]
 4107              		.loc 1 1477 5 discriminator 2 view .LVU1280
1478:stm32f4xx-hal-driver/Src/stm32f4xx_hal_nor.c ****   }
1479:stm32f4xx-hal-driver/Src/stm32f4xx_hal_nor.c ****   else
1480:stm32f4xx-hal-driver/Src/stm32f4xx_hal_nor.c ****   {
1481:stm32f4xx-hal-driver/Src/stm32f4xx_hal_nor.c ****     return HAL_ERROR;
1482:stm32f4xx-hal-driver/Src/stm32f4xx_hal_nor.c ****   }
1483:stm32f4xx-hal-driver/Src/stm32f4xx_hal_nor.c **** 
1484:stm32f4xx-hal-driver/Src/stm32f4xx_hal_nor.c ****   return HAL_OK;
 4108              		.loc 1 1484 3 discriminator 2 view .LVU1281
 4109              	.L377:
1485:stm32f4xx-hal-driver/Src/stm32f4xx_hal_nor.c **** }
 4110              		.loc 1 1485 1 is_stmt 0 view .LVU1282
 4111 0036 10BD     		pop	{r4, pc}
 4112              	.LVL237:
 4113              	.L378:
 4114              	.LCFI27:
 4115              		.cfi_def_cfa_offset 0
 4116              		.cfi_restore 4
 4117              		.cfi_restore 14
1481:stm32f4xx-hal-driver/Src/stm32f4xx_hal_nor.c ****   }
 4118              		.loc 1 1481 12 view .LVU1283
 4119 0038 0120     		movs	r0, #1
 4120              	.LVL238:
 4121              		.loc 1 1485 1 view .LVU1284
 4122 003a 7047     		bx	lr
 4123              	.LVL239:
 4124              	.L379:
 4125              	.LCFI28:
 4126              		.cfi_def_cfa_offset 8
 4127              		.cfi_offset 4, -8
 4128              		.cfi_offset 14, -4
1465:stm32f4xx-hal-driver/Src/stm32f4xx_hal_nor.c **** 
 4129              		.loc 1 1465 5 view .LVU1285
 4130 003c 0220     		movs	r0, #2
 4131              	.LVL240:
1465:stm32f4xx-hal-driver/Src/stm32f4xx_hal_nor.c **** 
 4132              		.loc 1 1465 5 view .LVU1286
ARM GAS  /tmp/ccEpvYTV.s 			page 117


 4133 003e FAE7     		b	.L377
 4134              		.cfi_endproc
 4135              	.LFE254:
 4137              		.section	.text.HAL_NOR_GetState,"ax",%progbits
 4138              		.align	1
 4139              		.global	HAL_NOR_GetState
 4140              		.syntax unified
 4141              		.thumb
 4142              		.thumb_func
 4143              		.fpu fpv4-sp-d16
 4145              	HAL_NOR_GetState:
 4146              	.LVL241:
 4147              	.LFB255:
1486:stm32f4xx-hal-driver/Src/stm32f4xx_hal_nor.c **** 
1487:stm32f4xx-hal-driver/Src/stm32f4xx_hal_nor.c **** /**
1488:stm32f4xx-hal-driver/Src/stm32f4xx_hal_nor.c ****   * @}
1489:stm32f4xx-hal-driver/Src/stm32f4xx_hal_nor.c ****   */
1490:stm32f4xx-hal-driver/Src/stm32f4xx_hal_nor.c **** 
1491:stm32f4xx-hal-driver/Src/stm32f4xx_hal_nor.c **** /** @defgroup NOR_Exported_Functions_Group4 NOR State functions
1492:stm32f4xx-hal-driver/Src/stm32f4xx_hal_nor.c ****   *  @brief   Peripheral State functions
1493:stm32f4xx-hal-driver/Src/stm32f4xx_hal_nor.c ****   *
1494:stm32f4xx-hal-driver/Src/stm32f4xx_hal_nor.c **** @verbatim
1495:stm32f4xx-hal-driver/Src/stm32f4xx_hal_nor.c ****   ==============================================================================
1496:stm32f4xx-hal-driver/Src/stm32f4xx_hal_nor.c ****                       ##### NOR State functions #####
1497:stm32f4xx-hal-driver/Src/stm32f4xx_hal_nor.c ****   ==============================================================================
1498:stm32f4xx-hal-driver/Src/stm32f4xx_hal_nor.c ****   [..]
1499:stm32f4xx-hal-driver/Src/stm32f4xx_hal_nor.c ****     This subsection permits to get in run-time the status of the NOR controller
1500:stm32f4xx-hal-driver/Src/stm32f4xx_hal_nor.c ****     and the data flow.
1501:stm32f4xx-hal-driver/Src/stm32f4xx_hal_nor.c **** 
1502:stm32f4xx-hal-driver/Src/stm32f4xx_hal_nor.c **** @endverbatim
1503:stm32f4xx-hal-driver/Src/stm32f4xx_hal_nor.c ****   * @{
1504:stm32f4xx-hal-driver/Src/stm32f4xx_hal_nor.c ****   */
1505:stm32f4xx-hal-driver/Src/stm32f4xx_hal_nor.c **** 
1506:stm32f4xx-hal-driver/Src/stm32f4xx_hal_nor.c **** /**
1507:stm32f4xx-hal-driver/Src/stm32f4xx_hal_nor.c ****   * @brief  return the NOR controller state
1508:stm32f4xx-hal-driver/Src/stm32f4xx_hal_nor.c ****   * @param  hnor pointer to a NOR_HandleTypeDef structure that contains
1509:stm32f4xx-hal-driver/Src/stm32f4xx_hal_nor.c ****   *                the configuration information for NOR module.
1510:stm32f4xx-hal-driver/Src/stm32f4xx_hal_nor.c ****   * @retval NOR controller state
1511:stm32f4xx-hal-driver/Src/stm32f4xx_hal_nor.c ****   */
1512:stm32f4xx-hal-driver/Src/stm32f4xx_hal_nor.c **** HAL_NOR_StateTypeDef HAL_NOR_GetState(const NOR_HandleTypeDef *hnor)
1513:stm32f4xx-hal-driver/Src/stm32f4xx_hal_nor.c **** {
 4148              		.loc 1 1513 1 is_stmt 1 view -0
 4149              		.cfi_startproc
 4150              		@ args = 0, pretend = 0, frame = 0
 4151              		@ frame_needed = 0, uses_anonymous_args = 0
 4152              		@ link register save eliminated.
1514:stm32f4xx-hal-driver/Src/stm32f4xx_hal_nor.c ****   return hnor->State;
 4153              		.loc 1 1514 3 view .LVU1288
 4154              		.loc 1 1514 14 is_stmt 0 view .LVU1289
 4155 0000 90F84900 		ldrb	r0, [r0, #73]	@ zero_extendqisi2
 4156              	.LVL242:
1515:stm32f4xx-hal-driver/Src/stm32f4xx_hal_nor.c **** }
 4157              		.loc 1 1515 1 view .LVU1290
 4158 0004 7047     		bx	lr
 4159              		.cfi_endproc
 4160              	.LFE255:
 4162              		.section	.text.HAL_NOR_GetStatus,"ax",%progbits
ARM GAS  /tmp/ccEpvYTV.s 			page 118


 4163              		.align	1
 4164              		.global	HAL_NOR_GetStatus
 4165              		.syntax unified
 4166              		.thumb
 4167              		.thumb_func
 4168              		.fpu fpv4-sp-d16
 4170              	HAL_NOR_GetStatus:
 4171              	.LVL243:
 4172              	.LFB256:
1516:stm32f4xx-hal-driver/Src/stm32f4xx_hal_nor.c **** 
1517:stm32f4xx-hal-driver/Src/stm32f4xx_hal_nor.c **** /**
1518:stm32f4xx-hal-driver/Src/stm32f4xx_hal_nor.c ****   * @brief  Returns the NOR operation status.
1519:stm32f4xx-hal-driver/Src/stm32f4xx_hal_nor.c ****   * @param  hnor pointer to a NOR_HandleTypeDef structure that contains
1520:stm32f4xx-hal-driver/Src/stm32f4xx_hal_nor.c ****   *                the configuration information for NOR module.
1521:stm32f4xx-hal-driver/Src/stm32f4xx_hal_nor.c ****   * @param  Address Device address
1522:stm32f4xx-hal-driver/Src/stm32f4xx_hal_nor.c ****   * @param  Timeout NOR programming Timeout
1523:stm32f4xx-hal-driver/Src/stm32f4xx_hal_nor.c ****   * @retval NOR_Status The returned value can be: HAL_NOR_STATUS_SUCCESS, HAL_NOR_STATUS_ERROR
1524:stm32f4xx-hal-driver/Src/stm32f4xx_hal_nor.c ****   *         or HAL_NOR_STATUS_TIMEOUT
1525:stm32f4xx-hal-driver/Src/stm32f4xx_hal_nor.c ****   */
1526:stm32f4xx-hal-driver/Src/stm32f4xx_hal_nor.c **** HAL_NOR_StatusTypeDef HAL_NOR_GetStatus(NOR_HandleTypeDef *hnor, uint32_t Address, uint32_t Timeout
1527:stm32f4xx-hal-driver/Src/stm32f4xx_hal_nor.c **** {
 4173              		.loc 1 1527 1 is_stmt 1 view -0
 4174              		.cfi_startproc
 4175              		@ args = 0, pretend = 0, frame = 0
 4176              		@ frame_needed = 0, uses_anonymous_args = 0
 4177              		.loc 1 1527 1 is_stmt 0 view .LVU1292
 4178 0000 2DE9F041 		push	{r4, r5, r6, r7, r8, lr}
 4179              	.LCFI29:
 4180              		.cfi_def_cfa_offset 24
 4181              		.cfi_offset 4, -24
 4182              		.cfi_offset 5, -20
 4183              		.cfi_offset 6, -16
 4184              		.cfi_offset 7, -12
 4185              		.cfi_offset 8, -8
 4186              		.cfi_offset 14, -4
 4187 0004 0646     		mov	r6, r0
 4188 0006 0C46     		mov	r4, r1
 4189 0008 1546     		mov	r5, r2
1528:stm32f4xx-hal-driver/Src/stm32f4xx_hal_nor.c ****   HAL_NOR_StatusTypeDef status = HAL_NOR_STATUS_ONGOING;
 4190              		.loc 1 1528 3 is_stmt 1 view .LVU1293
 4191              	.LVL244:
1529:stm32f4xx-hal-driver/Src/stm32f4xx_hal_nor.c ****   uint16_t tmpsr1;
 4192              		.loc 1 1529 3 view .LVU1294
1530:stm32f4xx-hal-driver/Src/stm32f4xx_hal_nor.c ****   uint16_t tmpsr2;
 4193              		.loc 1 1530 3 view .LVU1295
1531:stm32f4xx-hal-driver/Src/stm32f4xx_hal_nor.c ****   uint32_t tickstart;
 4194              		.loc 1 1531 3 view .LVU1296
1532:stm32f4xx-hal-driver/Src/stm32f4xx_hal_nor.c **** 
1533:stm32f4xx-hal-driver/Src/stm32f4xx_hal_nor.c ****   /* Poll on NOR memory Ready/Busy signal ------------------------------------*/
1534:stm32f4xx-hal-driver/Src/stm32f4xx_hal_nor.c ****   HAL_NOR_MspWait(hnor, Timeout);
 4195              		.loc 1 1534 3 view .LVU1297
 4196 000a 1146     		mov	r1, r2
 4197              	.LVL245:
 4198              		.loc 1 1534 3 is_stmt 0 view .LVU1298
 4199 000c FFF7FEFF 		bl	HAL_NOR_MspWait
 4200              	.LVL246:
1535:stm32f4xx-hal-driver/Src/stm32f4xx_hal_nor.c **** 
ARM GAS  /tmp/ccEpvYTV.s 			page 119


1536:stm32f4xx-hal-driver/Src/stm32f4xx_hal_nor.c ****   /* Get the NOR memory operation status -------------------------------------*/
1537:stm32f4xx-hal-driver/Src/stm32f4xx_hal_nor.c **** 
1538:stm32f4xx-hal-driver/Src/stm32f4xx_hal_nor.c ****   /* Get tick */
1539:stm32f4xx-hal-driver/Src/stm32f4xx_hal_nor.c ****   tickstart = HAL_GetTick();
 4201              		.loc 1 1539 3 is_stmt 1 view .LVU1299
 4202              		.loc 1 1539 15 is_stmt 0 view .LVU1300
 4203 0010 FFF7FEFF 		bl	HAL_GetTick
 4204              	.LVL247:
 4205 0014 0746     		mov	r7, r0
 4206              	.LVL248:
1540:stm32f4xx-hal-driver/Src/stm32f4xx_hal_nor.c **** 
1541:stm32f4xx-hal-driver/Src/stm32f4xx_hal_nor.c ****   if (hnor->CommandSet == NOR_AMD_FUJITSU_COMMAND_SET)
 4207              		.loc 1 1541 3 is_stmt 1 view .LVU1301
 4208              		.loc 1 1541 11 is_stmt 0 view .LVU1302
 4209 0016 F36C     		ldr	r3, [r6, #76]
 4210              		.loc 1 1541 6 view .LVU1303
 4211 0018 022B     		cmp	r3, #2
 4212 001a 2ED0     		beq	.L407
1542:stm32f4xx-hal-driver/Src/stm32f4xx_hal_nor.c ****   {
1543:stm32f4xx-hal-driver/Src/stm32f4xx_hal_nor.c ****     while ((status != HAL_NOR_STATUS_SUCCESS) && (status != HAL_NOR_STATUS_TIMEOUT))
1544:stm32f4xx-hal-driver/Src/stm32f4xx_hal_nor.c ****     {
1545:stm32f4xx-hal-driver/Src/stm32f4xx_hal_nor.c ****       /* Check for the Timeout */
1546:stm32f4xx-hal-driver/Src/stm32f4xx_hal_nor.c ****       if (Timeout != HAL_MAX_DELAY)
1547:stm32f4xx-hal-driver/Src/stm32f4xx_hal_nor.c ****       {
1548:stm32f4xx-hal-driver/Src/stm32f4xx_hal_nor.c ****         if (((HAL_GetTick() - tickstart) > Timeout) || (Timeout == 0U))
1549:stm32f4xx-hal-driver/Src/stm32f4xx_hal_nor.c ****         {
1550:stm32f4xx-hal-driver/Src/stm32f4xx_hal_nor.c ****           status = HAL_NOR_STATUS_TIMEOUT;
1551:stm32f4xx-hal-driver/Src/stm32f4xx_hal_nor.c ****         }
1552:stm32f4xx-hal-driver/Src/stm32f4xx_hal_nor.c ****       }
1553:stm32f4xx-hal-driver/Src/stm32f4xx_hal_nor.c **** 
1554:stm32f4xx-hal-driver/Src/stm32f4xx_hal_nor.c ****       /* Read NOR status register (DQ6 and DQ5) */
1555:stm32f4xx-hal-driver/Src/stm32f4xx_hal_nor.c ****       tmpsr1 = *(__IO uint16_t *)Address;
1556:stm32f4xx-hal-driver/Src/stm32f4xx_hal_nor.c ****       tmpsr2 = *(__IO uint16_t *)Address;
1557:stm32f4xx-hal-driver/Src/stm32f4xx_hal_nor.c **** 
1558:stm32f4xx-hal-driver/Src/stm32f4xx_hal_nor.c ****       /* If DQ6 did not toggle between the two reads then return HAL_NOR_STATUS_SUCCESS  */
1559:stm32f4xx-hal-driver/Src/stm32f4xx_hal_nor.c ****       if ((tmpsr1 & NOR_MASK_STATUS_DQ6) == (tmpsr2 & NOR_MASK_STATUS_DQ6))
1560:stm32f4xx-hal-driver/Src/stm32f4xx_hal_nor.c ****       {
1561:stm32f4xx-hal-driver/Src/stm32f4xx_hal_nor.c ****         return HAL_NOR_STATUS_SUCCESS ;
1562:stm32f4xx-hal-driver/Src/stm32f4xx_hal_nor.c ****       }
1563:stm32f4xx-hal-driver/Src/stm32f4xx_hal_nor.c **** 
1564:stm32f4xx-hal-driver/Src/stm32f4xx_hal_nor.c ****       if ((tmpsr1 & NOR_MASK_STATUS_DQ5) == NOR_MASK_STATUS_DQ5)
1565:stm32f4xx-hal-driver/Src/stm32f4xx_hal_nor.c ****       {
1566:stm32f4xx-hal-driver/Src/stm32f4xx_hal_nor.c ****         status = HAL_NOR_STATUS_ONGOING;
1567:stm32f4xx-hal-driver/Src/stm32f4xx_hal_nor.c ****       }
1568:stm32f4xx-hal-driver/Src/stm32f4xx_hal_nor.c **** 
1569:stm32f4xx-hal-driver/Src/stm32f4xx_hal_nor.c ****       tmpsr1 = *(__IO uint16_t *)Address;
1570:stm32f4xx-hal-driver/Src/stm32f4xx_hal_nor.c ****       tmpsr2 = *(__IO uint16_t *)Address;
1571:stm32f4xx-hal-driver/Src/stm32f4xx_hal_nor.c **** 
1572:stm32f4xx-hal-driver/Src/stm32f4xx_hal_nor.c ****       /* If DQ6 did not toggle between the two reads then return HAL_NOR_STATUS_SUCCESS  */
1573:stm32f4xx-hal-driver/Src/stm32f4xx_hal_nor.c ****       if ((tmpsr1 & NOR_MASK_STATUS_DQ6) == (tmpsr2 & NOR_MASK_STATUS_DQ6))
1574:stm32f4xx-hal-driver/Src/stm32f4xx_hal_nor.c ****       {
1575:stm32f4xx-hal-driver/Src/stm32f4xx_hal_nor.c ****         return HAL_NOR_STATUS_SUCCESS;
1576:stm32f4xx-hal-driver/Src/stm32f4xx_hal_nor.c ****       }
1577:stm32f4xx-hal-driver/Src/stm32f4xx_hal_nor.c ****       if ((tmpsr1 & NOR_MASK_STATUS_DQ5) == NOR_MASK_STATUS_DQ5)
1578:stm32f4xx-hal-driver/Src/stm32f4xx_hal_nor.c ****       {
1579:stm32f4xx-hal-driver/Src/stm32f4xx_hal_nor.c ****         return HAL_NOR_STATUS_ERROR;
1580:stm32f4xx-hal-driver/Src/stm32f4xx_hal_nor.c ****       }
ARM GAS  /tmp/ccEpvYTV.s 			page 120


1581:stm32f4xx-hal-driver/Src/stm32f4xx_hal_nor.c ****     }
1582:stm32f4xx-hal-driver/Src/stm32f4xx_hal_nor.c ****   }
1583:stm32f4xx-hal-driver/Src/stm32f4xx_hal_nor.c ****   else if (hnor->CommandSet == NOR_INTEL_SHARP_EXT_COMMAND_SET)
 4213              		.loc 1 1583 8 is_stmt 1 view .LVU1304
 4214              		.loc 1 1583 11 is_stmt 0 view .LVU1305
 4215 001c 012B     		cmp	r3, #1
 4216 001e 31D0     		beq	.L393
1584:stm32f4xx-hal-driver/Src/stm32f4xx_hal_nor.c ****   {
1585:stm32f4xx-hal-driver/Src/stm32f4xx_hal_nor.c ****     do
1586:stm32f4xx-hal-driver/Src/stm32f4xx_hal_nor.c ****     {
1587:stm32f4xx-hal-driver/Src/stm32f4xx_hal_nor.c ****       NOR_WRITE(Address, NOR_CMD_READ_STATUS_REG);
1588:stm32f4xx-hal-driver/Src/stm32f4xx_hal_nor.c ****       tmpsr2 = *(__IO uint16_t *)(Address);
1589:stm32f4xx-hal-driver/Src/stm32f4xx_hal_nor.c **** 
1590:stm32f4xx-hal-driver/Src/stm32f4xx_hal_nor.c ****       /* Check for the Timeout */
1591:stm32f4xx-hal-driver/Src/stm32f4xx_hal_nor.c ****       if (Timeout != HAL_MAX_DELAY)
1592:stm32f4xx-hal-driver/Src/stm32f4xx_hal_nor.c ****       {
1593:stm32f4xx-hal-driver/Src/stm32f4xx_hal_nor.c ****         if (((HAL_GetTick() - tickstart) > Timeout) || (Timeout == 0U))
1594:stm32f4xx-hal-driver/Src/stm32f4xx_hal_nor.c ****         {
1595:stm32f4xx-hal-driver/Src/stm32f4xx_hal_nor.c ****           return HAL_NOR_STATUS_TIMEOUT;
1596:stm32f4xx-hal-driver/Src/stm32f4xx_hal_nor.c ****         }
1597:stm32f4xx-hal-driver/Src/stm32f4xx_hal_nor.c ****       }
1598:stm32f4xx-hal-driver/Src/stm32f4xx_hal_nor.c ****     } while ((tmpsr2 & NOR_MASK_STATUS_DQ7) == 0U);
1599:stm32f4xx-hal-driver/Src/stm32f4xx_hal_nor.c **** 
1600:stm32f4xx-hal-driver/Src/stm32f4xx_hal_nor.c ****     NOR_WRITE(Address, NOR_CMD_READ_STATUS_REG);
1601:stm32f4xx-hal-driver/Src/stm32f4xx_hal_nor.c ****     tmpsr1 = *(__IO uint16_t *)(Address);
1602:stm32f4xx-hal-driver/Src/stm32f4xx_hal_nor.c ****     if ((tmpsr1  & (NOR_MASK_STATUS_DQ5 | NOR_MASK_STATUS_DQ4)) != 0U)
1603:stm32f4xx-hal-driver/Src/stm32f4xx_hal_nor.c ****     {
1604:stm32f4xx-hal-driver/Src/stm32f4xx_hal_nor.c ****       /* Clear the Status Register  */
1605:stm32f4xx-hal-driver/Src/stm32f4xx_hal_nor.c ****       NOR_WRITE(Address, NOR_CMD_READ_STATUS_REG);
1606:stm32f4xx-hal-driver/Src/stm32f4xx_hal_nor.c ****       status = HAL_NOR_STATUS_ERROR;
1607:stm32f4xx-hal-driver/Src/stm32f4xx_hal_nor.c ****     }
1608:stm32f4xx-hal-driver/Src/stm32f4xx_hal_nor.c ****     else
1609:stm32f4xx-hal-driver/Src/stm32f4xx_hal_nor.c ****     {
1610:stm32f4xx-hal-driver/Src/stm32f4xx_hal_nor.c ****       status = HAL_NOR_STATUS_SUCCESS;
1611:stm32f4xx-hal-driver/Src/stm32f4xx_hal_nor.c ****     }
1612:stm32f4xx-hal-driver/Src/stm32f4xx_hal_nor.c ****   }
1613:stm32f4xx-hal-driver/Src/stm32f4xx_hal_nor.c ****   else
1614:stm32f4xx-hal-driver/Src/stm32f4xx_hal_nor.c ****   {
1615:stm32f4xx-hal-driver/Src/stm32f4xx_hal_nor.c ****     /* Primary command set not supported by the driver */
1616:stm32f4xx-hal-driver/Src/stm32f4xx_hal_nor.c ****     status = HAL_NOR_STATUS_ERROR;
 4217              		.loc 1 1616 12 view .LVU1306
 4218 0020 0226     		movs	r6, #2
 4219              	.LVL249:
 4220              	.L389:
1617:stm32f4xx-hal-driver/Src/stm32f4xx_hal_nor.c ****   }
1618:stm32f4xx-hal-driver/Src/stm32f4xx_hal_nor.c **** 
1619:stm32f4xx-hal-driver/Src/stm32f4xx_hal_nor.c ****   /* Return the operation status */
1620:stm32f4xx-hal-driver/Src/stm32f4xx_hal_nor.c ****   return status;
1621:stm32f4xx-hal-driver/Src/stm32f4xx_hal_nor.c **** }
 4221              		.loc 1 1621 1 view .LVU1307
 4222 0022 3046     		mov	r0, r6
 4223 0024 BDE8F081 		pop	{r4, r5, r6, r7, r8, pc}
 4224              	.LVL250:
 4225              	.L409:
1548:stm32f4xx-hal-driver/Src/stm32f4xx_hal_nor.c ****         {
 4226              		.loc 1 1548 9 is_stmt 1 view .LVU1308
1548:stm32f4xx-hal-driver/Src/stm32f4xx_hal_nor.c ****         {
ARM GAS  /tmp/ccEpvYTV.s 			page 121


 4227              		.loc 1 1548 15 is_stmt 0 view .LVU1309
 4228 0028 FFF7FEFF 		bl	HAL_GetTick
 4229              	.LVL251:
1548:stm32f4xx-hal-driver/Src/stm32f4xx_hal_nor.c ****         {
 4230              		.loc 1 1548 29 view .LVU1310
 4231 002c C01B     		subs	r0, r0, r7
1548:stm32f4xx-hal-driver/Src/stm32f4xx_hal_nor.c ****         {
 4232              		.loc 1 1548 12 view .LVU1311
 4233 002e A842     		cmp	r0, r5
 4234 0030 02D8     		bhi	.L395
1548:stm32f4xx-hal-driver/Src/stm32f4xx_hal_nor.c ****         {
 4235              		.loc 1 1548 53 discriminator 1 view .LVU1312
 4236 0032 ADB9     		cbnz	r5, .L388
1550:stm32f4xx-hal-driver/Src/stm32f4xx_hal_nor.c ****         }
 4237              		.loc 1 1550 18 view .LVU1313
 4238 0034 0326     		movs	r6, #3
 4239              	.LVL252:
1550:stm32f4xx-hal-driver/Src/stm32f4xx_hal_nor.c ****         }
 4240              		.loc 1 1550 18 view .LVU1314
 4241 0036 13E0     		b	.L388
 4242              	.LVL253:
 4243              	.L395:
1550:stm32f4xx-hal-driver/Src/stm32f4xx_hal_nor.c ****         }
 4244              		.loc 1 1550 18 view .LVU1315
 4245 0038 0326     		movs	r6, #3
 4246              	.LVL254:
1550:stm32f4xx-hal-driver/Src/stm32f4xx_hal_nor.c ****         }
 4247              		.loc 1 1550 18 view .LVU1316
 4248 003a 11E0     		b	.L388
 4249              	.LVL255:
 4250              	.L390:
1569:stm32f4xx-hal-driver/Src/stm32f4xx_hal_nor.c ****       tmpsr2 = *(__IO uint16_t *)Address;
 4251              		.loc 1 1569 7 is_stmt 1 view .LVU1317
1569:stm32f4xx-hal-driver/Src/stm32f4xx_hal_nor.c ****       tmpsr2 = *(__IO uint16_t *)Address;
 4252              		.loc 1 1569 14 is_stmt 0 view .LVU1318
 4253 003c 2288     		ldrh	r2, [r4]
 4254              	.LVL256:
1569:stm32f4xx-hal-driver/Src/stm32f4xx_hal_nor.c ****       tmpsr2 = *(__IO uint16_t *)Address;
 4255              		.loc 1 1569 14 view .LVU1319
 4256 003e 92B2     		uxth	r2, r2
 4257              	.LVL257:
1570:stm32f4xx-hal-driver/Src/stm32f4xx_hal_nor.c **** 
 4258              		.loc 1 1570 7 is_stmt 1 view .LVU1320
1570:stm32f4xx-hal-driver/Src/stm32f4xx_hal_nor.c **** 
 4259              		.loc 1 1570 14 is_stmt 0 view .LVU1321
 4260 0040 2388     		ldrh	r3, [r4]
 4261 0042 9BB2     		uxth	r3, r3
 4262              	.LVL258:
1573:stm32f4xx-hal-driver/Src/stm32f4xx_hal_nor.c ****       {
 4263              		.loc 1 1573 7 is_stmt 1 view .LVU1322
1573:stm32f4xx-hal-driver/Src/stm32f4xx_hal_nor.c ****       {
 4264              		.loc 1 1573 42 is_stmt 0 view .LVU1323
 4265 0044 5340     		eors	r3, r3, r2
 4266              	.LVL259:
1573:stm32f4xx-hal-driver/Src/stm32f4xx_hal_nor.c ****       {
 4267              		.loc 1 1573 10 view .LVU1324
 4268 0046 13F0400F 		tst	r3, #64
ARM GAS  /tmp/ccEpvYTV.s 			page 122


 4269 004a 43D0     		beq	.L399
1577:stm32f4xx-hal-driver/Src/stm32f4xx_hal_nor.c ****       {
 4270              		.loc 1 1577 7 is_stmt 1 view .LVU1325
1577:stm32f4xx-hal-driver/Src/stm32f4xx_hal_nor.c ****       {
 4271              		.loc 1 1577 10 is_stmt 0 view .LVU1326
 4272 004c 12F0200F 		tst	r2, #32
 4273 0050 42D1     		bne	.L408
 4274              	.LVL260:
 4275              	.L386:
1543:stm32f4xx-hal-driver/Src/stm32f4xx_hal_nor.c ****     {
 4276              		.loc 1 1543 11 is_stmt 1 view .LVU1327
 4277 0052 002E     		cmp	r6, #0
 4278 0054 E5D0     		beq	.L389
1543:stm32f4xx-hal-driver/Src/stm32f4xx_hal_nor.c ****     {
 4279              		.loc 1 1543 47 is_stmt 0 discriminator 1 view .LVU1328
 4280 0056 032E     		cmp	r6, #3
 4281 0058 E3D0     		beq	.L389
1546:stm32f4xx-hal-driver/Src/stm32f4xx_hal_nor.c ****       {
 4282              		.loc 1 1546 7 is_stmt 1 view .LVU1329
1546:stm32f4xx-hal-driver/Src/stm32f4xx_hal_nor.c ****       {
 4283              		.loc 1 1546 10 is_stmt 0 view .LVU1330
 4284 005a B5F1FF3F 		cmp	r5, #-1
 4285 005e E3D1     		bne	.L409
 4286              	.LVL261:
 4287              	.L388:
1555:stm32f4xx-hal-driver/Src/stm32f4xx_hal_nor.c ****       tmpsr2 = *(__IO uint16_t *)Address;
 4288              		.loc 1 1555 7 is_stmt 1 view .LVU1331
1555:stm32f4xx-hal-driver/Src/stm32f4xx_hal_nor.c ****       tmpsr2 = *(__IO uint16_t *)Address;
 4289              		.loc 1 1555 14 is_stmt 0 view .LVU1332
 4290 0060 2288     		ldrh	r2, [r4]
 4291 0062 92B2     		uxth	r2, r2
 4292              	.LVL262:
1556:stm32f4xx-hal-driver/Src/stm32f4xx_hal_nor.c **** 
 4293              		.loc 1 1556 7 is_stmt 1 view .LVU1333
1556:stm32f4xx-hal-driver/Src/stm32f4xx_hal_nor.c **** 
 4294              		.loc 1 1556 14 is_stmt 0 view .LVU1334
 4295 0064 2388     		ldrh	r3, [r4]
 4296 0066 9BB2     		uxth	r3, r3
 4297              	.LVL263:
1559:stm32f4xx-hal-driver/Src/stm32f4xx_hal_nor.c ****       {
 4298              		.loc 1 1559 7 is_stmt 1 view .LVU1335
1559:stm32f4xx-hal-driver/Src/stm32f4xx_hal_nor.c ****       {
 4299              		.loc 1 1559 42 is_stmt 0 view .LVU1336
 4300 0068 5340     		eors	r3, r3, r2
 4301              	.LVL264:
1559:stm32f4xx-hal-driver/Src/stm32f4xx_hal_nor.c ****       {
 4302              		.loc 1 1559 10 view .LVU1337
 4303 006a 13F0400F 		tst	r3, #64
 4304 006e 2FD0     		beq	.L397
1564:stm32f4xx-hal-driver/Src/stm32f4xx_hal_nor.c ****       {
 4305              		.loc 1 1564 7 is_stmt 1 view .LVU1338
1564:stm32f4xx-hal-driver/Src/stm32f4xx_hal_nor.c ****       {
 4306              		.loc 1 1564 10 is_stmt 0 view .LVU1339
 4307 0070 12F0200F 		tst	r2, #32
 4308 0074 E2D0     		beq	.L390
1566:stm32f4xx-hal-driver/Src/stm32f4xx_hal_nor.c ****       }
 4309              		.loc 1 1566 16 view .LVU1340
ARM GAS  /tmp/ccEpvYTV.s 			page 123


 4310 0076 0126     		movs	r6, #1
 4311              	.LVL265:
1566:stm32f4xx-hal-driver/Src/stm32f4xx_hal_nor.c ****       }
 4312              		.loc 1 1566 16 view .LVU1341
 4313 0078 E0E7     		b	.L390
 4314              	.LVL266:
 4315              	.L407:
1528:stm32f4xx-hal-driver/Src/stm32f4xx_hal_nor.c ****   uint16_t tmpsr1;
 4316              		.loc 1 1528 25 view .LVU1342
 4317 007a 0126     		movs	r6, #1
 4318              	.LVL267:
1528:stm32f4xx-hal-driver/Src/stm32f4xx_hal_nor.c ****   uint16_t tmpsr1;
 4319              		.loc 1 1528 25 view .LVU1343
 4320 007c E9E7     		b	.L386
 4321              	.LVL268:
 4322              	.L392:
1598:stm32f4xx-hal-driver/Src/stm32f4xx_hal_nor.c **** 
 4323              		.loc 1 1598 13 is_stmt 1 view .LVU1344
1598:stm32f4xx-hal-driver/Src/stm32f4xx_hal_nor.c **** 
 4324              		.loc 1 1598 5 is_stmt 0 view .LVU1345
 4325 007e 16F0800F 		tst	r6, #128
 4326 0082 12D1     		bne	.L410
 4327              	.LVL269:
 4328              	.L393:
1585:stm32f4xx-hal-driver/Src/stm32f4xx_hal_nor.c ****     {
 4329              		.loc 1 1585 5 is_stmt 1 view .LVU1346
1587:stm32f4xx-hal-driver/Src/stm32f4xx_hal_nor.c ****       tmpsr2 = *(__IO uint16_t *)(Address);
 4330              		.loc 1 1587 7 view .LVU1347
1587:stm32f4xx-hal-driver/Src/stm32f4xx_hal_nor.c ****       tmpsr2 = *(__IO uint16_t *)(Address);
 4331              		.loc 1 1587 7 view .LVU1348
 4332 0084 A046     		mov	r8, r4
 4333 0086 7023     		movs	r3, #112
 4334 0088 2380     		strh	r3, [r4]	@ movhi
1587:stm32f4xx-hal-driver/Src/stm32f4xx_hal_nor.c ****       tmpsr2 = *(__IO uint16_t *)(Address);
 4335              		.loc 1 1587 7 view .LVU1349
 4336              	.LBB292:
 4337              	.LBI292:
 275:CMSIS_5/CMSIS/Core/Include/cmsis_gcc.h **** {
 4338              		.loc 2 275 27 view .LVU1350
 4339              	.LBB293:
 277:CMSIS_5/CMSIS/Core/Include/cmsis_gcc.h **** }
 4340              		.loc 2 277 3 view .LVU1351
 4341              		.syntax unified
 4342              	@ 277 "CMSIS_5/CMSIS/Core/Include/cmsis_gcc.h" 1
 4343 008a BFF34F8F 		dsb 0xF
 4344              	@ 0 "" 2
 4345              		.thumb
 4346              		.syntax unified
 4347              	.LBE293:
 4348              	.LBE292:
1587:stm32f4xx-hal-driver/Src/stm32f4xx_hal_nor.c ****       tmpsr2 = *(__IO uint16_t *)(Address);
 4349              		.loc 1 1587 7 view .LVU1352
1588:stm32f4xx-hal-driver/Src/stm32f4xx_hal_nor.c **** 
 4350              		.loc 1 1588 7 view .LVU1353
1588:stm32f4xx-hal-driver/Src/stm32f4xx_hal_nor.c **** 
 4351              		.loc 1 1588 14 is_stmt 0 view .LVU1354
 4352 008e 2388     		ldrh	r3, [r4]
ARM GAS  /tmp/ccEpvYTV.s 			page 124


 4353 0090 9EB2     		uxth	r6, r3
 4354              	.LVL270:
1591:stm32f4xx-hal-driver/Src/stm32f4xx_hal_nor.c ****       {
 4355              		.loc 1 1591 7 is_stmt 1 view .LVU1355
1591:stm32f4xx-hal-driver/Src/stm32f4xx_hal_nor.c ****       {
 4356              		.loc 1 1591 10 is_stmt 0 view .LVU1356
 4357 0092 B5F1FF3F 		cmp	r5, #-1
 4358 0096 F2D0     		beq	.L392
1593:stm32f4xx-hal-driver/Src/stm32f4xx_hal_nor.c ****         {
 4359              		.loc 1 1593 9 is_stmt 1 view .LVU1357
1593:stm32f4xx-hal-driver/Src/stm32f4xx_hal_nor.c ****         {
 4360              		.loc 1 1593 15 is_stmt 0 view .LVU1358
 4361 0098 FFF7FEFF 		bl	HAL_GetTick
 4362              	.LVL271:
1593:stm32f4xx-hal-driver/Src/stm32f4xx_hal_nor.c ****         {
 4363              		.loc 1 1593 29 view .LVU1359
 4364 009c C01B     		subs	r0, r0, r7
1593:stm32f4xx-hal-driver/Src/stm32f4xx_hal_nor.c ****         {
 4365              		.loc 1 1593 12 view .LVU1360
 4366 009e A842     		cmp	r0, r5
 4367 00a0 1CD8     		bhi	.L402
1593:stm32f4xx-hal-driver/Src/stm32f4xx_hal_nor.c ****         {
 4368              		.loc 1 1593 53 discriminator 1 view .LVU1361
 4369 00a2 002D     		cmp	r5, #0
 4370 00a4 EBD1     		bne	.L392
1595:stm32f4xx-hal-driver/Src/stm32f4xx_hal_nor.c ****         }
 4371              		.loc 1 1595 18 view .LVU1362
 4372 00a6 0326     		movs	r6, #3
 4373              	.LVL272:
1595:stm32f4xx-hal-driver/Src/stm32f4xx_hal_nor.c ****         }
 4374              		.loc 1 1595 18 view .LVU1363
 4375 00a8 BBE7     		b	.L389
 4376              	.LVL273:
 4377              	.L410:
1600:stm32f4xx-hal-driver/Src/stm32f4xx_hal_nor.c ****     tmpsr1 = *(__IO uint16_t *)(Address);
 4378              		.loc 1 1600 5 is_stmt 1 view .LVU1364
1600:stm32f4xx-hal-driver/Src/stm32f4xx_hal_nor.c ****     tmpsr1 = *(__IO uint16_t *)(Address);
 4379              		.loc 1 1600 5 view .LVU1365
 4380 00aa 7023     		movs	r3, #112
 4381 00ac A8F80030 		strh	r3, [r8]	@ movhi
1600:stm32f4xx-hal-driver/Src/stm32f4xx_hal_nor.c ****     tmpsr1 = *(__IO uint16_t *)(Address);
 4382              		.loc 1 1600 5 view .LVU1366
 4383              	.LBB294:
 4384              	.LBI294:
 275:CMSIS_5/CMSIS/Core/Include/cmsis_gcc.h **** {
 4385              		.loc 2 275 27 view .LVU1367
 4386              	.LBB295:
 277:CMSIS_5/CMSIS/Core/Include/cmsis_gcc.h **** }
 4387              		.loc 2 277 3 view .LVU1368
 4388              		.syntax unified
 4389              	@ 277 "CMSIS_5/CMSIS/Core/Include/cmsis_gcc.h" 1
 4390 00b0 BFF34F8F 		dsb 0xF
 4391              	@ 0 "" 2
 4392              		.thumb
 4393              		.syntax unified
 4394              	.LBE295:
 4395              	.LBE294:
ARM GAS  /tmp/ccEpvYTV.s 			page 125


1600:stm32f4xx-hal-driver/Src/stm32f4xx_hal_nor.c ****     tmpsr1 = *(__IO uint16_t *)(Address);
 4396              		.loc 1 1600 5 view .LVU1369
1601:stm32f4xx-hal-driver/Src/stm32f4xx_hal_nor.c ****     if ((tmpsr1  & (NOR_MASK_STATUS_DQ5 | NOR_MASK_STATUS_DQ4)) != 0U)
 4397              		.loc 1 1601 5 view .LVU1370
1601:stm32f4xx-hal-driver/Src/stm32f4xx_hal_nor.c ****     if ((tmpsr1  & (NOR_MASK_STATUS_DQ5 | NOR_MASK_STATUS_DQ4)) != 0U)
 4398              		.loc 1 1601 12 is_stmt 0 view .LVU1371
 4399 00b4 B8F80030 		ldrh	r3, [r8]
 4400              	.LVL274:
1602:stm32f4xx-hal-driver/Src/stm32f4xx_hal_nor.c ****     {
 4401              		.loc 1 1602 5 is_stmt 1 view .LVU1372
1602:stm32f4xx-hal-driver/Src/stm32f4xx_hal_nor.c ****     {
 4402              		.loc 1 1602 8 is_stmt 0 view .LVU1373
 4403 00b8 03F03003 		and	r3, r3, #48
 4404              	.LVL275:
1602:stm32f4xx-hal-driver/Src/stm32f4xx_hal_nor.c ****     {
 4405              		.loc 1 1602 8 view .LVU1374
 4406 00bc 0BB9     		cbnz	r3, .L411
1610:stm32f4xx-hal-driver/Src/stm32f4xx_hal_nor.c ****     }
 4407              		.loc 1 1610 14 view .LVU1375
 4408 00be 0026     		movs	r6, #0
 4409              	.LVL276:
1610:stm32f4xx-hal-driver/Src/stm32f4xx_hal_nor.c ****     }
 4410              		.loc 1 1610 14 view .LVU1376
 4411 00c0 AFE7     		b	.L389
 4412              	.LVL277:
 4413              	.L411:
1605:stm32f4xx-hal-driver/Src/stm32f4xx_hal_nor.c ****       status = HAL_NOR_STATUS_ERROR;
 4414              		.loc 1 1605 7 is_stmt 1 view .LVU1377
1605:stm32f4xx-hal-driver/Src/stm32f4xx_hal_nor.c ****       status = HAL_NOR_STATUS_ERROR;
 4415              		.loc 1 1605 7 view .LVU1378
 4416 00c2 7023     		movs	r3, #112
 4417 00c4 A8F80030 		strh	r3, [r8]	@ movhi
1605:stm32f4xx-hal-driver/Src/stm32f4xx_hal_nor.c ****       status = HAL_NOR_STATUS_ERROR;
 4418              		.loc 1 1605 7 view .LVU1379
 4419              	.LBB296:
 4420              	.LBI296:
 275:CMSIS_5/CMSIS/Core/Include/cmsis_gcc.h **** {
 4421              		.loc 2 275 27 view .LVU1380
 4422              	.LBB297:
 277:CMSIS_5/CMSIS/Core/Include/cmsis_gcc.h **** }
 4423              		.loc 2 277 3 view .LVU1381
 4424              		.syntax unified
 4425              	@ 277 "CMSIS_5/CMSIS/Core/Include/cmsis_gcc.h" 1
 4426 00c8 BFF34F8F 		dsb 0xF
 4427              	@ 0 "" 2
 4428              		.thumb
 4429              		.syntax unified
 4430              	.LBE297:
 4431              	.LBE296:
1605:stm32f4xx-hal-driver/Src/stm32f4xx_hal_nor.c ****       status = HAL_NOR_STATUS_ERROR;
 4432              		.loc 1 1605 7 view .LVU1382
1606:stm32f4xx-hal-driver/Src/stm32f4xx_hal_nor.c ****     }
 4433              		.loc 1 1606 7 view .LVU1383
 4434              	.LVL278:
1606:stm32f4xx-hal-driver/Src/stm32f4xx_hal_nor.c ****     }
 4435              		.loc 1 1606 14 is_stmt 0 view .LVU1384
 4436 00cc 0226     		movs	r6, #2
ARM GAS  /tmp/ccEpvYTV.s 			page 126


 4437              	.LVL279:
1606:stm32f4xx-hal-driver/Src/stm32f4xx_hal_nor.c ****     }
 4438              		.loc 1 1606 14 view .LVU1385
 4439 00ce A8E7     		b	.L389
 4440              	.LVL280:
 4441              	.L397:
1561:stm32f4xx-hal-driver/Src/stm32f4xx_hal_nor.c ****       }
 4442              		.loc 1 1561 16 view .LVU1386
 4443 00d0 0026     		movs	r6, #0
 4444              	.LVL281:
1561:stm32f4xx-hal-driver/Src/stm32f4xx_hal_nor.c ****       }
 4445              		.loc 1 1561 16 view .LVU1387
 4446 00d2 A6E7     		b	.L389
 4447              	.LVL282:
 4448              	.L399:
1575:stm32f4xx-hal-driver/Src/stm32f4xx_hal_nor.c ****       }
 4449              		.loc 1 1575 16 view .LVU1388
 4450 00d4 0026     		movs	r6, #0
 4451              	.LVL283:
1575:stm32f4xx-hal-driver/Src/stm32f4xx_hal_nor.c ****       }
 4452              		.loc 1 1575 16 view .LVU1389
 4453 00d6 A4E7     		b	.L389
 4454              	.LVL284:
 4455              	.L408:
1579:stm32f4xx-hal-driver/Src/stm32f4xx_hal_nor.c ****       }
 4456              		.loc 1 1579 16 view .LVU1390
 4457 00d8 0226     		movs	r6, #2
 4458              	.LVL285:
1579:stm32f4xx-hal-driver/Src/stm32f4xx_hal_nor.c ****       }
 4459              		.loc 1 1579 16 view .LVU1391
 4460 00da A2E7     		b	.L389
 4461              	.LVL286:
 4462              	.L402:
1595:stm32f4xx-hal-driver/Src/stm32f4xx_hal_nor.c ****         }
 4463              		.loc 1 1595 18 view .LVU1392
 4464 00dc 0326     		movs	r6, #3
 4465              	.LVL287:
1595:stm32f4xx-hal-driver/Src/stm32f4xx_hal_nor.c ****         }
 4466              		.loc 1 1595 18 view .LVU1393
 4467 00de A0E7     		b	.L389
 4468              		.cfi_endproc
 4469              	.LFE256:
 4471              		.section	.bss.uwNORMemoryDataWidth,"aw",%nobits
 4472              		.align	2
 4473              		.set	.LANCHOR0,. + 0
 4476              	uwNORMemoryDataWidth:
 4477 0000 00000000 		.space	4
 4478              		.text
 4479              	.Letext0:
 4480              		.file 3 "/opt/gcc_arm/gcc-arm-none-eabi-9-2019-q4-major/arm-none-eabi/include/machine/_default_typ
 4481              		.file 4 "/opt/gcc_arm/gcc-arm-none-eabi-9-2019-q4-major/arm-none-eabi/include/sys/_stdint.h"
 4482              		.file 5 "CMSIS_5/CMSIS/Core/Include/core_cm4.h"
 4483              		.file 6 "cmsis-device-f4/Include/system_stm32f4xx.h"
 4484              		.file 7 "cmsis-device-f4/Include/stm32f407xx.h"
 4485              		.file 8 "stm32f4xx-hal-driver/Inc/stm32f4xx_hal_def.h"
 4486              		.file 9 "stm32f4xx-hal-driver/Inc/stm32f4xx_ll_fsmc.h"
 4487              		.file 10 "stm32f4xx-hal-driver/Inc/stm32f4xx_hal_nor.h"
ARM GAS  /tmp/ccEpvYTV.s 			page 127


 4488              		.file 11 "stm32f4xx-hal-driver/Inc/stm32f4xx_hal.h"
ARM GAS  /tmp/ccEpvYTV.s 			page 128


DEFINED SYMBOLS
                            *ABS*:0000000000000000 stm32f4xx_hal_nor.c
     /tmp/ccEpvYTV.s:18     .text.HAL_NOR_MspInit:0000000000000000 $t
     /tmp/ccEpvYTV.s:26     .text.HAL_NOR_MspInit:0000000000000000 HAL_NOR_MspInit
     /tmp/ccEpvYTV.s:42     .text.HAL_NOR_MspDeInit:0000000000000000 $t
     /tmp/ccEpvYTV.s:49     .text.HAL_NOR_MspDeInit:0000000000000000 HAL_NOR_MspDeInit
     /tmp/ccEpvYTV.s:64     .text.HAL_NOR_DeInit:0000000000000000 $t
     /tmp/ccEpvYTV.s:71     .text.HAL_NOR_DeInit:0000000000000000 HAL_NOR_DeInit
     /tmp/ccEpvYTV.s:111    .text.HAL_NOR_MspWait:0000000000000000 $t
     /tmp/ccEpvYTV.s:118    .text.HAL_NOR_MspWait:0000000000000000 HAL_NOR_MspWait
     /tmp/ccEpvYTV.s:134    .text.HAL_NOR_Read_ID:0000000000000000 $t
     /tmp/ccEpvYTV.s:141    .text.HAL_NOR_Read_ID:0000000000000000 HAL_NOR_Read_ID
     /tmp/ccEpvYTV.s:569    .text.HAL_NOR_Read_ID:0000000000000164 $d
     /tmp/ccEpvYTV.s:574    .text.HAL_NOR_ReturnToReadMode:0000000000000000 $t
     /tmp/ccEpvYTV.s:581    .text.HAL_NOR_ReturnToReadMode:0000000000000000 HAL_NOR_ReturnToReadMode
     /tmp/ccEpvYTV.s:782    .text.HAL_NOR_Init:0000000000000000 $t
     /tmp/ccEpvYTV.s:789    .text.HAL_NOR_Init:0000000000000000 HAL_NOR_Init
     /tmp/ccEpvYTV.s:1043   .text.HAL_NOR_Init:00000000000000f0 $d
     /tmp/ccEpvYTV.s:1048   .text.HAL_NOR_Read:0000000000000000 $t
     /tmp/ccEpvYTV.s:1055   .text.HAL_NOR_Read:0000000000000000 HAL_NOR_Read
     /tmp/ccEpvYTV.s:1447   .text.HAL_NOR_Read:0000000000000130 $d
     /tmp/ccEpvYTV.s:1452   .text.HAL_NOR_Program:0000000000000000 $t
     /tmp/ccEpvYTV.s:1459   .text.HAL_NOR_Program:0000000000000000 HAL_NOR_Program
     /tmp/ccEpvYTV.s:1838   .text.HAL_NOR_Program:0000000000000128 $d
     /tmp/ccEpvYTV.s:1843   .text.HAL_NOR_ReadBuffer:0000000000000000 $t
     /tmp/ccEpvYTV.s:1850   .text.HAL_NOR_ReadBuffer:0000000000000000 HAL_NOR_ReadBuffer
     /tmp/ccEpvYTV.s:2259   .text.HAL_NOR_ReadBuffer:000000000000013c $d
     /tmp/ccEpvYTV.s:2264   .text.HAL_NOR_ProgramBuffer:0000000000000000 $t
     /tmp/ccEpvYTV.s:2271   .text.HAL_NOR_ProgramBuffer:0000000000000000 HAL_NOR_ProgramBuffer
     /tmp/ccEpvYTV.s:2740   .text.HAL_NOR_ProgramBuffer:0000000000000150 $d
     /tmp/ccEpvYTV.s:2745   .text.HAL_NOR_Erase_Block:0000000000000000 $t
     /tmp/ccEpvYTV.s:2752   .text.HAL_NOR_Erase_Block:0000000000000000 HAL_NOR_Erase_Block
     /tmp/ccEpvYTV.s:3260   .text.HAL_NOR_Erase_Block:0000000000000178 $d
     /tmp/ccEpvYTV.s:3265   .text.HAL_NOR_Erase_Chip:0000000000000000 $t
     /tmp/ccEpvYTV.s:3272   .text.HAL_NOR_Erase_Chip:0000000000000000 HAL_NOR_Erase_Chip
     /tmp/ccEpvYTV.s:3692   .text.HAL_NOR_Erase_Chip:0000000000000164 $d
     /tmp/ccEpvYTV.s:3697   .text.HAL_NOR_Read_CFI:0000000000000000 $t
     /tmp/ccEpvYTV.s:3704   .text.HAL_NOR_Read_CFI:0000000000000000 HAL_NOR_Read_CFI
     /tmp/ccEpvYTV.s:3964   .text.HAL_NOR_Read_CFI:00000000000000e4 $d
     /tmp/ccEpvYTV.s:3969   .text.HAL_NOR_WriteOperation_Enable:0000000000000000 $t
     /tmp/ccEpvYTV.s:3976   .text.HAL_NOR_WriteOperation_Enable:0000000000000000 HAL_NOR_WriteOperation_Enable
     /tmp/ccEpvYTV.s:4050   .text.HAL_NOR_WriteOperation_Disable:0000000000000000 $t
     /tmp/ccEpvYTV.s:4057   .text.HAL_NOR_WriteOperation_Disable:0000000000000000 HAL_NOR_WriteOperation_Disable
     /tmp/ccEpvYTV.s:4138   .text.HAL_NOR_GetState:0000000000000000 $t
     /tmp/ccEpvYTV.s:4145   .text.HAL_NOR_GetState:0000000000000000 HAL_NOR_GetState
     /tmp/ccEpvYTV.s:4163   .text.HAL_NOR_GetStatus:0000000000000000 $t
     /tmp/ccEpvYTV.s:4170   .text.HAL_NOR_GetStatus:0000000000000000 HAL_NOR_GetStatus
     /tmp/ccEpvYTV.s:4472   .bss.uwNORMemoryDataWidth:0000000000000000 $d
     /tmp/ccEpvYTV.s:4476   .bss.uwNORMemoryDataWidth:0000000000000000 uwNORMemoryDataWidth

UNDEFINED SYMBOLS
FSMC_NORSRAM_DeInit
FSMC_NORSRAM_Init
FSMC_NORSRAM_Timing_Init
FSMC_NORSRAM_Extended_Timing_Init
FSMC_NORSRAM_WriteOperation_Disable
FSMC_NORSRAM_WriteOperation_Enable
ARM GAS  /tmp/ccEpvYTV.s 			page 129


HAL_GetTick
