ARM GAS  /tmp/cccBHh9E.s 			page 1


   1              		.cpu cortex-m4
   2              		.eabi_attribute 27, 1
   3              		.eabi_attribute 28, 1
   4              		.eabi_attribute 20, 1
   5              		.eabi_attribute 21, 1
   6              		.eabi_attribute 23, 3
   7              		.eabi_attribute 24, 1
   8              		.eabi_attribute 25, 1
   9              		.eabi_attribute 26, 1
  10              		.eabi_attribute 30, 1
  11              		.eabi_attribute 34, 1
  12              		.eabi_attribute 18, 4
  13              		.file	"stm32f4xx_hal_wwdg.c"
  14              		.text
  15              	.Ltext0:
  16              		.cfi_sections	.debug_frame
  17              		.section	.text.HAL_WWDG_MspInit,"ax",%progbits
  18              		.align	1
  19              		.weak	HAL_WWDG_MspInit
  20              		.arch armv7e-m
  21              		.syntax unified
  22              		.thumb
  23              		.thumb_func
  24              		.fpu fpv4-sp-d16
  26              	HAL_WWDG_MspInit:
  27              	.LVL0:
  28              	.LFB133:
  29              		.file 1 "HALLIB/STM32F4xx_HAL_Driver/Src/stm32f4xx_hal_wwdg.c"
   1:HALLIB/STM32F4xx_HAL_Driver/Src/stm32f4xx_hal_wwdg.c **** /**
   2:HALLIB/STM32F4xx_HAL_Driver/Src/stm32f4xx_hal_wwdg.c ****   ******************************************************************************
   3:HALLIB/STM32F4xx_HAL_Driver/Src/stm32f4xx_hal_wwdg.c ****   * @file    stm32f4xx_hal_wwdg.c
   4:HALLIB/STM32F4xx_HAL_Driver/Src/stm32f4xx_hal_wwdg.c ****   * @author  MCD Application Team
   5:HALLIB/STM32F4xx_HAL_Driver/Src/stm32f4xx_hal_wwdg.c ****   * @brief   WWDG HAL module driver.
   6:HALLIB/STM32F4xx_HAL_Driver/Src/stm32f4xx_hal_wwdg.c ****   *          This file provides firmware functions to manage the following
   7:HALLIB/STM32F4xx_HAL_Driver/Src/stm32f4xx_hal_wwdg.c ****   *          functionalities of the Window Watchdog (WWDG) peripheral:
   8:HALLIB/STM32F4xx_HAL_Driver/Src/stm32f4xx_hal_wwdg.c ****   *           + Initialization and Configuration functions
   9:HALLIB/STM32F4xx_HAL_Driver/Src/stm32f4xx_hal_wwdg.c ****   *           + IO operation functions
  10:HALLIB/STM32F4xx_HAL_Driver/Src/stm32f4xx_hal_wwdg.c ****   @verbatim
  11:HALLIB/STM32F4xx_HAL_Driver/Src/stm32f4xx_hal_wwdg.c ****   ==============================================================================
  12:HALLIB/STM32F4xx_HAL_Driver/Src/stm32f4xx_hal_wwdg.c ****                       ##### WWDG Specific features #####
  13:HALLIB/STM32F4xx_HAL_Driver/Src/stm32f4xx_hal_wwdg.c ****   ==============================================================================
  14:HALLIB/STM32F4xx_HAL_Driver/Src/stm32f4xx_hal_wwdg.c ****   [..]
  15:HALLIB/STM32F4xx_HAL_Driver/Src/stm32f4xx_hal_wwdg.c ****     Once enabled the WWDG generates a system reset on expiry of a programmed
  16:HALLIB/STM32F4xx_HAL_Driver/Src/stm32f4xx_hal_wwdg.c ****     time period, unless the program refreshes the counter (T[6;0] downcounter)
  17:HALLIB/STM32F4xx_HAL_Driver/Src/stm32f4xx_hal_wwdg.c ****     before reaching 0x3F value (i.e. a reset is generated when the counter
  18:HALLIB/STM32F4xx_HAL_Driver/Src/stm32f4xx_hal_wwdg.c ****     value rolls down from 0x40 to 0x3F).
  19:HALLIB/STM32F4xx_HAL_Driver/Src/stm32f4xx_hal_wwdg.c **** 
  20:HALLIB/STM32F4xx_HAL_Driver/Src/stm32f4xx_hal_wwdg.c ****     (+) An MCU reset is also generated if the counter value is refreshed
  21:HALLIB/STM32F4xx_HAL_Driver/Src/stm32f4xx_hal_wwdg.c ****         before the counter has reached the refresh window value. This
  22:HALLIB/STM32F4xx_HAL_Driver/Src/stm32f4xx_hal_wwdg.c ****         implies that the counter must be refreshed in a limited window.
  23:HALLIB/STM32F4xx_HAL_Driver/Src/stm32f4xx_hal_wwdg.c ****     (+) Once enabled the WWDG cannot be disabled except by a system reset.
  24:HALLIB/STM32F4xx_HAL_Driver/Src/stm32f4xx_hal_wwdg.c ****     (+) WWDGRST flag in RCC CSR register can be used to inform when a WWDG
  25:HALLIB/STM32F4xx_HAL_Driver/Src/stm32f4xx_hal_wwdg.c ****         reset occurs.
  26:HALLIB/STM32F4xx_HAL_Driver/Src/stm32f4xx_hal_wwdg.c ****     (+) The WWDG counter input clock is derived from the APB clock divided
  27:HALLIB/STM32F4xx_HAL_Driver/Src/stm32f4xx_hal_wwdg.c ****         by a programmable prescaler.
  28:HALLIB/STM32F4xx_HAL_Driver/Src/stm32f4xx_hal_wwdg.c ****     (+) WWDG clock (Hz) = PCLK1 / (4096 * Prescaler)
  29:HALLIB/STM32F4xx_HAL_Driver/Src/stm32f4xx_hal_wwdg.c ****     (+) WWDG timeout (mS) = 1000 * (T[5;0] + 1) / WWDG clock (Hz)
ARM GAS  /tmp/cccBHh9E.s 			page 2


  30:HALLIB/STM32F4xx_HAL_Driver/Src/stm32f4xx_hal_wwdg.c ****         where T[5;0] are the lowest 6 bits of Counter.
  31:HALLIB/STM32F4xx_HAL_Driver/Src/stm32f4xx_hal_wwdg.c ****     (+) WWDG Counter refresh is allowed between the following limits :
  32:HALLIB/STM32F4xx_HAL_Driver/Src/stm32f4xx_hal_wwdg.c ****         (++) min time (mS) = 1000 * (Counter - Window) / WWDG clock
  33:HALLIB/STM32F4xx_HAL_Driver/Src/stm32f4xx_hal_wwdg.c ****         (++) max time (mS) = 1000 * (Counter - 0x40) / WWDG clock
  34:HALLIB/STM32F4xx_HAL_Driver/Src/stm32f4xx_hal_wwdg.c ****     (+) Typical values:
  35:HALLIB/STM32F4xx_HAL_Driver/Src/stm32f4xx_hal_wwdg.c ****         (++) Counter min (T[5;0] = 0x00) @56MHz (PCLK1) with zero prescaler:
  36:HALLIB/STM32F4xx_HAL_Driver/Src/stm32f4xx_hal_wwdg.c ****              max timeout before reset: ~73.14µs
  37:HALLIB/STM32F4xx_HAL_Driver/Src/stm32f4xx_hal_wwdg.c ****         (++) Counter max (T[5;0] = 0x3F) @56MHz (PCLK1) with prescaler dividing by 128:
  38:HALLIB/STM32F4xx_HAL_Driver/Src/stm32f4xx_hal_wwdg.c ****              max timeout before reset: ~599.18ms
  39:HALLIB/STM32F4xx_HAL_Driver/Src/stm32f4xx_hal_wwdg.c **** 
  40:HALLIB/STM32F4xx_HAL_Driver/Src/stm32f4xx_hal_wwdg.c ****   ==============================================================================
  41:HALLIB/STM32F4xx_HAL_Driver/Src/stm32f4xx_hal_wwdg.c ****                      ##### How to use this driver #####
  42:HALLIB/STM32F4xx_HAL_Driver/Src/stm32f4xx_hal_wwdg.c ****   ==============================================================================
  43:HALLIB/STM32F4xx_HAL_Driver/Src/stm32f4xx_hal_wwdg.c ****   [..]
  44:HALLIB/STM32F4xx_HAL_Driver/Src/stm32f4xx_hal_wwdg.c ****     *** Common driver usage ***
  45:HALLIB/STM32F4xx_HAL_Driver/Src/stm32f4xx_hal_wwdg.c ****     ===========================
  46:HALLIB/STM32F4xx_HAL_Driver/Src/stm32f4xx_hal_wwdg.c ****     (+) Enable WWDG APB1 clock using __HAL_RCC_WWDG_CLK_ENABLE().
  47:HALLIB/STM32F4xx_HAL_Driver/Src/stm32f4xx_hal_wwdg.c ****     (+) Set the WWDG prescaler, refresh window and counter value
  48:HALLIB/STM32F4xx_HAL_Driver/Src/stm32f4xx_hal_wwdg.c ****         using HAL_WWDG_Init() function.
  49:HALLIB/STM32F4xx_HAL_Driver/Src/stm32f4xx_hal_wwdg.c ****     (+) Start the WWDG using HAL_WWDG_Start() function.
  50:HALLIB/STM32F4xx_HAL_Driver/Src/stm32f4xx_hal_wwdg.c ****         When the WWDG is enabled the counter value should be configured to
  51:HALLIB/STM32F4xx_HAL_Driver/Src/stm32f4xx_hal_wwdg.c ****         a value greater than 0x40 to prevent generating an immediate reset.
  52:HALLIB/STM32F4xx_HAL_Driver/Src/stm32f4xx_hal_wwdg.c ****     (+) Optionally you can enable the Early Wakeup Interrupt (EWI) which is
  53:HALLIB/STM32F4xx_HAL_Driver/Src/stm32f4xx_hal_wwdg.c ****         generated when the counter reaches 0x40, and then start the WWDG using
  54:HALLIB/STM32F4xx_HAL_Driver/Src/stm32f4xx_hal_wwdg.c ****         HAL_WWDG_Start_IT(). At EWI HAL_WWDG_WakeupCallback is executed and user can
  55:HALLIB/STM32F4xx_HAL_Driver/Src/stm32f4xx_hal_wwdg.c ****         add his own code by customization of callback HAL_WWDG_WakeupCallback.
  56:HALLIB/STM32F4xx_HAL_Driver/Src/stm32f4xx_hal_wwdg.c ****         Once enabled, EWI interrupt cannot be disabled except by a system reset.
  57:HALLIB/STM32F4xx_HAL_Driver/Src/stm32f4xx_hal_wwdg.c ****     (+) Then the application program must refresh the WWDG counter at regular
  58:HALLIB/STM32F4xx_HAL_Driver/Src/stm32f4xx_hal_wwdg.c ****         intervals during normal operation to prevent an MCU reset, using
  59:HALLIB/STM32F4xx_HAL_Driver/Src/stm32f4xx_hal_wwdg.c ****         HAL_WWDG_Refresh() function. This operation must occur only when
  60:HALLIB/STM32F4xx_HAL_Driver/Src/stm32f4xx_hal_wwdg.c ****         the counter is lower than the refresh window value already programmed.
  61:HALLIB/STM32F4xx_HAL_Driver/Src/stm32f4xx_hal_wwdg.c **** 
  62:HALLIB/STM32F4xx_HAL_Driver/Src/stm32f4xx_hal_wwdg.c ****   [..]
  63:HALLIB/STM32F4xx_HAL_Driver/Src/stm32f4xx_hal_wwdg.c ****     *** Callback registration ***
  64:HALLIB/STM32F4xx_HAL_Driver/Src/stm32f4xx_hal_wwdg.c ****     =============================
  65:HALLIB/STM32F4xx_HAL_Driver/Src/stm32f4xx_hal_wwdg.c ****     The compilation define  USE_HAL_WWDG_REGISTER_CALLBACKS when set to 1 allows
  66:HALLIB/STM32F4xx_HAL_Driver/Src/stm32f4xx_hal_wwdg.c ****     the user to configure dynamically the driver callbacks. Use Functions
  67:HALLIB/STM32F4xx_HAL_Driver/Src/stm32f4xx_hal_wwdg.c ****     @ref HAL_WWDG_RegisterCallback() to register a user callback.
  68:HALLIB/STM32F4xx_HAL_Driver/Src/stm32f4xx_hal_wwdg.c **** 
  69:HALLIB/STM32F4xx_HAL_Driver/Src/stm32f4xx_hal_wwdg.c ****     (+) Function @ref HAL_WWDG_RegisterCallback() allows to register following
  70:HALLIB/STM32F4xx_HAL_Driver/Src/stm32f4xx_hal_wwdg.c ****         callbacks:
  71:HALLIB/STM32F4xx_HAL_Driver/Src/stm32f4xx_hal_wwdg.c ****         (++) EwiCallback : callback for Early WakeUp Interrupt.
  72:HALLIB/STM32F4xx_HAL_Driver/Src/stm32f4xx_hal_wwdg.c ****         (++) MspInitCallback : WWDG MspInit.
  73:HALLIB/STM32F4xx_HAL_Driver/Src/stm32f4xx_hal_wwdg.c ****     This function takes as parameters the HAL peripheral handle, the Callback ID
  74:HALLIB/STM32F4xx_HAL_Driver/Src/stm32f4xx_hal_wwdg.c ****     and a pointer to the user callback function.
  75:HALLIB/STM32F4xx_HAL_Driver/Src/stm32f4xx_hal_wwdg.c **** 
  76:HALLIB/STM32F4xx_HAL_Driver/Src/stm32f4xx_hal_wwdg.c ****     (+) Use function @ref HAL_WWDG_UnRegisterCallback() to reset a callback to
  77:HALLIB/STM32F4xx_HAL_Driver/Src/stm32f4xx_hal_wwdg.c ****     the default weak (surcharged) function. @ref HAL_WWDG_UnRegisterCallback()
  78:HALLIB/STM32F4xx_HAL_Driver/Src/stm32f4xx_hal_wwdg.c ****     takes as parameters the HAL peripheral handle and the Callback ID.
  79:HALLIB/STM32F4xx_HAL_Driver/Src/stm32f4xx_hal_wwdg.c ****     This function allows to reset following callbacks:
  80:HALLIB/STM32F4xx_HAL_Driver/Src/stm32f4xx_hal_wwdg.c ****         (++) EwiCallback : callback for  Early WakeUp Interrupt.
  81:HALLIB/STM32F4xx_HAL_Driver/Src/stm32f4xx_hal_wwdg.c ****         (++) MspInitCallback : WWDG MspInit.
  82:HALLIB/STM32F4xx_HAL_Driver/Src/stm32f4xx_hal_wwdg.c **** 
  83:HALLIB/STM32F4xx_HAL_Driver/Src/stm32f4xx_hal_wwdg.c ****     When calling @ref HAL_WWDG_Init function, callbacks are reset to the
  84:HALLIB/STM32F4xx_HAL_Driver/Src/stm32f4xx_hal_wwdg.c ****     corresponding legacy weak (surcharged) functions: 
  85:HALLIB/STM32F4xx_HAL_Driver/Src/stm32f4xx_hal_wwdg.c ****     @ref HAL_WWDG_EarlyWakeupCallback() and HAL_WWDG_MspInit() only if they have
  86:HALLIB/STM32F4xx_HAL_Driver/Src/stm32f4xx_hal_wwdg.c ****     not been registered before.
ARM GAS  /tmp/cccBHh9E.s 			page 3


  87:HALLIB/STM32F4xx_HAL_Driver/Src/stm32f4xx_hal_wwdg.c **** 
  88:HALLIB/STM32F4xx_HAL_Driver/Src/stm32f4xx_hal_wwdg.c ****     When compilation define USE_HAL_WWDG_REGISTER_CALLBACKS is set to 0 or
  89:HALLIB/STM32F4xx_HAL_Driver/Src/stm32f4xx_hal_wwdg.c ****     not defined, the callback registering feature is not available 
  90:HALLIB/STM32F4xx_HAL_Driver/Src/stm32f4xx_hal_wwdg.c ****     and weak (surcharged) callbacks are used.
  91:HALLIB/STM32F4xx_HAL_Driver/Src/stm32f4xx_hal_wwdg.c **** 
  92:HALLIB/STM32F4xx_HAL_Driver/Src/stm32f4xx_hal_wwdg.c ****     *** WWDG HAL driver macros list ***
  93:HALLIB/STM32F4xx_HAL_Driver/Src/stm32f4xx_hal_wwdg.c ****     ===================================
  94:HALLIB/STM32F4xx_HAL_Driver/Src/stm32f4xx_hal_wwdg.c ****     [..]
  95:HALLIB/STM32F4xx_HAL_Driver/Src/stm32f4xx_hal_wwdg.c ****       Below the list of most used macros in WWDG HAL driver.
  96:HALLIB/STM32F4xx_HAL_Driver/Src/stm32f4xx_hal_wwdg.c ****       (+) __HAL_WWDG_ENABLE: Enable the WWDG peripheral
  97:HALLIB/STM32F4xx_HAL_Driver/Src/stm32f4xx_hal_wwdg.c ****       (+) __HAL_WWDG_GET_FLAG: Get the selected WWDG's flag status
  98:HALLIB/STM32F4xx_HAL_Driver/Src/stm32f4xx_hal_wwdg.c ****       (+) __HAL_WWDG_CLEAR_FLAG: Clear the WWDG's pending flags
  99:HALLIB/STM32F4xx_HAL_Driver/Src/stm32f4xx_hal_wwdg.c ****       (+) __HAL_WWDG_ENABLE_IT: Enable the WWDG early wakeup interrupt
 100:HALLIB/STM32F4xx_HAL_Driver/Src/stm32f4xx_hal_wwdg.c **** 
 101:HALLIB/STM32F4xx_HAL_Driver/Src/stm32f4xx_hal_wwdg.c ****   @endverbatim
 102:HALLIB/STM32F4xx_HAL_Driver/Src/stm32f4xx_hal_wwdg.c ****   ******************************************************************************
 103:HALLIB/STM32F4xx_HAL_Driver/Src/stm32f4xx_hal_wwdg.c ****   * @attention
 104:HALLIB/STM32F4xx_HAL_Driver/Src/stm32f4xx_hal_wwdg.c ****   *
 105:HALLIB/STM32F4xx_HAL_Driver/Src/stm32f4xx_hal_wwdg.c ****   * <h2><center>&copy; Copyright (c) 2016 STMicroelectronics.
 106:HALLIB/STM32F4xx_HAL_Driver/Src/stm32f4xx_hal_wwdg.c ****   * All rights reserved.</center></h2>
 107:HALLIB/STM32F4xx_HAL_Driver/Src/stm32f4xx_hal_wwdg.c ****   *
 108:HALLIB/STM32F4xx_HAL_Driver/Src/stm32f4xx_hal_wwdg.c ****   * This software component is licensed by ST under BSD 3-Clause license,
 109:HALLIB/STM32F4xx_HAL_Driver/Src/stm32f4xx_hal_wwdg.c ****   * the "License"; You may not use this file except in compliance with the
 110:HALLIB/STM32F4xx_HAL_Driver/Src/stm32f4xx_hal_wwdg.c ****   * License. You may obtain a copy of the License at:
 111:HALLIB/STM32F4xx_HAL_Driver/Src/stm32f4xx_hal_wwdg.c ****   *                        opensource.org/licenses/BSD-3-Clause
 112:HALLIB/STM32F4xx_HAL_Driver/Src/stm32f4xx_hal_wwdg.c ****   *
 113:HALLIB/STM32F4xx_HAL_Driver/Src/stm32f4xx_hal_wwdg.c ****   ******************************************************************************
 114:HALLIB/STM32F4xx_HAL_Driver/Src/stm32f4xx_hal_wwdg.c ****   */
 115:HALLIB/STM32F4xx_HAL_Driver/Src/stm32f4xx_hal_wwdg.c **** 
 116:HALLIB/STM32F4xx_HAL_Driver/Src/stm32f4xx_hal_wwdg.c **** /* Includes ------------------------------------------------------------------*/
 117:HALLIB/STM32F4xx_HAL_Driver/Src/stm32f4xx_hal_wwdg.c **** #include "stm32f4xx_hal.h"
 118:HALLIB/STM32F4xx_HAL_Driver/Src/stm32f4xx_hal_wwdg.c **** 
 119:HALLIB/STM32F4xx_HAL_Driver/Src/stm32f4xx_hal_wwdg.c **** /** @addtogroup STM32F4xx_HAL_Driver
 120:HALLIB/STM32F4xx_HAL_Driver/Src/stm32f4xx_hal_wwdg.c ****   * @{
 121:HALLIB/STM32F4xx_HAL_Driver/Src/stm32f4xx_hal_wwdg.c ****   */
 122:HALLIB/STM32F4xx_HAL_Driver/Src/stm32f4xx_hal_wwdg.c **** 
 123:HALLIB/STM32F4xx_HAL_Driver/Src/stm32f4xx_hal_wwdg.c **** #ifdef HAL_WWDG_MODULE_ENABLED
 124:HALLIB/STM32F4xx_HAL_Driver/Src/stm32f4xx_hal_wwdg.c **** /** @defgroup WWDG WWDG
 125:HALLIB/STM32F4xx_HAL_Driver/Src/stm32f4xx_hal_wwdg.c ****   * @brief WWDG HAL module driver.
 126:HALLIB/STM32F4xx_HAL_Driver/Src/stm32f4xx_hal_wwdg.c ****   * @{
 127:HALLIB/STM32F4xx_HAL_Driver/Src/stm32f4xx_hal_wwdg.c ****   */
 128:HALLIB/STM32F4xx_HAL_Driver/Src/stm32f4xx_hal_wwdg.c **** 
 129:HALLIB/STM32F4xx_HAL_Driver/Src/stm32f4xx_hal_wwdg.c **** /* Private typedef -----------------------------------------------------------*/
 130:HALLIB/STM32F4xx_HAL_Driver/Src/stm32f4xx_hal_wwdg.c **** /* Private define ------------------------------------------------------------*/
 131:HALLIB/STM32F4xx_HAL_Driver/Src/stm32f4xx_hal_wwdg.c **** /* Private macro -------------------------------------------------------------*/
 132:HALLIB/STM32F4xx_HAL_Driver/Src/stm32f4xx_hal_wwdg.c **** /* Private variables ---------------------------------------------------------*/
 133:HALLIB/STM32F4xx_HAL_Driver/Src/stm32f4xx_hal_wwdg.c **** /* Private function prototypes -----------------------------------------------*/
 134:HALLIB/STM32F4xx_HAL_Driver/Src/stm32f4xx_hal_wwdg.c **** /* Exported functions --------------------------------------------------------*/
 135:HALLIB/STM32F4xx_HAL_Driver/Src/stm32f4xx_hal_wwdg.c **** 
 136:HALLIB/STM32F4xx_HAL_Driver/Src/stm32f4xx_hal_wwdg.c **** /** @defgroup WWDG_Exported_Functions WWDG Exported Functions
 137:HALLIB/STM32F4xx_HAL_Driver/Src/stm32f4xx_hal_wwdg.c ****   * @{
 138:HALLIB/STM32F4xx_HAL_Driver/Src/stm32f4xx_hal_wwdg.c ****   */
 139:HALLIB/STM32F4xx_HAL_Driver/Src/stm32f4xx_hal_wwdg.c **** 
 140:HALLIB/STM32F4xx_HAL_Driver/Src/stm32f4xx_hal_wwdg.c **** /** @defgroup WWDG_Exported_Functions_Group1 Initialization and Configuration functions
 141:HALLIB/STM32F4xx_HAL_Driver/Src/stm32f4xx_hal_wwdg.c ****  *  @brief    Initialization and Configuration functions.
 142:HALLIB/STM32F4xx_HAL_Driver/Src/stm32f4xx_hal_wwdg.c ****  *
 143:HALLIB/STM32F4xx_HAL_Driver/Src/stm32f4xx_hal_wwdg.c **** @verbatim
ARM GAS  /tmp/cccBHh9E.s 			page 4


 144:HALLIB/STM32F4xx_HAL_Driver/Src/stm32f4xx_hal_wwdg.c ****   ==============================================================================
 145:HALLIB/STM32F4xx_HAL_Driver/Src/stm32f4xx_hal_wwdg.c ****           ##### Initialization and Configuration functions #####
 146:HALLIB/STM32F4xx_HAL_Driver/Src/stm32f4xx_hal_wwdg.c ****   ==============================================================================
 147:HALLIB/STM32F4xx_HAL_Driver/Src/stm32f4xx_hal_wwdg.c ****   [..]
 148:HALLIB/STM32F4xx_HAL_Driver/Src/stm32f4xx_hal_wwdg.c ****     This section provides functions allowing to:
 149:HALLIB/STM32F4xx_HAL_Driver/Src/stm32f4xx_hal_wwdg.c ****       (+) Initialize and start the WWDG according to the specified parameters
 150:HALLIB/STM32F4xx_HAL_Driver/Src/stm32f4xx_hal_wwdg.c ****           in the WWDG_InitTypeDef of associated handle.
 151:HALLIB/STM32F4xx_HAL_Driver/Src/stm32f4xx_hal_wwdg.c ****       (+) Initialize the WWDG MSP.
 152:HALLIB/STM32F4xx_HAL_Driver/Src/stm32f4xx_hal_wwdg.c **** 
 153:HALLIB/STM32F4xx_HAL_Driver/Src/stm32f4xx_hal_wwdg.c **** @endverbatim
 154:HALLIB/STM32F4xx_HAL_Driver/Src/stm32f4xx_hal_wwdg.c ****   * @{
 155:HALLIB/STM32F4xx_HAL_Driver/Src/stm32f4xx_hal_wwdg.c ****   */
 156:HALLIB/STM32F4xx_HAL_Driver/Src/stm32f4xx_hal_wwdg.c **** 
 157:HALLIB/STM32F4xx_HAL_Driver/Src/stm32f4xx_hal_wwdg.c **** /**
 158:HALLIB/STM32F4xx_HAL_Driver/Src/stm32f4xx_hal_wwdg.c ****   * @brief  Initialize the WWDG according to the specified.
 159:HALLIB/STM32F4xx_HAL_Driver/Src/stm32f4xx_hal_wwdg.c ****   *         parameters in the WWDG_InitTypeDef of  associated handle.
 160:HALLIB/STM32F4xx_HAL_Driver/Src/stm32f4xx_hal_wwdg.c ****   * @param  hwwdg  pointer to a WWDG_HandleTypeDef structure that contains
 161:HALLIB/STM32F4xx_HAL_Driver/Src/stm32f4xx_hal_wwdg.c ****   *                the configuration information for the specified WWDG module.
 162:HALLIB/STM32F4xx_HAL_Driver/Src/stm32f4xx_hal_wwdg.c ****   * @retval HAL status
 163:HALLIB/STM32F4xx_HAL_Driver/Src/stm32f4xx_hal_wwdg.c ****   */
 164:HALLIB/STM32F4xx_HAL_Driver/Src/stm32f4xx_hal_wwdg.c **** HAL_StatusTypeDef HAL_WWDG_Init(WWDG_HandleTypeDef *hwwdg)
 165:HALLIB/STM32F4xx_HAL_Driver/Src/stm32f4xx_hal_wwdg.c **** {
 166:HALLIB/STM32F4xx_HAL_Driver/Src/stm32f4xx_hal_wwdg.c ****   /* Check the WWDG handle allocation */
 167:HALLIB/STM32F4xx_HAL_Driver/Src/stm32f4xx_hal_wwdg.c ****   if (hwwdg == NULL)
 168:HALLIB/STM32F4xx_HAL_Driver/Src/stm32f4xx_hal_wwdg.c ****   {
 169:HALLIB/STM32F4xx_HAL_Driver/Src/stm32f4xx_hal_wwdg.c ****     return HAL_ERROR;
 170:HALLIB/STM32F4xx_HAL_Driver/Src/stm32f4xx_hal_wwdg.c ****   }
 171:HALLIB/STM32F4xx_HAL_Driver/Src/stm32f4xx_hal_wwdg.c **** 
 172:HALLIB/STM32F4xx_HAL_Driver/Src/stm32f4xx_hal_wwdg.c ****   /* Check the parameters */
 173:HALLIB/STM32F4xx_HAL_Driver/Src/stm32f4xx_hal_wwdg.c ****   assert_param(IS_WWDG_ALL_INSTANCE(hwwdg->Instance));
 174:HALLIB/STM32F4xx_HAL_Driver/Src/stm32f4xx_hal_wwdg.c ****   assert_param(IS_WWDG_PRESCALER(hwwdg->Init.Prescaler));
 175:HALLIB/STM32F4xx_HAL_Driver/Src/stm32f4xx_hal_wwdg.c ****   assert_param(IS_WWDG_WINDOW(hwwdg->Init.Window));
 176:HALLIB/STM32F4xx_HAL_Driver/Src/stm32f4xx_hal_wwdg.c ****   assert_param(IS_WWDG_COUNTER(hwwdg->Init.Counter));
 177:HALLIB/STM32F4xx_HAL_Driver/Src/stm32f4xx_hal_wwdg.c ****   assert_param(IS_WWDG_EWI_MODE(hwwdg->Init.EWIMode));
 178:HALLIB/STM32F4xx_HAL_Driver/Src/stm32f4xx_hal_wwdg.c **** 
 179:HALLIB/STM32F4xx_HAL_Driver/Src/stm32f4xx_hal_wwdg.c **** #if (USE_HAL_WWDG_REGISTER_CALLBACKS == 1)
 180:HALLIB/STM32F4xx_HAL_Driver/Src/stm32f4xx_hal_wwdg.c ****   /* Reset Callback pointers */
 181:HALLIB/STM32F4xx_HAL_Driver/Src/stm32f4xx_hal_wwdg.c ****   if(hwwdg->EwiCallback == NULL)
 182:HALLIB/STM32F4xx_HAL_Driver/Src/stm32f4xx_hal_wwdg.c ****   {
 183:HALLIB/STM32F4xx_HAL_Driver/Src/stm32f4xx_hal_wwdg.c ****     hwwdg->EwiCallback = HAL_WWDG_EarlyWakeupCallback;
 184:HALLIB/STM32F4xx_HAL_Driver/Src/stm32f4xx_hal_wwdg.c ****   }
 185:HALLIB/STM32F4xx_HAL_Driver/Src/stm32f4xx_hal_wwdg.c **** 
 186:HALLIB/STM32F4xx_HAL_Driver/Src/stm32f4xx_hal_wwdg.c ****   if(hwwdg->MspInitCallback == NULL)
 187:HALLIB/STM32F4xx_HAL_Driver/Src/stm32f4xx_hal_wwdg.c ****   {
 188:HALLIB/STM32F4xx_HAL_Driver/Src/stm32f4xx_hal_wwdg.c ****     hwwdg->MspInitCallback = HAL_WWDG_MspInit;
 189:HALLIB/STM32F4xx_HAL_Driver/Src/stm32f4xx_hal_wwdg.c ****   }
 190:HALLIB/STM32F4xx_HAL_Driver/Src/stm32f4xx_hal_wwdg.c **** 
 191:HALLIB/STM32F4xx_HAL_Driver/Src/stm32f4xx_hal_wwdg.c ****   /* Init the low level hardware */
 192:HALLIB/STM32F4xx_HAL_Driver/Src/stm32f4xx_hal_wwdg.c ****   hwwdg->MspInitCallback(hwwdg);
 193:HALLIB/STM32F4xx_HAL_Driver/Src/stm32f4xx_hal_wwdg.c **** #else
 194:HALLIB/STM32F4xx_HAL_Driver/Src/stm32f4xx_hal_wwdg.c ****   /* Init the low level hardware */
 195:HALLIB/STM32F4xx_HAL_Driver/Src/stm32f4xx_hal_wwdg.c ****   HAL_WWDG_MspInit(hwwdg);
 196:HALLIB/STM32F4xx_HAL_Driver/Src/stm32f4xx_hal_wwdg.c **** #endif
 197:HALLIB/STM32F4xx_HAL_Driver/Src/stm32f4xx_hal_wwdg.c **** 
 198:HALLIB/STM32F4xx_HAL_Driver/Src/stm32f4xx_hal_wwdg.c ****   /* Set WWDG Counter */
 199:HALLIB/STM32F4xx_HAL_Driver/Src/stm32f4xx_hal_wwdg.c ****   WRITE_REG(hwwdg->Instance->CR, (WWDG_CR_WDGA | hwwdg->Init.Counter));
 200:HALLIB/STM32F4xx_HAL_Driver/Src/stm32f4xx_hal_wwdg.c **** 
ARM GAS  /tmp/cccBHh9E.s 			page 5


 201:HALLIB/STM32F4xx_HAL_Driver/Src/stm32f4xx_hal_wwdg.c ****   /* Set WWDG Prescaler and Window */
 202:HALLIB/STM32F4xx_HAL_Driver/Src/stm32f4xx_hal_wwdg.c ****   WRITE_REG(hwwdg->Instance->CFR, (hwwdg->Init.EWIMode | hwwdg->Init.Prescaler | hwwdg->Init.Window
 203:HALLIB/STM32F4xx_HAL_Driver/Src/stm32f4xx_hal_wwdg.c **** 
 204:HALLIB/STM32F4xx_HAL_Driver/Src/stm32f4xx_hal_wwdg.c ****   /* Return function status */
 205:HALLIB/STM32F4xx_HAL_Driver/Src/stm32f4xx_hal_wwdg.c ****   return HAL_OK;
 206:HALLIB/STM32F4xx_HAL_Driver/Src/stm32f4xx_hal_wwdg.c **** }
 207:HALLIB/STM32F4xx_HAL_Driver/Src/stm32f4xx_hal_wwdg.c **** 
 208:HALLIB/STM32F4xx_HAL_Driver/Src/stm32f4xx_hal_wwdg.c **** 
 209:HALLIB/STM32F4xx_HAL_Driver/Src/stm32f4xx_hal_wwdg.c **** /**
 210:HALLIB/STM32F4xx_HAL_Driver/Src/stm32f4xx_hal_wwdg.c ****   * @brief  Initialize the WWDG MSP.
 211:HALLIB/STM32F4xx_HAL_Driver/Src/stm32f4xx_hal_wwdg.c ****   * @param  hwwdg  pointer to a WWDG_HandleTypeDef structure that contains
 212:HALLIB/STM32F4xx_HAL_Driver/Src/stm32f4xx_hal_wwdg.c ****   *                the configuration information for the specified WWDG module.
 213:HALLIB/STM32F4xx_HAL_Driver/Src/stm32f4xx_hal_wwdg.c ****   * @note   When rewriting this function in user file, mechanism may be added
 214:HALLIB/STM32F4xx_HAL_Driver/Src/stm32f4xx_hal_wwdg.c ****   *         to avoid multiple initialize when HAL_WWDG_Init function is called
 215:HALLIB/STM32F4xx_HAL_Driver/Src/stm32f4xx_hal_wwdg.c ****   *         again to change parameters.
 216:HALLIB/STM32F4xx_HAL_Driver/Src/stm32f4xx_hal_wwdg.c ****   * @retval None
 217:HALLIB/STM32F4xx_HAL_Driver/Src/stm32f4xx_hal_wwdg.c ****   */
 218:HALLIB/STM32F4xx_HAL_Driver/Src/stm32f4xx_hal_wwdg.c **** __weak void HAL_WWDG_MspInit(WWDG_HandleTypeDef *hwwdg)
 219:HALLIB/STM32F4xx_HAL_Driver/Src/stm32f4xx_hal_wwdg.c **** {
  30              		.loc 1 219 1 view -0
  31              		.cfi_startproc
  32              		@ args = 0, pretend = 0, frame = 0
  33              		@ frame_needed = 0, uses_anonymous_args = 0
  34              		@ link register save eliminated.
 220:HALLIB/STM32F4xx_HAL_Driver/Src/stm32f4xx_hal_wwdg.c ****   /* Prevent unused argument(s) compilation warning */
 221:HALLIB/STM32F4xx_HAL_Driver/Src/stm32f4xx_hal_wwdg.c ****   UNUSED(hwwdg);
  35              		.loc 1 221 3 view .LVU1
 222:HALLIB/STM32F4xx_HAL_Driver/Src/stm32f4xx_hal_wwdg.c **** 
 223:HALLIB/STM32F4xx_HAL_Driver/Src/stm32f4xx_hal_wwdg.c ****   /* NOTE: This function should not be modified, when the callback is needed,
 224:HALLIB/STM32F4xx_HAL_Driver/Src/stm32f4xx_hal_wwdg.c ****            the HAL_WWDG_MspInit could be implemented in the user file
 225:HALLIB/STM32F4xx_HAL_Driver/Src/stm32f4xx_hal_wwdg.c ****    */
 226:HALLIB/STM32F4xx_HAL_Driver/Src/stm32f4xx_hal_wwdg.c **** }
  36              		.loc 1 226 1 is_stmt 0 view .LVU2
  37 0000 7047     		bx	lr
  38              		.cfi_endproc
  39              	.LFE133:
  41              		.section	.text.HAL_WWDG_Init,"ax",%progbits
  42              		.align	1
  43              		.global	HAL_WWDG_Init
  44              		.syntax unified
  45              		.thumb
  46              		.thumb_func
  47              		.fpu fpv4-sp-d16
  49              	HAL_WWDG_Init:
  50              	.LVL1:
  51              	.LFB132:
 165:HALLIB/STM32F4xx_HAL_Driver/Src/stm32f4xx_hal_wwdg.c ****   /* Check the WWDG handle allocation */
  52              		.loc 1 165 1 is_stmt 1 view -0
  53              		.cfi_startproc
  54              		@ args = 0, pretend = 0, frame = 0
  55              		@ frame_needed = 0, uses_anonymous_args = 0
 167:HALLIB/STM32F4xx_HAL_Driver/Src/stm32f4xx_hal_wwdg.c ****   {
  56              		.loc 1 167 3 view .LVU4
 167:HALLIB/STM32F4xx_HAL_Driver/Src/stm32f4xx_hal_wwdg.c ****   {
  57              		.loc 1 167 6 is_stmt 0 view .LVU5
  58 0000 88B1     		cbz	r0, .L4
 165:HALLIB/STM32F4xx_HAL_Driver/Src/stm32f4xx_hal_wwdg.c ****   /* Check the WWDG handle allocation */
ARM GAS  /tmp/cccBHh9E.s 			page 6


  59              		.loc 1 165 1 view .LVU6
  60 0002 10B5     		push	{r4, lr}
  61              	.LCFI0:
  62              		.cfi_def_cfa_offset 8
  63              		.cfi_offset 4, -8
  64              		.cfi_offset 14, -4
  65 0004 0446     		mov	r4, r0
 173:HALLIB/STM32F4xx_HAL_Driver/Src/stm32f4xx_hal_wwdg.c ****   assert_param(IS_WWDG_PRESCALER(hwwdg->Init.Prescaler));
  66              		.loc 1 173 3 is_stmt 1 view .LVU7
 174:HALLIB/STM32F4xx_HAL_Driver/Src/stm32f4xx_hal_wwdg.c ****   assert_param(IS_WWDG_WINDOW(hwwdg->Init.Window));
  67              		.loc 1 174 3 view .LVU8
 175:HALLIB/STM32F4xx_HAL_Driver/Src/stm32f4xx_hal_wwdg.c ****   assert_param(IS_WWDG_COUNTER(hwwdg->Init.Counter));
  68              		.loc 1 175 3 view .LVU9
 176:HALLIB/STM32F4xx_HAL_Driver/Src/stm32f4xx_hal_wwdg.c ****   assert_param(IS_WWDG_EWI_MODE(hwwdg->Init.EWIMode));
  69              		.loc 1 176 3 view .LVU10
 177:HALLIB/STM32F4xx_HAL_Driver/Src/stm32f4xx_hal_wwdg.c **** 
  70              		.loc 1 177 3 view .LVU11
 195:HALLIB/STM32F4xx_HAL_Driver/Src/stm32f4xx_hal_wwdg.c **** #endif
  71              		.loc 1 195 3 view .LVU12
  72 0006 FFF7FEFF 		bl	HAL_WWDG_MspInit
  73              	.LVL2:
 199:HALLIB/STM32F4xx_HAL_Driver/Src/stm32f4xx_hal_wwdg.c **** 
  74              		.loc 1 199 3 view .LVU13
  75 000a E368     		ldr	r3, [r4, #12]
  76 000c 2268     		ldr	r2, [r4]
  77 000e 43F08003 		orr	r3, r3, #128
  78 0012 1360     		str	r3, [r2]
 202:HALLIB/STM32F4xx_HAL_Driver/Src/stm32f4xx_hal_wwdg.c **** 
  79              		.loc 1 202 3 view .LVU14
  80 0014 2369     		ldr	r3, [r4, #16]
  81 0016 6268     		ldr	r2, [r4, #4]
  82 0018 1343     		orrs	r3, r3, r2
  83 001a A168     		ldr	r1, [r4, #8]
  84 001c 2268     		ldr	r2, [r4]
  85 001e 0B43     		orrs	r3, r3, r1
  86 0020 5360     		str	r3, [r2, #4]
 205:HALLIB/STM32F4xx_HAL_Driver/Src/stm32f4xx_hal_wwdg.c **** }
  87              		.loc 1 205 3 view .LVU15
 205:HALLIB/STM32F4xx_HAL_Driver/Src/stm32f4xx_hal_wwdg.c **** }
  88              		.loc 1 205 10 is_stmt 0 view .LVU16
  89 0022 0020     		movs	r0, #0
 206:HALLIB/STM32F4xx_HAL_Driver/Src/stm32f4xx_hal_wwdg.c **** 
  90              		.loc 1 206 1 view .LVU17
  91 0024 10BD     		pop	{r4, pc}
  92              	.LVL3:
  93              	.L4:
  94              	.LCFI1:
  95              		.cfi_def_cfa_offset 0
  96              		.cfi_restore 4
  97              		.cfi_restore 14
 169:HALLIB/STM32F4xx_HAL_Driver/Src/stm32f4xx_hal_wwdg.c ****   }
  98              		.loc 1 169 12 view .LVU18
  99 0026 0120     		movs	r0, #1
 100              	.LVL4:
 206:HALLIB/STM32F4xx_HAL_Driver/Src/stm32f4xx_hal_wwdg.c **** 
 101              		.loc 1 206 1 view .LVU19
 102 0028 7047     		bx	lr
ARM GAS  /tmp/cccBHh9E.s 			page 7


 103              		.cfi_endproc
 104              	.LFE132:
 106              		.section	.text.HAL_WWDG_Refresh,"ax",%progbits
 107              		.align	1
 108              		.global	HAL_WWDG_Refresh
 109              		.syntax unified
 110              		.thumb
 111              		.thumb_func
 112              		.fpu fpv4-sp-d16
 114              	HAL_WWDG_Refresh:
 115              	.LVL5:
 116              	.LFB134:
 227:HALLIB/STM32F4xx_HAL_Driver/Src/stm32f4xx_hal_wwdg.c **** 
 228:HALLIB/STM32F4xx_HAL_Driver/Src/stm32f4xx_hal_wwdg.c **** 
 229:HALLIB/STM32F4xx_HAL_Driver/Src/stm32f4xx_hal_wwdg.c **** #if (USE_HAL_WWDG_REGISTER_CALLBACKS == 1)
 230:HALLIB/STM32F4xx_HAL_Driver/Src/stm32f4xx_hal_wwdg.c **** /**
 231:HALLIB/STM32F4xx_HAL_Driver/Src/stm32f4xx_hal_wwdg.c ****   * @brief  Register a User WWDG Callback
 232:HALLIB/STM32F4xx_HAL_Driver/Src/stm32f4xx_hal_wwdg.c ****   *         To be used instead of the weak (surcharged) predefined callback
 233:HALLIB/STM32F4xx_HAL_Driver/Src/stm32f4xx_hal_wwdg.c ****   * @param  hwwdg WWDG handle
 234:HALLIB/STM32F4xx_HAL_Driver/Src/stm32f4xx_hal_wwdg.c ****   * @param  CallbackID ID of the callback to be registered
 235:HALLIB/STM32F4xx_HAL_Driver/Src/stm32f4xx_hal_wwdg.c ****   *         This parameter can be one of the following values:
 236:HALLIB/STM32F4xx_HAL_Driver/Src/stm32f4xx_hal_wwdg.c ****   *           @arg @ref HAL_WWDG_EWI_CB_ID Early WakeUp Interrupt Callback ID
 237:HALLIB/STM32F4xx_HAL_Driver/Src/stm32f4xx_hal_wwdg.c ****   *           @arg @ref HAL_WWDG_MSPINIT_CB_ID MspInit callback ID
 238:HALLIB/STM32F4xx_HAL_Driver/Src/stm32f4xx_hal_wwdg.c ****   * @param  pCallback pointer to the Callback function
 239:HALLIB/STM32F4xx_HAL_Driver/Src/stm32f4xx_hal_wwdg.c ****   * @retval status
 240:HALLIB/STM32F4xx_HAL_Driver/Src/stm32f4xx_hal_wwdg.c ****   */
 241:HALLIB/STM32F4xx_HAL_Driver/Src/stm32f4xx_hal_wwdg.c **** HAL_StatusTypeDef HAL_WWDG_RegisterCallback(WWDG_HandleTypeDef *hwwdg, HAL_WWDG_CallbackIDTypeDef C
 242:HALLIB/STM32F4xx_HAL_Driver/Src/stm32f4xx_hal_wwdg.c **** {
 243:HALLIB/STM32F4xx_HAL_Driver/Src/stm32f4xx_hal_wwdg.c ****   HAL_StatusTypeDef status = HAL_OK;
 244:HALLIB/STM32F4xx_HAL_Driver/Src/stm32f4xx_hal_wwdg.c **** 
 245:HALLIB/STM32F4xx_HAL_Driver/Src/stm32f4xx_hal_wwdg.c ****   if(pCallback == NULL)
 246:HALLIB/STM32F4xx_HAL_Driver/Src/stm32f4xx_hal_wwdg.c ****   {
 247:HALLIB/STM32F4xx_HAL_Driver/Src/stm32f4xx_hal_wwdg.c ****     status = HAL_ERROR;
 248:HALLIB/STM32F4xx_HAL_Driver/Src/stm32f4xx_hal_wwdg.c ****   }
 249:HALLIB/STM32F4xx_HAL_Driver/Src/stm32f4xx_hal_wwdg.c ****   else
 250:HALLIB/STM32F4xx_HAL_Driver/Src/stm32f4xx_hal_wwdg.c ****   {
 251:HALLIB/STM32F4xx_HAL_Driver/Src/stm32f4xx_hal_wwdg.c ****     switch(CallbackID)
 252:HALLIB/STM32F4xx_HAL_Driver/Src/stm32f4xx_hal_wwdg.c ****     {
 253:HALLIB/STM32F4xx_HAL_Driver/Src/stm32f4xx_hal_wwdg.c ****       case HAL_WWDG_EWI_CB_ID:
 254:HALLIB/STM32F4xx_HAL_Driver/Src/stm32f4xx_hal_wwdg.c ****         hwwdg->EwiCallback = pCallback;
 255:HALLIB/STM32F4xx_HAL_Driver/Src/stm32f4xx_hal_wwdg.c ****         break;
 256:HALLIB/STM32F4xx_HAL_Driver/Src/stm32f4xx_hal_wwdg.c **** 
 257:HALLIB/STM32F4xx_HAL_Driver/Src/stm32f4xx_hal_wwdg.c ****       case HAL_WWDG_MSPINIT_CB_ID:
 258:HALLIB/STM32F4xx_HAL_Driver/Src/stm32f4xx_hal_wwdg.c ****         hwwdg->MspInitCallback = pCallback;
 259:HALLIB/STM32F4xx_HAL_Driver/Src/stm32f4xx_hal_wwdg.c ****         break;
 260:HALLIB/STM32F4xx_HAL_Driver/Src/stm32f4xx_hal_wwdg.c **** 
 261:HALLIB/STM32F4xx_HAL_Driver/Src/stm32f4xx_hal_wwdg.c ****       default:
 262:HALLIB/STM32F4xx_HAL_Driver/Src/stm32f4xx_hal_wwdg.c ****         status = HAL_ERROR;
 263:HALLIB/STM32F4xx_HAL_Driver/Src/stm32f4xx_hal_wwdg.c ****         break;
 264:HALLIB/STM32F4xx_HAL_Driver/Src/stm32f4xx_hal_wwdg.c ****     }
 265:HALLIB/STM32F4xx_HAL_Driver/Src/stm32f4xx_hal_wwdg.c ****   }
 266:HALLIB/STM32F4xx_HAL_Driver/Src/stm32f4xx_hal_wwdg.c **** 
 267:HALLIB/STM32F4xx_HAL_Driver/Src/stm32f4xx_hal_wwdg.c ****   return status;
 268:HALLIB/STM32F4xx_HAL_Driver/Src/stm32f4xx_hal_wwdg.c **** }
 269:HALLIB/STM32F4xx_HAL_Driver/Src/stm32f4xx_hal_wwdg.c **** 
 270:HALLIB/STM32F4xx_HAL_Driver/Src/stm32f4xx_hal_wwdg.c **** 
 271:HALLIB/STM32F4xx_HAL_Driver/Src/stm32f4xx_hal_wwdg.c **** /**
ARM GAS  /tmp/cccBHh9E.s 			page 8


 272:HALLIB/STM32F4xx_HAL_Driver/Src/stm32f4xx_hal_wwdg.c ****   * @brief  Unregister a WWDG Callback
 273:HALLIB/STM32F4xx_HAL_Driver/Src/stm32f4xx_hal_wwdg.c ****   *         WWDG Callback is redirected to the weak (surcharged) predefined callback 
 274:HALLIB/STM32F4xx_HAL_Driver/Src/stm32f4xx_hal_wwdg.c ****   * @param  hwwdg WWDG handle
 275:HALLIB/STM32F4xx_HAL_Driver/Src/stm32f4xx_hal_wwdg.c ****   * @param  CallbackID ID of the callback to be registered
 276:HALLIB/STM32F4xx_HAL_Driver/Src/stm32f4xx_hal_wwdg.c ****   *         This parameter can be one of the following values:
 277:HALLIB/STM32F4xx_HAL_Driver/Src/stm32f4xx_hal_wwdg.c ****   *           @arg @ref HAL_WWDG_EWI_CB_ID Early WakeUp Interrupt Callback ID
 278:HALLIB/STM32F4xx_HAL_Driver/Src/stm32f4xx_hal_wwdg.c ****   *           @arg @ref HAL_WWDG_MSPINIT_CB_ID MspInit callback ID
 279:HALLIB/STM32F4xx_HAL_Driver/Src/stm32f4xx_hal_wwdg.c ****   * @retval status
 280:HALLIB/STM32F4xx_HAL_Driver/Src/stm32f4xx_hal_wwdg.c ****   */
 281:HALLIB/STM32F4xx_HAL_Driver/Src/stm32f4xx_hal_wwdg.c **** HAL_StatusTypeDef HAL_WWDG_UnRegisterCallback(WWDG_HandleTypeDef *hwwdg, HAL_WWDG_CallbackIDTypeDef
 282:HALLIB/STM32F4xx_HAL_Driver/Src/stm32f4xx_hal_wwdg.c **** {
 283:HALLIB/STM32F4xx_HAL_Driver/Src/stm32f4xx_hal_wwdg.c ****   HAL_StatusTypeDef status = HAL_OK;
 284:HALLIB/STM32F4xx_HAL_Driver/Src/stm32f4xx_hal_wwdg.c **** 
 285:HALLIB/STM32F4xx_HAL_Driver/Src/stm32f4xx_hal_wwdg.c ****   switch(CallbackID)
 286:HALLIB/STM32F4xx_HAL_Driver/Src/stm32f4xx_hal_wwdg.c ****   {
 287:HALLIB/STM32F4xx_HAL_Driver/Src/stm32f4xx_hal_wwdg.c ****     case HAL_WWDG_EWI_CB_ID:
 288:HALLIB/STM32F4xx_HAL_Driver/Src/stm32f4xx_hal_wwdg.c ****       hwwdg->EwiCallback = HAL_WWDG_EarlyWakeupCallback;
 289:HALLIB/STM32F4xx_HAL_Driver/Src/stm32f4xx_hal_wwdg.c ****       break;
 290:HALLIB/STM32F4xx_HAL_Driver/Src/stm32f4xx_hal_wwdg.c **** 
 291:HALLIB/STM32F4xx_HAL_Driver/Src/stm32f4xx_hal_wwdg.c ****     case HAL_WWDG_MSPINIT_CB_ID:
 292:HALLIB/STM32F4xx_HAL_Driver/Src/stm32f4xx_hal_wwdg.c ****       hwwdg->MspInitCallback = HAL_WWDG_MspInit;
 293:HALLIB/STM32F4xx_HAL_Driver/Src/stm32f4xx_hal_wwdg.c ****       break;
 294:HALLIB/STM32F4xx_HAL_Driver/Src/stm32f4xx_hal_wwdg.c **** 
 295:HALLIB/STM32F4xx_HAL_Driver/Src/stm32f4xx_hal_wwdg.c ****     default:
 296:HALLIB/STM32F4xx_HAL_Driver/Src/stm32f4xx_hal_wwdg.c ****       status = HAL_ERROR;
 297:HALLIB/STM32F4xx_HAL_Driver/Src/stm32f4xx_hal_wwdg.c ****       break;
 298:HALLIB/STM32F4xx_HAL_Driver/Src/stm32f4xx_hal_wwdg.c ****   }
 299:HALLIB/STM32F4xx_HAL_Driver/Src/stm32f4xx_hal_wwdg.c **** 
 300:HALLIB/STM32F4xx_HAL_Driver/Src/stm32f4xx_hal_wwdg.c ****   return status;
 301:HALLIB/STM32F4xx_HAL_Driver/Src/stm32f4xx_hal_wwdg.c **** }
 302:HALLIB/STM32F4xx_HAL_Driver/Src/stm32f4xx_hal_wwdg.c **** #endif
 303:HALLIB/STM32F4xx_HAL_Driver/Src/stm32f4xx_hal_wwdg.c **** 
 304:HALLIB/STM32F4xx_HAL_Driver/Src/stm32f4xx_hal_wwdg.c **** /**
 305:HALLIB/STM32F4xx_HAL_Driver/Src/stm32f4xx_hal_wwdg.c ****   * @}
 306:HALLIB/STM32F4xx_HAL_Driver/Src/stm32f4xx_hal_wwdg.c ****   */
 307:HALLIB/STM32F4xx_HAL_Driver/Src/stm32f4xx_hal_wwdg.c **** 
 308:HALLIB/STM32F4xx_HAL_Driver/Src/stm32f4xx_hal_wwdg.c **** /** @defgroup WWDG_Exported_Functions_Group2 IO operation functions
 309:HALLIB/STM32F4xx_HAL_Driver/Src/stm32f4xx_hal_wwdg.c ****  *  @brief    IO operation functions
 310:HALLIB/STM32F4xx_HAL_Driver/Src/stm32f4xx_hal_wwdg.c ****  *
 311:HALLIB/STM32F4xx_HAL_Driver/Src/stm32f4xx_hal_wwdg.c **** @verbatim
 312:HALLIB/STM32F4xx_HAL_Driver/Src/stm32f4xx_hal_wwdg.c ****   ==============================================================================
 313:HALLIB/STM32F4xx_HAL_Driver/Src/stm32f4xx_hal_wwdg.c ****                       ##### IO operation functions #####
 314:HALLIB/STM32F4xx_HAL_Driver/Src/stm32f4xx_hal_wwdg.c ****   ==============================================================================
 315:HALLIB/STM32F4xx_HAL_Driver/Src/stm32f4xx_hal_wwdg.c ****   [..]
 316:HALLIB/STM32F4xx_HAL_Driver/Src/stm32f4xx_hal_wwdg.c ****     This section provides functions allowing to:
 317:HALLIB/STM32F4xx_HAL_Driver/Src/stm32f4xx_hal_wwdg.c ****     (+) Refresh the WWDG.
 318:HALLIB/STM32F4xx_HAL_Driver/Src/stm32f4xx_hal_wwdg.c ****     (+) Handle WWDG interrupt request and associated function callback.
 319:HALLIB/STM32F4xx_HAL_Driver/Src/stm32f4xx_hal_wwdg.c **** 
 320:HALLIB/STM32F4xx_HAL_Driver/Src/stm32f4xx_hal_wwdg.c **** @endverbatim
 321:HALLIB/STM32F4xx_HAL_Driver/Src/stm32f4xx_hal_wwdg.c ****   * @{
 322:HALLIB/STM32F4xx_HAL_Driver/Src/stm32f4xx_hal_wwdg.c ****   */
 323:HALLIB/STM32F4xx_HAL_Driver/Src/stm32f4xx_hal_wwdg.c **** 
 324:HALLIB/STM32F4xx_HAL_Driver/Src/stm32f4xx_hal_wwdg.c **** /**
 325:HALLIB/STM32F4xx_HAL_Driver/Src/stm32f4xx_hal_wwdg.c ****   * @brief  Refresh the WWDG.
 326:HALLIB/STM32F4xx_HAL_Driver/Src/stm32f4xx_hal_wwdg.c ****   * @param  hwwdg  pointer to a WWDG_HandleTypeDef structure that contains
 327:HALLIB/STM32F4xx_HAL_Driver/Src/stm32f4xx_hal_wwdg.c ****   *                the configuration information for the specified WWDG module.
 328:HALLIB/STM32F4xx_HAL_Driver/Src/stm32f4xx_hal_wwdg.c ****   * @retval HAL status
ARM GAS  /tmp/cccBHh9E.s 			page 9


 329:HALLIB/STM32F4xx_HAL_Driver/Src/stm32f4xx_hal_wwdg.c ****   */
 330:HALLIB/STM32F4xx_HAL_Driver/Src/stm32f4xx_hal_wwdg.c **** HAL_StatusTypeDef HAL_WWDG_Refresh(WWDG_HandleTypeDef *hwwdg)
 331:HALLIB/STM32F4xx_HAL_Driver/Src/stm32f4xx_hal_wwdg.c **** {
 117              		.loc 1 331 1 is_stmt 1 view -0
 118              		.cfi_startproc
 119              		@ args = 0, pretend = 0, frame = 0
 120              		@ frame_needed = 0, uses_anonymous_args = 0
 121              		@ link register save eliminated.
 332:HALLIB/STM32F4xx_HAL_Driver/Src/stm32f4xx_hal_wwdg.c ****   /* Write to WWDG CR the WWDG Counter value to refresh with */
 333:HALLIB/STM32F4xx_HAL_Driver/Src/stm32f4xx_hal_wwdg.c ****   WRITE_REG(hwwdg->Instance->CR, (hwwdg->Init.Counter));
 122              		.loc 1 333 3 view .LVU21
 123 0000 0368     		ldr	r3, [r0]
 124 0002 C268     		ldr	r2, [r0, #12]
 125 0004 1A60     		str	r2, [r3]
 334:HALLIB/STM32F4xx_HAL_Driver/Src/stm32f4xx_hal_wwdg.c **** 
 335:HALLIB/STM32F4xx_HAL_Driver/Src/stm32f4xx_hal_wwdg.c ****   /* Return function status */
 336:HALLIB/STM32F4xx_HAL_Driver/Src/stm32f4xx_hal_wwdg.c ****   return HAL_OK;
 126              		.loc 1 336 3 view .LVU22
 337:HALLIB/STM32F4xx_HAL_Driver/Src/stm32f4xx_hal_wwdg.c **** }
 127              		.loc 1 337 1 is_stmt 0 view .LVU23
 128 0006 0020     		movs	r0, #0
 129              	.LVL6:
 130              		.loc 1 337 1 view .LVU24
 131 0008 7047     		bx	lr
 132              		.cfi_endproc
 133              	.LFE134:
 135              		.section	.text.HAL_WWDG_EarlyWakeupCallback,"ax",%progbits
 136              		.align	1
 137              		.weak	HAL_WWDG_EarlyWakeupCallback
 138              		.syntax unified
 139              		.thumb
 140              		.thumb_func
 141              		.fpu fpv4-sp-d16
 143              	HAL_WWDG_EarlyWakeupCallback:
 144              	.LVL7:
 145              	.LFB136:
 338:HALLIB/STM32F4xx_HAL_Driver/Src/stm32f4xx_hal_wwdg.c **** 
 339:HALLIB/STM32F4xx_HAL_Driver/Src/stm32f4xx_hal_wwdg.c **** /**
 340:HALLIB/STM32F4xx_HAL_Driver/Src/stm32f4xx_hal_wwdg.c ****   * @brief  Handle WWDG interrupt request.
 341:HALLIB/STM32F4xx_HAL_Driver/Src/stm32f4xx_hal_wwdg.c ****   * @note   The Early Wakeup Interrupt (EWI) can be used if specific safety operations
 342:HALLIB/STM32F4xx_HAL_Driver/Src/stm32f4xx_hal_wwdg.c ****   *         or data logging must be performed before the actual reset is generated.
 343:HALLIB/STM32F4xx_HAL_Driver/Src/stm32f4xx_hal_wwdg.c ****   *         The EWI interrupt is enabled by calling HAL_WWDG_Init function with
 344:HALLIB/STM32F4xx_HAL_Driver/Src/stm32f4xx_hal_wwdg.c ****   *         EWIMode set to WWDG_EWI_ENABLE.
 345:HALLIB/STM32F4xx_HAL_Driver/Src/stm32f4xx_hal_wwdg.c ****   *         When the downcounter reaches the value 0x40, and EWI interrupt is
 346:HALLIB/STM32F4xx_HAL_Driver/Src/stm32f4xx_hal_wwdg.c ****   *         generated and the corresponding Interrupt Service Routine (ISR) can
 347:HALLIB/STM32F4xx_HAL_Driver/Src/stm32f4xx_hal_wwdg.c ****   *         be used to trigger specific actions (such as communications or data
 348:HALLIB/STM32F4xx_HAL_Driver/Src/stm32f4xx_hal_wwdg.c ****   *         logging), before resetting the device.
 349:HALLIB/STM32F4xx_HAL_Driver/Src/stm32f4xx_hal_wwdg.c ****   * @param  hwwdg  pointer to a WWDG_HandleTypeDef structure that contains
 350:HALLIB/STM32F4xx_HAL_Driver/Src/stm32f4xx_hal_wwdg.c ****   *                the configuration information for the specified WWDG module.
 351:HALLIB/STM32F4xx_HAL_Driver/Src/stm32f4xx_hal_wwdg.c ****   * @retval None
 352:HALLIB/STM32F4xx_HAL_Driver/Src/stm32f4xx_hal_wwdg.c ****   */
 353:HALLIB/STM32F4xx_HAL_Driver/Src/stm32f4xx_hal_wwdg.c **** void HAL_WWDG_IRQHandler(WWDG_HandleTypeDef *hwwdg)
 354:HALLIB/STM32F4xx_HAL_Driver/Src/stm32f4xx_hal_wwdg.c **** {
 355:HALLIB/STM32F4xx_HAL_Driver/Src/stm32f4xx_hal_wwdg.c ****   /* Check if Early Wakeup Interrupt is enable */
 356:HALLIB/STM32F4xx_HAL_Driver/Src/stm32f4xx_hal_wwdg.c ****   if (__HAL_WWDG_GET_IT_SOURCE(hwwdg, WWDG_IT_EWI) != RESET)
 357:HALLIB/STM32F4xx_HAL_Driver/Src/stm32f4xx_hal_wwdg.c ****   {
 358:HALLIB/STM32F4xx_HAL_Driver/Src/stm32f4xx_hal_wwdg.c ****     /* Check if WWDG Early Wakeup Interrupt occurred */
ARM GAS  /tmp/cccBHh9E.s 			page 10


 359:HALLIB/STM32F4xx_HAL_Driver/Src/stm32f4xx_hal_wwdg.c ****     if (__HAL_WWDG_GET_FLAG(hwwdg, WWDG_FLAG_EWIF) != RESET)
 360:HALLIB/STM32F4xx_HAL_Driver/Src/stm32f4xx_hal_wwdg.c ****     {
 361:HALLIB/STM32F4xx_HAL_Driver/Src/stm32f4xx_hal_wwdg.c ****       /* Clear the WWDG Early Wakeup flag */
 362:HALLIB/STM32F4xx_HAL_Driver/Src/stm32f4xx_hal_wwdg.c ****       __HAL_WWDG_CLEAR_FLAG(hwwdg, WWDG_FLAG_EWIF);
 363:HALLIB/STM32F4xx_HAL_Driver/Src/stm32f4xx_hal_wwdg.c **** 
 364:HALLIB/STM32F4xx_HAL_Driver/Src/stm32f4xx_hal_wwdg.c **** #if (USE_HAL_WWDG_REGISTER_CALLBACKS == 1)
 365:HALLIB/STM32F4xx_HAL_Driver/Src/stm32f4xx_hal_wwdg.c ****       /* Early Wakeup registered callback */
 366:HALLIB/STM32F4xx_HAL_Driver/Src/stm32f4xx_hal_wwdg.c ****       hwwdg->EwiCallback(hwwdg);
 367:HALLIB/STM32F4xx_HAL_Driver/Src/stm32f4xx_hal_wwdg.c **** #else
 368:HALLIB/STM32F4xx_HAL_Driver/Src/stm32f4xx_hal_wwdg.c ****       /* Early Wakeup callback */
 369:HALLIB/STM32F4xx_HAL_Driver/Src/stm32f4xx_hal_wwdg.c ****       HAL_WWDG_EarlyWakeupCallback(hwwdg);
 370:HALLIB/STM32F4xx_HAL_Driver/Src/stm32f4xx_hal_wwdg.c **** #endif
 371:HALLIB/STM32F4xx_HAL_Driver/Src/stm32f4xx_hal_wwdg.c ****     }
 372:HALLIB/STM32F4xx_HAL_Driver/Src/stm32f4xx_hal_wwdg.c ****   }
 373:HALLIB/STM32F4xx_HAL_Driver/Src/stm32f4xx_hal_wwdg.c **** }
 374:HALLIB/STM32F4xx_HAL_Driver/Src/stm32f4xx_hal_wwdg.c **** 
 375:HALLIB/STM32F4xx_HAL_Driver/Src/stm32f4xx_hal_wwdg.c **** 
 376:HALLIB/STM32F4xx_HAL_Driver/Src/stm32f4xx_hal_wwdg.c **** /**
 377:HALLIB/STM32F4xx_HAL_Driver/Src/stm32f4xx_hal_wwdg.c ****   * @brief  WWDG Early Wakeup callback.
 378:HALLIB/STM32F4xx_HAL_Driver/Src/stm32f4xx_hal_wwdg.c ****   * @param  hwwdg  pointer to a WWDG_HandleTypeDef structure that contains
 379:HALLIB/STM32F4xx_HAL_Driver/Src/stm32f4xx_hal_wwdg.c ****   *                the configuration information for the specified WWDG module.
 380:HALLIB/STM32F4xx_HAL_Driver/Src/stm32f4xx_hal_wwdg.c ****   * @retval None
 381:HALLIB/STM32F4xx_HAL_Driver/Src/stm32f4xx_hal_wwdg.c ****   */
 382:HALLIB/STM32F4xx_HAL_Driver/Src/stm32f4xx_hal_wwdg.c **** __weak void HAL_WWDG_EarlyWakeupCallback(WWDG_HandleTypeDef *hwwdg)
 383:HALLIB/STM32F4xx_HAL_Driver/Src/stm32f4xx_hal_wwdg.c **** {
 146              		.loc 1 383 1 is_stmt 1 view -0
 147              		.cfi_startproc
 148              		@ args = 0, pretend = 0, frame = 0
 149              		@ frame_needed = 0, uses_anonymous_args = 0
 150              		@ link register save eliminated.
 384:HALLIB/STM32F4xx_HAL_Driver/Src/stm32f4xx_hal_wwdg.c ****   /* Prevent unused argument(s) compilation warning */
 385:HALLIB/STM32F4xx_HAL_Driver/Src/stm32f4xx_hal_wwdg.c ****   UNUSED(hwwdg);
 151              		.loc 1 385 3 view .LVU26
 386:HALLIB/STM32F4xx_HAL_Driver/Src/stm32f4xx_hal_wwdg.c **** 
 387:HALLIB/STM32F4xx_HAL_Driver/Src/stm32f4xx_hal_wwdg.c ****   /* NOTE: This function should not be modified, when the callback is needed,
 388:HALLIB/STM32F4xx_HAL_Driver/Src/stm32f4xx_hal_wwdg.c ****            the HAL_WWDG_EarlyWakeupCallback could be implemented in the user file
 389:HALLIB/STM32F4xx_HAL_Driver/Src/stm32f4xx_hal_wwdg.c ****    */
 390:HALLIB/STM32F4xx_HAL_Driver/Src/stm32f4xx_hal_wwdg.c **** }
 152              		.loc 1 390 1 is_stmt 0 view .LVU27
 153 0000 7047     		bx	lr
 154              		.cfi_endproc
 155              	.LFE136:
 157              		.section	.text.HAL_WWDG_IRQHandler,"ax",%progbits
 158              		.align	1
 159              		.global	HAL_WWDG_IRQHandler
 160              		.syntax unified
 161              		.thumb
 162              		.thumb_func
 163              		.fpu fpv4-sp-d16
 165              	HAL_WWDG_IRQHandler:
 166              	.LVL8:
 167              	.LFB135:
 354:HALLIB/STM32F4xx_HAL_Driver/Src/stm32f4xx_hal_wwdg.c ****   /* Check if Early Wakeup Interrupt is enable */
 168              		.loc 1 354 1 is_stmt 1 view -0
 169              		.cfi_startproc
 170              		@ args = 0, pretend = 0, frame = 0
 171              		@ frame_needed = 0, uses_anonymous_args = 0
ARM GAS  /tmp/cccBHh9E.s 			page 11


 354:HALLIB/STM32F4xx_HAL_Driver/Src/stm32f4xx_hal_wwdg.c ****   /* Check if Early Wakeup Interrupt is enable */
 172              		.loc 1 354 1 is_stmt 0 view .LVU29
 173 0000 08B5     		push	{r3, lr}
 174              	.LCFI2:
 175              		.cfi_def_cfa_offset 8
 176              		.cfi_offset 3, -8
 177              		.cfi_offset 14, -4
 356:HALLIB/STM32F4xx_HAL_Driver/Src/stm32f4xx_hal_wwdg.c ****   {
 178              		.loc 1 356 3 is_stmt 1 view .LVU30
 356:HALLIB/STM32F4xx_HAL_Driver/Src/stm32f4xx_hal_wwdg.c ****   {
 179              		.loc 1 356 7 is_stmt 0 view .LVU31
 180 0002 0368     		ldr	r3, [r0]
 181 0004 5A68     		ldr	r2, [r3, #4]
 356:HALLIB/STM32F4xx_HAL_Driver/Src/stm32f4xx_hal_wwdg.c ****   {
 182              		.loc 1 356 6 view .LVU32
 183 0006 12F4007F 		tst	r2, #512
 184 000a 03D0     		beq	.L11
 359:HALLIB/STM32F4xx_HAL_Driver/Src/stm32f4xx_hal_wwdg.c ****     {
 185              		.loc 1 359 5 is_stmt 1 view .LVU33
 359:HALLIB/STM32F4xx_HAL_Driver/Src/stm32f4xx_hal_wwdg.c ****     {
 186              		.loc 1 359 9 is_stmt 0 view .LVU34
 187 000c 9A68     		ldr	r2, [r3, #8]
 359:HALLIB/STM32F4xx_HAL_Driver/Src/stm32f4xx_hal_wwdg.c ****     {
 188              		.loc 1 359 8 view .LVU35
 189 000e 12F0010F 		tst	r2, #1
 190 0012 00D1     		bne	.L14
 191              	.LVL9:
 192              	.L11:
 373:HALLIB/STM32F4xx_HAL_Driver/Src/stm32f4xx_hal_wwdg.c **** 
 193              		.loc 1 373 1 view .LVU36
 194 0014 08BD     		pop	{r3, pc}
 195              	.LVL10:
 196              	.L14:
 362:HALLIB/STM32F4xx_HAL_Driver/Src/stm32f4xx_hal_wwdg.c **** 
 197              		.loc 1 362 7 is_stmt 1 view .LVU37
 198 0016 6FF00102 		mvn	r2, #1
 199 001a 9A60     		str	r2, [r3, #8]
 369:HALLIB/STM32F4xx_HAL_Driver/Src/stm32f4xx_hal_wwdg.c **** #endif
 200              		.loc 1 369 7 view .LVU38
 201 001c FFF7FEFF 		bl	HAL_WWDG_EarlyWakeupCallback
 202              	.LVL11:
 373:HALLIB/STM32F4xx_HAL_Driver/Src/stm32f4xx_hal_wwdg.c **** 
 203              		.loc 1 373 1 is_stmt 0 view .LVU39
 204 0020 F8E7     		b	.L11
 205              		.cfi_endproc
 206              	.LFE135:
 208              		.text
 209              	.Letext0:
 210              		.file 2 "/opt/gcc_arm/gcc-arm-none-eabi-9-2019-q4-major/arm-none-eabi/include/machine/_default_typ
 211              		.file 3 "/opt/gcc_arm/gcc-arm-none-eabi-9-2019-q4-major/arm-none-eabi/include/sys/_stdint.h"
 212              		.file 4 "CORE/core_cm4.h"
 213              		.file 5 "./system_stm32f4xx.h"
 214              		.file 6 "./stm32f407xx.h"
 215              		.file 7 "./stm32f4xx.h"
 216              		.file 8 "HALLIB/STM32F4xx_HAL_Driver/Inc/stm32f4xx_hal_def.h"
 217              		.file 9 "HALLIB/STM32F4xx_HAL_Driver/Inc/stm32f4xx_hal_wwdg.h"
ARM GAS  /tmp/cccBHh9E.s 			page 12

