ARM GAS  /tmp/ccvIVBQe.s 			page 1


   1              		.cpu cortex-m4
   2              		.eabi_attribute 27, 1
   3              		.eabi_attribute 28, 1
   4              		.eabi_attribute 20, 1
   5              		.eabi_attribute 21, 1
   6              		.eabi_attribute 23, 3
   7              		.eabi_attribute 24, 1
   8              		.eabi_attribute 25, 1
   9              		.eabi_attribute 26, 1
  10              		.eabi_attribute 30, 1
  11              		.eabi_attribute 34, 1
  12              		.eabi_attribute 18, 4
  13              		.file	"stm32f4xx_hal_rtc_ex.c"
  14              		.text
  15              	.Ltext0:
  16              		.cfi_sections	.debug_frame
  17              		.section	.text.HAL_RTCEx_SetTimeStamp,"ax",%progbits
  18              		.align	1
  19              		.global	HAL_RTCEx_SetTimeStamp
  20              		.arch armv7e-m
  21              		.syntax unified
  22              		.thumb
  23              		.thumb_func
  24              		.fpu fpv4-sp-d16
  26              	HAL_RTCEx_SetTimeStamp:
  27              	.LVL0:
  28              	.LFB239:
  29              		.file 1 "stm32f4xx-hal-driver/Src/stm32f4xx_hal_rtc_ex.c"
   1:stm32f4xx-hal-driver/Src/stm32f4xx_hal_rtc_ex.c **** /**
   2:stm32f4xx-hal-driver/Src/stm32f4xx_hal_rtc_ex.c ****   ******************************************************************************
   3:stm32f4xx-hal-driver/Src/stm32f4xx_hal_rtc_ex.c ****   * @file    stm32f4xx_hal_rtc_ex.c
   4:stm32f4xx-hal-driver/Src/stm32f4xx_hal_rtc_ex.c ****   * @author  MCD Application Team
   5:stm32f4xx-hal-driver/Src/stm32f4xx_hal_rtc_ex.c ****   * @brief   Extended RTC HAL module driver.
   6:stm32f4xx-hal-driver/Src/stm32f4xx_hal_rtc_ex.c ****   *          This file provides firmware functions to manage the following
   7:stm32f4xx-hal-driver/Src/stm32f4xx_hal_rtc_ex.c ****   *          functionalities of the Real-Time Clock (RTC) Extended peripheral:
   8:stm32f4xx-hal-driver/Src/stm32f4xx_hal_rtc_ex.c ****   *           + RTC Timestamp functions
   9:stm32f4xx-hal-driver/Src/stm32f4xx_hal_rtc_ex.c ****   *           + RTC Tamper functions
  10:stm32f4xx-hal-driver/Src/stm32f4xx_hal_rtc_ex.c ****   *           + RTC Wakeup functions
  11:stm32f4xx-hal-driver/Src/stm32f4xx_hal_rtc_ex.c ****   *           + Extended Control functions
  12:stm32f4xx-hal-driver/Src/stm32f4xx_hal_rtc_ex.c ****   *           + Extended RTC features functions
  13:stm32f4xx-hal-driver/Src/stm32f4xx_hal_rtc_ex.c ****   *
  14:stm32f4xx-hal-driver/Src/stm32f4xx_hal_rtc_ex.c ****   ******************************************************************************
  15:stm32f4xx-hal-driver/Src/stm32f4xx_hal_rtc_ex.c ****   * @attention
  16:stm32f4xx-hal-driver/Src/stm32f4xx_hal_rtc_ex.c ****   *
  17:stm32f4xx-hal-driver/Src/stm32f4xx_hal_rtc_ex.c ****   * Copyright (c) 2016 STMicroelectronics.
  18:stm32f4xx-hal-driver/Src/stm32f4xx_hal_rtc_ex.c ****   * All rights reserved.
  19:stm32f4xx-hal-driver/Src/stm32f4xx_hal_rtc_ex.c ****   *
  20:stm32f4xx-hal-driver/Src/stm32f4xx_hal_rtc_ex.c ****   * This software is licensed under terms that can be found in the LICENSE file
  21:stm32f4xx-hal-driver/Src/stm32f4xx_hal_rtc_ex.c ****   * in the root directory of this software component.
  22:stm32f4xx-hal-driver/Src/stm32f4xx_hal_rtc_ex.c ****   * If no LICENSE file comes with this software, it is provided AS-IS.
  23:stm32f4xx-hal-driver/Src/stm32f4xx_hal_rtc_ex.c ****   *
  24:stm32f4xx-hal-driver/Src/stm32f4xx_hal_rtc_ex.c ****   ******************************************************************************
  25:stm32f4xx-hal-driver/Src/stm32f4xx_hal_rtc_ex.c ****   @verbatim
  26:stm32f4xx-hal-driver/Src/stm32f4xx_hal_rtc_ex.c ****   ==============================================================================
  27:stm32f4xx-hal-driver/Src/stm32f4xx_hal_rtc_ex.c ****                         ##### How to use this driver #####
  28:stm32f4xx-hal-driver/Src/stm32f4xx_hal_rtc_ex.c ****   ==============================================================================
  29:stm32f4xx-hal-driver/Src/stm32f4xx_hal_rtc_ex.c ****   [..]
ARM GAS  /tmp/ccvIVBQe.s 			page 2


  30:stm32f4xx-hal-driver/Src/stm32f4xx_hal_rtc_ex.c ****     (+) Enable the RTC domain access.
  31:stm32f4xx-hal-driver/Src/stm32f4xx_hal_rtc_ex.c ****     (+) Configure the RTC Prescaler (Asynchronous and Synchronous) and RTC hour
  32:stm32f4xx-hal-driver/Src/stm32f4xx_hal_rtc_ex.c ****         format using the HAL_RTC_Init() function.
  33:stm32f4xx-hal-driver/Src/stm32f4xx_hal_rtc_ex.c **** 
  34:stm32f4xx-hal-driver/Src/stm32f4xx_hal_rtc_ex.c ****   *** RTC Wakeup configuration ***
  35:stm32f4xx-hal-driver/Src/stm32f4xx_hal_rtc_ex.c ****   ================================
  36:stm32f4xx-hal-driver/Src/stm32f4xx_hal_rtc_ex.c ****   [..]
  37:stm32f4xx-hal-driver/Src/stm32f4xx_hal_rtc_ex.c ****     (+) To configure the RTC Wakeup Clock source and Counter use the
  38:stm32f4xx-hal-driver/Src/stm32f4xx_hal_rtc_ex.c ****         HAL_RTCEx_SetWakeUpTimer() function.
  39:stm32f4xx-hal-driver/Src/stm32f4xx_hal_rtc_ex.c ****         You can also configure the RTC Wakeup timer in interrupt mode using the
  40:stm32f4xx-hal-driver/Src/stm32f4xx_hal_rtc_ex.c ****         HAL_RTCEx_SetWakeUpTimer_IT() function.
  41:stm32f4xx-hal-driver/Src/stm32f4xx_hal_rtc_ex.c ****     (+) To read the RTC Wakeup Counter register, use the HAL_RTCEx_GetWakeUpTimer()
  42:stm32f4xx-hal-driver/Src/stm32f4xx_hal_rtc_ex.c ****         function.
  43:stm32f4xx-hal-driver/Src/stm32f4xx_hal_rtc_ex.c **** 
  44:stm32f4xx-hal-driver/Src/stm32f4xx_hal_rtc_ex.c ****   *** Timestamp configuration ***
  45:stm32f4xx-hal-driver/Src/stm32f4xx_hal_rtc_ex.c ****   ===============================
  46:stm32f4xx-hal-driver/Src/stm32f4xx_hal_rtc_ex.c ****   [..]
  47:stm32f4xx-hal-driver/Src/stm32f4xx_hal_rtc_ex.c ****     (+) To configure the RTC Timestamp use the HAL_RTCEx_SetTimeStamp() function.
  48:stm32f4xx-hal-driver/Src/stm32f4xx_hal_rtc_ex.c ****         You can also configure the RTC Timestamp with interrupt mode using the
  49:stm32f4xx-hal-driver/Src/stm32f4xx_hal_rtc_ex.c ****         HAL_RTCEx_SetTimeStamp_IT() function.
  50:stm32f4xx-hal-driver/Src/stm32f4xx_hal_rtc_ex.c ****     (+) To read the RTC Timestamp Time and Date register, use the
  51:stm32f4xx-hal-driver/Src/stm32f4xx_hal_rtc_ex.c ****         HAL_RTCEx_GetTimeStamp() function.
  52:stm32f4xx-hal-driver/Src/stm32f4xx_hal_rtc_ex.c ****     (+) The Timestamp alternate function can be mapped either to RTC_AF1 (PC13)
  53:stm32f4xx-hal-driver/Src/stm32f4xx_hal_rtc_ex.c ****         or RTC_AF2 (PI8) depending on the value of TSINSEL bit in RTC_TAFCR
  54:stm32f4xx-hal-driver/Src/stm32f4xx_hal_rtc_ex.c ****         register.
  55:stm32f4xx-hal-driver/Src/stm32f4xx_hal_rtc_ex.c ****         For STM32F446xx devices RTC_AF2 corresponds to pin PA0 and not to pin PI8.
  56:stm32f4xx-hal-driver/Src/stm32f4xx_hal_rtc_ex.c ****         The corresponding pin is also selected by HAL_RTCEx_SetTimeStamp()
  57:stm32f4xx-hal-driver/Src/stm32f4xx_hal_rtc_ex.c ****         or HAL_RTCEx_SetTimeStamp_IT() functions.
  58:stm32f4xx-hal-driver/Src/stm32f4xx_hal_rtc_ex.c **** 
  59:stm32f4xx-hal-driver/Src/stm32f4xx_hal_rtc_ex.c ****   *** Tamper configuration ***
  60:stm32f4xx-hal-driver/Src/stm32f4xx_hal_rtc_ex.c ****   ============================
  61:stm32f4xx-hal-driver/Src/stm32f4xx_hal_rtc_ex.c ****   [..]
  62:stm32f4xx-hal-driver/Src/stm32f4xx_hal_rtc_ex.c ****     (+) To enable the RTC Tamper and configure the Tamper filter count, trigger
  63:stm32f4xx-hal-driver/Src/stm32f4xx_hal_rtc_ex.c ****         Edge or Level according to the Tamper filter value (if equal to 0 Edge
  64:stm32f4xx-hal-driver/Src/stm32f4xx_hal_rtc_ex.c ****         else Level), sampling frequency, precharge or discharge and Pull-UP use
  65:stm32f4xx-hal-driver/Src/stm32f4xx_hal_rtc_ex.c ****         the HAL_RTCEx_SetTamper() function.
  66:stm32f4xx-hal-driver/Src/stm32f4xx_hal_rtc_ex.c ****         You can configure RTC Tamper in interrupt mode using HAL_RTCEx_SetTamper_IT()
  67:stm32f4xx-hal-driver/Src/stm32f4xx_hal_rtc_ex.c ****         function.
  68:stm32f4xx-hal-driver/Src/stm32f4xx_hal_rtc_ex.c ****     (+) The TAMPER1 alternate function can be mapped either to RTC_AF1 (PC13)
  69:stm32f4xx-hal-driver/Src/stm32f4xx_hal_rtc_ex.c ****         or RTC_AF2 (PI8) depending on the value of TAMP1INSEL bit in RTC_TAFCR
  70:stm32f4xx-hal-driver/Src/stm32f4xx_hal_rtc_ex.c ****         register.
  71:stm32f4xx-hal-driver/Src/stm32f4xx_hal_rtc_ex.c ****         The corresponding pin is also selected by HAL_RTCEx_SetTamper()
  72:stm32f4xx-hal-driver/Src/stm32f4xx_hal_rtc_ex.c ****         or HAL_RTCEx_SetTamper_IT() functions.
  73:stm32f4xx-hal-driver/Src/stm32f4xx_hal_rtc_ex.c ****     (+) The TAMPER2 alternate function is mapped to RTC_AF2 (PI8).
  74:stm32f4xx-hal-driver/Src/stm32f4xx_hal_rtc_ex.c ****         For STM32F446xx devices RTC_AF2 corresponds to pin PA0 and not to pin PI8.
  75:stm32f4xx-hal-driver/Src/stm32f4xx_hal_rtc_ex.c **** 
  76:stm32f4xx-hal-driver/Src/stm32f4xx_hal_rtc_ex.c ****   *** Backup Data Registers configuration ***
  77:stm32f4xx-hal-driver/Src/stm32f4xx_hal_rtc_ex.c ****   ===========================================
  78:stm32f4xx-hal-driver/Src/stm32f4xx_hal_rtc_ex.c ****   [..]
  79:stm32f4xx-hal-driver/Src/stm32f4xx_hal_rtc_ex.c ****     (+) To write to the RTC Backup Data registers, use the HAL_RTCEx_BKUPWrite()
  80:stm32f4xx-hal-driver/Src/stm32f4xx_hal_rtc_ex.c ****         function.
  81:stm32f4xx-hal-driver/Src/stm32f4xx_hal_rtc_ex.c ****     (+) To read the RTC Backup Data registers, use the HAL_RTCEx_BKUPRead()
  82:stm32f4xx-hal-driver/Src/stm32f4xx_hal_rtc_ex.c ****         function.
  83:stm32f4xx-hal-driver/Src/stm32f4xx_hal_rtc_ex.c **** 
  84:stm32f4xx-hal-driver/Src/stm32f4xx_hal_rtc_ex.c ****   *** Coarse Digital Calibration configuration ***
  85:stm32f4xx-hal-driver/Src/stm32f4xx_hal_rtc_ex.c ****   ================================================
  86:stm32f4xx-hal-driver/Src/stm32f4xx_hal_rtc_ex.c ****   [..]
ARM GAS  /tmp/ccvIVBQe.s 			page 3


  87:stm32f4xx-hal-driver/Src/stm32f4xx_hal_rtc_ex.c ****     (+) The Coarse Digital Calibration can be used to compensate crystal inaccuracy
  88:stm32f4xx-hal-driver/Src/stm32f4xx_hal_rtc_ex.c ****         by setting the DCS bit in RTC_CALIBR register.
  89:stm32f4xx-hal-driver/Src/stm32f4xx_hal_rtc_ex.c ****     (+) When positive calibration is enabled (DCS = ‘0’), 2 asynchronous prescaler
  90:stm32f4xx-hal-driver/Src/stm32f4xx_hal_rtc_ex.c ****         clock cycles are added every minute during 2xDC minutes.
  91:stm32f4xx-hal-driver/Src/stm32f4xx_hal_rtc_ex.c ****         This causes the calendar to be updated sooner, thereby adjusting the
  92:stm32f4xx-hal-driver/Src/stm32f4xx_hal_rtc_ex.c ****         effective RTC frequency to be a bit higher.
  93:stm32f4xx-hal-driver/Src/stm32f4xx_hal_rtc_ex.c ****     (+) When negative calibration is enabled (DCS = ‘1’), 1 asynchronous prescaler
  94:stm32f4xx-hal-driver/Src/stm32f4xx_hal_rtc_ex.c ****         clock cycle is removed every minute during 2xDC minutes.
  95:stm32f4xx-hal-driver/Src/stm32f4xx_hal_rtc_ex.c ****         This causes the calendar to be updated later, thereby adjusting the
  96:stm32f4xx-hal-driver/Src/stm32f4xx_hal_rtc_ex.c ****         effective RTC frequency to be a bit lower.
  97:stm32f4xx-hal-driver/Src/stm32f4xx_hal_rtc_ex.c ****     (+) DC is configured through bits DC[4:0] of RTC_CALIBR register. This number
  98:stm32f4xx-hal-driver/Src/stm32f4xx_hal_rtc_ex.c ****         ranges from 0 to 31 corresponding to a time interval (2xDC) ranging from
  99:stm32f4xx-hal-driver/Src/stm32f4xx_hal_rtc_ex.c ****         0 to 62.
 100:stm32f4xx-hal-driver/Src/stm32f4xx_hal_rtc_ex.c ****     (+) In order to measure the clock deviation, a 512 Hz clock is output for
 101:stm32f4xx-hal-driver/Src/stm32f4xx_hal_rtc_ex.c ****         calibration.
 102:stm32f4xx-hal-driver/Src/stm32f4xx_hal_rtc_ex.c ****     (+) To configure the RTC Coarse Digital Calibration value and sign use the
 103:stm32f4xx-hal-driver/Src/stm32f4xx_hal_rtc_ex.c ****         HAL_RTCEx_SetCoarseCalib() function.
 104:stm32f4xx-hal-driver/Src/stm32f4xx_hal_rtc_ex.c **** 
 105:stm32f4xx-hal-driver/Src/stm32f4xx_hal_rtc_ex.c ****   *** Smooth Digital Calibration configuration ***
 106:stm32f4xx-hal-driver/Src/stm32f4xx_hal_rtc_ex.c ****   ================================================
 107:stm32f4xx-hal-driver/Src/stm32f4xx_hal_rtc_ex.c ****   [..]
 108:stm32f4xx-hal-driver/Src/stm32f4xx_hal_rtc_ex.c ****     (+) RTC frequency can be digitally calibrated with a resolution of about
 109:stm32f4xx-hal-driver/Src/stm32f4xx_hal_rtc_ex.c ****         0.954 ppm with a range from -487.1 ppm to +488.5 ppm.
 110:stm32f4xx-hal-driver/Src/stm32f4xx_hal_rtc_ex.c ****         The correction of the frequency is performed using a series of small
 111:stm32f4xx-hal-driver/Src/stm32f4xx_hal_rtc_ex.c ****         adjustments (adding and/or subtracting individual RTCCLK pulses).
 112:stm32f4xx-hal-driver/Src/stm32f4xx_hal_rtc_ex.c ****     (+) The smooth digital calibration is performed during a cycle of about 2^20
 113:stm32f4xx-hal-driver/Src/stm32f4xx_hal_rtc_ex.c ****         RTCCLK pulses (or 32 seconds) when the input frequency is 32,768 Hz.
 114:stm32f4xx-hal-driver/Src/stm32f4xx_hal_rtc_ex.c ****         This cycle is maintained by a 20-bit counter clocked by RTCCLK.
 115:stm32f4xx-hal-driver/Src/stm32f4xx_hal_rtc_ex.c ****     (+) The smooth calibration register (RTC_CALR) specifies the number of RTCCLK
 116:stm32f4xx-hal-driver/Src/stm32f4xx_hal_rtc_ex.c ****         clock cycles to be masked during the 32-second cycle.
 117:stm32f4xx-hal-driver/Src/stm32f4xx_hal_rtc_ex.c ****     (+) To configure the RTC Smooth Digital Calibration value and the corresponding
 118:stm32f4xx-hal-driver/Src/stm32f4xx_hal_rtc_ex.c ****         calibration cycle period (32s,16s and 8s) use the HAL_RTCEx_SetSmoothCalib()
 119:stm32f4xx-hal-driver/Src/stm32f4xx_hal_rtc_ex.c ****         function.
 120:stm32f4xx-hal-driver/Src/stm32f4xx_hal_rtc_ex.c **** 
 121:stm32f4xx-hal-driver/Src/stm32f4xx_hal_rtc_ex.c ****   @endverbatim
 122:stm32f4xx-hal-driver/Src/stm32f4xx_hal_rtc_ex.c ****   ******************************************************************************
 123:stm32f4xx-hal-driver/Src/stm32f4xx_hal_rtc_ex.c ****   */
 124:stm32f4xx-hal-driver/Src/stm32f4xx_hal_rtc_ex.c **** 
 125:stm32f4xx-hal-driver/Src/stm32f4xx_hal_rtc_ex.c **** /* Includes ------------------------------------------------------------------*/
 126:stm32f4xx-hal-driver/Src/stm32f4xx_hal_rtc_ex.c **** #include "stm32f4xx_hal.h"
 127:stm32f4xx-hal-driver/Src/stm32f4xx_hal_rtc_ex.c **** 
 128:stm32f4xx-hal-driver/Src/stm32f4xx_hal_rtc_ex.c **** /** @addtogroup STM32F4xx_HAL_Driver
 129:stm32f4xx-hal-driver/Src/stm32f4xx_hal_rtc_ex.c ****   * @{
 130:stm32f4xx-hal-driver/Src/stm32f4xx_hal_rtc_ex.c ****   */
 131:stm32f4xx-hal-driver/Src/stm32f4xx_hal_rtc_ex.c **** 
 132:stm32f4xx-hal-driver/Src/stm32f4xx_hal_rtc_ex.c **** /** @defgroup RTCEx RTCEx
 133:stm32f4xx-hal-driver/Src/stm32f4xx_hal_rtc_ex.c ****   * @brief    RTC Extended HAL module driver
 134:stm32f4xx-hal-driver/Src/stm32f4xx_hal_rtc_ex.c ****   * @{
 135:stm32f4xx-hal-driver/Src/stm32f4xx_hal_rtc_ex.c ****   */
 136:stm32f4xx-hal-driver/Src/stm32f4xx_hal_rtc_ex.c **** 
 137:stm32f4xx-hal-driver/Src/stm32f4xx_hal_rtc_ex.c **** #ifdef HAL_RTC_MODULE_ENABLED
 138:stm32f4xx-hal-driver/Src/stm32f4xx_hal_rtc_ex.c **** 
 139:stm32f4xx-hal-driver/Src/stm32f4xx_hal_rtc_ex.c **** /* Private typedef -----------------------------------------------------------*/
 140:stm32f4xx-hal-driver/Src/stm32f4xx_hal_rtc_ex.c **** /* Private define ------------------------------------------------------------*/
 141:stm32f4xx-hal-driver/Src/stm32f4xx_hal_rtc_ex.c **** /* Private macro -------------------------------------------------------------*/
 142:stm32f4xx-hal-driver/Src/stm32f4xx_hal_rtc_ex.c **** /* Private variables ---------------------------------------------------------*/
 143:stm32f4xx-hal-driver/Src/stm32f4xx_hal_rtc_ex.c **** /* Private function prototypes -----------------------------------------------*/
ARM GAS  /tmp/ccvIVBQe.s 			page 4


 144:stm32f4xx-hal-driver/Src/stm32f4xx_hal_rtc_ex.c **** /* Exported functions --------------------------------------------------------*/
 145:stm32f4xx-hal-driver/Src/stm32f4xx_hal_rtc_ex.c **** 
 146:stm32f4xx-hal-driver/Src/stm32f4xx_hal_rtc_ex.c **** /** @defgroup RTCEx_Exported_Functions RTCEx Exported Functions
 147:stm32f4xx-hal-driver/Src/stm32f4xx_hal_rtc_ex.c ****   * @{
 148:stm32f4xx-hal-driver/Src/stm32f4xx_hal_rtc_ex.c ****   */
 149:stm32f4xx-hal-driver/Src/stm32f4xx_hal_rtc_ex.c **** 
 150:stm32f4xx-hal-driver/Src/stm32f4xx_hal_rtc_ex.c **** /** @defgroup RTCEx_Exported_Functions_Group1 RTC Timestamp and Tamper functions
 151:stm32f4xx-hal-driver/Src/stm32f4xx_hal_rtc_ex.c ****   * @brief    RTC Timestamp and Tamper functions
 152:stm32f4xx-hal-driver/Src/stm32f4xx_hal_rtc_ex.c ****   *
 153:stm32f4xx-hal-driver/Src/stm32f4xx_hal_rtc_ex.c **** @verbatim
 154:stm32f4xx-hal-driver/Src/stm32f4xx_hal_rtc_ex.c ****  ===============================================================================
 155:stm32f4xx-hal-driver/Src/stm32f4xx_hal_rtc_ex.c ****                  ##### RTC Timestamp and Tamper functions #####
 156:stm32f4xx-hal-driver/Src/stm32f4xx_hal_rtc_ex.c ****  ===============================================================================
 157:stm32f4xx-hal-driver/Src/stm32f4xx_hal_rtc_ex.c **** 
 158:stm32f4xx-hal-driver/Src/stm32f4xx_hal_rtc_ex.c ****  [..] This section provides functions allowing to configure Timestamp feature
 159:stm32f4xx-hal-driver/Src/stm32f4xx_hal_rtc_ex.c **** 
 160:stm32f4xx-hal-driver/Src/stm32f4xx_hal_rtc_ex.c **** @endverbatim
 161:stm32f4xx-hal-driver/Src/stm32f4xx_hal_rtc_ex.c ****   * @{
 162:stm32f4xx-hal-driver/Src/stm32f4xx_hal_rtc_ex.c ****   */
 163:stm32f4xx-hal-driver/Src/stm32f4xx_hal_rtc_ex.c **** 
 164:stm32f4xx-hal-driver/Src/stm32f4xx_hal_rtc_ex.c **** /**
 165:stm32f4xx-hal-driver/Src/stm32f4xx_hal_rtc_ex.c ****   * @brief  Sets Timestamp.
 166:stm32f4xx-hal-driver/Src/stm32f4xx_hal_rtc_ex.c ****   * @note   This API must be called before enabling the Timestamp feature.
 167:stm32f4xx-hal-driver/Src/stm32f4xx_hal_rtc_ex.c ****   * @param  hrtc pointer to a RTC_HandleTypeDef structure that contains
 168:stm32f4xx-hal-driver/Src/stm32f4xx_hal_rtc_ex.c ****   *                the configuration information for RTC.
 169:stm32f4xx-hal-driver/Src/stm32f4xx_hal_rtc_ex.c ****   * @param  RTC_TimeStampEdge Specifies the pin edge on which the Timestamp is
 170:stm32f4xx-hal-driver/Src/stm32f4xx_hal_rtc_ex.c ****   *         activated.
 171:stm32f4xx-hal-driver/Src/stm32f4xx_hal_rtc_ex.c ****   *          This parameter can be one of the following values:
 172:stm32f4xx-hal-driver/Src/stm32f4xx_hal_rtc_ex.c ****   *             @arg RTC_TIMESTAMPEDGE_RISING: the Timestamp event occurs on
 173:stm32f4xx-hal-driver/Src/stm32f4xx_hal_rtc_ex.c ****   *                                        the rising edge of the related pin.
 174:stm32f4xx-hal-driver/Src/stm32f4xx_hal_rtc_ex.c ****   *             @arg RTC_TIMESTAMPEDGE_FALLING: the Timestamp event occurs on
 175:stm32f4xx-hal-driver/Src/stm32f4xx_hal_rtc_ex.c ****   *                                        the falling edge of the related pin.
 176:stm32f4xx-hal-driver/Src/stm32f4xx_hal_rtc_ex.c ****   * @param  RTC_TimeStampPin Specifies the RTC Timestamp Pin.
 177:stm32f4xx-hal-driver/Src/stm32f4xx_hal_rtc_ex.c ****   *          This parameter can be one of the following values:
 178:stm32f4xx-hal-driver/Src/stm32f4xx_hal_rtc_ex.c ****   *             @arg RTC_TIMESTAMPPIN_DEFAULT: PC13 is selected as RTC Timestamp Pin.
 179:stm32f4xx-hal-driver/Src/stm32f4xx_hal_rtc_ex.c ****   *             @arg RTC_TIMESTAMPPIN_POS1: PI8 is selected as RTC Timestamp Pin.
 180:stm32f4xx-hal-driver/Src/stm32f4xx_hal_rtc_ex.c ****   * @note RTC_TIMESTAMPPIN_POS1 corresponds to pin PA0 in the case of
 181:stm32f4xx-hal-driver/Src/stm32f4xx_hal_rtc_ex.c ****   *       STM32F446xx devices.
 182:stm32f4xx-hal-driver/Src/stm32f4xx_hal_rtc_ex.c ****   * @note RTC_TIMESTAMPPIN_POS1 is not applicable to the following list of devices:
 183:stm32f4xx-hal-driver/Src/stm32f4xx_hal_rtc_ex.c ****   *       STM32F412xx, STM32F413xx and STM32F423xx.
 184:stm32f4xx-hal-driver/Src/stm32f4xx_hal_rtc_ex.c ****   * @retval HAL status
 185:stm32f4xx-hal-driver/Src/stm32f4xx_hal_rtc_ex.c ****   */
 186:stm32f4xx-hal-driver/Src/stm32f4xx_hal_rtc_ex.c **** HAL_StatusTypeDef HAL_RTCEx_SetTimeStamp(RTC_HandleTypeDef *hrtc, uint32_t RTC_TimeStampEdge, uint3
 187:stm32f4xx-hal-driver/Src/stm32f4xx_hal_rtc_ex.c **** {
  30              		.loc 1 187 1 view -0
  31              		.cfi_startproc
  32              		@ args = 0, pretend = 0, frame = 0
  33              		@ frame_needed = 0, uses_anonymous_args = 0
  34              		@ link register save eliminated.
 188:stm32f4xx-hal-driver/Src/stm32f4xx_hal_rtc_ex.c ****   uint32_t tmpreg = 0U;
  35              		.loc 1 188 3 view .LVU1
 189:stm32f4xx-hal-driver/Src/stm32f4xx_hal_rtc_ex.c **** 
 190:stm32f4xx-hal-driver/Src/stm32f4xx_hal_rtc_ex.c ****   /* Check the parameters */
 191:stm32f4xx-hal-driver/Src/stm32f4xx_hal_rtc_ex.c ****   assert_param(IS_TIMESTAMP_EDGE(RTC_TimeStampEdge));
  36              		.loc 1 191 3 view .LVU2
 192:stm32f4xx-hal-driver/Src/stm32f4xx_hal_rtc_ex.c ****   assert_param(IS_RTC_TIMESTAMP_PIN(RTC_TimeStampPin));
  37              		.loc 1 192 3 view .LVU3
ARM GAS  /tmp/ccvIVBQe.s 			page 5


 193:stm32f4xx-hal-driver/Src/stm32f4xx_hal_rtc_ex.c **** 
 194:stm32f4xx-hal-driver/Src/stm32f4xx_hal_rtc_ex.c ****   /* Process Locked */
 195:stm32f4xx-hal-driver/Src/stm32f4xx_hal_rtc_ex.c ****   __HAL_LOCK(hrtc);
  38              		.loc 1 195 3 view .LVU4
  39              		.loc 1 195 3 view .LVU5
  40 0000 037F     		ldrb	r3, [r0, #28]	@ zero_extendqisi2
  41 0002 012B     		cmp	r3, #1
  42 0004 35D0     		beq	.L3
 187:stm32f4xx-hal-driver/Src/stm32f4xx_hal_rtc_ex.c ****   uint32_t tmpreg = 0U;
  43              		.loc 1 187 1 is_stmt 0 discriminator 2 view .LVU6
  44 0006 30B4     		push	{r4, r5}
  45              	.LCFI0:
  46              		.cfi_def_cfa_offset 8
  47              		.cfi_offset 4, -8
  48              		.cfi_offset 5, -4
  49              		.loc 1 195 3 is_stmt 1 discriminator 2 view .LVU7
  50 0008 0124     		movs	r4, #1
  51 000a 0477     		strb	r4, [r0, #28]
  52              		.loc 1 195 3 discriminator 2 view .LVU8
 196:stm32f4xx-hal-driver/Src/stm32f4xx_hal_rtc_ex.c **** 
 197:stm32f4xx-hal-driver/Src/stm32f4xx_hal_rtc_ex.c ****   /* Change RTC state to BUSY */
 198:stm32f4xx-hal-driver/Src/stm32f4xx_hal_rtc_ex.c ****   hrtc->State = HAL_RTC_STATE_BUSY;
  53              		.loc 1 198 3 discriminator 2 view .LVU9
  54              		.loc 1 198 15 is_stmt 0 discriminator 2 view .LVU10
  55 000c 0223     		movs	r3, #2
  56 000e 4377     		strb	r3, [r0, #29]
 199:stm32f4xx-hal-driver/Src/stm32f4xx_hal_rtc_ex.c **** 
 200:stm32f4xx-hal-driver/Src/stm32f4xx_hal_rtc_ex.c ****   hrtc->Instance->TAFCR &= (uint32_t)~RTC_TAFCR_TSINSEL;
  57              		.loc 1 200 3 is_stmt 1 discriminator 2 view .LVU11
  58              		.loc 1 200 7 is_stmt 0 discriminator 2 view .LVU12
  59 0010 0568     		ldr	r5, [r0]
  60              		.loc 1 200 25 discriminator 2 view .LVU13
  61 0012 2B6C     		ldr	r3, [r5, #64]
  62 0014 23F40033 		bic	r3, r3, #131072
  63 0018 2B64     		str	r3, [r5, #64]
 201:stm32f4xx-hal-driver/Src/stm32f4xx_hal_rtc_ex.c ****   hrtc->Instance->TAFCR |= (uint32_t)(RTC_TimeStampPin);
  64              		.loc 1 201 3 is_stmt 1 discriminator 2 view .LVU14
  65              		.loc 1 201 7 is_stmt 0 discriminator 2 view .LVU15
  66 001a 0568     		ldr	r5, [r0]
  67              		.loc 1 201 25 discriminator 2 view .LVU16
  68 001c 2B6C     		ldr	r3, [r5, #64]
  69 001e 1A43     		orrs	r2, r2, r3
  70              	.LVL1:
  71              		.loc 1 201 25 discriminator 2 view .LVU17
  72 0020 2A64     		str	r2, [r5, #64]
 202:stm32f4xx-hal-driver/Src/stm32f4xx_hal_rtc_ex.c **** 
 203:stm32f4xx-hal-driver/Src/stm32f4xx_hal_rtc_ex.c ****   /* Get the RTC_CR register and clear the bits to be configured */
 204:stm32f4xx-hal-driver/Src/stm32f4xx_hal_rtc_ex.c ****   tmpreg = (uint32_t)(hrtc->Instance->CR & (uint32_t)~(RTC_CR_TSEDGE | RTC_CR_TSE));
  73              		.loc 1 204 3 is_stmt 1 discriminator 2 view .LVU18
  74              		.loc 1 204 27 is_stmt 0 discriminator 2 view .LVU19
  75 0022 0568     		ldr	r5, [r0]
  76              		.loc 1 204 37 discriminator 2 view .LVU20
  77 0024 AB68     		ldr	r3, [r5, #8]
  78              		.loc 1 204 10 discriminator 2 view .LVU21
  79 0026 23F40063 		bic	r3, r3, #2048
  80 002a 23F00803 		bic	r3, r3, #8
  81              	.LVL2:
ARM GAS  /tmp/ccvIVBQe.s 			page 6


 205:stm32f4xx-hal-driver/Src/stm32f4xx_hal_rtc_ex.c **** 
 206:stm32f4xx-hal-driver/Src/stm32f4xx_hal_rtc_ex.c ****   /* Configure the Timestamp TSEDGE bit */
 207:stm32f4xx-hal-driver/Src/stm32f4xx_hal_rtc_ex.c ****   tmpreg |= RTC_TimeStampEdge;
  82              		.loc 1 207 3 is_stmt 1 discriminator 2 view .LVU22
  83              		.loc 1 207 10 is_stmt 0 discriminator 2 view .LVU23
  84 002e 0B43     		orrs	r3, r3, r1
  85              	.LVL3:
 208:stm32f4xx-hal-driver/Src/stm32f4xx_hal_rtc_ex.c **** 
 209:stm32f4xx-hal-driver/Src/stm32f4xx_hal_rtc_ex.c ****   /* Disable the write protection for RTC registers */
 210:stm32f4xx-hal-driver/Src/stm32f4xx_hal_rtc_ex.c ****   __HAL_RTC_WRITEPROTECTION_DISABLE(hrtc);
  86              		.loc 1 210 3 is_stmt 1 discriminator 2 view .LVU24
  87              		.loc 1 210 3 discriminator 2 view .LVU25
  88 0030 CA22     		movs	r2, #202
  89 0032 6A62     		str	r2, [r5, #36]
  90              		.loc 1 210 3 discriminator 2 view .LVU26
  91 0034 0268     		ldr	r2, [r0]
  92 0036 5321     		movs	r1, #83
  93              	.LVL4:
  94              		.loc 1 210 3 is_stmt 0 discriminator 2 view .LVU27
  95 0038 5162     		str	r1, [r2, #36]
  96              		.loc 1 210 3 is_stmt 1 discriminator 2 view .LVU28
 211:stm32f4xx-hal-driver/Src/stm32f4xx_hal_rtc_ex.c **** 
 212:stm32f4xx-hal-driver/Src/stm32f4xx_hal_rtc_ex.c ****   /* Copy the desired configuration into the CR register */
 213:stm32f4xx-hal-driver/Src/stm32f4xx_hal_rtc_ex.c ****   hrtc->Instance->CR = (uint32_t)tmpreg;
  97              		.loc 1 213 3 discriminator 2 view .LVU29
  98              		.loc 1 213 7 is_stmt 0 discriminator 2 view .LVU30
  99 003a 0268     		ldr	r2, [r0]
 100              		.loc 1 213 22 discriminator 2 view .LVU31
 101 003c 9360     		str	r3, [r2, #8]
 214:stm32f4xx-hal-driver/Src/stm32f4xx_hal_rtc_ex.c **** 
 215:stm32f4xx-hal-driver/Src/stm32f4xx_hal_rtc_ex.c ****   /* Clear RTC Timestamp flag */
 216:stm32f4xx-hal-driver/Src/stm32f4xx_hal_rtc_ex.c ****   __HAL_RTC_TIMESTAMP_CLEAR_FLAG(hrtc, RTC_FLAG_TSF);
 102              		.loc 1 216 3 is_stmt 1 discriminator 2 view .LVU32
 103 003e 0268     		ldr	r2, [r0]
 104 0040 D368     		ldr	r3, [r2, #12]
 105              	.LVL5:
 106              		.loc 1 216 3 is_stmt 0 discriminator 2 view .LVU33
 107 0042 DBB2     		uxtb	r3, r3
 108 0044 63F40863 		orn	r3, r3, #2176
 109 0048 D360     		str	r3, [r2, #12]
 217:stm32f4xx-hal-driver/Src/stm32f4xx_hal_rtc_ex.c **** 
 218:stm32f4xx-hal-driver/Src/stm32f4xx_hal_rtc_ex.c ****   /* Clear RTC Timestamp overrun Flag */
 219:stm32f4xx-hal-driver/Src/stm32f4xx_hal_rtc_ex.c ****   __HAL_RTC_TIMESTAMP_CLEAR_FLAG(hrtc, RTC_FLAG_TSOVF);
 110              		.loc 1 219 3 is_stmt 1 discriminator 2 view .LVU34
 111 004a 0268     		ldr	r2, [r0]
 112 004c D368     		ldr	r3, [r2, #12]
 113 004e DBB2     		uxtb	r3, r3
 114 0050 63F48453 		orn	r3, r3, #4224
 115 0054 D360     		str	r3, [r2, #12]
 220:stm32f4xx-hal-driver/Src/stm32f4xx_hal_rtc_ex.c **** 
 221:stm32f4xx-hal-driver/Src/stm32f4xx_hal_rtc_ex.c ****   /* Enable the Timestamp saving */
 222:stm32f4xx-hal-driver/Src/stm32f4xx_hal_rtc_ex.c ****   __HAL_RTC_TIMESTAMP_ENABLE(hrtc);
 116              		.loc 1 222 3 discriminator 2 view .LVU35
 117 0056 0268     		ldr	r2, [r0]
 118 0058 9368     		ldr	r3, [r2, #8]
 119 005a 43F40063 		orr	r3, r3, #2048
 120 005e 9360     		str	r3, [r2, #8]
ARM GAS  /tmp/ccvIVBQe.s 			page 7


 223:stm32f4xx-hal-driver/Src/stm32f4xx_hal_rtc_ex.c **** 
 224:stm32f4xx-hal-driver/Src/stm32f4xx_hal_rtc_ex.c ****   /* Enable the write protection for RTC registers */
 225:stm32f4xx-hal-driver/Src/stm32f4xx_hal_rtc_ex.c ****   __HAL_RTC_WRITEPROTECTION_ENABLE(hrtc);
 121              		.loc 1 225 3 discriminator 2 view .LVU36
 122              		.loc 1 225 3 discriminator 2 view .LVU37
 123 0060 0368     		ldr	r3, [r0]
 124 0062 FF22     		movs	r2, #255
 125 0064 5A62     		str	r2, [r3, #36]
 126              		.loc 1 225 3 discriminator 2 view .LVU38
 226:stm32f4xx-hal-driver/Src/stm32f4xx_hal_rtc_ex.c **** 
 227:stm32f4xx-hal-driver/Src/stm32f4xx_hal_rtc_ex.c ****   /* Change RTC state back to READY */
 228:stm32f4xx-hal-driver/Src/stm32f4xx_hal_rtc_ex.c ****   hrtc->State = HAL_RTC_STATE_READY;
 127              		.loc 1 228 3 discriminator 2 view .LVU39
 128              		.loc 1 228 15 is_stmt 0 discriminator 2 view .LVU40
 129 0066 4477     		strb	r4, [r0, #29]
 229:stm32f4xx-hal-driver/Src/stm32f4xx_hal_rtc_ex.c **** 
 230:stm32f4xx-hal-driver/Src/stm32f4xx_hal_rtc_ex.c ****   /* Process Unlocked */
 231:stm32f4xx-hal-driver/Src/stm32f4xx_hal_rtc_ex.c ****   __HAL_UNLOCK(hrtc);
 130              		.loc 1 231 3 is_stmt 1 discriminator 2 view .LVU41
 131              		.loc 1 231 3 discriminator 2 view .LVU42
 132 0068 0023     		movs	r3, #0
 133 006a 0377     		strb	r3, [r0, #28]
 134              		.loc 1 231 3 discriminator 2 view .LVU43
 232:stm32f4xx-hal-driver/Src/stm32f4xx_hal_rtc_ex.c **** 
 233:stm32f4xx-hal-driver/Src/stm32f4xx_hal_rtc_ex.c ****   return HAL_OK;
 135              		.loc 1 233 3 discriminator 2 view .LVU44
 136              		.loc 1 233 10 is_stmt 0 discriminator 2 view .LVU45
 137 006c 1846     		mov	r0, r3
 138              	.LVL6:
 234:stm32f4xx-hal-driver/Src/stm32f4xx_hal_rtc_ex.c **** }
 139              		.loc 1 234 1 discriminator 2 view .LVU46
 140 006e 30BC     		pop	{r4, r5}
 141              	.LCFI1:
 142              		.cfi_restore 5
 143              		.cfi_restore 4
 144              		.cfi_def_cfa_offset 0
 145 0070 7047     		bx	lr
 146              	.LVL7:
 147              	.L3:
 195:stm32f4xx-hal-driver/Src/stm32f4xx_hal_rtc_ex.c **** 
 148              		.loc 1 195 3 view .LVU47
 149 0072 0220     		movs	r0, #2
 150              	.LVL8:
 151              		.loc 1 234 1 view .LVU48
 152 0074 7047     		bx	lr
 153              		.cfi_endproc
 154              	.LFE239:
 156              		.section	.text.HAL_RTCEx_SetTimeStamp_IT,"ax",%progbits
 157              		.align	1
 158              		.global	HAL_RTCEx_SetTimeStamp_IT
 159              		.syntax unified
 160              		.thumb
 161              		.thumb_func
 162              		.fpu fpv4-sp-d16
 164              	HAL_RTCEx_SetTimeStamp_IT:
 165              	.LVL9:
 166              	.LFB240:
ARM GAS  /tmp/ccvIVBQe.s 			page 8


 235:stm32f4xx-hal-driver/Src/stm32f4xx_hal_rtc_ex.c **** 
 236:stm32f4xx-hal-driver/Src/stm32f4xx_hal_rtc_ex.c **** /**
 237:stm32f4xx-hal-driver/Src/stm32f4xx_hal_rtc_ex.c ****   * @brief  Sets Timestamp with Interrupt.
 238:stm32f4xx-hal-driver/Src/stm32f4xx_hal_rtc_ex.c ****   * @param  hrtc pointer to a RTC_HandleTypeDef structure that contains
 239:stm32f4xx-hal-driver/Src/stm32f4xx_hal_rtc_ex.c ****   *                the configuration information for RTC.
 240:stm32f4xx-hal-driver/Src/stm32f4xx_hal_rtc_ex.c ****   * @note   This API must be called before enabling the Timestamp feature.
 241:stm32f4xx-hal-driver/Src/stm32f4xx_hal_rtc_ex.c ****   * @param  RTC_TimeStampEdge Specifies the pin edge on which the Timestamp is
 242:stm32f4xx-hal-driver/Src/stm32f4xx_hal_rtc_ex.c ****   *         activated.
 243:stm32f4xx-hal-driver/Src/stm32f4xx_hal_rtc_ex.c ****   *          This parameter can be one of the following values:
 244:stm32f4xx-hal-driver/Src/stm32f4xx_hal_rtc_ex.c ****   *             @arg RTC_TIMESTAMPEDGE_RISING: the Timestamp event occurs on
 245:stm32f4xx-hal-driver/Src/stm32f4xx_hal_rtc_ex.c ****   *                                        the rising edge of the related pin.
 246:stm32f4xx-hal-driver/Src/stm32f4xx_hal_rtc_ex.c ****   *             @arg RTC_TIMESTAMPEDGE_FALLING: the Timestamp event occurs on
 247:stm32f4xx-hal-driver/Src/stm32f4xx_hal_rtc_ex.c ****   *                                        the falling edge of the related pin.
 248:stm32f4xx-hal-driver/Src/stm32f4xx_hal_rtc_ex.c ****   * @param  RTC_TimeStampPin Specifies the RTC Timestamp Pin.
 249:stm32f4xx-hal-driver/Src/stm32f4xx_hal_rtc_ex.c ****   *          This parameter can be one of the following values:
 250:stm32f4xx-hal-driver/Src/stm32f4xx_hal_rtc_ex.c ****   *             @arg RTC_TIMESTAMPPIN_DEFAULT: PC13 is selected as RTC Timestamp Pin.
 251:stm32f4xx-hal-driver/Src/stm32f4xx_hal_rtc_ex.c ****   *             @arg RTC_TIMESTAMPPIN_POS1: PI8 is selected as RTC Timestamp Pin.
 252:stm32f4xx-hal-driver/Src/stm32f4xx_hal_rtc_ex.c ****   * @note RTC_TIMESTAMPPIN_POS1 corresponds to pin PA0 in the case of
 253:stm32f4xx-hal-driver/Src/stm32f4xx_hal_rtc_ex.c ****   *       STM32F446xx devices.
 254:stm32f4xx-hal-driver/Src/stm32f4xx_hal_rtc_ex.c ****   * @note RTC_TIMESTAMPPIN_POS1 is not applicable to the following list of devices:
 255:stm32f4xx-hal-driver/Src/stm32f4xx_hal_rtc_ex.c ****   *       STM32F412xx, STM32F413xx and STM32F423xx.
 256:stm32f4xx-hal-driver/Src/stm32f4xx_hal_rtc_ex.c ****   * @retval HAL status
 257:stm32f4xx-hal-driver/Src/stm32f4xx_hal_rtc_ex.c ****   */
 258:stm32f4xx-hal-driver/Src/stm32f4xx_hal_rtc_ex.c **** HAL_StatusTypeDef HAL_RTCEx_SetTimeStamp_IT(RTC_HandleTypeDef *hrtc, uint32_t RTC_TimeStampEdge, ui
 259:stm32f4xx-hal-driver/Src/stm32f4xx_hal_rtc_ex.c **** {
 167              		.loc 1 259 1 is_stmt 1 view -0
 168              		.cfi_startproc
 169              		@ args = 0, pretend = 0, frame = 0
 170              		@ frame_needed = 0, uses_anonymous_args = 0
 171              		@ link register save eliminated.
 260:stm32f4xx-hal-driver/Src/stm32f4xx_hal_rtc_ex.c ****   uint32_t tmpreg = 0U;
 172              		.loc 1 260 3 view .LVU50
 261:stm32f4xx-hal-driver/Src/stm32f4xx_hal_rtc_ex.c **** 
 262:stm32f4xx-hal-driver/Src/stm32f4xx_hal_rtc_ex.c ****   /* Check the parameters */
 263:stm32f4xx-hal-driver/Src/stm32f4xx_hal_rtc_ex.c ****   assert_param(IS_TIMESTAMP_EDGE(RTC_TimeStampEdge));
 173              		.loc 1 263 3 view .LVU51
 264:stm32f4xx-hal-driver/Src/stm32f4xx_hal_rtc_ex.c ****   assert_param(IS_RTC_TIMESTAMP_PIN(RTC_TimeStampPin));
 174              		.loc 1 264 3 view .LVU52
 265:stm32f4xx-hal-driver/Src/stm32f4xx_hal_rtc_ex.c **** 
 266:stm32f4xx-hal-driver/Src/stm32f4xx_hal_rtc_ex.c ****   /* Process Locked */
 267:stm32f4xx-hal-driver/Src/stm32f4xx_hal_rtc_ex.c ****   __HAL_LOCK(hrtc);
 175              		.loc 1 267 3 view .LVU53
 176              		.loc 1 267 3 view .LVU54
 177 0000 037F     		ldrb	r3, [r0, #28]	@ zero_extendqisi2
 178 0002 012B     		cmp	r3, #1
 179 0004 43D0     		beq	.L10
 259:stm32f4xx-hal-driver/Src/stm32f4xx_hal_rtc_ex.c ****   uint32_t tmpreg = 0U;
 180              		.loc 1 259 1 is_stmt 0 discriminator 2 view .LVU55
 181 0006 30B4     		push	{r4, r5}
 182              	.LCFI2:
 183              		.cfi_def_cfa_offset 8
 184              		.cfi_offset 4, -8
 185              		.cfi_offset 5, -4
 186              		.loc 1 267 3 is_stmt 1 discriminator 2 view .LVU56
 187 0008 0124     		movs	r4, #1
 188 000a 0477     		strb	r4, [r0, #28]
 189              		.loc 1 267 3 discriminator 2 view .LVU57
ARM GAS  /tmp/ccvIVBQe.s 			page 9


 268:stm32f4xx-hal-driver/Src/stm32f4xx_hal_rtc_ex.c **** 
 269:stm32f4xx-hal-driver/Src/stm32f4xx_hal_rtc_ex.c ****   /* Change RTC state to BUSY */
 270:stm32f4xx-hal-driver/Src/stm32f4xx_hal_rtc_ex.c ****   hrtc->State = HAL_RTC_STATE_BUSY;
 190              		.loc 1 270 3 discriminator 2 view .LVU58
 191              		.loc 1 270 15 is_stmt 0 discriminator 2 view .LVU59
 192 000c 0223     		movs	r3, #2
 193 000e 4377     		strb	r3, [r0, #29]
 271:stm32f4xx-hal-driver/Src/stm32f4xx_hal_rtc_ex.c **** 
 272:stm32f4xx-hal-driver/Src/stm32f4xx_hal_rtc_ex.c ****   hrtc->Instance->TAFCR &= (uint32_t)~RTC_TAFCR_TSINSEL;
 194              		.loc 1 272 3 is_stmt 1 discriminator 2 view .LVU60
 195              		.loc 1 272 7 is_stmt 0 discriminator 2 view .LVU61
 196 0010 0568     		ldr	r5, [r0]
 197              		.loc 1 272 25 discriminator 2 view .LVU62
 198 0012 2B6C     		ldr	r3, [r5, #64]
 199 0014 23F40033 		bic	r3, r3, #131072
 200 0018 2B64     		str	r3, [r5, #64]
 273:stm32f4xx-hal-driver/Src/stm32f4xx_hal_rtc_ex.c ****   hrtc->Instance->TAFCR |= (uint32_t)(RTC_TimeStampPin);
 201              		.loc 1 273 3 is_stmt 1 discriminator 2 view .LVU63
 202              		.loc 1 273 7 is_stmt 0 discriminator 2 view .LVU64
 203 001a 0568     		ldr	r5, [r0]
 204              		.loc 1 273 25 discriminator 2 view .LVU65
 205 001c 2B6C     		ldr	r3, [r5, #64]
 206 001e 1A43     		orrs	r2, r2, r3
 207              	.LVL10:
 208              		.loc 1 273 25 discriminator 2 view .LVU66
 209 0020 2A64     		str	r2, [r5, #64]
 274:stm32f4xx-hal-driver/Src/stm32f4xx_hal_rtc_ex.c **** 
 275:stm32f4xx-hal-driver/Src/stm32f4xx_hal_rtc_ex.c ****   /* Get the RTC_CR register and clear the bits to be configured */
 276:stm32f4xx-hal-driver/Src/stm32f4xx_hal_rtc_ex.c ****   tmpreg = (uint32_t)(hrtc->Instance->CR & (uint32_t)~(RTC_CR_TSEDGE | RTC_CR_TSE));
 210              		.loc 1 276 3 is_stmt 1 discriminator 2 view .LVU67
 211              		.loc 1 276 27 is_stmt 0 discriminator 2 view .LVU68
 212 0022 0568     		ldr	r5, [r0]
 213              		.loc 1 276 37 discriminator 2 view .LVU69
 214 0024 AB68     		ldr	r3, [r5, #8]
 215              		.loc 1 276 10 discriminator 2 view .LVU70
 216 0026 23F40063 		bic	r3, r3, #2048
 217 002a 23F00803 		bic	r3, r3, #8
 218              	.LVL11:
 277:stm32f4xx-hal-driver/Src/stm32f4xx_hal_rtc_ex.c **** 
 278:stm32f4xx-hal-driver/Src/stm32f4xx_hal_rtc_ex.c ****   /* Configure the Timestamp TSEDGE bit */
 279:stm32f4xx-hal-driver/Src/stm32f4xx_hal_rtc_ex.c ****   tmpreg |= RTC_TimeStampEdge;
 219              		.loc 1 279 3 is_stmt 1 discriminator 2 view .LVU71
 220              		.loc 1 279 10 is_stmt 0 discriminator 2 view .LVU72
 221 002e 0B43     		orrs	r3, r3, r1
 222              	.LVL12:
 280:stm32f4xx-hal-driver/Src/stm32f4xx_hal_rtc_ex.c **** 
 281:stm32f4xx-hal-driver/Src/stm32f4xx_hal_rtc_ex.c ****   /* Disable the write protection for RTC registers */
 282:stm32f4xx-hal-driver/Src/stm32f4xx_hal_rtc_ex.c ****   __HAL_RTC_WRITEPROTECTION_DISABLE(hrtc);
 223              		.loc 1 282 3 is_stmt 1 discriminator 2 view .LVU73
 224              		.loc 1 282 3 discriminator 2 view .LVU74
 225 0030 CA22     		movs	r2, #202
 226 0032 6A62     		str	r2, [r5, #36]
 227              		.loc 1 282 3 discriminator 2 view .LVU75
 228 0034 0268     		ldr	r2, [r0]
 229 0036 5321     		movs	r1, #83
 230              	.LVL13:
 231              		.loc 1 282 3 is_stmt 0 discriminator 2 view .LVU76
ARM GAS  /tmp/ccvIVBQe.s 			page 10


 232 0038 5162     		str	r1, [r2, #36]
 233              		.loc 1 282 3 is_stmt 1 discriminator 2 view .LVU77
 283:stm32f4xx-hal-driver/Src/stm32f4xx_hal_rtc_ex.c **** 
 284:stm32f4xx-hal-driver/Src/stm32f4xx_hal_rtc_ex.c ****   /* Copy the desired configuration into the CR register */
 285:stm32f4xx-hal-driver/Src/stm32f4xx_hal_rtc_ex.c ****   hrtc->Instance->CR = (uint32_t)tmpreg;
 234              		.loc 1 285 3 discriminator 2 view .LVU78
 235              		.loc 1 285 7 is_stmt 0 discriminator 2 view .LVU79
 236 003a 0268     		ldr	r2, [r0]
 237              		.loc 1 285 22 discriminator 2 view .LVU80
 238 003c 9360     		str	r3, [r2, #8]
 286:stm32f4xx-hal-driver/Src/stm32f4xx_hal_rtc_ex.c **** 
 287:stm32f4xx-hal-driver/Src/stm32f4xx_hal_rtc_ex.c ****   /* Clear RTC Timestamp flag */
 288:stm32f4xx-hal-driver/Src/stm32f4xx_hal_rtc_ex.c ****   __HAL_RTC_TIMESTAMP_CLEAR_FLAG(hrtc, RTC_FLAG_TSF);
 239              		.loc 1 288 3 is_stmt 1 discriminator 2 view .LVU81
 240 003e 0268     		ldr	r2, [r0]
 241 0040 D368     		ldr	r3, [r2, #12]
 242              	.LVL14:
 243              		.loc 1 288 3 is_stmt 0 discriminator 2 view .LVU82
 244 0042 DBB2     		uxtb	r3, r3
 245 0044 63F40863 		orn	r3, r3, #2176
 246 0048 D360     		str	r3, [r2, #12]
 289:stm32f4xx-hal-driver/Src/stm32f4xx_hal_rtc_ex.c **** 
 290:stm32f4xx-hal-driver/Src/stm32f4xx_hal_rtc_ex.c ****   /* Clear RTC Timestamp overrun Flag */
 291:stm32f4xx-hal-driver/Src/stm32f4xx_hal_rtc_ex.c ****   __HAL_RTC_TIMESTAMP_CLEAR_FLAG(hrtc, RTC_FLAG_TSOVF);
 247              		.loc 1 291 3 is_stmt 1 discriminator 2 view .LVU83
 248 004a 0268     		ldr	r2, [r0]
 249 004c D368     		ldr	r3, [r2, #12]
 250 004e DBB2     		uxtb	r3, r3
 251 0050 63F48453 		orn	r3, r3, #4224
 252 0054 D360     		str	r3, [r2, #12]
 292:stm32f4xx-hal-driver/Src/stm32f4xx_hal_rtc_ex.c **** 
 293:stm32f4xx-hal-driver/Src/stm32f4xx_hal_rtc_ex.c ****   /* Enable the Timestamp saving */
 294:stm32f4xx-hal-driver/Src/stm32f4xx_hal_rtc_ex.c ****   __HAL_RTC_TIMESTAMP_ENABLE(hrtc);
 253              		.loc 1 294 3 discriminator 2 view .LVU84
 254 0056 0268     		ldr	r2, [r0]
 255 0058 9368     		ldr	r3, [r2, #8]
 256 005a 43F40063 		orr	r3, r3, #2048
 257 005e 9360     		str	r3, [r2, #8]
 295:stm32f4xx-hal-driver/Src/stm32f4xx_hal_rtc_ex.c **** 
 296:stm32f4xx-hal-driver/Src/stm32f4xx_hal_rtc_ex.c ****   /* Enable IT Timestamp */
 297:stm32f4xx-hal-driver/Src/stm32f4xx_hal_rtc_ex.c ****   __HAL_RTC_TIMESTAMP_ENABLE_IT(hrtc, RTC_IT_TS);
 258              		.loc 1 297 3 discriminator 2 view .LVU85
 259 0060 0268     		ldr	r2, [r0]
 260 0062 9368     		ldr	r3, [r2, #8]
 261 0064 43F40043 		orr	r3, r3, #32768
 262 0068 9360     		str	r3, [r2, #8]
 298:stm32f4xx-hal-driver/Src/stm32f4xx_hal_rtc_ex.c **** 
 299:stm32f4xx-hal-driver/Src/stm32f4xx_hal_rtc_ex.c ****   /* Enable the write protection for RTC registers */
 300:stm32f4xx-hal-driver/Src/stm32f4xx_hal_rtc_ex.c ****   __HAL_RTC_WRITEPROTECTION_ENABLE(hrtc);
 263              		.loc 1 300 3 discriminator 2 view .LVU86
 264              		.loc 1 300 3 discriminator 2 view .LVU87
 265 006a 0368     		ldr	r3, [r0]
 266 006c FF22     		movs	r2, #255
 267 006e 5A62     		str	r2, [r3, #36]
 268              		.loc 1 300 3 discriminator 2 view .LVU88
 301:stm32f4xx-hal-driver/Src/stm32f4xx_hal_rtc_ex.c **** 
 302:stm32f4xx-hal-driver/Src/stm32f4xx_hal_rtc_ex.c ****   /* Enable and configure the EXTI line associated to the RTC Timestamp and Tamper interrupts */
ARM GAS  /tmp/ccvIVBQe.s 			page 11


 303:stm32f4xx-hal-driver/Src/stm32f4xx_hal_rtc_ex.c ****   __HAL_RTC_TAMPER_TIMESTAMP_EXTI_ENABLE_IT();
 269              		.loc 1 303 3 discriminator 2 view .LVU89
 270 0070 084B     		ldr	r3, .L15
 271 0072 1A68     		ldr	r2, [r3]
 272 0074 42F40012 		orr	r2, r2, #2097152
 273 0078 1A60     		str	r2, [r3]
 304:stm32f4xx-hal-driver/Src/stm32f4xx_hal_rtc_ex.c ****   __HAL_RTC_TAMPER_TIMESTAMP_EXTI_ENABLE_RISING_EDGE();
 274              		.loc 1 304 3 discriminator 2 view .LVU90
 275 007a 9A68     		ldr	r2, [r3, #8]
 276 007c 42F40012 		orr	r2, r2, #2097152
 277 0080 9A60     		str	r2, [r3, #8]
 305:stm32f4xx-hal-driver/Src/stm32f4xx_hal_rtc_ex.c **** 
 306:stm32f4xx-hal-driver/Src/stm32f4xx_hal_rtc_ex.c ****   /* Change RTC state back to READY */
 307:stm32f4xx-hal-driver/Src/stm32f4xx_hal_rtc_ex.c ****   hrtc->State = HAL_RTC_STATE_READY;
 278              		.loc 1 307 3 discriminator 2 view .LVU91
 279              		.loc 1 307 15 is_stmt 0 discriminator 2 view .LVU92
 280 0082 4477     		strb	r4, [r0, #29]
 308:stm32f4xx-hal-driver/Src/stm32f4xx_hal_rtc_ex.c **** 
 309:stm32f4xx-hal-driver/Src/stm32f4xx_hal_rtc_ex.c ****   /* Process Unlocked */
 310:stm32f4xx-hal-driver/Src/stm32f4xx_hal_rtc_ex.c ****   __HAL_UNLOCK(hrtc);
 281              		.loc 1 310 3 is_stmt 1 discriminator 2 view .LVU93
 282              		.loc 1 310 3 discriminator 2 view .LVU94
 283 0084 0023     		movs	r3, #0
 284 0086 0377     		strb	r3, [r0, #28]
 285              		.loc 1 310 3 discriminator 2 view .LVU95
 311:stm32f4xx-hal-driver/Src/stm32f4xx_hal_rtc_ex.c **** 
 312:stm32f4xx-hal-driver/Src/stm32f4xx_hal_rtc_ex.c ****   return HAL_OK;
 286              		.loc 1 312 3 discriminator 2 view .LVU96
 287              		.loc 1 312 10 is_stmt 0 discriminator 2 view .LVU97
 288 0088 1846     		mov	r0, r3
 289              	.LVL15:
 313:stm32f4xx-hal-driver/Src/stm32f4xx_hal_rtc_ex.c **** }
 290              		.loc 1 313 1 discriminator 2 view .LVU98
 291 008a 30BC     		pop	{r4, r5}
 292              	.LCFI3:
 293              		.cfi_restore 5
 294              		.cfi_restore 4
 295              		.cfi_def_cfa_offset 0
 296 008c 7047     		bx	lr
 297              	.LVL16:
 298              	.L10:
 267:stm32f4xx-hal-driver/Src/stm32f4xx_hal_rtc_ex.c **** 
 299              		.loc 1 267 3 view .LVU99
 300 008e 0220     		movs	r0, #2
 301              	.LVL17:
 302              		.loc 1 313 1 view .LVU100
 303 0090 7047     		bx	lr
 304              	.L16:
 305 0092 00BF     		.align	2
 306              	.L15:
 307 0094 003C0140 		.word	1073822720
 308              		.cfi_endproc
 309              	.LFE240:
 311              		.section	.text.HAL_RTCEx_DeactivateTimeStamp,"ax",%progbits
 312              		.align	1
 313              		.global	HAL_RTCEx_DeactivateTimeStamp
 314              		.syntax unified
ARM GAS  /tmp/ccvIVBQe.s 			page 12


 315              		.thumb
 316              		.thumb_func
 317              		.fpu fpv4-sp-d16
 319              	HAL_RTCEx_DeactivateTimeStamp:
 320              	.LVL18:
 321              	.LFB241:
 314:stm32f4xx-hal-driver/Src/stm32f4xx_hal_rtc_ex.c **** 
 315:stm32f4xx-hal-driver/Src/stm32f4xx_hal_rtc_ex.c **** /**
 316:stm32f4xx-hal-driver/Src/stm32f4xx_hal_rtc_ex.c ****   * @brief  Deactivates Timestamp.
 317:stm32f4xx-hal-driver/Src/stm32f4xx_hal_rtc_ex.c ****   * @param  hrtc pointer to a RTC_HandleTypeDef structure that contains
 318:stm32f4xx-hal-driver/Src/stm32f4xx_hal_rtc_ex.c ****   *                the configuration information for RTC.
 319:stm32f4xx-hal-driver/Src/stm32f4xx_hal_rtc_ex.c ****   * @retval HAL status
 320:stm32f4xx-hal-driver/Src/stm32f4xx_hal_rtc_ex.c ****   */
 321:stm32f4xx-hal-driver/Src/stm32f4xx_hal_rtc_ex.c **** HAL_StatusTypeDef HAL_RTCEx_DeactivateTimeStamp(RTC_HandleTypeDef *hrtc)
 322:stm32f4xx-hal-driver/Src/stm32f4xx_hal_rtc_ex.c **** {
 322              		.loc 1 322 1 is_stmt 1 view -0
 323              		.cfi_startproc
 324              		@ args = 0, pretend = 0, frame = 0
 325              		@ frame_needed = 0, uses_anonymous_args = 0
 326              		@ link register save eliminated.
 323:stm32f4xx-hal-driver/Src/stm32f4xx_hal_rtc_ex.c ****   uint32_t tmpreg = 0U;
 327              		.loc 1 323 3 view .LVU102
 324:stm32f4xx-hal-driver/Src/stm32f4xx_hal_rtc_ex.c **** 
 325:stm32f4xx-hal-driver/Src/stm32f4xx_hal_rtc_ex.c ****   /* Process Locked */
 326:stm32f4xx-hal-driver/Src/stm32f4xx_hal_rtc_ex.c ****   __HAL_LOCK(hrtc);
 328              		.loc 1 326 3 view .LVU103
 329              		.loc 1 326 3 view .LVU104
 330 0000 037F     		ldrb	r3, [r0, #28]	@ zero_extendqisi2
 331 0002 012B     		cmp	r3, #1
 332 0004 1DD0     		beq	.L19
 333              		.loc 1 326 3 discriminator 2 view .LVU105
 334 0006 0122     		movs	r2, #1
 335 0008 0277     		strb	r2, [r0, #28]
 336              		.loc 1 326 3 discriminator 2 view .LVU106
 327:stm32f4xx-hal-driver/Src/stm32f4xx_hal_rtc_ex.c **** 
 328:stm32f4xx-hal-driver/Src/stm32f4xx_hal_rtc_ex.c ****   hrtc->State = HAL_RTC_STATE_BUSY;
 337              		.loc 1 328 3 discriminator 2 view .LVU107
 338              		.loc 1 328 15 is_stmt 0 discriminator 2 view .LVU108
 339 000a 0223     		movs	r3, #2
 340 000c 4377     		strb	r3, [r0, #29]
 329:stm32f4xx-hal-driver/Src/stm32f4xx_hal_rtc_ex.c **** 
 330:stm32f4xx-hal-driver/Src/stm32f4xx_hal_rtc_ex.c ****   /* Disable the write protection for RTC registers */
 331:stm32f4xx-hal-driver/Src/stm32f4xx_hal_rtc_ex.c ****   __HAL_RTC_WRITEPROTECTION_DISABLE(hrtc);
 341              		.loc 1 331 3 is_stmt 1 discriminator 2 view .LVU109
 342              		.loc 1 331 3 discriminator 2 view .LVU110
 343 000e 0368     		ldr	r3, [r0]
 344 0010 CA21     		movs	r1, #202
 345 0012 5962     		str	r1, [r3, #36]
 346              		.loc 1 331 3 discriminator 2 view .LVU111
 347 0014 0368     		ldr	r3, [r0]
 348 0016 5321     		movs	r1, #83
 349 0018 5962     		str	r1, [r3, #36]
 350              		.loc 1 331 3 discriminator 2 view .LVU112
 332:stm32f4xx-hal-driver/Src/stm32f4xx_hal_rtc_ex.c **** 
 333:stm32f4xx-hal-driver/Src/stm32f4xx_hal_rtc_ex.c ****   /* In case interrupt mode is used, the interrupt source must disabled */
 334:stm32f4xx-hal-driver/Src/stm32f4xx_hal_rtc_ex.c ****   __HAL_RTC_TIMESTAMP_DISABLE_IT(hrtc, RTC_IT_TS);
 351              		.loc 1 334 3 discriminator 2 view .LVU113
ARM GAS  /tmp/ccvIVBQe.s 			page 13


 352 001a 0168     		ldr	r1, [r0]
 353 001c 8B68     		ldr	r3, [r1, #8]
 354 001e 23F40043 		bic	r3, r3, #32768
 355 0022 8B60     		str	r3, [r1, #8]
 335:stm32f4xx-hal-driver/Src/stm32f4xx_hal_rtc_ex.c **** 
 336:stm32f4xx-hal-driver/Src/stm32f4xx_hal_rtc_ex.c ****   /* Get the RTC_CR register and clear the bits to be configured */
 337:stm32f4xx-hal-driver/Src/stm32f4xx_hal_rtc_ex.c ****   tmpreg = (uint32_t)(hrtc->Instance->CR & (uint32_t)~(RTC_CR_TSEDGE | RTC_CR_TSE));
 356              		.loc 1 337 3 discriminator 2 view .LVU114
 357              		.loc 1 337 27 is_stmt 0 discriminator 2 view .LVU115
 358 0024 0168     		ldr	r1, [r0]
 359              		.loc 1 337 37 discriminator 2 view .LVU116
 360 0026 8B68     		ldr	r3, [r1, #8]
 361              		.loc 1 337 10 discriminator 2 view .LVU117
 362 0028 23F40063 		bic	r3, r3, #2048
 363 002c 23F00803 		bic	r3, r3, #8
 364              	.LVL19:
 338:stm32f4xx-hal-driver/Src/stm32f4xx_hal_rtc_ex.c **** 
 339:stm32f4xx-hal-driver/Src/stm32f4xx_hal_rtc_ex.c ****   /* Configure the Timestamp TSEDGE and Enable bits */
 340:stm32f4xx-hal-driver/Src/stm32f4xx_hal_rtc_ex.c ****   hrtc->Instance->CR = (uint32_t)tmpreg;
 365              		.loc 1 340 3 is_stmt 1 discriminator 2 view .LVU118
 366              		.loc 1 340 22 is_stmt 0 discriminator 2 view .LVU119
 367 0030 8B60     		str	r3, [r1, #8]
 341:stm32f4xx-hal-driver/Src/stm32f4xx_hal_rtc_ex.c **** 
 342:stm32f4xx-hal-driver/Src/stm32f4xx_hal_rtc_ex.c ****   /* Enable the write protection for RTC registers */
 343:stm32f4xx-hal-driver/Src/stm32f4xx_hal_rtc_ex.c ****   __HAL_RTC_WRITEPROTECTION_ENABLE(hrtc);
 368              		.loc 1 343 3 is_stmt 1 discriminator 2 view .LVU120
 369              		.loc 1 343 3 discriminator 2 view .LVU121
 370 0032 0368     		ldr	r3, [r0]
 371              	.LVL20:
 372              		.loc 1 343 3 is_stmt 0 discriminator 2 view .LVU122
 373 0034 FF21     		movs	r1, #255
 374              	.LVL21:
 375              		.loc 1 343 3 discriminator 2 view .LVU123
 376 0036 5962     		str	r1, [r3, #36]
 377              		.loc 1 343 3 is_stmt 1 discriminator 2 view .LVU124
 344:stm32f4xx-hal-driver/Src/stm32f4xx_hal_rtc_ex.c **** 
 345:stm32f4xx-hal-driver/Src/stm32f4xx_hal_rtc_ex.c ****   hrtc->State = HAL_RTC_STATE_READY;
 378              		.loc 1 345 3 discriminator 2 view .LVU125
 379              		.loc 1 345 15 is_stmt 0 discriminator 2 view .LVU126
 380 0038 4277     		strb	r2, [r0, #29]
 346:stm32f4xx-hal-driver/Src/stm32f4xx_hal_rtc_ex.c **** 
 347:stm32f4xx-hal-driver/Src/stm32f4xx_hal_rtc_ex.c ****   /* Process Unlocked */
 348:stm32f4xx-hal-driver/Src/stm32f4xx_hal_rtc_ex.c ****   __HAL_UNLOCK(hrtc);
 381              		.loc 1 348 3 is_stmt 1 discriminator 2 view .LVU127
 382              		.loc 1 348 3 discriminator 2 view .LVU128
 383 003a 0023     		movs	r3, #0
 384 003c 0377     		strb	r3, [r0, #28]
 385              		.loc 1 348 3 discriminator 2 view .LVU129
 349:stm32f4xx-hal-driver/Src/stm32f4xx_hal_rtc_ex.c **** 
 350:stm32f4xx-hal-driver/Src/stm32f4xx_hal_rtc_ex.c ****   return HAL_OK;
 386              		.loc 1 350 3 discriminator 2 view .LVU130
 387              		.loc 1 350 10 is_stmt 0 discriminator 2 view .LVU131
 388 003e 1846     		mov	r0, r3
 389              	.LVL22:
 390              		.loc 1 350 10 discriminator 2 view .LVU132
 391 0040 7047     		bx	lr
 392              	.LVL23:
ARM GAS  /tmp/ccvIVBQe.s 			page 14


 393              	.L19:
 326:stm32f4xx-hal-driver/Src/stm32f4xx_hal_rtc_ex.c **** 
 394              		.loc 1 326 3 view .LVU133
 395 0042 0220     		movs	r0, #2
 396              	.LVL24:
 351:stm32f4xx-hal-driver/Src/stm32f4xx_hal_rtc_ex.c **** }
 397              		.loc 1 351 1 view .LVU134
 398 0044 7047     		bx	lr
 399              		.cfi_endproc
 400              	.LFE241:
 402              		.section	.text.HAL_RTCEx_GetTimeStamp,"ax",%progbits
 403              		.align	1
 404              		.global	HAL_RTCEx_GetTimeStamp
 405              		.syntax unified
 406              		.thumb
 407              		.thumb_func
 408              		.fpu fpv4-sp-d16
 410              	HAL_RTCEx_GetTimeStamp:
 411              	.LVL25:
 412              	.LFB242:
 352:stm32f4xx-hal-driver/Src/stm32f4xx_hal_rtc_ex.c **** 
 353:stm32f4xx-hal-driver/Src/stm32f4xx_hal_rtc_ex.c **** /**
 354:stm32f4xx-hal-driver/Src/stm32f4xx_hal_rtc_ex.c ****   * @brief  Gets the RTC Timestamp value.
 355:stm32f4xx-hal-driver/Src/stm32f4xx_hal_rtc_ex.c ****   * @param  hrtc pointer to a RTC_HandleTypeDef structure that contains
 356:stm32f4xx-hal-driver/Src/stm32f4xx_hal_rtc_ex.c ****   *                the configuration information for RTC.
 357:stm32f4xx-hal-driver/Src/stm32f4xx_hal_rtc_ex.c ****   * @param  sTimeStamp Pointer to Time structure
 358:stm32f4xx-hal-driver/Src/stm32f4xx_hal_rtc_ex.c ****   * @param  sTimeStampDate Pointer to Date structure
 359:stm32f4xx-hal-driver/Src/stm32f4xx_hal_rtc_ex.c ****   * @param  Format specifies the format of the entered parameters.
 360:stm32f4xx-hal-driver/Src/stm32f4xx_hal_rtc_ex.c ****   *          This parameter can be one of the following values:
 361:stm32f4xx-hal-driver/Src/stm32f4xx_hal_rtc_ex.c ****   *             @arg RTC_FORMAT_BIN: Binary data format
 362:stm32f4xx-hal-driver/Src/stm32f4xx_hal_rtc_ex.c ****   *             @arg RTC_FORMAT_BCD: BCD data format
 363:stm32f4xx-hal-driver/Src/stm32f4xx_hal_rtc_ex.c ****   * @retval HAL status
 364:stm32f4xx-hal-driver/Src/stm32f4xx_hal_rtc_ex.c ****   */
 365:stm32f4xx-hal-driver/Src/stm32f4xx_hal_rtc_ex.c **** HAL_StatusTypeDef HAL_RTCEx_GetTimeStamp(RTC_HandleTypeDef *hrtc, RTC_TimeTypeDef *sTimeStamp, RTC_
 366:stm32f4xx-hal-driver/Src/stm32f4xx_hal_rtc_ex.c **** {
 413              		.loc 1 366 1 is_stmt 1 view -0
 414              		.cfi_startproc
 415              		@ args = 0, pretend = 0, frame = 0
 416              		@ frame_needed = 0, uses_anonymous_args = 0
 417              		.loc 1 366 1 is_stmt 0 view .LVU136
 418 0000 70B5     		push	{r4, r5, r6, lr}
 419              	.LCFI4:
 420              		.cfi_def_cfa_offset 16
 421              		.cfi_offset 4, -16
 422              		.cfi_offset 5, -12
 423              		.cfi_offset 6, -8
 424              		.cfi_offset 14, -4
 425 0002 0646     		mov	r6, r0
 426 0004 0C46     		mov	r4, r1
 427 0006 1546     		mov	r5, r2
 367:stm32f4xx-hal-driver/Src/stm32f4xx_hal_rtc_ex.c ****   uint32_t tmptime = 0U;
 428              		.loc 1 367 3 is_stmt 1 view .LVU137
 429              	.LVL26:
 368:stm32f4xx-hal-driver/Src/stm32f4xx_hal_rtc_ex.c ****   uint32_t tmpdate = 0U;
 430              		.loc 1 368 3 view .LVU138
 369:stm32f4xx-hal-driver/Src/stm32f4xx_hal_rtc_ex.c **** 
 370:stm32f4xx-hal-driver/Src/stm32f4xx_hal_rtc_ex.c ****   /* Check the parameters */
ARM GAS  /tmp/ccvIVBQe.s 			page 15


 371:stm32f4xx-hal-driver/Src/stm32f4xx_hal_rtc_ex.c ****   assert_param(IS_RTC_FORMAT(Format));
 431              		.loc 1 371 3 view .LVU139
 372:stm32f4xx-hal-driver/Src/stm32f4xx_hal_rtc_ex.c **** 
 373:stm32f4xx-hal-driver/Src/stm32f4xx_hal_rtc_ex.c ****   /* Get the Timestamp time and date registers values */
 374:stm32f4xx-hal-driver/Src/stm32f4xx_hal_rtc_ex.c ****   tmptime = (uint32_t)(hrtc->Instance->TSTR & RTC_TR_RESERVED_MASK);
 432              		.loc 1 374 3 view .LVU140
 433              		.loc 1 374 28 is_stmt 0 view .LVU141
 434 0008 0168     		ldr	r1, [r0]
 435              	.LVL27:
 436              		.loc 1 374 38 view .LVU142
 437 000a 0A6B     		ldr	r2, [r1, #48]
 438              	.LVL28:
 375:stm32f4xx-hal-driver/Src/stm32f4xx_hal_rtc_ex.c ****   tmpdate = (uint32_t)(hrtc->Instance->TSDR & RTC_DR_RESERVED_MASK);
 439              		.loc 1 375 3 is_stmt 1 view .LVU143
 440              		.loc 1 375 38 is_stmt 0 view .LVU144
 441 000c 496B     		ldr	r1, [r1, #52]
 442              	.LVL29:
 376:stm32f4xx-hal-driver/Src/stm32f4xx_hal_rtc_ex.c **** 
 377:stm32f4xx-hal-driver/Src/stm32f4xx_hal_rtc_ex.c ****   /* Fill the Time structure fields with the read parameters */
 378:stm32f4xx-hal-driver/Src/stm32f4xx_hal_rtc_ex.c ****   sTimeStamp->Hours      = (uint8_t)((tmptime & (RTC_TSTR_HT  | RTC_TSTR_HU))  >> RTC_TSTR_HU_Pos);
 443              		.loc 1 378 3 is_stmt 1 view .LVU145
 444              		.loc 1 378 28 is_stmt 0 view .LVU146
 445 000e C2F30540 		ubfx	r0, r2, #16, #6
 446              	.LVL30:
 447              		.loc 1 378 26 view .LVU147
 448 0012 2070     		strb	r0, [r4]
 379:stm32f4xx-hal-driver/Src/stm32f4xx_hal_rtc_ex.c ****   sTimeStamp->Minutes    = (uint8_t)((tmptime & (RTC_TSTR_MNT | RTC_TSTR_MNU)) >> RTC_TSTR_MNU_Pos)
 449              		.loc 1 379 3 is_stmt 1 view .LVU148
 450              		.loc 1 379 28 is_stmt 0 view .LVU149
 451 0014 C2F30620 		ubfx	r0, r2, #8, #7
 452              		.loc 1 379 26 view .LVU150
 453 0018 6070     		strb	r0, [r4, #1]
 380:stm32f4xx-hal-driver/Src/stm32f4xx_hal_rtc_ex.c ****   sTimeStamp->Seconds    = (uint8_t)((tmptime & (RTC_TSTR_ST  | RTC_TSTR_SU))  >> RTC_TSTR_SU_Pos);
 454              		.loc 1 380 3 is_stmt 1 view .LVU151
 455              		.loc 1 380 28 is_stmt 0 view .LVU152
 456 001a 02F07F00 		and	r0, r2, #127
 457              		.loc 1 380 26 view .LVU153
 458 001e A070     		strb	r0, [r4, #2]
 381:stm32f4xx-hal-driver/Src/stm32f4xx_hal_rtc_ex.c ****   sTimeStamp->TimeFormat = (uint8_t)((tmptime & (RTC_TSTR_PM))                 >> RTC_TSTR_PM_Pos);
 459              		.loc 1 381 3 is_stmt 1 view .LVU154
 460              		.loc 1 381 28 is_stmt 0 view .LVU155
 461 0020 C2F38052 		ubfx	r2, r2, #22, #1
 462              	.LVL31:
 463              		.loc 1 381 26 view .LVU156
 464 0024 E270     		strb	r2, [r4, #3]
 382:stm32f4xx-hal-driver/Src/stm32f4xx_hal_rtc_ex.c ****   sTimeStamp->SubSeconds = (uint32_t) hrtc->Instance->TSSSR;
 465              		.loc 1 382 3 is_stmt 1 view .LVU157
 466              		.loc 1 382 43 is_stmt 0 view .LVU158
 467 0026 3268     		ldr	r2, [r6]
 468              		.loc 1 382 53 view .LVU159
 469 0028 926B     		ldr	r2, [r2, #56]
 470              		.loc 1 382 26 view .LVU160
 471 002a 6260     		str	r2, [r4, #4]
 383:stm32f4xx-hal-driver/Src/stm32f4xx_hal_rtc_ex.c **** 
 384:stm32f4xx-hal-driver/Src/stm32f4xx_hal_rtc_ex.c ****   /* Fill the Date structure fields with the read parameters */
 385:stm32f4xx-hal-driver/Src/stm32f4xx_hal_rtc_ex.c ****   sTimeStampDate->Year    = 0U;
 472              		.loc 1 385 3 is_stmt 1 view .LVU161
ARM GAS  /tmp/ccvIVBQe.s 			page 16


 473              		.loc 1 385 27 is_stmt 0 view .LVU162
 474 002c 0022     		movs	r2, #0
 475 002e EA70     		strb	r2, [r5, #3]
 386:stm32f4xx-hal-driver/Src/stm32f4xx_hal_rtc_ex.c ****   sTimeStampDate->Month   = (uint8_t)((tmpdate & (RTC_TSDR_MT | RTC_TSDR_MU)) >> RTC_TSDR_MU_Pos);
 476              		.loc 1 386 3 is_stmt 1 view .LVU163
 477              		.loc 1 386 29 is_stmt 0 view .LVU164
 478 0030 C1F30422 		ubfx	r2, r1, #8, #5
 479              		.loc 1 386 27 view .LVU165
 480 0034 6A70     		strb	r2, [r5, #1]
 387:stm32f4xx-hal-driver/Src/stm32f4xx_hal_rtc_ex.c ****   sTimeStampDate->Date    = (uint8_t)((tmpdate & (RTC_TSDR_DT | RTC_TSDR_DU)) >> RTC_TSDR_DU_Pos);
 481              		.loc 1 387 3 is_stmt 1 view .LVU166
 482              		.loc 1 387 29 is_stmt 0 view .LVU167
 483 0036 01F03F02 		and	r2, r1, #63
 484              		.loc 1 387 27 view .LVU168
 485 003a AA70     		strb	r2, [r5, #2]
 388:stm32f4xx-hal-driver/Src/stm32f4xx_hal_rtc_ex.c ****   sTimeStampDate->WeekDay = (uint8_t)((tmpdate & (RTC_TSDR_WDU))              >> RTC_TSDR_WDU_Pos);
 486              		.loc 1 388 3 is_stmt 1 view .LVU169
 487              		.loc 1 388 29 is_stmt 0 view .LVU170
 488 003c C1F34231 		ubfx	r1, r1, #13, #3
 489              	.LVL32:
 490              		.loc 1 388 27 view .LVU171
 491 0040 2970     		strb	r1, [r5]
 389:stm32f4xx-hal-driver/Src/stm32f4xx_hal_rtc_ex.c **** 
 390:stm32f4xx-hal-driver/Src/stm32f4xx_hal_rtc_ex.c ****   /* Check the input parameters format */
 391:stm32f4xx-hal-driver/Src/stm32f4xx_hal_rtc_ex.c ****   if (Format == RTC_FORMAT_BIN)
 492              		.loc 1 391 3 is_stmt 1 view .LVU172
 493              		.loc 1 391 6 is_stmt 0 view .LVU173
 494 0042 3BB1     		cbz	r3, .L23
 495              	.LVL33:
 496              	.L21:
 392:stm32f4xx-hal-driver/Src/stm32f4xx_hal_rtc_ex.c ****   {
 393:stm32f4xx-hal-driver/Src/stm32f4xx_hal_rtc_ex.c ****     /* Convert the Timestamp structure parameters to Binary format */
 394:stm32f4xx-hal-driver/Src/stm32f4xx_hal_rtc_ex.c ****     sTimeStamp->Hours   = (uint8_t)RTC_Bcd2ToByte(sTimeStamp->Hours);
 395:stm32f4xx-hal-driver/Src/stm32f4xx_hal_rtc_ex.c ****     sTimeStamp->Minutes = (uint8_t)RTC_Bcd2ToByte(sTimeStamp->Minutes);
 396:stm32f4xx-hal-driver/Src/stm32f4xx_hal_rtc_ex.c ****     sTimeStamp->Seconds = (uint8_t)RTC_Bcd2ToByte(sTimeStamp->Seconds);
 397:stm32f4xx-hal-driver/Src/stm32f4xx_hal_rtc_ex.c **** 
 398:stm32f4xx-hal-driver/Src/stm32f4xx_hal_rtc_ex.c ****     /* Convert the DateTimeStamp structure parameters to Binary format */
 399:stm32f4xx-hal-driver/Src/stm32f4xx_hal_rtc_ex.c ****     sTimeStampDate->Month   = (uint8_t)RTC_Bcd2ToByte(sTimeStampDate->Month);
 400:stm32f4xx-hal-driver/Src/stm32f4xx_hal_rtc_ex.c ****     sTimeStampDate->Date    = (uint8_t)RTC_Bcd2ToByte(sTimeStampDate->Date);
 401:stm32f4xx-hal-driver/Src/stm32f4xx_hal_rtc_ex.c ****     sTimeStampDate->WeekDay = (uint8_t)RTC_Bcd2ToByte(sTimeStampDate->WeekDay);
 402:stm32f4xx-hal-driver/Src/stm32f4xx_hal_rtc_ex.c ****   }
 403:stm32f4xx-hal-driver/Src/stm32f4xx_hal_rtc_ex.c **** 
 404:stm32f4xx-hal-driver/Src/stm32f4xx_hal_rtc_ex.c ****   /* Clear the Timestamp Flag */
 405:stm32f4xx-hal-driver/Src/stm32f4xx_hal_rtc_ex.c ****   __HAL_RTC_TIMESTAMP_CLEAR_FLAG(hrtc, RTC_FLAG_TSF);
 497              		.loc 1 405 3 is_stmt 1 view .LVU174
 498 0044 3268     		ldr	r2, [r6]
 499 0046 D368     		ldr	r3, [r2, #12]
 500 0048 DBB2     		uxtb	r3, r3
 501 004a 63F40863 		orn	r3, r3, #2176
 502 004e D360     		str	r3, [r2, #12]
 406:stm32f4xx-hal-driver/Src/stm32f4xx_hal_rtc_ex.c **** 
 407:stm32f4xx-hal-driver/Src/stm32f4xx_hal_rtc_ex.c ****   return HAL_OK;
 503              		.loc 1 407 3 view .LVU175
 408:stm32f4xx-hal-driver/Src/stm32f4xx_hal_rtc_ex.c **** }
 504              		.loc 1 408 1 is_stmt 0 view .LVU176
 505 0050 0020     		movs	r0, #0
 506 0052 70BD     		pop	{r4, r5, r6, pc}
ARM GAS  /tmp/ccvIVBQe.s 			page 17


 507              	.LVL34:
 508              	.L23:
 394:stm32f4xx-hal-driver/Src/stm32f4xx_hal_rtc_ex.c ****     sTimeStamp->Minutes = (uint8_t)RTC_Bcd2ToByte(sTimeStamp->Minutes);
 509              		.loc 1 394 5 is_stmt 1 view .LVU177
 394:stm32f4xx-hal-driver/Src/stm32f4xx_hal_rtc_ex.c ****     sTimeStamp->Minutes = (uint8_t)RTC_Bcd2ToByte(sTimeStamp->Minutes);
 510              		.loc 1 394 36 is_stmt 0 view .LVU178
 511 0054 2078     		ldrb	r0, [r4]	@ zero_extendqisi2
 512 0056 FFF7FEFF 		bl	RTC_Bcd2ToByte
 513              	.LVL35:
 394:stm32f4xx-hal-driver/Src/stm32f4xx_hal_rtc_ex.c ****     sTimeStamp->Minutes = (uint8_t)RTC_Bcd2ToByte(sTimeStamp->Minutes);
 514              		.loc 1 394 25 view .LVU179
 515 005a 2070     		strb	r0, [r4]
 395:stm32f4xx-hal-driver/Src/stm32f4xx_hal_rtc_ex.c ****     sTimeStamp->Seconds = (uint8_t)RTC_Bcd2ToByte(sTimeStamp->Seconds);
 516              		.loc 1 395 5 is_stmt 1 view .LVU180
 395:stm32f4xx-hal-driver/Src/stm32f4xx_hal_rtc_ex.c ****     sTimeStamp->Seconds = (uint8_t)RTC_Bcd2ToByte(sTimeStamp->Seconds);
 517              		.loc 1 395 36 is_stmt 0 view .LVU181
 518 005c 6078     		ldrb	r0, [r4, #1]	@ zero_extendqisi2
 519 005e FFF7FEFF 		bl	RTC_Bcd2ToByte
 520              	.LVL36:
 395:stm32f4xx-hal-driver/Src/stm32f4xx_hal_rtc_ex.c ****     sTimeStamp->Seconds = (uint8_t)RTC_Bcd2ToByte(sTimeStamp->Seconds);
 521              		.loc 1 395 25 view .LVU182
 522 0062 6070     		strb	r0, [r4, #1]
 396:stm32f4xx-hal-driver/Src/stm32f4xx_hal_rtc_ex.c **** 
 523              		.loc 1 396 5 is_stmt 1 view .LVU183
 396:stm32f4xx-hal-driver/Src/stm32f4xx_hal_rtc_ex.c **** 
 524              		.loc 1 396 36 is_stmt 0 view .LVU184
 525 0064 A078     		ldrb	r0, [r4, #2]	@ zero_extendqisi2
 526 0066 FFF7FEFF 		bl	RTC_Bcd2ToByte
 527              	.LVL37:
 396:stm32f4xx-hal-driver/Src/stm32f4xx_hal_rtc_ex.c **** 
 528              		.loc 1 396 25 view .LVU185
 529 006a A070     		strb	r0, [r4, #2]
 399:stm32f4xx-hal-driver/Src/stm32f4xx_hal_rtc_ex.c ****     sTimeStampDate->Date    = (uint8_t)RTC_Bcd2ToByte(sTimeStampDate->Date);
 530              		.loc 1 399 5 is_stmt 1 view .LVU186
 399:stm32f4xx-hal-driver/Src/stm32f4xx_hal_rtc_ex.c ****     sTimeStampDate->Date    = (uint8_t)RTC_Bcd2ToByte(sTimeStampDate->Date);
 531              		.loc 1 399 40 is_stmt 0 view .LVU187
 532 006c 6878     		ldrb	r0, [r5, #1]	@ zero_extendqisi2
 533 006e FFF7FEFF 		bl	RTC_Bcd2ToByte
 534              	.LVL38:
 399:stm32f4xx-hal-driver/Src/stm32f4xx_hal_rtc_ex.c ****     sTimeStampDate->Date    = (uint8_t)RTC_Bcd2ToByte(sTimeStampDate->Date);
 535              		.loc 1 399 29 view .LVU188
 536 0072 6870     		strb	r0, [r5, #1]
 400:stm32f4xx-hal-driver/Src/stm32f4xx_hal_rtc_ex.c ****     sTimeStampDate->WeekDay = (uint8_t)RTC_Bcd2ToByte(sTimeStampDate->WeekDay);
 537              		.loc 1 400 5 is_stmt 1 view .LVU189
 400:stm32f4xx-hal-driver/Src/stm32f4xx_hal_rtc_ex.c ****     sTimeStampDate->WeekDay = (uint8_t)RTC_Bcd2ToByte(sTimeStampDate->WeekDay);
 538              		.loc 1 400 40 is_stmt 0 view .LVU190
 539 0074 A878     		ldrb	r0, [r5, #2]	@ zero_extendqisi2
 540 0076 FFF7FEFF 		bl	RTC_Bcd2ToByte
 541              	.LVL39:
 400:stm32f4xx-hal-driver/Src/stm32f4xx_hal_rtc_ex.c ****     sTimeStampDate->WeekDay = (uint8_t)RTC_Bcd2ToByte(sTimeStampDate->WeekDay);
 542              		.loc 1 400 29 view .LVU191
 543 007a A870     		strb	r0, [r5, #2]
 401:stm32f4xx-hal-driver/Src/stm32f4xx_hal_rtc_ex.c ****   }
 544              		.loc 1 401 5 is_stmt 1 view .LVU192
 401:stm32f4xx-hal-driver/Src/stm32f4xx_hal_rtc_ex.c ****   }
 545              		.loc 1 401 40 is_stmt 0 view .LVU193
 546 007c 2878     		ldrb	r0, [r5]	@ zero_extendqisi2
ARM GAS  /tmp/ccvIVBQe.s 			page 18


 547 007e FFF7FEFF 		bl	RTC_Bcd2ToByte
 548              	.LVL40:
 401:stm32f4xx-hal-driver/Src/stm32f4xx_hal_rtc_ex.c ****   }
 549              		.loc 1 401 29 view .LVU194
 550 0082 2870     		strb	r0, [r5]
 551 0084 DEE7     		b	.L21
 552              		.cfi_endproc
 553              	.LFE242:
 555              		.section	.text.HAL_RTCEx_SetTamper,"ax",%progbits
 556              		.align	1
 557              		.global	HAL_RTCEx_SetTamper
 558              		.syntax unified
 559              		.thumb
 560              		.thumb_func
 561              		.fpu fpv4-sp-d16
 563              	HAL_RTCEx_SetTamper:
 564              	.LVL41:
 565              	.LFB243:
 409:stm32f4xx-hal-driver/Src/stm32f4xx_hal_rtc_ex.c **** 
 410:stm32f4xx-hal-driver/Src/stm32f4xx_hal_rtc_ex.c **** /**
 411:stm32f4xx-hal-driver/Src/stm32f4xx_hal_rtc_ex.c ****   * @brief  Sets Tamper.
 412:stm32f4xx-hal-driver/Src/stm32f4xx_hal_rtc_ex.c ****   * @note   By calling this API the tamper global interrupt will be disabled.
 413:stm32f4xx-hal-driver/Src/stm32f4xx_hal_rtc_ex.c ****   * @param  hrtc pointer to a RTC_HandleTypeDef structure that contains
 414:stm32f4xx-hal-driver/Src/stm32f4xx_hal_rtc_ex.c ****   *                the configuration information for RTC.
 415:stm32f4xx-hal-driver/Src/stm32f4xx_hal_rtc_ex.c ****   * @param  sTamper Pointer to Tamper Structure.
 416:stm32f4xx-hal-driver/Src/stm32f4xx_hal_rtc_ex.c ****   * @retval HAL status
 417:stm32f4xx-hal-driver/Src/stm32f4xx_hal_rtc_ex.c ****   */
 418:stm32f4xx-hal-driver/Src/stm32f4xx_hal_rtc_ex.c **** HAL_StatusTypeDef HAL_RTCEx_SetTamper(RTC_HandleTypeDef *hrtc, RTC_TamperTypeDef *sTamper)
 419:stm32f4xx-hal-driver/Src/stm32f4xx_hal_rtc_ex.c **** {
 566              		.loc 1 419 1 is_stmt 1 view -0
 567              		.cfi_startproc
 568              		@ args = 0, pretend = 0, frame = 0
 569              		@ frame_needed = 0, uses_anonymous_args = 0
 570              		@ link register save eliminated.
 420:stm32f4xx-hal-driver/Src/stm32f4xx_hal_rtc_ex.c ****   uint32_t tmpreg = 0U;
 571              		.loc 1 420 3 view .LVU196
 421:stm32f4xx-hal-driver/Src/stm32f4xx_hal_rtc_ex.c **** 
 422:stm32f4xx-hal-driver/Src/stm32f4xx_hal_rtc_ex.c ****   /* Check the parameters */
 423:stm32f4xx-hal-driver/Src/stm32f4xx_hal_rtc_ex.c ****   assert_param(IS_RTC_TAMPER(sTamper->Tamper));
 572              		.loc 1 423 3 view .LVU197
 424:stm32f4xx-hal-driver/Src/stm32f4xx_hal_rtc_ex.c ****   assert_param(IS_RTC_TAMPER_PIN(sTamper->PinSelection));
 573              		.loc 1 424 3 view .LVU198
 425:stm32f4xx-hal-driver/Src/stm32f4xx_hal_rtc_ex.c ****   assert_param(IS_RTC_TAMPER_TRIGGER(sTamper->Trigger));
 574              		.loc 1 425 3 view .LVU199
 426:stm32f4xx-hal-driver/Src/stm32f4xx_hal_rtc_ex.c ****   assert_param(IS_RTC_TAMPER_FILTER(sTamper->Filter));
 575              		.loc 1 426 3 view .LVU200
 427:stm32f4xx-hal-driver/Src/stm32f4xx_hal_rtc_ex.c ****   assert_param(IS_RTC_TAMPER_FILTER_CONFIG_CORRECT(sTamper->Filter, sTamper->Trigger));
 576              		.loc 1 427 3 view .LVU201
 428:stm32f4xx-hal-driver/Src/stm32f4xx_hal_rtc_ex.c ****   assert_param(IS_RTC_TAMPER_SAMPLING_FREQ(sTamper->SamplingFrequency));
 577              		.loc 1 428 3 view .LVU202
 429:stm32f4xx-hal-driver/Src/stm32f4xx_hal_rtc_ex.c ****   assert_param(IS_RTC_TAMPER_PRECHARGE_DURATION(sTamper->PrechargeDuration));
 578              		.loc 1 429 3 view .LVU203
 430:stm32f4xx-hal-driver/Src/stm32f4xx_hal_rtc_ex.c ****   assert_param(IS_RTC_TAMPER_PULLUP_STATE(sTamper->TamperPullUp));
 579              		.loc 1 430 3 view .LVU204
 431:stm32f4xx-hal-driver/Src/stm32f4xx_hal_rtc_ex.c ****   assert_param(IS_RTC_TAMPER_TIMESTAMPONTAMPER_DETECTION(sTamper->TimeStampOnTamperDetection));
 580              		.loc 1 431 3 view .LVU205
 432:stm32f4xx-hal-driver/Src/stm32f4xx_hal_rtc_ex.c **** 
ARM GAS  /tmp/ccvIVBQe.s 			page 19


 433:stm32f4xx-hal-driver/Src/stm32f4xx_hal_rtc_ex.c ****   /* Process Locked */
 434:stm32f4xx-hal-driver/Src/stm32f4xx_hal_rtc_ex.c ****   __HAL_LOCK(hrtc);
 581              		.loc 1 434 3 view .LVU206
 582              		.loc 1 434 3 view .LVU207
 583 0000 037F     		ldrb	r3, [r0, #28]	@ zero_extendqisi2
 584 0002 012B     		cmp	r3, #1
 585 0004 2AD0     		beq	.L28
 419:stm32f4xx-hal-driver/Src/stm32f4xx_hal_rtc_ex.c ****   uint32_t tmpreg = 0U;
 586              		.loc 1 419 1 is_stmt 0 discriminator 2 view .LVU208
 587 0006 30B4     		push	{r4, r5}
 588              	.LCFI5:
 589              		.cfi_def_cfa_offset 8
 590              		.cfi_offset 4, -8
 591              		.cfi_offset 5, -4
 592              		.loc 1 434 3 is_stmt 1 discriminator 2 view .LVU209
 593 0008 0123     		movs	r3, #1
 594 000a 0377     		strb	r3, [r0, #28]
 595              		.loc 1 434 3 discriminator 2 view .LVU210
 435:stm32f4xx-hal-driver/Src/stm32f4xx_hal_rtc_ex.c **** 
 436:stm32f4xx-hal-driver/Src/stm32f4xx_hal_rtc_ex.c ****   hrtc->State = HAL_RTC_STATE_BUSY;
 596              		.loc 1 436 3 discriminator 2 view .LVU211
 597              		.loc 1 436 15 is_stmt 0 discriminator 2 view .LVU212
 598 000c 0223     		movs	r3, #2
 599 000e 4377     		strb	r3, [r0, #29]
 437:stm32f4xx-hal-driver/Src/stm32f4xx_hal_rtc_ex.c **** 
 438:stm32f4xx-hal-driver/Src/stm32f4xx_hal_rtc_ex.c ****   /* Copy control register into temporary variable */
 439:stm32f4xx-hal-driver/Src/stm32f4xx_hal_rtc_ex.c ****   tmpreg = hrtc->Instance->TAFCR;
 600              		.loc 1 439 3 is_stmt 1 discriminator 2 view .LVU213
 601              		.loc 1 439 16 is_stmt 0 discriminator 2 view .LVU214
 602 0010 0568     		ldr	r5, [r0]
 603              		.loc 1 439 10 discriminator 2 view .LVU215
 604 0012 2B6C     		ldr	r3, [r5, #64]
 605              	.LVL42:
 440:stm32f4xx-hal-driver/Src/stm32f4xx_hal_rtc_ex.c **** 
 441:stm32f4xx-hal-driver/Src/stm32f4xx_hal_rtc_ex.c ****   /* Enable selected tamper */
 442:stm32f4xx-hal-driver/Src/stm32f4xx_hal_rtc_ex.c ****   tmpreg |= (sTamper->Tamper);
 606              		.loc 1 442 3 is_stmt 1 discriminator 2 view .LVU216
 607              		.loc 1 442 21 is_stmt 0 discriminator 2 view .LVU217
 608 0014 0A68     		ldr	r2, [r1]
 609              		.loc 1 442 10 discriminator 2 view .LVU218
 610 0016 1343     		orrs	r3, r3, r2
 611              	.LVL43:
 443:stm32f4xx-hal-driver/Src/stm32f4xx_hal_rtc_ex.c **** 
 444:stm32f4xx-hal-driver/Src/stm32f4xx_hal_rtc_ex.c ****   /* Configure the tamper trigger bit (this bit is just on the right of the
 445:stm32f4xx-hal-driver/Src/stm32f4xx_hal_rtc_ex.c ****        tamper enable bit, hence the one-time right shift before updating it) */
 446:stm32f4xx-hal-driver/Src/stm32f4xx_hal_rtc_ex.c ****   if (sTamper->Trigger == RTC_TAMPERTRIGGER_FALLINGEDGE)
 612              		.loc 1 446 3 is_stmt 1 discriminator 2 view .LVU219
 613              		.loc 1 446 14 is_stmt 0 discriminator 2 view .LVU220
 614 0018 8C68     		ldr	r4, [r1, #8]
 615              		.loc 1 446 6 discriminator 2 view .LVU221
 616 001a 022C     		cmp	r4, #2
 617 001c 1BD0     		beq	.L33
 447:stm32f4xx-hal-driver/Src/stm32f4xx_hal_rtc_ex.c ****   {
 448:stm32f4xx-hal-driver/Src/stm32f4xx_hal_rtc_ex.c ****     /* Set the tamper trigger bit (case of falling edge or high level) */
 449:stm32f4xx-hal-driver/Src/stm32f4xx_hal_rtc_ex.c ****     tmpreg |= (uint32_t)(sTamper->Tamper << 1U);
 450:stm32f4xx-hal-driver/Src/stm32f4xx_hal_rtc_ex.c ****   }
 451:stm32f4xx-hal-driver/Src/stm32f4xx_hal_rtc_ex.c ****   else
ARM GAS  /tmp/ccvIVBQe.s 			page 20


 452:stm32f4xx-hal-driver/Src/stm32f4xx_hal_rtc_ex.c ****   {
 453:stm32f4xx-hal-driver/Src/stm32f4xx_hal_rtc_ex.c ****     /* Clear the tamper trigger bit (case of rising edge or low level) */
 454:stm32f4xx-hal-driver/Src/stm32f4xx_hal_rtc_ex.c ****     tmpreg &= (uint32_t)~(sTamper->Tamper << 1U);
 618              		.loc 1 454 5 is_stmt 1 view .LVU222
 619              		.loc 1 454 12 is_stmt 0 view .LVU223
 620 001e 23EA4203 		bic	r3, r3, r2, lsl #1
 621              	.LVL44:
 622              	.L27:
 455:stm32f4xx-hal-driver/Src/stm32f4xx_hal_rtc_ex.c ****   }
 456:stm32f4xx-hal-driver/Src/stm32f4xx_hal_rtc_ex.c **** 
 457:stm32f4xx-hal-driver/Src/stm32f4xx_hal_rtc_ex.c ****   /* Clear remaining fields before setting them */
 458:stm32f4xx-hal-driver/Src/stm32f4xx_hal_rtc_ex.c ****   tmpreg &= ~(RTC_TAMPERFILTER_MASK              | \
 623              		.loc 1 458 3 is_stmt 1 view .LVU224
 624              		.loc 1 458 10 is_stmt 0 view .LVU225
 625 0022 23F4FF32 		bic	r2, r3, #130560
 626 0026 22F4C072 		bic	r2, r2, #384
 627              	.LVL45:
 459:stm32f4xx-hal-driver/Src/stm32f4xx_hal_rtc_ex.c ****               RTC_TAMPERSAMPLINGFREQ_RTCCLK_MASK | \
 460:stm32f4xx-hal-driver/Src/stm32f4xx_hal_rtc_ex.c ****               RTC_TAMPERPRECHARGEDURATION_MASK   | \
 461:stm32f4xx-hal-driver/Src/stm32f4xx_hal_rtc_ex.c ****               RTC_TAMPER_PULLUP_MASK             | \
 462:stm32f4xx-hal-driver/Src/stm32f4xx_hal_rtc_ex.c ****               RTC_TAFCR_TAMP1INSEL               | \
 463:stm32f4xx-hal-driver/Src/stm32f4xx_hal_rtc_ex.c ****               RTC_TIMESTAMPONTAMPERDETECTION_MASK);
 464:stm32f4xx-hal-driver/Src/stm32f4xx_hal_rtc_ex.c **** 
 465:stm32f4xx-hal-driver/Src/stm32f4xx_hal_rtc_ex.c ****   /* Set remaining parameters of desired configuration into temporary variable */
 466:stm32f4xx-hal-driver/Src/stm32f4xx_hal_rtc_ex.c ****   tmpreg |= ((uint32_t)sTamper->Filter            | \
 628              		.loc 1 466 3 is_stmt 1 view .LVU226
 629              		.loc 1 466 31 is_stmt 0 view .LVU227
 630 002a CB68     		ldr	r3, [r1, #12]
 467:stm32f4xx-hal-driver/Src/stm32f4xx_hal_rtc_ex.c ****              (uint32_t)sTamper->SamplingFrequency | \
 631              		.loc 1 467 31 view .LVU228
 632 002c 0C69     		ldr	r4, [r1, #16]
 466:stm32f4xx-hal-driver/Src/stm32f4xx_hal_rtc_ex.c ****              (uint32_t)sTamper->SamplingFrequency | \
 633              		.loc 1 466 51 view .LVU229
 634 002e 2343     		orrs	r3, r3, r4
 468:stm32f4xx-hal-driver/Src/stm32f4xx_hal_rtc_ex.c ****              (uint32_t)sTamper->PrechargeDuration | \
 635              		.loc 1 468 31 view .LVU230
 636 0030 4C69     		ldr	r4, [r1, #20]
 467:stm32f4xx-hal-driver/Src/stm32f4xx_hal_rtc_ex.c ****              (uint32_t)sTamper->SamplingFrequency | \
 637              		.loc 1 467 51 view .LVU231
 638 0032 2343     		orrs	r3, r3, r4
 469:stm32f4xx-hal-driver/Src/stm32f4xx_hal_rtc_ex.c ****              (uint32_t)sTamper->TamperPullUp      | \
 639              		.loc 1 469 31 view .LVU232
 640 0034 8C69     		ldr	r4, [r1, #24]
 468:stm32f4xx-hal-driver/Src/stm32f4xx_hal_rtc_ex.c ****              (uint32_t)sTamper->PrechargeDuration | \
 641              		.loc 1 468 51 view .LVU233
 642 0036 2343     		orrs	r3, r3, r4
 470:stm32f4xx-hal-driver/Src/stm32f4xx_hal_rtc_ex.c ****              (uint32_t)sTamper->PinSelection      | \
 643              		.loc 1 470 31 view .LVU234
 644 0038 4C68     		ldr	r4, [r1, #4]
 469:stm32f4xx-hal-driver/Src/stm32f4xx_hal_rtc_ex.c ****              (uint32_t)sTamper->TamperPullUp      | \
 645              		.loc 1 469 51 view .LVU235
 646 003a 2343     		orrs	r3, r3, r4
 471:stm32f4xx-hal-driver/Src/stm32f4xx_hal_rtc_ex.c ****              (uint32_t)sTamper->TimeStampOnTamperDetection);
 647              		.loc 1 471 31 view .LVU236
 648 003c C969     		ldr	r1, [r1, #28]
 649              	.LVL46:
 470:stm32f4xx-hal-driver/Src/stm32f4xx_hal_rtc_ex.c ****              (uint32_t)sTamper->PinSelection      | \
ARM GAS  /tmp/ccvIVBQe.s 			page 21


 650              		.loc 1 470 51 view .LVU237
 651 003e 0B43     		orrs	r3, r3, r1
 466:stm32f4xx-hal-driver/Src/stm32f4xx_hal_rtc_ex.c ****              (uint32_t)sTamper->SamplingFrequency | \
 652              		.loc 1 466 10 view .LVU238
 653 0040 1343     		orrs	r3, r3, r2
 654              	.LVL47:
 472:stm32f4xx-hal-driver/Src/stm32f4xx_hal_rtc_ex.c **** 
 473:stm32f4xx-hal-driver/Src/stm32f4xx_hal_rtc_ex.c ****   /* Disable tamper global interrupt in case it is enabled */
 474:stm32f4xx-hal-driver/Src/stm32f4xx_hal_rtc_ex.c ****   tmpreg &= (uint32_t)~RTC_TAFCR_TAMPIE;
 655              		.loc 1 474 3 is_stmt 1 view .LVU239
 656              		.loc 1 474 10 is_stmt 0 view .LVU240
 657 0042 23F00403 		bic	r3, r3, #4
 658              	.LVL48:
 475:stm32f4xx-hal-driver/Src/stm32f4xx_hal_rtc_ex.c **** 
 476:stm32f4xx-hal-driver/Src/stm32f4xx_hal_rtc_ex.c ****   /* Copy desired configuration into configuration register */
 477:stm32f4xx-hal-driver/Src/stm32f4xx_hal_rtc_ex.c ****   hrtc->Instance->TAFCR = tmpreg;
 659              		.loc 1 477 3 is_stmt 1 view .LVU241
 660              		.loc 1 477 25 is_stmt 0 view .LVU242
 661 0046 2B64     		str	r3, [r5, #64]
 478:stm32f4xx-hal-driver/Src/stm32f4xx_hal_rtc_ex.c **** 
 479:stm32f4xx-hal-driver/Src/stm32f4xx_hal_rtc_ex.c ****   hrtc->State = HAL_RTC_STATE_READY;
 662              		.loc 1 479 3 is_stmt 1 view .LVU243
 663              		.loc 1 479 15 is_stmt 0 view .LVU244
 664 0048 0123     		movs	r3, #1
 665              	.LVL49:
 666              		.loc 1 479 15 view .LVU245
 667 004a 4377     		strb	r3, [r0, #29]
 668              	.LVL50:
 480:stm32f4xx-hal-driver/Src/stm32f4xx_hal_rtc_ex.c **** 
 481:stm32f4xx-hal-driver/Src/stm32f4xx_hal_rtc_ex.c ****   /* Process Unlocked */
 482:stm32f4xx-hal-driver/Src/stm32f4xx_hal_rtc_ex.c ****   __HAL_UNLOCK(hrtc);
 669              		.loc 1 482 3 is_stmt 1 view .LVU246
 670              		.loc 1 482 3 view .LVU247
 671 004c 0023     		movs	r3, #0
 672 004e 0377     		strb	r3, [r0, #28]
 673              		.loc 1 482 3 view .LVU248
 483:stm32f4xx-hal-driver/Src/stm32f4xx_hal_rtc_ex.c **** 
 484:stm32f4xx-hal-driver/Src/stm32f4xx_hal_rtc_ex.c ****   return HAL_OK;
 674              		.loc 1 484 3 view .LVU249
 675              		.loc 1 484 10 is_stmt 0 view .LVU250
 676 0050 1846     		mov	r0, r3
 677              	.LVL51:
 485:stm32f4xx-hal-driver/Src/stm32f4xx_hal_rtc_ex.c **** }
 678              		.loc 1 485 1 view .LVU251
 679 0052 30BC     		pop	{r4, r5}
 680              	.LCFI6:
 681              		.cfi_remember_state
 682              		.cfi_restore 5
 683              		.cfi_restore 4
 684              		.cfi_def_cfa_offset 0
 685 0054 7047     		bx	lr
 686              	.LVL52:
 687              	.L33:
 688              	.LCFI7:
 689              		.cfi_restore_state
 449:stm32f4xx-hal-driver/Src/stm32f4xx_hal_rtc_ex.c ****   }
 690              		.loc 1 449 5 is_stmt 1 view .LVU252
ARM GAS  /tmp/ccvIVBQe.s 			page 22


 449:stm32f4xx-hal-driver/Src/stm32f4xx_hal_rtc_ex.c ****   }
 691              		.loc 1 449 12 is_stmt 0 view .LVU253
 692 0056 43EA4203 		orr	r3, r3, r2, lsl #1
 693              	.LVL53:
 449:stm32f4xx-hal-driver/Src/stm32f4xx_hal_rtc_ex.c ****   }
 694              		.loc 1 449 12 view .LVU254
 695 005a E2E7     		b	.L27
 696              	.LVL54:
 697              	.L28:
 698              	.LCFI8:
 699              		.cfi_def_cfa_offset 0
 700              		.cfi_restore 4
 701              		.cfi_restore 5
 434:stm32f4xx-hal-driver/Src/stm32f4xx_hal_rtc_ex.c **** 
 702              		.loc 1 434 3 view .LVU255
 703 005c 0220     		movs	r0, #2
 704              	.LVL55:
 705              		.loc 1 485 1 view .LVU256
 706 005e 7047     		bx	lr
 707              		.cfi_endproc
 708              	.LFE243:
 710              		.section	.text.HAL_RTCEx_SetTamper_IT,"ax",%progbits
 711              		.align	1
 712              		.global	HAL_RTCEx_SetTamper_IT
 713              		.syntax unified
 714              		.thumb
 715              		.thumb_func
 716              		.fpu fpv4-sp-d16
 718              	HAL_RTCEx_SetTamper_IT:
 719              	.LVL56:
 720              	.LFB244:
 486:stm32f4xx-hal-driver/Src/stm32f4xx_hal_rtc_ex.c **** 
 487:stm32f4xx-hal-driver/Src/stm32f4xx_hal_rtc_ex.c **** /**
 488:stm32f4xx-hal-driver/Src/stm32f4xx_hal_rtc_ex.c ****   * @brief  Sets Tamper with interrupt.
 489:stm32f4xx-hal-driver/Src/stm32f4xx_hal_rtc_ex.c ****   * @note   By calling this API the tamper global interrupt will be enabled.
 490:stm32f4xx-hal-driver/Src/stm32f4xx_hal_rtc_ex.c ****   * @param  hrtc pointer to a RTC_HandleTypeDef structure that contains
 491:stm32f4xx-hal-driver/Src/stm32f4xx_hal_rtc_ex.c ****   *                the configuration information for RTC.
 492:stm32f4xx-hal-driver/Src/stm32f4xx_hal_rtc_ex.c ****   * @param  sTamper Pointer to RTC Tamper.
 493:stm32f4xx-hal-driver/Src/stm32f4xx_hal_rtc_ex.c ****   * @retval HAL status
 494:stm32f4xx-hal-driver/Src/stm32f4xx_hal_rtc_ex.c ****   */
 495:stm32f4xx-hal-driver/Src/stm32f4xx_hal_rtc_ex.c **** HAL_StatusTypeDef HAL_RTCEx_SetTamper_IT(RTC_HandleTypeDef *hrtc, RTC_TamperTypeDef *sTamper)
 496:stm32f4xx-hal-driver/Src/stm32f4xx_hal_rtc_ex.c **** {
 721              		.loc 1 496 1 is_stmt 1 view -0
 722              		.cfi_startproc
 723              		@ args = 0, pretend = 0, frame = 0
 724              		@ frame_needed = 0, uses_anonymous_args = 0
 725              		@ link register save eliminated.
 497:stm32f4xx-hal-driver/Src/stm32f4xx_hal_rtc_ex.c ****   uint32_t tmpreg = 0U;
 726              		.loc 1 497 3 view .LVU258
 498:stm32f4xx-hal-driver/Src/stm32f4xx_hal_rtc_ex.c **** 
 499:stm32f4xx-hal-driver/Src/stm32f4xx_hal_rtc_ex.c ****   /* Check the parameters */
 500:stm32f4xx-hal-driver/Src/stm32f4xx_hal_rtc_ex.c ****   assert_param(IS_RTC_TAMPER(sTamper->Tamper));
 727              		.loc 1 500 3 view .LVU259
 501:stm32f4xx-hal-driver/Src/stm32f4xx_hal_rtc_ex.c ****   assert_param(IS_RTC_TAMPER_PIN(sTamper->PinSelection));
 728              		.loc 1 501 3 view .LVU260
 502:stm32f4xx-hal-driver/Src/stm32f4xx_hal_rtc_ex.c ****   assert_param(IS_RTC_TAMPER_TRIGGER(sTamper->Trigger));
 729              		.loc 1 502 3 view .LVU261
ARM GAS  /tmp/ccvIVBQe.s 			page 23


 503:stm32f4xx-hal-driver/Src/stm32f4xx_hal_rtc_ex.c ****   assert_param(IS_RTC_TAMPER_FILTER(sTamper->Filter));
 730              		.loc 1 503 3 view .LVU262
 504:stm32f4xx-hal-driver/Src/stm32f4xx_hal_rtc_ex.c ****   assert_param(IS_RTC_TAMPER_FILTER_CONFIG_CORRECT(sTamper->Filter, sTamper->Trigger));
 731              		.loc 1 504 3 view .LVU263
 505:stm32f4xx-hal-driver/Src/stm32f4xx_hal_rtc_ex.c ****   assert_param(IS_RTC_TAMPER_SAMPLING_FREQ(sTamper->SamplingFrequency));
 732              		.loc 1 505 3 view .LVU264
 506:stm32f4xx-hal-driver/Src/stm32f4xx_hal_rtc_ex.c ****   assert_param(IS_RTC_TAMPER_PRECHARGE_DURATION(sTamper->PrechargeDuration));
 733              		.loc 1 506 3 view .LVU265
 507:stm32f4xx-hal-driver/Src/stm32f4xx_hal_rtc_ex.c ****   assert_param(IS_RTC_TAMPER_PULLUP_STATE(sTamper->TamperPullUp));
 734              		.loc 1 507 3 view .LVU266
 508:stm32f4xx-hal-driver/Src/stm32f4xx_hal_rtc_ex.c ****   assert_param(IS_RTC_TAMPER_TIMESTAMPONTAMPER_DETECTION(sTamper->TimeStampOnTamperDetection));
 735              		.loc 1 508 3 view .LVU267
 509:stm32f4xx-hal-driver/Src/stm32f4xx_hal_rtc_ex.c **** 
 510:stm32f4xx-hal-driver/Src/stm32f4xx_hal_rtc_ex.c ****   /* Process Locked */
 511:stm32f4xx-hal-driver/Src/stm32f4xx_hal_rtc_ex.c ****   __HAL_LOCK(hrtc);
 736              		.loc 1 511 3 view .LVU268
 737              		.loc 1 511 3 view .LVU269
 738 0000 037F     		ldrb	r3, [r0, #28]	@ zero_extendqisi2
 739 0002 012B     		cmp	r3, #1
 740 0004 33D0     		beq	.L38
 496:stm32f4xx-hal-driver/Src/stm32f4xx_hal_rtc_ex.c ****   uint32_t tmpreg = 0U;
 741              		.loc 1 496 1 is_stmt 0 discriminator 2 view .LVU270
 742 0006 30B4     		push	{r4, r5}
 743              	.LCFI9:
 744              		.cfi_def_cfa_offset 8
 745              		.cfi_offset 4, -8
 746              		.cfi_offset 5, -4
 747              		.loc 1 511 3 is_stmt 1 discriminator 2 view .LVU271
 748 0008 0123     		movs	r3, #1
 749 000a 0377     		strb	r3, [r0, #28]
 750              		.loc 1 511 3 discriminator 2 view .LVU272
 512:stm32f4xx-hal-driver/Src/stm32f4xx_hal_rtc_ex.c **** 
 513:stm32f4xx-hal-driver/Src/stm32f4xx_hal_rtc_ex.c ****   hrtc->State = HAL_RTC_STATE_BUSY;
 751              		.loc 1 513 3 discriminator 2 view .LVU273
 752              		.loc 1 513 15 is_stmt 0 discriminator 2 view .LVU274
 753 000c 0223     		movs	r3, #2
 754 000e 4377     		strb	r3, [r0, #29]
 514:stm32f4xx-hal-driver/Src/stm32f4xx_hal_rtc_ex.c **** 
 515:stm32f4xx-hal-driver/Src/stm32f4xx_hal_rtc_ex.c ****   /* Copy control register into temporary variable */
 516:stm32f4xx-hal-driver/Src/stm32f4xx_hal_rtc_ex.c ****   tmpreg = hrtc->Instance->TAFCR;
 755              		.loc 1 516 3 is_stmt 1 discriminator 2 view .LVU275
 756              		.loc 1 516 16 is_stmt 0 discriminator 2 view .LVU276
 757 0010 0568     		ldr	r5, [r0]
 758              		.loc 1 516 10 discriminator 2 view .LVU277
 759 0012 2B6C     		ldr	r3, [r5, #64]
 760              	.LVL57:
 517:stm32f4xx-hal-driver/Src/stm32f4xx_hal_rtc_ex.c **** 
 518:stm32f4xx-hal-driver/Src/stm32f4xx_hal_rtc_ex.c ****   /* Enable selected tamper */
 519:stm32f4xx-hal-driver/Src/stm32f4xx_hal_rtc_ex.c ****   tmpreg |= (sTamper->Tamper);
 761              		.loc 1 519 3 is_stmt 1 discriminator 2 view .LVU278
 762              		.loc 1 519 21 is_stmt 0 discriminator 2 view .LVU279
 763 0014 0A68     		ldr	r2, [r1]
 764              		.loc 1 519 10 discriminator 2 view .LVU280
 765 0016 1343     		orrs	r3, r3, r2
 766              	.LVL58:
 520:stm32f4xx-hal-driver/Src/stm32f4xx_hal_rtc_ex.c **** 
 521:stm32f4xx-hal-driver/Src/stm32f4xx_hal_rtc_ex.c ****   /* Configure the tamper trigger bit (this bit is just on the right of the
ARM GAS  /tmp/ccvIVBQe.s 			page 24


 522:stm32f4xx-hal-driver/Src/stm32f4xx_hal_rtc_ex.c ****        tamper enable bit, hence the one-time right shift before updating it) */
 523:stm32f4xx-hal-driver/Src/stm32f4xx_hal_rtc_ex.c ****   if (sTamper->Trigger == RTC_TAMPERTRIGGER_FALLINGEDGE)
 767              		.loc 1 523 3 is_stmt 1 discriminator 2 view .LVU281
 768              		.loc 1 523 14 is_stmt 0 discriminator 2 view .LVU282
 769 0018 8C68     		ldr	r4, [r1, #8]
 770              		.loc 1 523 6 discriminator 2 view .LVU283
 771 001a 022C     		cmp	r4, #2
 772 001c 24D0     		beq	.L43
 524:stm32f4xx-hal-driver/Src/stm32f4xx_hal_rtc_ex.c ****   {
 525:stm32f4xx-hal-driver/Src/stm32f4xx_hal_rtc_ex.c ****     /* Set the tamper trigger bit (case of falling edge or high level) */
 526:stm32f4xx-hal-driver/Src/stm32f4xx_hal_rtc_ex.c ****     tmpreg |= (uint32_t)(sTamper->Tamper << 1U);
 527:stm32f4xx-hal-driver/Src/stm32f4xx_hal_rtc_ex.c ****   }
 528:stm32f4xx-hal-driver/Src/stm32f4xx_hal_rtc_ex.c ****   else
 529:stm32f4xx-hal-driver/Src/stm32f4xx_hal_rtc_ex.c ****   {
 530:stm32f4xx-hal-driver/Src/stm32f4xx_hal_rtc_ex.c ****     /* Clear the tamper trigger bit (case of rising edge or low level) */
 531:stm32f4xx-hal-driver/Src/stm32f4xx_hal_rtc_ex.c ****     tmpreg &= (uint32_t)~(sTamper->Tamper << 1U);
 773              		.loc 1 531 5 is_stmt 1 view .LVU284
 774              		.loc 1 531 12 is_stmt 0 view .LVU285
 775 001e 23EA4203 		bic	r3, r3, r2, lsl #1
 776              	.LVL59:
 777              	.L37:
 532:stm32f4xx-hal-driver/Src/stm32f4xx_hal_rtc_ex.c ****   }
 533:stm32f4xx-hal-driver/Src/stm32f4xx_hal_rtc_ex.c **** 
 534:stm32f4xx-hal-driver/Src/stm32f4xx_hal_rtc_ex.c ****   /* Clear remaining fields before setting them */
 535:stm32f4xx-hal-driver/Src/stm32f4xx_hal_rtc_ex.c ****   tmpreg &= ~(RTC_TAMPERFILTER_MASK              | \
 778              		.loc 1 535 3 is_stmt 1 view .LVU286
 779              		.loc 1 535 10 is_stmt 0 view .LVU287
 780 0022 23F4FF32 		bic	r2, r3, #130560
 781 0026 22F4C072 		bic	r2, r2, #384
 782              	.LVL60:
 536:stm32f4xx-hal-driver/Src/stm32f4xx_hal_rtc_ex.c ****               RTC_TAMPERSAMPLINGFREQ_RTCCLK_MASK | \
 537:stm32f4xx-hal-driver/Src/stm32f4xx_hal_rtc_ex.c ****               RTC_TAMPERPRECHARGEDURATION_MASK   | \
 538:stm32f4xx-hal-driver/Src/stm32f4xx_hal_rtc_ex.c ****               RTC_TAMPER_PULLUP_MASK             | \
 539:stm32f4xx-hal-driver/Src/stm32f4xx_hal_rtc_ex.c ****               RTC_TAFCR_TAMP1INSEL               | \
 540:stm32f4xx-hal-driver/Src/stm32f4xx_hal_rtc_ex.c ****               RTC_TIMESTAMPONTAMPERDETECTION_MASK);
 541:stm32f4xx-hal-driver/Src/stm32f4xx_hal_rtc_ex.c **** 
 542:stm32f4xx-hal-driver/Src/stm32f4xx_hal_rtc_ex.c ****   /* Set remaining parameters of desired configuration into temporary variable */
 543:stm32f4xx-hal-driver/Src/stm32f4xx_hal_rtc_ex.c ****   tmpreg |= ((uint32_t)sTamper->Filter            | \
 783              		.loc 1 543 3 is_stmt 1 view .LVU288
 784              		.loc 1 543 31 is_stmt 0 view .LVU289
 785 002a CB68     		ldr	r3, [r1, #12]
 544:stm32f4xx-hal-driver/Src/stm32f4xx_hal_rtc_ex.c ****              (uint32_t)sTamper->SamplingFrequency | \
 786              		.loc 1 544 31 view .LVU290
 787 002c 0C69     		ldr	r4, [r1, #16]
 543:stm32f4xx-hal-driver/Src/stm32f4xx_hal_rtc_ex.c ****              (uint32_t)sTamper->SamplingFrequency | \
 788              		.loc 1 543 51 view .LVU291
 789 002e 2343     		orrs	r3, r3, r4
 545:stm32f4xx-hal-driver/Src/stm32f4xx_hal_rtc_ex.c ****              (uint32_t)sTamper->PrechargeDuration | \
 790              		.loc 1 545 31 view .LVU292
 791 0030 4C69     		ldr	r4, [r1, #20]
 544:stm32f4xx-hal-driver/Src/stm32f4xx_hal_rtc_ex.c ****              (uint32_t)sTamper->SamplingFrequency | \
 792              		.loc 1 544 51 view .LVU293
 793 0032 2343     		orrs	r3, r3, r4
 546:stm32f4xx-hal-driver/Src/stm32f4xx_hal_rtc_ex.c ****              (uint32_t)sTamper->TamperPullUp      | \
 794              		.loc 1 546 31 view .LVU294
 795 0034 8C69     		ldr	r4, [r1, #24]
 545:stm32f4xx-hal-driver/Src/stm32f4xx_hal_rtc_ex.c ****              (uint32_t)sTamper->PrechargeDuration | \
ARM GAS  /tmp/ccvIVBQe.s 			page 25


 796              		.loc 1 545 51 view .LVU295
 797 0036 2343     		orrs	r3, r3, r4
 547:stm32f4xx-hal-driver/Src/stm32f4xx_hal_rtc_ex.c ****              (uint32_t)sTamper->PinSelection      | \
 798              		.loc 1 547 31 view .LVU296
 799 0038 4C68     		ldr	r4, [r1, #4]
 546:stm32f4xx-hal-driver/Src/stm32f4xx_hal_rtc_ex.c ****              (uint32_t)sTamper->TamperPullUp      | \
 800              		.loc 1 546 51 view .LVU297
 801 003a 2343     		orrs	r3, r3, r4
 548:stm32f4xx-hal-driver/Src/stm32f4xx_hal_rtc_ex.c ****              (uint32_t)sTamper->TimeStampOnTamperDetection);
 802              		.loc 1 548 31 view .LVU298
 803 003c C969     		ldr	r1, [r1, #28]
 804              	.LVL61:
 547:stm32f4xx-hal-driver/Src/stm32f4xx_hal_rtc_ex.c ****              (uint32_t)sTamper->PinSelection      | \
 805              		.loc 1 547 51 view .LVU299
 806 003e 0B43     		orrs	r3, r3, r1
 543:stm32f4xx-hal-driver/Src/stm32f4xx_hal_rtc_ex.c ****              (uint32_t)sTamper->SamplingFrequency | \
 807              		.loc 1 543 10 view .LVU300
 808 0040 1343     		orrs	r3, r3, r2
 809              	.LVL62:
 549:stm32f4xx-hal-driver/Src/stm32f4xx_hal_rtc_ex.c **** 
 550:stm32f4xx-hal-driver/Src/stm32f4xx_hal_rtc_ex.c ****   /* Enable global tamper interrupt */
 551:stm32f4xx-hal-driver/Src/stm32f4xx_hal_rtc_ex.c ****   tmpreg |= (uint32_t)RTC_TAFCR_TAMPIE;
 810              		.loc 1 551 3 is_stmt 1 view .LVU301
 811              		.loc 1 551 10 is_stmt 0 view .LVU302
 812 0042 43F00403 		orr	r3, r3, #4
 813              	.LVL63:
 552:stm32f4xx-hal-driver/Src/stm32f4xx_hal_rtc_ex.c **** 
 553:stm32f4xx-hal-driver/Src/stm32f4xx_hal_rtc_ex.c ****   /* Copy desired configuration into configuration register */
 554:stm32f4xx-hal-driver/Src/stm32f4xx_hal_rtc_ex.c ****   hrtc->Instance->TAFCR = tmpreg;
 814              		.loc 1 554 3 is_stmt 1 view .LVU303
 815              		.loc 1 554 25 is_stmt 0 view .LVU304
 816 0046 2B64     		str	r3, [r5, #64]
 555:stm32f4xx-hal-driver/Src/stm32f4xx_hal_rtc_ex.c **** 
 556:stm32f4xx-hal-driver/Src/stm32f4xx_hal_rtc_ex.c ****   /* Enable and configure the EXTI line associated to the RTC Timestamp and Tamper interrupts */
 557:stm32f4xx-hal-driver/Src/stm32f4xx_hal_rtc_ex.c ****   __HAL_RTC_TAMPER_TIMESTAMP_EXTI_ENABLE_IT();
 817              		.loc 1 557 3 is_stmt 1 view .LVU305
 818 0048 0A4B     		ldr	r3, .L44
 819              	.LVL64:
 820              		.loc 1 557 3 is_stmt 0 view .LVU306
 821 004a 1A68     		ldr	r2, [r3]
 822 004c 42F40012 		orr	r2, r2, #2097152
 823 0050 1A60     		str	r2, [r3]
 824              	.LVL65:
 558:stm32f4xx-hal-driver/Src/stm32f4xx_hal_rtc_ex.c ****   __HAL_RTC_TAMPER_TIMESTAMP_EXTI_ENABLE_RISING_EDGE();
 825              		.loc 1 558 3 is_stmt 1 view .LVU307
 826 0052 9A68     		ldr	r2, [r3, #8]
 827 0054 42F40012 		orr	r2, r2, #2097152
 828 0058 9A60     		str	r2, [r3, #8]
 559:stm32f4xx-hal-driver/Src/stm32f4xx_hal_rtc_ex.c **** 
 560:stm32f4xx-hal-driver/Src/stm32f4xx_hal_rtc_ex.c ****   hrtc->State = HAL_RTC_STATE_READY;
 829              		.loc 1 560 3 view .LVU308
 830              		.loc 1 560 15 is_stmt 0 view .LVU309
 831 005a 0123     		movs	r3, #1
 832 005c 4377     		strb	r3, [r0, #29]
 561:stm32f4xx-hal-driver/Src/stm32f4xx_hal_rtc_ex.c **** 
 562:stm32f4xx-hal-driver/Src/stm32f4xx_hal_rtc_ex.c ****   /* Process Unlocked */
 563:stm32f4xx-hal-driver/Src/stm32f4xx_hal_rtc_ex.c ****   __HAL_UNLOCK(hrtc);
ARM GAS  /tmp/ccvIVBQe.s 			page 26


 833              		.loc 1 563 3 is_stmt 1 view .LVU310
 834              		.loc 1 563 3 view .LVU311
 835 005e 0023     		movs	r3, #0
 836 0060 0377     		strb	r3, [r0, #28]
 837              		.loc 1 563 3 view .LVU312
 564:stm32f4xx-hal-driver/Src/stm32f4xx_hal_rtc_ex.c **** 
 565:stm32f4xx-hal-driver/Src/stm32f4xx_hal_rtc_ex.c ****   return HAL_OK;
 838              		.loc 1 565 3 view .LVU313
 839              		.loc 1 565 10 is_stmt 0 view .LVU314
 840 0062 1846     		mov	r0, r3
 841              	.LVL66:
 566:stm32f4xx-hal-driver/Src/stm32f4xx_hal_rtc_ex.c **** }
 842              		.loc 1 566 1 view .LVU315
 843 0064 30BC     		pop	{r4, r5}
 844              	.LCFI10:
 845              		.cfi_remember_state
 846              		.cfi_restore 5
 847              		.cfi_restore 4
 848              		.cfi_def_cfa_offset 0
 849 0066 7047     		bx	lr
 850              	.LVL67:
 851              	.L43:
 852              	.LCFI11:
 853              		.cfi_restore_state
 526:stm32f4xx-hal-driver/Src/stm32f4xx_hal_rtc_ex.c ****   }
 854              		.loc 1 526 5 is_stmt 1 view .LVU316
 526:stm32f4xx-hal-driver/Src/stm32f4xx_hal_rtc_ex.c ****   }
 855              		.loc 1 526 12 is_stmt 0 view .LVU317
 856 0068 43EA4203 		orr	r3, r3, r2, lsl #1
 857              	.LVL68:
 526:stm32f4xx-hal-driver/Src/stm32f4xx_hal_rtc_ex.c ****   }
 858              		.loc 1 526 12 view .LVU318
 859 006c D9E7     		b	.L37
 860              	.LVL69:
 861              	.L38:
 862              	.LCFI12:
 863              		.cfi_def_cfa_offset 0
 864              		.cfi_restore 4
 865              		.cfi_restore 5
 511:stm32f4xx-hal-driver/Src/stm32f4xx_hal_rtc_ex.c **** 
 866              		.loc 1 511 3 view .LVU319
 867 006e 0220     		movs	r0, #2
 868              	.LVL70:
 869              		.loc 1 566 1 view .LVU320
 870 0070 7047     		bx	lr
 871              	.L45:
 872 0072 00BF     		.align	2
 873              	.L44:
 874 0074 003C0140 		.word	1073822720
 875              		.cfi_endproc
 876              	.LFE244:
 878              		.section	.text.HAL_RTCEx_DeactivateTamper,"ax",%progbits
 879              		.align	1
 880              		.global	HAL_RTCEx_DeactivateTamper
 881              		.syntax unified
 882              		.thumb
 883              		.thumb_func
ARM GAS  /tmp/ccvIVBQe.s 			page 27


 884              		.fpu fpv4-sp-d16
 886              	HAL_RTCEx_DeactivateTamper:
 887              	.LVL71:
 888              	.LFB245:
 567:stm32f4xx-hal-driver/Src/stm32f4xx_hal_rtc_ex.c **** 
 568:stm32f4xx-hal-driver/Src/stm32f4xx_hal_rtc_ex.c **** /**
 569:stm32f4xx-hal-driver/Src/stm32f4xx_hal_rtc_ex.c ****   * @brief  Deactivates Tamper.
 570:stm32f4xx-hal-driver/Src/stm32f4xx_hal_rtc_ex.c ****   * @note   The tamper global interrupt bit will remain unchanged.
 571:stm32f4xx-hal-driver/Src/stm32f4xx_hal_rtc_ex.c ****   * @param  hrtc pointer to a RTC_HandleTypeDef structure that contains
 572:stm32f4xx-hal-driver/Src/stm32f4xx_hal_rtc_ex.c ****   *                the configuration information for RTC.
 573:stm32f4xx-hal-driver/Src/stm32f4xx_hal_rtc_ex.c ****   * @param  Tamper Selected tamper pin.
 574:stm32f4xx-hal-driver/Src/stm32f4xx_hal_rtc_ex.c ****   *          This parameter can be any combination of the following values:
 575:stm32f4xx-hal-driver/Src/stm32f4xx_hal_rtc_ex.c ****   *            @arg RTC_TAMPER_1:  Tamper 1
 576:stm32f4xx-hal-driver/Src/stm32f4xx_hal_rtc_ex.c ****   *            @arg RTC_TAMPER_2:  Tamper 2 (*)
 577:stm32f4xx-hal-driver/Src/stm32f4xx_hal_rtc_ex.c ****   *
 578:stm32f4xx-hal-driver/Src/stm32f4xx_hal_rtc_ex.c ****   *         (*) value not applicable to all devices.
 579:stm32f4xx-hal-driver/Src/stm32f4xx_hal_rtc_ex.c ****   * @retval HAL status
 580:stm32f4xx-hal-driver/Src/stm32f4xx_hal_rtc_ex.c ****   */
 581:stm32f4xx-hal-driver/Src/stm32f4xx_hal_rtc_ex.c **** HAL_StatusTypeDef HAL_RTCEx_DeactivateTamper(RTC_HandleTypeDef *hrtc, uint32_t Tamper)
 582:stm32f4xx-hal-driver/Src/stm32f4xx_hal_rtc_ex.c **** {
 889              		.loc 1 582 1 is_stmt 1 view -0
 890              		.cfi_startproc
 891              		@ args = 0, pretend = 0, frame = 0
 892              		@ frame_needed = 0, uses_anonymous_args = 0
 893              		@ link register save eliminated.
 583:stm32f4xx-hal-driver/Src/stm32f4xx_hal_rtc_ex.c ****   assert_param(IS_RTC_TAMPER(Tamper));
 894              		.loc 1 583 3 view .LVU322
 584:stm32f4xx-hal-driver/Src/stm32f4xx_hal_rtc_ex.c **** 
 585:stm32f4xx-hal-driver/Src/stm32f4xx_hal_rtc_ex.c ****   /* Process Locked */
 586:stm32f4xx-hal-driver/Src/stm32f4xx_hal_rtc_ex.c ****   __HAL_LOCK(hrtc);
 895              		.loc 1 586 3 view .LVU323
 896              		.loc 1 586 3 view .LVU324
 897 0000 037F     		ldrb	r3, [r0, #28]	@ zero_extendqisi2
 898 0002 012B     		cmp	r3, #1
 899 0004 10D0     		beq	.L48
 582:stm32f4xx-hal-driver/Src/stm32f4xx_hal_rtc_ex.c ****   assert_param(IS_RTC_TAMPER(Tamper));
 900              		.loc 1 582 1 is_stmt 0 discriminator 2 view .LVU325
 901 0006 10B4     		push	{r4}
 902              	.LCFI13:
 903              		.cfi_def_cfa_offset 4
 904              		.cfi_offset 4, -4
 905              		.loc 1 586 3 is_stmt 1 discriminator 2 view .LVU326
 906 0008 0122     		movs	r2, #1
 907 000a 0277     		strb	r2, [r0, #28]
 908              		.loc 1 586 3 discriminator 2 view .LVU327
 587:stm32f4xx-hal-driver/Src/stm32f4xx_hal_rtc_ex.c **** 
 588:stm32f4xx-hal-driver/Src/stm32f4xx_hal_rtc_ex.c ****   hrtc->State = HAL_RTC_STATE_BUSY;
 909              		.loc 1 588 3 discriminator 2 view .LVU328
 910              		.loc 1 588 15 is_stmt 0 discriminator 2 view .LVU329
 911 000c 0223     		movs	r3, #2
 912 000e 4377     		strb	r3, [r0, #29]
 589:stm32f4xx-hal-driver/Src/stm32f4xx_hal_rtc_ex.c **** 
 590:stm32f4xx-hal-driver/Src/stm32f4xx_hal_rtc_ex.c ****   /* Disable the selected Tamper pin */
 591:stm32f4xx-hal-driver/Src/stm32f4xx_hal_rtc_ex.c ****   hrtc->Instance->TAFCR &= (uint32_t)~Tamper;
 913              		.loc 1 591 3 is_stmt 1 discriminator 2 view .LVU330
 914              		.loc 1 591 7 is_stmt 0 discriminator 2 view .LVU331
 915 0010 0468     		ldr	r4, [r0]
ARM GAS  /tmp/ccvIVBQe.s 			page 28


 916              		.loc 1 591 25 discriminator 2 view .LVU332
 917 0012 236C     		ldr	r3, [r4, #64]
 918 0014 23EA0101 		bic	r1, r3, r1
 919              	.LVL72:
 920              		.loc 1 591 25 discriminator 2 view .LVU333
 921 0018 2164     		str	r1, [r4, #64]
 592:stm32f4xx-hal-driver/Src/stm32f4xx_hal_rtc_ex.c **** 
 593:stm32f4xx-hal-driver/Src/stm32f4xx_hal_rtc_ex.c ****   hrtc->State = HAL_RTC_STATE_READY;
 922              		.loc 1 593 3 is_stmt 1 discriminator 2 view .LVU334
 923              		.loc 1 593 15 is_stmt 0 discriminator 2 view .LVU335
 924 001a 4277     		strb	r2, [r0, #29]
 594:stm32f4xx-hal-driver/Src/stm32f4xx_hal_rtc_ex.c **** 
 595:stm32f4xx-hal-driver/Src/stm32f4xx_hal_rtc_ex.c ****   /* Process Unlocked */
 596:stm32f4xx-hal-driver/Src/stm32f4xx_hal_rtc_ex.c ****   __HAL_UNLOCK(hrtc);
 925              		.loc 1 596 3 is_stmt 1 discriminator 2 view .LVU336
 926              		.loc 1 596 3 discriminator 2 view .LVU337
 927 001c 0023     		movs	r3, #0
 928 001e 0377     		strb	r3, [r0, #28]
 929              		.loc 1 596 3 discriminator 2 view .LVU338
 597:stm32f4xx-hal-driver/Src/stm32f4xx_hal_rtc_ex.c **** 
 598:stm32f4xx-hal-driver/Src/stm32f4xx_hal_rtc_ex.c ****   return HAL_OK;
 930              		.loc 1 598 3 discriminator 2 view .LVU339
 931              		.loc 1 598 10 is_stmt 0 discriminator 2 view .LVU340
 932 0020 1846     		mov	r0, r3
 933              	.LVL73:
 599:stm32f4xx-hal-driver/Src/stm32f4xx_hal_rtc_ex.c **** }
 934              		.loc 1 599 1 discriminator 2 view .LVU341
 935 0022 5DF8044B 		ldr	r4, [sp], #4
 936              	.LCFI14:
 937              		.cfi_restore 4
 938              		.cfi_def_cfa_offset 0
 939 0026 7047     		bx	lr
 940              	.LVL74:
 941              	.L48:
 586:stm32f4xx-hal-driver/Src/stm32f4xx_hal_rtc_ex.c **** 
 942              		.loc 1 586 3 view .LVU342
 943 0028 0220     		movs	r0, #2
 944              	.LVL75:
 945              		.loc 1 599 1 view .LVU343
 946 002a 7047     		bx	lr
 947              		.cfi_endproc
 948              	.LFE245:
 950              		.section	.text.HAL_RTCEx_TimeStampEventCallback,"ax",%progbits
 951              		.align	1
 952              		.weak	HAL_RTCEx_TimeStampEventCallback
 953              		.syntax unified
 954              		.thumb
 955              		.thumb_func
 956              		.fpu fpv4-sp-d16
 958              	HAL_RTCEx_TimeStampEventCallback:
 959              	.LVL76:
 960              	.LFB247:
 600:stm32f4xx-hal-driver/Src/stm32f4xx_hal_rtc_ex.c **** 
 601:stm32f4xx-hal-driver/Src/stm32f4xx_hal_rtc_ex.c **** /**
 602:stm32f4xx-hal-driver/Src/stm32f4xx_hal_rtc_ex.c ****   * @brief  Handles Timestamp and Tamper interrupt request.
 603:stm32f4xx-hal-driver/Src/stm32f4xx_hal_rtc_ex.c ****   * @param  hrtc pointer to a RTC_HandleTypeDef structure that contains
 604:stm32f4xx-hal-driver/Src/stm32f4xx_hal_rtc_ex.c ****   *                the configuration information for RTC.
ARM GAS  /tmp/ccvIVBQe.s 			page 29


 605:stm32f4xx-hal-driver/Src/stm32f4xx_hal_rtc_ex.c ****   * @retval None
 606:stm32f4xx-hal-driver/Src/stm32f4xx_hal_rtc_ex.c ****   */
 607:stm32f4xx-hal-driver/Src/stm32f4xx_hal_rtc_ex.c **** void HAL_RTCEx_TamperTimeStampIRQHandler(RTC_HandleTypeDef *hrtc)
 608:stm32f4xx-hal-driver/Src/stm32f4xx_hal_rtc_ex.c **** {
 609:stm32f4xx-hal-driver/Src/stm32f4xx_hal_rtc_ex.c ****   /* Clear the EXTI flag associated to the RTC Timestamp and Tamper interrupts */
 610:stm32f4xx-hal-driver/Src/stm32f4xx_hal_rtc_ex.c ****   __HAL_RTC_TAMPER_TIMESTAMP_EXTI_CLEAR_FLAG();
 611:stm32f4xx-hal-driver/Src/stm32f4xx_hal_rtc_ex.c **** 
 612:stm32f4xx-hal-driver/Src/stm32f4xx_hal_rtc_ex.c ****   /* Get the Timestamp interrupt source enable status */
 613:stm32f4xx-hal-driver/Src/stm32f4xx_hal_rtc_ex.c ****   if (__HAL_RTC_TIMESTAMP_GET_IT_SOURCE(hrtc, RTC_IT_TS) != 0U)
 614:stm32f4xx-hal-driver/Src/stm32f4xx_hal_rtc_ex.c ****   {
 615:stm32f4xx-hal-driver/Src/stm32f4xx_hal_rtc_ex.c ****     /* Get the pending status of the Timestamp Interrupt */
 616:stm32f4xx-hal-driver/Src/stm32f4xx_hal_rtc_ex.c ****     if (__HAL_RTC_TIMESTAMP_GET_FLAG(hrtc, RTC_FLAG_TSF) != 0U)
 617:stm32f4xx-hal-driver/Src/stm32f4xx_hal_rtc_ex.c ****     {
 618:stm32f4xx-hal-driver/Src/stm32f4xx_hal_rtc_ex.c ****       /* Timestamp callback */
 619:stm32f4xx-hal-driver/Src/stm32f4xx_hal_rtc_ex.c **** #if (USE_HAL_RTC_REGISTER_CALLBACKS == 1)
 620:stm32f4xx-hal-driver/Src/stm32f4xx_hal_rtc_ex.c ****       hrtc->TimeStampEventCallback(hrtc);
 621:stm32f4xx-hal-driver/Src/stm32f4xx_hal_rtc_ex.c **** #else
 622:stm32f4xx-hal-driver/Src/stm32f4xx_hal_rtc_ex.c ****       HAL_RTCEx_TimeStampEventCallback(hrtc);
 623:stm32f4xx-hal-driver/Src/stm32f4xx_hal_rtc_ex.c **** #endif /* USE_HAL_RTC_REGISTER_CALLBACKS */
 624:stm32f4xx-hal-driver/Src/stm32f4xx_hal_rtc_ex.c **** 
 625:stm32f4xx-hal-driver/Src/stm32f4xx_hal_rtc_ex.c ****       /* Clear the Timestamp interrupt pending bit after returning from callback
 626:stm32f4xx-hal-driver/Src/stm32f4xx_hal_rtc_ex.c ****          as RTC_TSTR and RTC_TSDR registers are cleared when TSF bit is reset */
 627:stm32f4xx-hal-driver/Src/stm32f4xx_hal_rtc_ex.c ****       __HAL_RTC_TIMESTAMP_CLEAR_FLAG(hrtc, RTC_FLAG_TSF);
 628:stm32f4xx-hal-driver/Src/stm32f4xx_hal_rtc_ex.c ****     }
 629:stm32f4xx-hal-driver/Src/stm32f4xx_hal_rtc_ex.c ****   }
 630:stm32f4xx-hal-driver/Src/stm32f4xx_hal_rtc_ex.c **** 
 631:stm32f4xx-hal-driver/Src/stm32f4xx_hal_rtc_ex.c ****   /* Get the Tamper 1 interrupt source enable status */
 632:stm32f4xx-hal-driver/Src/stm32f4xx_hal_rtc_ex.c ****   if (__HAL_RTC_TAMPER_GET_IT_SOURCE(hrtc, RTC_IT_TAMP) != 0U)
 633:stm32f4xx-hal-driver/Src/stm32f4xx_hal_rtc_ex.c ****   {
 634:stm32f4xx-hal-driver/Src/stm32f4xx_hal_rtc_ex.c ****     /* Get the pending status of the Tamper 1 Interrupt */
 635:stm32f4xx-hal-driver/Src/stm32f4xx_hal_rtc_ex.c ****     if (__HAL_RTC_TAMPER_GET_FLAG(hrtc, RTC_FLAG_TAMP1F) != 0U)
 636:stm32f4xx-hal-driver/Src/stm32f4xx_hal_rtc_ex.c ****     {
 637:stm32f4xx-hal-driver/Src/stm32f4xx_hal_rtc_ex.c ****       /* Clear the Tamper interrupt pending bit */
 638:stm32f4xx-hal-driver/Src/stm32f4xx_hal_rtc_ex.c ****       __HAL_RTC_TAMPER_CLEAR_FLAG(hrtc, RTC_FLAG_TAMP1F);
 639:stm32f4xx-hal-driver/Src/stm32f4xx_hal_rtc_ex.c **** 
 640:stm32f4xx-hal-driver/Src/stm32f4xx_hal_rtc_ex.c ****       /* Tamper callback */
 641:stm32f4xx-hal-driver/Src/stm32f4xx_hal_rtc_ex.c **** #if (USE_HAL_RTC_REGISTER_CALLBACKS == 1)
 642:stm32f4xx-hal-driver/Src/stm32f4xx_hal_rtc_ex.c ****       hrtc->Tamper1EventCallback(hrtc);
 643:stm32f4xx-hal-driver/Src/stm32f4xx_hal_rtc_ex.c **** #else
 644:stm32f4xx-hal-driver/Src/stm32f4xx_hal_rtc_ex.c ****       HAL_RTCEx_Tamper1EventCallback(hrtc);
 645:stm32f4xx-hal-driver/Src/stm32f4xx_hal_rtc_ex.c **** #endif /* USE_HAL_RTC_REGISTER_CALLBACKS */
 646:stm32f4xx-hal-driver/Src/stm32f4xx_hal_rtc_ex.c ****     }
 647:stm32f4xx-hal-driver/Src/stm32f4xx_hal_rtc_ex.c ****   }
 648:stm32f4xx-hal-driver/Src/stm32f4xx_hal_rtc_ex.c **** 
 649:stm32f4xx-hal-driver/Src/stm32f4xx_hal_rtc_ex.c **** #if defined(RTC_TAMPER2_SUPPORT)
 650:stm32f4xx-hal-driver/Src/stm32f4xx_hal_rtc_ex.c ****   /* Get the Tamper 2 interrupt source enable status */
 651:stm32f4xx-hal-driver/Src/stm32f4xx_hal_rtc_ex.c ****   if (__HAL_RTC_TAMPER_GET_IT_SOURCE(hrtc, RTC_IT_TAMP) != 0U)
 652:stm32f4xx-hal-driver/Src/stm32f4xx_hal_rtc_ex.c ****   {
 653:stm32f4xx-hal-driver/Src/stm32f4xx_hal_rtc_ex.c ****     /* Get the pending status of the Tamper 2 Interrupt */
 654:stm32f4xx-hal-driver/Src/stm32f4xx_hal_rtc_ex.c ****     if (__HAL_RTC_TAMPER_GET_FLAG(hrtc, RTC_FLAG_TAMP2F) != 0U)
 655:stm32f4xx-hal-driver/Src/stm32f4xx_hal_rtc_ex.c ****     {
 656:stm32f4xx-hal-driver/Src/stm32f4xx_hal_rtc_ex.c ****       /* Clear the Tamper interrupt pending bit */
 657:stm32f4xx-hal-driver/Src/stm32f4xx_hal_rtc_ex.c ****       __HAL_RTC_TAMPER_CLEAR_FLAG(hrtc, RTC_FLAG_TAMP2F);
 658:stm32f4xx-hal-driver/Src/stm32f4xx_hal_rtc_ex.c **** 
 659:stm32f4xx-hal-driver/Src/stm32f4xx_hal_rtc_ex.c ****       /* Tamper callback */
 660:stm32f4xx-hal-driver/Src/stm32f4xx_hal_rtc_ex.c **** #if (USE_HAL_RTC_REGISTER_CALLBACKS == 1)
 661:stm32f4xx-hal-driver/Src/stm32f4xx_hal_rtc_ex.c ****       hrtc->Tamper2EventCallback(hrtc);
ARM GAS  /tmp/ccvIVBQe.s 			page 30


 662:stm32f4xx-hal-driver/Src/stm32f4xx_hal_rtc_ex.c **** #else
 663:stm32f4xx-hal-driver/Src/stm32f4xx_hal_rtc_ex.c ****       HAL_RTCEx_Tamper2EventCallback(hrtc);
 664:stm32f4xx-hal-driver/Src/stm32f4xx_hal_rtc_ex.c **** #endif /* USE_HAL_RTC_REGISTER_CALLBACKS */
 665:stm32f4xx-hal-driver/Src/stm32f4xx_hal_rtc_ex.c ****     }
 666:stm32f4xx-hal-driver/Src/stm32f4xx_hal_rtc_ex.c ****   }
 667:stm32f4xx-hal-driver/Src/stm32f4xx_hal_rtc_ex.c **** #endif /* RTC_TAMPER2_SUPPORT */
 668:stm32f4xx-hal-driver/Src/stm32f4xx_hal_rtc_ex.c **** 
 669:stm32f4xx-hal-driver/Src/stm32f4xx_hal_rtc_ex.c ****   /* Change RTC state */
 670:stm32f4xx-hal-driver/Src/stm32f4xx_hal_rtc_ex.c ****   hrtc->State = HAL_RTC_STATE_READY;
 671:stm32f4xx-hal-driver/Src/stm32f4xx_hal_rtc_ex.c **** }
 672:stm32f4xx-hal-driver/Src/stm32f4xx_hal_rtc_ex.c **** 
 673:stm32f4xx-hal-driver/Src/stm32f4xx_hal_rtc_ex.c **** /**
 674:stm32f4xx-hal-driver/Src/stm32f4xx_hal_rtc_ex.c ****   * @brief  Timestamp callback.
 675:stm32f4xx-hal-driver/Src/stm32f4xx_hal_rtc_ex.c ****   * @param  hrtc pointer to a RTC_HandleTypeDef structure that contains
 676:stm32f4xx-hal-driver/Src/stm32f4xx_hal_rtc_ex.c ****   *                the configuration information for RTC.
 677:stm32f4xx-hal-driver/Src/stm32f4xx_hal_rtc_ex.c ****   * @retval None
 678:stm32f4xx-hal-driver/Src/stm32f4xx_hal_rtc_ex.c ****   */
 679:stm32f4xx-hal-driver/Src/stm32f4xx_hal_rtc_ex.c **** __weak void HAL_RTCEx_TimeStampEventCallback(RTC_HandleTypeDef *hrtc)
 680:stm32f4xx-hal-driver/Src/stm32f4xx_hal_rtc_ex.c **** {
 961              		.loc 1 680 1 is_stmt 1 view -0
 962              		.cfi_startproc
 963              		@ args = 0, pretend = 0, frame = 0
 964              		@ frame_needed = 0, uses_anonymous_args = 0
 965              		@ link register save eliminated.
 681:stm32f4xx-hal-driver/Src/stm32f4xx_hal_rtc_ex.c ****   /* Prevent unused argument(s) compilation warning */
 682:stm32f4xx-hal-driver/Src/stm32f4xx_hal_rtc_ex.c ****   UNUSED(hrtc);
 966              		.loc 1 682 3 view .LVU345
 683:stm32f4xx-hal-driver/Src/stm32f4xx_hal_rtc_ex.c **** 
 684:stm32f4xx-hal-driver/Src/stm32f4xx_hal_rtc_ex.c ****   /* NOTE: This function should not be modified, when the callback is needed,
 685:stm32f4xx-hal-driver/Src/stm32f4xx_hal_rtc_ex.c ****            the HAL_RTCEx_TimeStampEventCallback could be implemented in the user file
 686:stm32f4xx-hal-driver/Src/stm32f4xx_hal_rtc_ex.c ****   */
 687:stm32f4xx-hal-driver/Src/stm32f4xx_hal_rtc_ex.c **** }
 967              		.loc 1 687 1 is_stmt 0 view .LVU346
 968 0000 7047     		bx	lr
 969              		.cfi_endproc
 970              	.LFE247:
 972              		.section	.text.HAL_RTCEx_Tamper1EventCallback,"ax",%progbits
 973              		.align	1
 974              		.weak	HAL_RTCEx_Tamper1EventCallback
 975              		.syntax unified
 976              		.thumb
 977              		.thumb_func
 978              		.fpu fpv4-sp-d16
 980              	HAL_RTCEx_Tamper1EventCallback:
 981              	.LVL77:
 982              	.LFB248:
 688:stm32f4xx-hal-driver/Src/stm32f4xx_hal_rtc_ex.c **** 
 689:stm32f4xx-hal-driver/Src/stm32f4xx_hal_rtc_ex.c **** /**
 690:stm32f4xx-hal-driver/Src/stm32f4xx_hal_rtc_ex.c ****   * @brief  Tamper 1 callback.
 691:stm32f4xx-hal-driver/Src/stm32f4xx_hal_rtc_ex.c ****   * @param  hrtc pointer to a RTC_HandleTypeDef structure that contains
 692:stm32f4xx-hal-driver/Src/stm32f4xx_hal_rtc_ex.c ****   *                the configuration information for RTC.
 693:stm32f4xx-hal-driver/Src/stm32f4xx_hal_rtc_ex.c ****   * @retval None
 694:stm32f4xx-hal-driver/Src/stm32f4xx_hal_rtc_ex.c ****   */
 695:stm32f4xx-hal-driver/Src/stm32f4xx_hal_rtc_ex.c **** __weak void HAL_RTCEx_Tamper1EventCallback(RTC_HandleTypeDef *hrtc)
 696:stm32f4xx-hal-driver/Src/stm32f4xx_hal_rtc_ex.c **** {
 983              		.loc 1 696 1 is_stmt 1 view -0
 984              		.cfi_startproc
ARM GAS  /tmp/ccvIVBQe.s 			page 31


 985              		@ args = 0, pretend = 0, frame = 0
 986              		@ frame_needed = 0, uses_anonymous_args = 0
 987              		@ link register save eliminated.
 697:stm32f4xx-hal-driver/Src/stm32f4xx_hal_rtc_ex.c ****   /* Prevent unused argument(s) compilation warning */
 698:stm32f4xx-hal-driver/Src/stm32f4xx_hal_rtc_ex.c ****   UNUSED(hrtc);
 988              		.loc 1 698 3 view .LVU348
 699:stm32f4xx-hal-driver/Src/stm32f4xx_hal_rtc_ex.c **** 
 700:stm32f4xx-hal-driver/Src/stm32f4xx_hal_rtc_ex.c ****   /* NOTE: This function should not be modified, when the callback is needed,
 701:stm32f4xx-hal-driver/Src/stm32f4xx_hal_rtc_ex.c ****            the HAL_RTCEx_Tamper1EventCallback could be implemented in the user file
 702:stm32f4xx-hal-driver/Src/stm32f4xx_hal_rtc_ex.c ****    */
 703:stm32f4xx-hal-driver/Src/stm32f4xx_hal_rtc_ex.c **** }
 989              		.loc 1 703 1 is_stmt 0 view .LVU349
 990 0000 7047     		bx	lr
 991              		.cfi_endproc
 992              	.LFE248:
 994              		.section	.text.HAL_RTCEx_Tamper2EventCallback,"ax",%progbits
 995              		.align	1
 996              		.weak	HAL_RTCEx_Tamper2EventCallback
 997              		.syntax unified
 998              		.thumb
 999              		.thumb_func
 1000              		.fpu fpv4-sp-d16
 1002              	HAL_RTCEx_Tamper2EventCallback:
 1003              	.LVL78:
 1004              	.LFB249:
 704:stm32f4xx-hal-driver/Src/stm32f4xx_hal_rtc_ex.c **** 
 705:stm32f4xx-hal-driver/Src/stm32f4xx_hal_rtc_ex.c **** #if defined(RTC_TAMPER2_SUPPORT)
 706:stm32f4xx-hal-driver/Src/stm32f4xx_hal_rtc_ex.c **** /**
 707:stm32f4xx-hal-driver/Src/stm32f4xx_hal_rtc_ex.c ****   * @brief  Tamper 2 callback.
 708:stm32f4xx-hal-driver/Src/stm32f4xx_hal_rtc_ex.c ****   * @param  hrtc pointer to a RTC_HandleTypeDef structure that contains
 709:stm32f4xx-hal-driver/Src/stm32f4xx_hal_rtc_ex.c ****   *                the configuration information for RTC.
 710:stm32f4xx-hal-driver/Src/stm32f4xx_hal_rtc_ex.c ****   * @retval None
 711:stm32f4xx-hal-driver/Src/stm32f4xx_hal_rtc_ex.c ****   */
 712:stm32f4xx-hal-driver/Src/stm32f4xx_hal_rtc_ex.c **** __weak void HAL_RTCEx_Tamper2EventCallback(RTC_HandleTypeDef *hrtc)
 713:stm32f4xx-hal-driver/Src/stm32f4xx_hal_rtc_ex.c **** {
 1005              		.loc 1 713 1 is_stmt 1 view -0
 1006              		.cfi_startproc
 1007              		@ args = 0, pretend = 0, frame = 0
 1008              		@ frame_needed = 0, uses_anonymous_args = 0
 1009              		@ link register save eliminated.
 714:stm32f4xx-hal-driver/Src/stm32f4xx_hal_rtc_ex.c ****   /* Prevent unused argument(s) compilation warning */
 715:stm32f4xx-hal-driver/Src/stm32f4xx_hal_rtc_ex.c ****   UNUSED(hrtc);
 1010              		.loc 1 715 3 view .LVU351
 716:stm32f4xx-hal-driver/Src/stm32f4xx_hal_rtc_ex.c **** 
 717:stm32f4xx-hal-driver/Src/stm32f4xx_hal_rtc_ex.c ****   /* NOTE: This function should not be modified, when the callback is needed,
 718:stm32f4xx-hal-driver/Src/stm32f4xx_hal_rtc_ex.c ****            the HAL_RTCEx_Tamper2EventCallback could be implemented in the user file
 719:stm32f4xx-hal-driver/Src/stm32f4xx_hal_rtc_ex.c ****    */
 720:stm32f4xx-hal-driver/Src/stm32f4xx_hal_rtc_ex.c **** }
 1011              		.loc 1 720 1 is_stmt 0 view .LVU352
 1012 0000 7047     		bx	lr
 1013              		.cfi_endproc
 1014              	.LFE249:
 1016              		.section	.text.HAL_RTCEx_TamperTimeStampIRQHandler,"ax",%progbits
 1017              		.align	1
 1018              		.global	HAL_RTCEx_TamperTimeStampIRQHandler
 1019              		.syntax unified
 1020              		.thumb
ARM GAS  /tmp/ccvIVBQe.s 			page 32


 1021              		.thumb_func
 1022              		.fpu fpv4-sp-d16
 1024              	HAL_RTCEx_TamperTimeStampIRQHandler:
 1025              	.LVL79:
 1026              	.LFB246:
 608:stm32f4xx-hal-driver/Src/stm32f4xx_hal_rtc_ex.c ****   /* Clear the EXTI flag associated to the RTC Timestamp and Tamper interrupts */
 1027              		.loc 1 608 1 is_stmt 1 view -0
 1028              		.cfi_startproc
 1029              		@ args = 0, pretend = 0, frame = 0
 1030              		@ frame_needed = 0, uses_anonymous_args = 0
 608:stm32f4xx-hal-driver/Src/stm32f4xx_hal_rtc_ex.c ****   /* Clear the EXTI flag associated to the RTC Timestamp and Tamper interrupts */
 1031              		.loc 1 608 1 is_stmt 0 view .LVU354
 1032 0000 10B5     		push	{r4, lr}
 1033              	.LCFI15:
 1034              		.cfi_def_cfa_offset 8
 1035              		.cfi_offset 4, -8
 1036              		.cfi_offset 14, -4
 1037 0002 0446     		mov	r4, r0
 610:stm32f4xx-hal-driver/Src/stm32f4xx_hal_rtc_ex.c **** 
 1038              		.loc 1 610 3 is_stmt 1 view .LVU355
 1039 0004 1E4B     		ldr	r3, .L64
 1040 0006 4FF40012 		mov	r2, #2097152
 1041 000a 5A61     		str	r2, [r3, #20]
 613:stm32f4xx-hal-driver/Src/stm32f4xx_hal_rtc_ex.c ****   {
 1042              		.loc 1 613 3 view .LVU356
 613:stm32f4xx-hal-driver/Src/stm32f4xx_hal_rtc_ex.c ****   {
 1043              		.loc 1 613 7 is_stmt 0 view .LVU357
 1044 000c 0368     		ldr	r3, [r0]
 1045 000e 9A68     		ldr	r2, [r3, #8]
 613:stm32f4xx-hal-driver/Src/stm32f4xx_hal_rtc_ex.c ****   {
 1046              		.loc 1 613 6 view .LVU358
 1047 0010 12F4004F 		tst	r2, #32768
 1048 0014 03D0     		beq	.L57
 616:stm32f4xx-hal-driver/Src/stm32f4xx_hal_rtc_ex.c ****     {
 1049              		.loc 1 616 5 is_stmt 1 view .LVU359
 616:stm32f4xx-hal-driver/Src/stm32f4xx_hal_rtc_ex.c ****     {
 1050              		.loc 1 616 9 is_stmt 0 view .LVU360
 1051 0016 DB68     		ldr	r3, [r3, #12]
 616:stm32f4xx-hal-driver/Src/stm32f4xx_hal_rtc_ex.c ****     {
 1052              		.loc 1 616 8 view .LVU361
 1053 0018 13F4006F 		tst	r3, #2048
 1054 001c 14D1     		bne	.L61
 1055              	.LVL80:
 1056              	.L57:
 632:stm32f4xx-hal-driver/Src/stm32f4xx_hal_rtc_ex.c ****   {
 1057              		.loc 1 632 3 is_stmt 1 view .LVU362
 632:stm32f4xx-hal-driver/Src/stm32f4xx_hal_rtc_ex.c ****   {
 1058              		.loc 1 632 7 is_stmt 0 view .LVU363
 1059 001e 2368     		ldr	r3, [r4]
 1060 0020 1A6C     		ldr	r2, [r3, #64]
 632:stm32f4xx-hal-driver/Src/stm32f4xx_hal_rtc_ex.c ****   {
 1061              		.loc 1 632 6 view .LVU364
 1062 0022 12F0040F 		tst	r2, #4
 1063 0026 03D0     		beq	.L58
 635:stm32f4xx-hal-driver/Src/stm32f4xx_hal_rtc_ex.c ****     {
 1064              		.loc 1 635 5 is_stmt 1 view .LVU365
 635:stm32f4xx-hal-driver/Src/stm32f4xx_hal_rtc_ex.c ****     {
ARM GAS  /tmp/ccvIVBQe.s 			page 33


 1065              		.loc 1 635 9 is_stmt 0 view .LVU366
 1066 0028 DA68     		ldr	r2, [r3, #12]
 635:stm32f4xx-hal-driver/Src/stm32f4xx_hal_rtc_ex.c ****     {
 1067              		.loc 1 635 8 view .LVU367
 1068 002a 12F4005F 		tst	r2, #8192
 1069 002e 14D1     		bne	.L62
 1070              	.L58:
 651:stm32f4xx-hal-driver/Src/stm32f4xx_hal_rtc_ex.c ****   {
 1071              		.loc 1 651 3 is_stmt 1 view .LVU368
 651:stm32f4xx-hal-driver/Src/stm32f4xx_hal_rtc_ex.c ****   {
 1072              		.loc 1 651 7 is_stmt 0 view .LVU369
 1073 0030 2368     		ldr	r3, [r4]
 1074 0032 1A6C     		ldr	r2, [r3, #64]
 651:stm32f4xx-hal-driver/Src/stm32f4xx_hal_rtc_ex.c ****   {
 1075              		.loc 1 651 6 view .LVU370
 1076 0034 12F0040F 		tst	r2, #4
 1077 0038 03D0     		beq	.L59
 654:stm32f4xx-hal-driver/Src/stm32f4xx_hal_rtc_ex.c ****     {
 1078              		.loc 1 654 5 is_stmt 1 view .LVU371
 654:stm32f4xx-hal-driver/Src/stm32f4xx_hal_rtc_ex.c ****     {
 1079              		.loc 1 654 9 is_stmt 0 view .LVU372
 1080 003a DA68     		ldr	r2, [r3, #12]
 654:stm32f4xx-hal-driver/Src/stm32f4xx_hal_rtc_ex.c ****     {
 1081              		.loc 1 654 8 view .LVU373
 1082 003c 12F4804F 		tst	r2, #16384
 1083 0040 14D1     		bne	.L63
 1084              	.L59:
 670:stm32f4xx-hal-driver/Src/stm32f4xx_hal_rtc_ex.c **** }
 1085              		.loc 1 670 3 is_stmt 1 view .LVU374
 670:stm32f4xx-hal-driver/Src/stm32f4xx_hal_rtc_ex.c **** }
 1086              		.loc 1 670 15 is_stmt 0 view .LVU375
 1087 0042 0123     		movs	r3, #1
 1088 0044 6377     		strb	r3, [r4, #29]
 671:stm32f4xx-hal-driver/Src/stm32f4xx_hal_rtc_ex.c **** 
 1089              		.loc 1 671 1 view .LVU376
 1090 0046 10BD     		pop	{r4, pc}
 1091              	.LVL81:
 1092              	.L61:
 622:stm32f4xx-hal-driver/Src/stm32f4xx_hal_rtc_ex.c **** #endif /* USE_HAL_RTC_REGISTER_CALLBACKS */
 1093              		.loc 1 622 7 is_stmt 1 view .LVU377
 1094 0048 FFF7FEFF 		bl	HAL_RTCEx_TimeStampEventCallback
 1095              	.LVL82:
 627:stm32f4xx-hal-driver/Src/stm32f4xx_hal_rtc_ex.c ****     }
 1096              		.loc 1 627 7 view .LVU378
 1097 004c 2268     		ldr	r2, [r4]
 1098 004e D368     		ldr	r3, [r2, #12]
 1099 0050 DBB2     		uxtb	r3, r3
 1100 0052 63F40863 		orn	r3, r3, #2176
 1101 0056 D360     		str	r3, [r2, #12]
 1102 0058 E1E7     		b	.L57
 1103              	.L62:
 638:stm32f4xx-hal-driver/Src/stm32f4xx_hal_rtc_ex.c **** 
 1104              		.loc 1 638 7 view .LVU379
 1105 005a DA68     		ldr	r2, [r3, #12]
 1106 005c D2B2     		uxtb	r2, r2
 1107 005e 62F40252 		orn	r2, r2, #8320
 1108 0062 DA60     		str	r2, [r3, #12]
ARM GAS  /tmp/ccvIVBQe.s 			page 34


 644:stm32f4xx-hal-driver/Src/stm32f4xx_hal_rtc_ex.c **** #endif /* USE_HAL_RTC_REGISTER_CALLBACKS */
 1109              		.loc 1 644 7 view .LVU380
 1110 0064 2046     		mov	r0, r4
 1111 0066 FFF7FEFF 		bl	HAL_RTCEx_Tamper1EventCallback
 1112              	.LVL83:
 1113 006a E1E7     		b	.L58
 1114              	.L63:
 657:stm32f4xx-hal-driver/Src/stm32f4xx_hal_rtc_ex.c **** 
 1115              		.loc 1 657 7 view .LVU381
 1116 006c DA68     		ldr	r2, [r3, #12]
 1117 006e D2B2     		uxtb	r2, r2
 1118 0070 62F48142 		orn	r2, r2, #16512
 1119 0074 DA60     		str	r2, [r3, #12]
 663:stm32f4xx-hal-driver/Src/stm32f4xx_hal_rtc_ex.c **** #endif /* USE_HAL_RTC_REGISTER_CALLBACKS */
 1120              		.loc 1 663 7 view .LVU382
 1121 0076 2046     		mov	r0, r4
 1122 0078 FFF7FEFF 		bl	HAL_RTCEx_Tamper2EventCallback
 1123              	.LVL84:
 1124 007c E1E7     		b	.L59
 1125              	.L65:
 1126 007e 00BF     		.align	2
 1127              	.L64:
 1128 0080 003C0140 		.word	1073822720
 1129              		.cfi_endproc
 1130              	.LFE246:
 1132              		.section	.text.HAL_RTCEx_PollForTimeStampEvent,"ax",%progbits
 1133              		.align	1
 1134              		.global	HAL_RTCEx_PollForTimeStampEvent
 1135              		.syntax unified
 1136              		.thumb
 1137              		.thumb_func
 1138              		.fpu fpv4-sp-d16
 1140              	HAL_RTCEx_PollForTimeStampEvent:
 1141              	.LVL85:
 1142              	.LFB250:
 721:stm32f4xx-hal-driver/Src/stm32f4xx_hal_rtc_ex.c **** #endif /* RTC_TAMPER2_SUPPORT */
 722:stm32f4xx-hal-driver/Src/stm32f4xx_hal_rtc_ex.c **** 
 723:stm32f4xx-hal-driver/Src/stm32f4xx_hal_rtc_ex.c **** /**
 724:stm32f4xx-hal-driver/Src/stm32f4xx_hal_rtc_ex.c ****   * @brief  Handles Timestamp polling request.
 725:stm32f4xx-hal-driver/Src/stm32f4xx_hal_rtc_ex.c ****   * @param  hrtc pointer to a RTC_HandleTypeDef structure that contains
 726:stm32f4xx-hal-driver/Src/stm32f4xx_hal_rtc_ex.c ****   *                the configuration information for RTC.
 727:stm32f4xx-hal-driver/Src/stm32f4xx_hal_rtc_ex.c ****   * @param  Timeout Timeout duration
 728:stm32f4xx-hal-driver/Src/stm32f4xx_hal_rtc_ex.c ****   * @retval HAL status
 729:stm32f4xx-hal-driver/Src/stm32f4xx_hal_rtc_ex.c ****   */
 730:stm32f4xx-hal-driver/Src/stm32f4xx_hal_rtc_ex.c **** HAL_StatusTypeDef HAL_RTCEx_PollForTimeStampEvent(RTC_HandleTypeDef *hrtc, uint32_t Timeout)
 731:stm32f4xx-hal-driver/Src/stm32f4xx_hal_rtc_ex.c **** {
 1143              		.loc 1 731 1 view -0
 1144              		.cfi_startproc
 1145              		@ args = 0, pretend = 0, frame = 0
 1146              		@ frame_needed = 0, uses_anonymous_args = 0
 1147              		.loc 1 731 1 is_stmt 0 view .LVU384
 1148 0000 70B5     		push	{r4, r5, r6, lr}
 1149              	.LCFI16:
 1150              		.cfi_def_cfa_offset 16
 1151              		.cfi_offset 4, -16
 1152              		.cfi_offset 5, -12
 1153              		.cfi_offset 6, -8
ARM GAS  /tmp/ccvIVBQe.s 			page 35


 1154              		.cfi_offset 14, -4
 1155 0002 0546     		mov	r5, r0
 1156 0004 0C46     		mov	r4, r1
 732:stm32f4xx-hal-driver/Src/stm32f4xx_hal_rtc_ex.c ****   uint32_t tickstart = 0U;
 1157              		.loc 1 732 3 is_stmt 1 view .LVU385
 1158              	.LVL86:
 733:stm32f4xx-hal-driver/Src/stm32f4xx_hal_rtc_ex.c **** 
 734:stm32f4xx-hal-driver/Src/stm32f4xx_hal_rtc_ex.c ****   /* Get tick */
 735:stm32f4xx-hal-driver/Src/stm32f4xx_hal_rtc_ex.c ****   tickstart = HAL_GetTick();
 1159              		.loc 1 735 3 view .LVU386
 1160              		.loc 1 735 15 is_stmt 0 view .LVU387
 1161 0006 FFF7FEFF 		bl	HAL_GetTick
 1162              	.LVL87:
 1163              		.loc 1 735 15 view .LVU388
 1164 000a 0646     		mov	r6, r0
 1165              	.LVL88:
 736:stm32f4xx-hal-driver/Src/stm32f4xx_hal_rtc_ex.c **** 
 737:stm32f4xx-hal-driver/Src/stm32f4xx_hal_rtc_ex.c ****   while (__HAL_RTC_TIMESTAMP_GET_FLAG(hrtc, RTC_FLAG_TSF) == 0U)
 1166              		.loc 1 737 3 is_stmt 1 view .LVU389
 1167              		.loc 1 737 9 is_stmt 0 view .LVU390
 1168 000c 04E0     		b	.L67
 1169              	.LVL89:
 1170              	.L68:
 738:stm32f4xx-hal-driver/Src/stm32f4xx_hal_rtc_ex.c ****   {
 739:stm32f4xx-hal-driver/Src/stm32f4xx_hal_rtc_ex.c ****     if (Timeout != HAL_MAX_DELAY)
 740:stm32f4xx-hal-driver/Src/stm32f4xx_hal_rtc_ex.c ****     {
 741:stm32f4xx-hal-driver/Src/stm32f4xx_hal_rtc_ex.c ****       if ((Timeout == 0U) || ((HAL_GetTick() - tickstart) > Timeout))
 742:stm32f4xx-hal-driver/Src/stm32f4xx_hal_rtc_ex.c ****       {
 743:stm32f4xx-hal-driver/Src/stm32f4xx_hal_rtc_ex.c ****         hrtc->State = HAL_RTC_STATE_TIMEOUT;
 744:stm32f4xx-hal-driver/Src/stm32f4xx_hal_rtc_ex.c ****         return HAL_TIMEOUT;
 745:stm32f4xx-hal-driver/Src/stm32f4xx_hal_rtc_ex.c ****       }
 746:stm32f4xx-hal-driver/Src/stm32f4xx_hal_rtc_ex.c ****     }
 747:stm32f4xx-hal-driver/Src/stm32f4xx_hal_rtc_ex.c **** 
 748:stm32f4xx-hal-driver/Src/stm32f4xx_hal_rtc_ex.c ****     if (__HAL_RTC_TIMESTAMP_GET_FLAG(hrtc, RTC_FLAG_TSOVF) != 0U)
 1171              		.loc 1 748 5 is_stmt 1 view .LVU391
 1172              		.loc 1 748 9 is_stmt 0 view .LVU392
 1173 000e 2B68     		ldr	r3, [r5]
 1174 0010 DA68     		ldr	r2, [r3, #12]
 1175              		.loc 1 748 8 view .LVU393
 1176 0012 12F4805F 		tst	r2, #4096
 1177 0016 10D1     		bne	.L73
 1178              	.L67:
 737:stm32f4xx-hal-driver/Src/stm32f4xx_hal_rtc_ex.c ****   {
 1179              		.loc 1 737 9 is_stmt 1 view .LVU394
 737:stm32f4xx-hal-driver/Src/stm32f4xx_hal_rtc_ex.c ****   {
 1180              		.loc 1 737 10 is_stmt 0 view .LVU395
 1181 0018 2B68     		ldr	r3, [r5]
 1182 001a DB68     		ldr	r3, [r3, #12]
 737:stm32f4xx-hal-driver/Src/stm32f4xx_hal_rtc_ex.c ****   {
 1183              		.loc 1 737 9 view .LVU396
 1184 001c 13F4006F 		tst	r3, #2048
 1185 0020 14D1     		bne	.L74
 739:stm32f4xx-hal-driver/Src/stm32f4xx_hal_rtc_ex.c ****     {
 1186              		.loc 1 739 5 is_stmt 1 view .LVU397
 739:stm32f4xx-hal-driver/Src/stm32f4xx_hal_rtc_ex.c ****     {
 1187              		.loc 1 739 8 is_stmt 0 view .LVU398
 1188 0022 B4F1FF3F 		cmp	r4, #-1
ARM GAS  /tmp/ccvIVBQe.s 			page 36


 1189 0026 F2D0     		beq	.L68
 741:stm32f4xx-hal-driver/Src/stm32f4xx_hal_rtc_ex.c ****       {
 1190              		.loc 1 741 7 is_stmt 1 view .LVU399
 741:stm32f4xx-hal-driver/Src/stm32f4xx_hal_rtc_ex.c ****       {
 1191              		.loc 1 741 10 is_stmt 0 view .LVU400
 1192 0028 24B1     		cbz	r4, .L69
 741:stm32f4xx-hal-driver/Src/stm32f4xx_hal_rtc_ex.c ****       {
 1193              		.loc 1 741 32 discriminator 1 view .LVU401
 1194 002a FFF7FEFF 		bl	HAL_GetTick
 1195              	.LVL90:
 741:stm32f4xx-hal-driver/Src/stm32f4xx_hal_rtc_ex.c ****       {
 1196              		.loc 1 741 46 discriminator 1 view .LVU402
 1197 002e 831B     		subs	r3, r0, r6
 741:stm32f4xx-hal-driver/Src/stm32f4xx_hal_rtc_ex.c ****       {
 1198              		.loc 1 741 27 discriminator 1 view .LVU403
 1199 0030 A342     		cmp	r3, r4
 1200 0032 ECD9     		bls	.L68
 1201              	.L69:
 743:stm32f4xx-hal-driver/Src/stm32f4xx_hal_rtc_ex.c ****         return HAL_TIMEOUT;
 1202              		.loc 1 743 9 is_stmt 1 view .LVU404
 743:stm32f4xx-hal-driver/Src/stm32f4xx_hal_rtc_ex.c ****         return HAL_TIMEOUT;
 1203              		.loc 1 743 21 is_stmt 0 view .LVU405
 1204 0034 0320     		movs	r0, #3
 1205 0036 6877     		strb	r0, [r5, #29]
 744:stm32f4xx-hal-driver/Src/stm32f4xx_hal_rtc_ex.c ****       }
 1206              		.loc 1 744 9 is_stmt 1 view .LVU406
 1207              	.L70:
 749:stm32f4xx-hal-driver/Src/stm32f4xx_hal_rtc_ex.c ****     {
 750:stm32f4xx-hal-driver/Src/stm32f4xx_hal_rtc_ex.c ****       /* Clear the Timestamp Overrun Flag */
 751:stm32f4xx-hal-driver/Src/stm32f4xx_hal_rtc_ex.c ****       __HAL_RTC_TIMESTAMP_CLEAR_FLAG(hrtc, RTC_FLAG_TSOVF);
 752:stm32f4xx-hal-driver/Src/stm32f4xx_hal_rtc_ex.c **** 
 753:stm32f4xx-hal-driver/Src/stm32f4xx_hal_rtc_ex.c ****       /* Change Timestamp state */
 754:stm32f4xx-hal-driver/Src/stm32f4xx_hal_rtc_ex.c ****       hrtc->State = HAL_RTC_STATE_ERROR;
 755:stm32f4xx-hal-driver/Src/stm32f4xx_hal_rtc_ex.c **** 
 756:stm32f4xx-hal-driver/Src/stm32f4xx_hal_rtc_ex.c ****       return HAL_ERROR;
 757:stm32f4xx-hal-driver/Src/stm32f4xx_hal_rtc_ex.c ****     }
 758:stm32f4xx-hal-driver/Src/stm32f4xx_hal_rtc_ex.c ****   }
 759:stm32f4xx-hal-driver/Src/stm32f4xx_hal_rtc_ex.c **** 
 760:stm32f4xx-hal-driver/Src/stm32f4xx_hal_rtc_ex.c ****   /* Change RTC state */
 761:stm32f4xx-hal-driver/Src/stm32f4xx_hal_rtc_ex.c ****   hrtc->State = HAL_RTC_STATE_READY;
 762:stm32f4xx-hal-driver/Src/stm32f4xx_hal_rtc_ex.c **** 
 763:stm32f4xx-hal-driver/Src/stm32f4xx_hal_rtc_ex.c ****   return HAL_OK;
 764:stm32f4xx-hal-driver/Src/stm32f4xx_hal_rtc_ex.c **** }
 1208              		.loc 1 764 1 is_stmt 0 view .LVU407
 1209 0038 70BD     		pop	{r4, r5, r6, pc}
 1210              	.LVL91:
 1211              	.L73:
 751:stm32f4xx-hal-driver/Src/stm32f4xx_hal_rtc_ex.c **** 
 1212              		.loc 1 751 7 is_stmt 1 view .LVU408
 1213 003a DA68     		ldr	r2, [r3, #12]
 1214 003c D2B2     		uxtb	r2, r2
 1215 003e 62F48452 		orn	r2, r2, #4224
 1216 0042 DA60     		str	r2, [r3, #12]
 754:stm32f4xx-hal-driver/Src/stm32f4xx_hal_rtc_ex.c **** 
 1217              		.loc 1 754 7 view .LVU409
 754:stm32f4xx-hal-driver/Src/stm32f4xx_hal_rtc_ex.c **** 
 1218              		.loc 1 754 19 is_stmt 0 view .LVU410
ARM GAS  /tmp/ccvIVBQe.s 			page 37


 1219 0044 0423     		movs	r3, #4
 1220 0046 6B77     		strb	r3, [r5, #29]
 756:stm32f4xx-hal-driver/Src/stm32f4xx_hal_rtc_ex.c ****     }
 1221              		.loc 1 756 7 is_stmt 1 view .LVU411
 756:stm32f4xx-hal-driver/Src/stm32f4xx_hal_rtc_ex.c ****     }
 1222              		.loc 1 756 14 is_stmt 0 view .LVU412
 1223 0048 0120     		movs	r0, #1
 1224 004a F5E7     		b	.L70
 1225              	.L74:
 761:stm32f4xx-hal-driver/Src/stm32f4xx_hal_rtc_ex.c **** 
 1226              		.loc 1 761 3 is_stmt 1 view .LVU413
 761:stm32f4xx-hal-driver/Src/stm32f4xx_hal_rtc_ex.c **** 
 1227              		.loc 1 761 15 is_stmt 0 view .LVU414
 1228 004c 0123     		movs	r3, #1
 1229 004e 6B77     		strb	r3, [r5, #29]
 763:stm32f4xx-hal-driver/Src/stm32f4xx_hal_rtc_ex.c **** }
 1230              		.loc 1 763 3 is_stmt 1 view .LVU415
 763:stm32f4xx-hal-driver/Src/stm32f4xx_hal_rtc_ex.c **** }
 1231              		.loc 1 763 10 is_stmt 0 view .LVU416
 1232 0050 0020     		movs	r0, #0
 1233 0052 F1E7     		b	.L70
 1234              		.cfi_endproc
 1235              	.LFE250:
 1237              		.section	.text.HAL_RTCEx_PollForTamper1Event,"ax",%progbits
 1238              		.align	1
 1239              		.global	HAL_RTCEx_PollForTamper1Event
 1240              		.syntax unified
 1241              		.thumb
 1242              		.thumb_func
 1243              		.fpu fpv4-sp-d16
 1245              	HAL_RTCEx_PollForTamper1Event:
 1246              	.LVL92:
 1247              	.LFB251:
 765:stm32f4xx-hal-driver/Src/stm32f4xx_hal_rtc_ex.c **** 
 766:stm32f4xx-hal-driver/Src/stm32f4xx_hal_rtc_ex.c **** /**
 767:stm32f4xx-hal-driver/Src/stm32f4xx_hal_rtc_ex.c ****   * @brief  Handles Tamper 1 Polling.
 768:stm32f4xx-hal-driver/Src/stm32f4xx_hal_rtc_ex.c ****   * @param  hrtc pointer to a RTC_HandleTypeDef structure that contains
 769:stm32f4xx-hal-driver/Src/stm32f4xx_hal_rtc_ex.c ****   *                the configuration information for RTC.
 770:stm32f4xx-hal-driver/Src/stm32f4xx_hal_rtc_ex.c ****   * @param  Timeout Timeout duration
 771:stm32f4xx-hal-driver/Src/stm32f4xx_hal_rtc_ex.c ****   * @retval HAL status
 772:stm32f4xx-hal-driver/Src/stm32f4xx_hal_rtc_ex.c ****   */
 773:stm32f4xx-hal-driver/Src/stm32f4xx_hal_rtc_ex.c **** HAL_StatusTypeDef HAL_RTCEx_PollForTamper1Event(RTC_HandleTypeDef *hrtc, uint32_t Timeout)
 774:stm32f4xx-hal-driver/Src/stm32f4xx_hal_rtc_ex.c **** {
 1248              		.loc 1 774 1 is_stmt 1 view -0
 1249              		.cfi_startproc
 1250              		@ args = 0, pretend = 0, frame = 0
 1251              		@ frame_needed = 0, uses_anonymous_args = 0
 1252              		.loc 1 774 1 is_stmt 0 view .LVU418
 1253 0000 70B5     		push	{r4, r5, r6, lr}
 1254              	.LCFI17:
 1255              		.cfi_def_cfa_offset 16
 1256              		.cfi_offset 4, -16
 1257              		.cfi_offset 5, -12
 1258              		.cfi_offset 6, -8
 1259              		.cfi_offset 14, -4
 1260 0002 0446     		mov	r4, r0
 1261 0004 0D46     		mov	r5, r1
ARM GAS  /tmp/ccvIVBQe.s 			page 38


 775:stm32f4xx-hal-driver/Src/stm32f4xx_hal_rtc_ex.c ****   uint32_t tickstart = 0U;
 1262              		.loc 1 775 3 is_stmt 1 view .LVU419
 1263              	.LVL93:
 776:stm32f4xx-hal-driver/Src/stm32f4xx_hal_rtc_ex.c **** 
 777:stm32f4xx-hal-driver/Src/stm32f4xx_hal_rtc_ex.c ****   /* Get tick */
 778:stm32f4xx-hal-driver/Src/stm32f4xx_hal_rtc_ex.c ****   tickstart = HAL_GetTick();
 1264              		.loc 1 778 3 view .LVU420
 1265              		.loc 1 778 15 is_stmt 0 view .LVU421
 1266 0006 FFF7FEFF 		bl	HAL_GetTick
 1267              	.LVL94:
 1268              		.loc 1 778 15 view .LVU422
 1269 000a 0646     		mov	r6, r0
 1270              	.LVL95:
 779:stm32f4xx-hal-driver/Src/stm32f4xx_hal_rtc_ex.c **** 
 780:stm32f4xx-hal-driver/Src/stm32f4xx_hal_rtc_ex.c ****   /* Get the status of the Interrupt */
 781:stm32f4xx-hal-driver/Src/stm32f4xx_hal_rtc_ex.c ****   while (__HAL_RTC_TAMPER_GET_FLAG(hrtc, RTC_FLAG_TAMP1F) == 0U)
 1271              		.loc 1 781 3 is_stmt 1 view .LVU423
 1272              	.L77:
 1273              		.loc 1 781 9 view .LVU424
 1274              		.loc 1 781 10 is_stmt 0 view .LVU425
 1275 000c 2368     		ldr	r3, [r4]
 1276 000e DA68     		ldr	r2, [r3, #12]
 1277              		.loc 1 781 9 view .LVU426
 1278 0010 12F4005F 		tst	r2, #8192
 1279 0014 0BD1     		bne	.L82
 782:stm32f4xx-hal-driver/Src/stm32f4xx_hal_rtc_ex.c ****   {
 783:stm32f4xx-hal-driver/Src/stm32f4xx_hal_rtc_ex.c ****     if (Timeout != HAL_MAX_DELAY)
 1280              		.loc 1 783 5 is_stmt 1 view .LVU427
 1281              		.loc 1 783 8 is_stmt 0 view .LVU428
 1282 0016 B5F1FF3F 		cmp	r5, #-1
 1283 001a F7D0     		beq	.L77
 784:stm32f4xx-hal-driver/Src/stm32f4xx_hal_rtc_ex.c ****     {
 785:stm32f4xx-hal-driver/Src/stm32f4xx_hal_rtc_ex.c ****       if ((Timeout == 0U) || ((HAL_GetTick() - tickstart) > Timeout))
 1284              		.loc 1 785 7 is_stmt 1 view .LVU429
 1285              		.loc 1 785 10 is_stmt 0 view .LVU430
 1286 001c 25B1     		cbz	r5, .L78
 1287              		.loc 1 785 32 discriminator 1 view .LVU431
 1288 001e FFF7FEFF 		bl	HAL_GetTick
 1289              	.LVL96:
 1290              		.loc 1 785 46 discriminator 1 view .LVU432
 1291 0022 801B     		subs	r0, r0, r6
 1292              		.loc 1 785 27 discriminator 1 view .LVU433
 1293 0024 A842     		cmp	r0, r5
 1294 0026 F1D9     		bls	.L77
 1295              	.L78:
 786:stm32f4xx-hal-driver/Src/stm32f4xx_hal_rtc_ex.c ****       {
 787:stm32f4xx-hal-driver/Src/stm32f4xx_hal_rtc_ex.c ****         hrtc->State = HAL_RTC_STATE_TIMEOUT;
 1296              		.loc 1 787 9 is_stmt 1 view .LVU434
 1297              		.loc 1 787 21 is_stmt 0 view .LVU435
 1298 0028 0320     		movs	r0, #3
 1299 002a 6077     		strb	r0, [r4, #29]
 788:stm32f4xx-hal-driver/Src/stm32f4xx_hal_rtc_ex.c ****         return HAL_TIMEOUT;
 1300              		.loc 1 788 9 is_stmt 1 view .LVU436
 1301              		.loc 1 788 16 is_stmt 0 view .LVU437
 1302 002c 07E0     		b	.L79
 1303              	.L82:
 789:stm32f4xx-hal-driver/Src/stm32f4xx_hal_rtc_ex.c ****       }
ARM GAS  /tmp/ccvIVBQe.s 			page 39


 790:stm32f4xx-hal-driver/Src/stm32f4xx_hal_rtc_ex.c ****     }
 791:stm32f4xx-hal-driver/Src/stm32f4xx_hal_rtc_ex.c ****   }
 792:stm32f4xx-hal-driver/Src/stm32f4xx_hal_rtc_ex.c **** 
 793:stm32f4xx-hal-driver/Src/stm32f4xx_hal_rtc_ex.c ****   /* Clear the Tamper Flag */
 794:stm32f4xx-hal-driver/Src/stm32f4xx_hal_rtc_ex.c ****   __HAL_RTC_TAMPER_CLEAR_FLAG(hrtc, RTC_FLAG_TAMP1F);
 1304              		.loc 1 794 3 is_stmt 1 view .LVU438
 1305 002e DA68     		ldr	r2, [r3, #12]
 1306 0030 D2B2     		uxtb	r2, r2
 1307 0032 62F40252 		orn	r2, r2, #8320
 1308 0036 DA60     		str	r2, [r3, #12]
 795:stm32f4xx-hal-driver/Src/stm32f4xx_hal_rtc_ex.c **** 
 796:stm32f4xx-hal-driver/Src/stm32f4xx_hal_rtc_ex.c ****   /* Change RTC state */
 797:stm32f4xx-hal-driver/Src/stm32f4xx_hal_rtc_ex.c ****   hrtc->State = HAL_RTC_STATE_READY;
 1309              		.loc 1 797 3 view .LVU439
 1310              		.loc 1 797 15 is_stmt 0 view .LVU440
 1311 0038 0123     		movs	r3, #1
 1312 003a 6377     		strb	r3, [r4, #29]
 798:stm32f4xx-hal-driver/Src/stm32f4xx_hal_rtc_ex.c **** 
 799:stm32f4xx-hal-driver/Src/stm32f4xx_hal_rtc_ex.c ****   return HAL_OK;
 1313              		.loc 1 799 3 is_stmt 1 view .LVU441
 1314              		.loc 1 799 10 is_stmt 0 view .LVU442
 1315 003c 0020     		movs	r0, #0
 1316              	.L79:
 800:stm32f4xx-hal-driver/Src/stm32f4xx_hal_rtc_ex.c **** }
 1317              		.loc 1 800 1 view .LVU443
 1318 003e 70BD     		pop	{r4, r5, r6, pc}
 1319              		.loc 1 800 1 view .LVU444
 1320              		.cfi_endproc
 1321              	.LFE251:
 1323              		.section	.text.HAL_RTCEx_PollForTamper2Event,"ax",%progbits
 1324              		.align	1
 1325              		.global	HAL_RTCEx_PollForTamper2Event
 1326              		.syntax unified
 1327              		.thumb
 1328              		.thumb_func
 1329              		.fpu fpv4-sp-d16
 1331              	HAL_RTCEx_PollForTamper2Event:
 1332              	.LVL97:
 1333              	.LFB252:
 801:stm32f4xx-hal-driver/Src/stm32f4xx_hal_rtc_ex.c **** 
 802:stm32f4xx-hal-driver/Src/stm32f4xx_hal_rtc_ex.c **** #if defined(RTC_TAMPER2_SUPPORT)
 803:stm32f4xx-hal-driver/Src/stm32f4xx_hal_rtc_ex.c **** /**
 804:stm32f4xx-hal-driver/Src/stm32f4xx_hal_rtc_ex.c ****   * @brief  Handles Tamper 2 Polling.
 805:stm32f4xx-hal-driver/Src/stm32f4xx_hal_rtc_ex.c ****   * @param  hrtc pointer to a RTC_HandleTypeDef structure that contains
 806:stm32f4xx-hal-driver/Src/stm32f4xx_hal_rtc_ex.c ****   *                the configuration information for RTC.
 807:stm32f4xx-hal-driver/Src/stm32f4xx_hal_rtc_ex.c ****   * @param  Timeout Timeout duration
 808:stm32f4xx-hal-driver/Src/stm32f4xx_hal_rtc_ex.c ****   * @retval HAL status
 809:stm32f4xx-hal-driver/Src/stm32f4xx_hal_rtc_ex.c ****   */
 810:stm32f4xx-hal-driver/Src/stm32f4xx_hal_rtc_ex.c **** HAL_StatusTypeDef HAL_RTCEx_PollForTamper2Event(RTC_HandleTypeDef *hrtc, uint32_t Timeout)
 811:stm32f4xx-hal-driver/Src/stm32f4xx_hal_rtc_ex.c **** {
 1334              		.loc 1 811 1 is_stmt 1 view -0
 1335              		.cfi_startproc
 1336              		@ args = 0, pretend = 0, frame = 0
 1337              		@ frame_needed = 0, uses_anonymous_args = 0
 1338              		.loc 1 811 1 is_stmt 0 view .LVU446
 1339 0000 70B5     		push	{r4, r5, r6, lr}
 1340              	.LCFI18:
ARM GAS  /tmp/ccvIVBQe.s 			page 40


 1341              		.cfi_def_cfa_offset 16
 1342              		.cfi_offset 4, -16
 1343              		.cfi_offset 5, -12
 1344              		.cfi_offset 6, -8
 1345              		.cfi_offset 14, -4
 1346 0002 0446     		mov	r4, r0
 1347 0004 0D46     		mov	r5, r1
 812:stm32f4xx-hal-driver/Src/stm32f4xx_hal_rtc_ex.c ****   uint32_t tickstart = 0U;
 1348              		.loc 1 812 3 is_stmt 1 view .LVU447
 1349              	.LVL98:
 813:stm32f4xx-hal-driver/Src/stm32f4xx_hal_rtc_ex.c **** 
 814:stm32f4xx-hal-driver/Src/stm32f4xx_hal_rtc_ex.c ****   /* Get tick */
 815:stm32f4xx-hal-driver/Src/stm32f4xx_hal_rtc_ex.c ****   tickstart = HAL_GetTick();
 1350              		.loc 1 815 3 view .LVU448
 1351              		.loc 1 815 15 is_stmt 0 view .LVU449
 1352 0006 FFF7FEFF 		bl	HAL_GetTick
 1353              	.LVL99:
 1354              		.loc 1 815 15 view .LVU450
 1355 000a 0646     		mov	r6, r0
 1356              	.LVL100:
 816:stm32f4xx-hal-driver/Src/stm32f4xx_hal_rtc_ex.c **** 
 817:stm32f4xx-hal-driver/Src/stm32f4xx_hal_rtc_ex.c ****   /* Get the status of the Interrupt */
 818:stm32f4xx-hal-driver/Src/stm32f4xx_hal_rtc_ex.c ****   while (__HAL_RTC_TAMPER_GET_FLAG(hrtc, RTC_FLAG_TAMP2F) == 0U)
 1357              		.loc 1 818 3 is_stmt 1 view .LVU451
 1358              	.L85:
 1359              		.loc 1 818 9 view .LVU452
 1360              		.loc 1 818 10 is_stmt 0 view .LVU453
 1361 000c 2368     		ldr	r3, [r4]
 1362 000e DA68     		ldr	r2, [r3, #12]
 1363              		.loc 1 818 9 view .LVU454
 1364 0010 12F4804F 		tst	r2, #16384
 1365 0014 0BD1     		bne	.L90
 819:stm32f4xx-hal-driver/Src/stm32f4xx_hal_rtc_ex.c ****   {
 820:stm32f4xx-hal-driver/Src/stm32f4xx_hal_rtc_ex.c ****     if (Timeout != HAL_MAX_DELAY)
 1366              		.loc 1 820 5 is_stmt 1 view .LVU455
 1367              		.loc 1 820 8 is_stmt 0 view .LVU456
 1368 0016 B5F1FF3F 		cmp	r5, #-1
 1369 001a F7D0     		beq	.L85
 821:stm32f4xx-hal-driver/Src/stm32f4xx_hal_rtc_ex.c ****     {
 822:stm32f4xx-hal-driver/Src/stm32f4xx_hal_rtc_ex.c ****       if ((Timeout == 0U) || ((HAL_GetTick() - tickstart) > Timeout))
 1370              		.loc 1 822 7 is_stmt 1 view .LVU457
 1371              		.loc 1 822 10 is_stmt 0 view .LVU458
 1372 001c 25B1     		cbz	r5, .L86
 1373              		.loc 1 822 32 discriminator 1 view .LVU459
 1374 001e FFF7FEFF 		bl	HAL_GetTick
 1375              	.LVL101:
 1376              		.loc 1 822 46 discriminator 1 view .LVU460
 1377 0022 801B     		subs	r0, r0, r6
 1378              		.loc 1 822 27 discriminator 1 view .LVU461
 1379 0024 A842     		cmp	r0, r5
 1380 0026 F1D9     		bls	.L85
 1381              	.L86:
 823:stm32f4xx-hal-driver/Src/stm32f4xx_hal_rtc_ex.c ****       {
 824:stm32f4xx-hal-driver/Src/stm32f4xx_hal_rtc_ex.c ****         hrtc->State = HAL_RTC_STATE_TIMEOUT;
 1382              		.loc 1 824 9 is_stmt 1 view .LVU462
 1383              		.loc 1 824 21 is_stmt 0 view .LVU463
 1384 0028 0320     		movs	r0, #3
ARM GAS  /tmp/ccvIVBQe.s 			page 41


 1385 002a 6077     		strb	r0, [r4, #29]
 825:stm32f4xx-hal-driver/Src/stm32f4xx_hal_rtc_ex.c ****         return HAL_TIMEOUT;
 1386              		.loc 1 825 9 is_stmt 1 view .LVU464
 1387              		.loc 1 825 16 is_stmt 0 view .LVU465
 1388 002c 07E0     		b	.L87
 1389              	.L90:
 826:stm32f4xx-hal-driver/Src/stm32f4xx_hal_rtc_ex.c ****       }
 827:stm32f4xx-hal-driver/Src/stm32f4xx_hal_rtc_ex.c ****     }
 828:stm32f4xx-hal-driver/Src/stm32f4xx_hal_rtc_ex.c ****   }
 829:stm32f4xx-hal-driver/Src/stm32f4xx_hal_rtc_ex.c **** 
 830:stm32f4xx-hal-driver/Src/stm32f4xx_hal_rtc_ex.c ****   /* Clear the Tamper Flag */
 831:stm32f4xx-hal-driver/Src/stm32f4xx_hal_rtc_ex.c ****   __HAL_RTC_TAMPER_CLEAR_FLAG(hrtc, RTC_FLAG_TAMP2F);
 1390              		.loc 1 831 3 is_stmt 1 view .LVU466
 1391 002e DA68     		ldr	r2, [r3, #12]
 1392 0030 D2B2     		uxtb	r2, r2
 1393 0032 62F48142 		orn	r2, r2, #16512
 1394 0036 DA60     		str	r2, [r3, #12]
 832:stm32f4xx-hal-driver/Src/stm32f4xx_hal_rtc_ex.c **** 
 833:stm32f4xx-hal-driver/Src/stm32f4xx_hal_rtc_ex.c ****   /* Change RTC state */
 834:stm32f4xx-hal-driver/Src/stm32f4xx_hal_rtc_ex.c ****   hrtc->State = HAL_RTC_STATE_READY;
 1395              		.loc 1 834 3 view .LVU467
 1396              		.loc 1 834 15 is_stmt 0 view .LVU468
 1397 0038 0123     		movs	r3, #1
 1398 003a 6377     		strb	r3, [r4, #29]
 835:stm32f4xx-hal-driver/Src/stm32f4xx_hal_rtc_ex.c **** 
 836:stm32f4xx-hal-driver/Src/stm32f4xx_hal_rtc_ex.c ****   return HAL_OK;
 1399              		.loc 1 836 3 is_stmt 1 view .LVU469
 1400              		.loc 1 836 10 is_stmt 0 view .LVU470
 1401 003c 0020     		movs	r0, #0
 1402              	.L87:
 837:stm32f4xx-hal-driver/Src/stm32f4xx_hal_rtc_ex.c **** }
 1403              		.loc 1 837 1 view .LVU471
 1404 003e 70BD     		pop	{r4, r5, r6, pc}
 1405              		.loc 1 837 1 view .LVU472
 1406              		.cfi_endproc
 1407              	.LFE252:
 1409              		.section	.text.HAL_RTCEx_SetWakeUpTimer,"ax",%progbits
 1410              		.align	1
 1411              		.global	HAL_RTCEx_SetWakeUpTimer
 1412              		.syntax unified
 1413              		.thumb
 1414              		.thumb_func
 1415              		.fpu fpv4-sp-d16
 1417              	HAL_RTCEx_SetWakeUpTimer:
 1418              	.LVL102:
 1419              	.LFB253:
 838:stm32f4xx-hal-driver/Src/stm32f4xx_hal_rtc_ex.c **** #endif /* RTC_TAMPER2_SUPPORT */
 839:stm32f4xx-hal-driver/Src/stm32f4xx_hal_rtc_ex.c **** 
 840:stm32f4xx-hal-driver/Src/stm32f4xx_hal_rtc_ex.c **** /**
 841:stm32f4xx-hal-driver/Src/stm32f4xx_hal_rtc_ex.c ****   * @}
 842:stm32f4xx-hal-driver/Src/stm32f4xx_hal_rtc_ex.c ****   */
 843:stm32f4xx-hal-driver/Src/stm32f4xx_hal_rtc_ex.c **** 
 844:stm32f4xx-hal-driver/Src/stm32f4xx_hal_rtc_ex.c **** /** @defgroup RTCEx_Exported_Functions_Group2 RTC Wakeup functions
 845:stm32f4xx-hal-driver/Src/stm32f4xx_hal_rtc_ex.c ****   * @brief    RTC Wakeup functions
 846:stm32f4xx-hal-driver/Src/stm32f4xx_hal_rtc_ex.c ****   *
 847:stm32f4xx-hal-driver/Src/stm32f4xx_hal_rtc_ex.c **** @verbatim
 848:stm32f4xx-hal-driver/Src/stm32f4xx_hal_rtc_ex.c ****  ===============================================================================
ARM GAS  /tmp/ccvIVBQe.s 			page 42


 849:stm32f4xx-hal-driver/Src/stm32f4xx_hal_rtc_ex.c ****                         ##### RTC Wakeup functions #####
 850:stm32f4xx-hal-driver/Src/stm32f4xx_hal_rtc_ex.c ****  ===============================================================================
 851:stm32f4xx-hal-driver/Src/stm32f4xx_hal_rtc_ex.c **** 
 852:stm32f4xx-hal-driver/Src/stm32f4xx_hal_rtc_ex.c ****  [..] This section provides functions allowing to configure Wakeup feature
 853:stm32f4xx-hal-driver/Src/stm32f4xx_hal_rtc_ex.c **** 
 854:stm32f4xx-hal-driver/Src/stm32f4xx_hal_rtc_ex.c **** @endverbatim
 855:stm32f4xx-hal-driver/Src/stm32f4xx_hal_rtc_ex.c ****   * @{
 856:stm32f4xx-hal-driver/Src/stm32f4xx_hal_rtc_ex.c ****   */
 857:stm32f4xx-hal-driver/Src/stm32f4xx_hal_rtc_ex.c **** 
 858:stm32f4xx-hal-driver/Src/stm32f4xx_hal_rtc_ex.c **** /**
 859:stm32f4xx-hal-driver/Src/stm32f4xx_hal_rtc_ex.c ****   * @brief  Sets wakeup timer.
 860:stm32f4xx-hal-driver/Src/stm32f4xx_hal_rtc_ex.c ****   * @param  hrtc pointer to a RTC_HandleTypeDef structure that contains
 861:stm32f4xx-hal-driver/Src/stm32f4xx_hal_rtc_ex.c ****   *                the configuration information for RTC.
 862:stm32f4xx-hal-driver/Src/stm32f4xx_hal_rtc_ex.c ****   * @param  WakeUpCounter Wakeup counter
 863:stm32f4xx-hal-driver/Src/stm32f4xx_hal_rtc_ex.c ****   * @param  WakeUpClock Wakeup clock
 864:stm32f4xx-hal-driver/Src/stm32f4xx_hal_rtc_ex.c ****   * @retval HAL status
 865:stm32f4xx-hal-driver/Src/stm32f4xx_hal_rtc_ex.c ****   */
 866:stm32f4xx-hal-driver/Src/stm32f4xx_hal_rtc_ex.c **** HAL_StatusTypeDef HAL_RTCEx_SetWakeUpTimer(RTC_HandleTypeDef *hrtc, uint32_t WakeUpCounter, uint32_
 867:stm32f4xx-hal-driver/Src/stm32f4xx_hal_rtc_ex.c **** {
 1420              		.loc 1 867 1 is_stmt 1 view -0
 1421              		.cfi_startproc
 1422              		@ args = 0, pretend = 0, frame = 0
 1423              		@ frame_needed = 0, uses_anonymous_args = 0
 1424              		.loc 1 867 1 is_stmt 0 view .LVU474
 1425 0000 F8B5     		push	{r3, r4, r5, r6, r7, lr}
 1426              	.LCFI19:
 1427              		.cfi_def_cfa_offset 24
 1428              		.cfi_offset 3, -24
 1429              		.cfi_offset 4, -20
 1430              		.cfi_offset 5, -16
 1431              		.cfi_offset 6, -12
 1432              		.cfi_offset 7, -8
 1433              		.cfi_offset 14, -4
 868:stm32f4xx-hal-driver/Src/stm32f4xx_hal_rtc_ex.c ****   uint32_t tickstart = 0U;
 1434              		.loc 1 868 3 is_stmt 1 view .LVU475
 1435              	.LVL103:
 869:stm32f4xx-hal-driver/Src/stm32f4xx_hal_rtc_ex.c **** 
 870:stm32f4xx-hal-driver/Src/stm32f4xx_hal_rtc_ex.c ****   /* Check the parameters */
 871:stm32f4xx-hal-driver/Src/stm32f4xx_hal_rtc_ex.c ****   assert_param(IS_RTC_WAKEUP_CLOCK(WakeUpClock));
 1436              		.loc 1 871 3 view .LVU476
 872:stm32f4xx-hal-driver/Src/stm32f4xx_hal_rtc_ex.c ****   assert_param(IS_RTC_WAKEUP_COUNTER(WakeUpCounter));
 1437              		.loc 1 872 3 view .LVU477
 873:stm32f4xx-hal-driver/Src/stm32f4xx_hal_rtc_ex.c **** 
 874:stm32f4xx-hal-driver/Src/stm32f4xx_hal_rtc_ex.c ****   /* Process Locked */
 875:stm32f4xx-hal-driver/Src/stm32f4xx_hal_rtc_ex.c ****   __HAL_LOCK(hrtc);
 1438              		.loc 1 875 3 view .LVU478
 1439              		.loc 1 875 3 view .LVU479
 1440 0002 037F     		ldrb	r3, [r0, #28]	@ zero_extendqisi2
 1441 0004 012B     		cmp	r3, #1
 1442 0006 5FD0     		beq	.L98
 1443 0008 0446     		mov	r4, r0
 1444 000a 0D46     		mov	r5, r1
 1445 000c 1646     		mov	r6, r2
 1446              		.loc 1 875 3 discriminator 2 view .LVU480
 1447 000e 0123     		movs	r3, #1
 1448 0010 0377     		strb	r3, [r0, #28]
 1449              		.loc 1 875 3 discriminator 2 view .LVU481
ARM GAS  /tmp/ccvIVBQe.s 			page 43


 876:stm32f4xx-hal-driver/Src/stm32f4xx_hal_rtc_ex.c **** 
 877:stm32f4xx-hal-driver/Src/stm32f4xx_hal_rtc_ex.c ****   hrtc->State = HAL_RTC_STATE_BUSY;
 1450              		.loc 1 877 3 discriminator 2 view .LVU482
 1451              		.loc 1 877 15 is_stmt 0 discriminator 2 view .LVU483
 1452 0012 0223     		movs	r3, #2
 1453 0014 4377     		strb	r3, [r0, #29]
 878:stm32f4xx-hal-driver/Src/stm32f4xx_hal_rtc_ex.c **** 
 879:stm32f4xx-hal-driver/Src/stm32f4xx_hal_rtc_ex.c ****   /* Disable the write protection for RTC registers */
 880:stm32f4xx-hal-driver/Src/stm32f4xx_hal_rtc_ex.c ****   __HAL_RTC_WRITEPROTECTION_DISABLE(hrtc);
 1454              		.loc 1 880 3 is_stmt 1 discriminator 2 view .LVU484
 1455              		.loc 1 880 3 discriminator 2 view .LVU485
 1456 0016 0368     		ldr	r3, [r0]
 1457 0018 CA22     		movs	r2, #202
 1458              	.LVL104:
 1459              		.loc 1 880 3 is_stmt 0 discriminator 2 view .LVU486
 1460 001a 5A62     		str	r2, [r3, #36]
 1461              		.loc 1 880 3 is_stmt 1 discriminator 2 view .LVU487
 1462 001c 0368     		ldr	r3, [r0]
 1463 001e 5322     		movs	r2, #83
 1464 0020 5A62     		str	r2, [r3, #36]
 1465              		.loc 1 880 3 discriminator 2 view .LVU488
 881:stm32f4xx-hal-driver/Src/stm32f4xx_hal_rtc_ex.c **** 
 882:stm32f4xx-hal-driver/Src/stm32f4xx_hal_rtc_ex.c ****   /* Check RTC WUTWF flag is reset only when wakeup timer enabled*/
 883:stm32f4xx-hal-driver/Src/stm32f4xx_hal_rtc_ex.c ****   if ((hrtc->Instance->CR & RTC_CR_WUTE) != 0U)
 1466              		.loc 1 883 3 discriminator 2 view .LVU489
 1467              		.loc 1 883 12 is_stmt 0 discriminator 2 view .LVU490
 1468 0022 0368     		ldr	r3, [r0]
 1469              		.loc 1 883 22 discriminator 2 view .LVU491
 1470 0024 9B68     		ldr	r3, [r3, #8]
 1471              		.loc 1 883 6 discriminator 2 view .LVU492
 1472 0026 13F4806F 		tst	r3, #1024
 1473 002a 15D0     		beq	.L93
 884:stm32f4xx-hal-driver/Src/stm32f4xx_hal_rtc_ex.c ****   {
 885:stm32f4xx-hal-driver/Src/stm32f4xx_hal_rtc_ex.c ****     tickstart = HAL_GetTick();
 1474              		.loc 1 885 5 is_stmt 1 view .LVU493
 1475              		.loc 1 885 17 is_stmt 0 view .LVU494
 1476 002c FFF7FEFF 		bl	HAL_GetTick
 1477              	.LVL105:
 1478              		.loc 1 885 17 view .LVU495
 1479 0030 0746     		mov	r7, r0
 1480              	.LVL106:
 886:stm32f4xx-hal-driver/Src/stm32f4xx_hal_rtc_ex.c **** 
 887:stm32f4xx-hal-driver/Src/stm32f4xx_hal_rtc_ex.c ****     /* Wait till RTC WUTWF flag is reset and if timeout is reached exit */
 888:stm32f4xx-hal-driver/Src/stm32f4xx_hal_rtc_ex.c ****     while (__HAL_RTC_WAKEUPTIMER_GET_FLAG(hrtc, RTC_FLAG_WUTWF) != 0U)
 1481              		.loc 1 888 5 is_stmt 1 view .LVU496
 1482              	.L94:
 1483              		.loc 1 888 11 view .LVU497
 1484              		.loc 1 888 12 is_stmt 0 view .LVU498
 1485 0032 2368     		ldr	r3, [r4]
 1486 0034 DB68     		ldr	r3, [r3, #12]
 1487              		.loc 1 888 11 view .LVU499
 1488 0036 13F0040F 		tst	r3, #4
 1489 003a 0DD0     		beq	.L93
 889:stm32f4xx-hal-driver/Src/stm32f4xx_hal_rtc_ex.c ****     {
 890:stm32f4xx-hal-driver/Src/stm32f4xx_hal_rtc_ex.c ****       if ((HAL_GetTick() - tickstart) > RTC_TIMEOUT_VALUE)
 1490              		.loc 1 890 7 is_stmt 1 view .LVU500
 1491              		.loc 1 890 12 is_stmt 0 view .LVU501
ARM GAS  /tmp/ccvIVBQe.s 			page 44


 1492 003c FFF7FEFF 		bl	HAL_GetTick
 1493              	.LVL107:
 1494              		.loc 1 890 26 view .LVU502
 1495 0040 C01B     		subs	r0, r0, r7
 1496              		.loc 1 890 10 view .LVU503
 1497 0042 B0F57A7F 		cmp	r0, #1000
 1498 0046 F4D9     		bls	.L94
 891:stm32f4xx-hal-driver/Src/stm32f4xx_hal_rtc_ex.c ****       {
 892:stm32f4xx-hal-driver/Src/stm32f4xx_hal_rtc_ex.c ****         /* Enable the write protection for RTC registers */
 893:stm32f4xx-hal-driver/Src/stm32f4xx_hal_rtc_ex.c ****         __HAL_RTC_WRITEPROTECTION_ENABLE(hrtc);
 1499              		.loc 1 893 9 is_stmt 1 view .LVU504
 1500              		.loc 1 893 9 view .LVU505
 1501 0048 2368     		ldr	r3, [r4]
 1502 004a FF22     		movs	r2, #255
 1503 004c 5A62     		str	r2, [r3, #36]
 1504              		.loc 1 893 9 view .LVU506
 894:stm32f4xx-hal-driver/Src/stm32f4xx_hal_rtc_ex.c **** 
 895:stm32f4xx-hal-driver/Src/stm32f4xx_hal_rtc_ex.c ****         hrtc->State = HAL_RTC_STATE_TIMEOUT;
 1505              		.loc 1 895 9 view .LVU507
 1506              		.loc 1 895 21 is_stmt 0 view .LVU508
 1507 004e 0320     		movs	r0, #3
 1508 0050 6077     		strb	r0, [r4, #29]
 896:stm32f4xx-hal-driver/Src/stm32f4xx_hal_rtc_ex.c **** 
 897:stm32f4xx-hal-driver/Src/stm32f4xx_hal_rtc_ex.c ****         /* Process Unlocked */
 898:stm32f4xx-hal-driver/Src/stm32f4xx_hal_rtc_ex.c ****         __HAL_UNLOCK(hrtc);
 1509              		.loc 1 898 9 is_stmt 1 view .LVU509
 1510              		.loc 1 898 9 view .LVU510
 1511 0052 0023     		movs	r3, #0
 1512 0054 2377     		strb	r3, [r4, #28]
 1513              		.loc 1 898 9 view .LVU511
 899:stm32f4xx-hal-driver/Src/stm32f4xx_hal_rtc_ex.c **** 
 900:stm32f4xx-hal-driver/Src/stm32f4xx_hal_rtc_ex.c ****         return HAL_TIMEOUT;
 1514              		.loc 1 900 9 view .LVU512
 1515              		.loc 1 900 16 is_stmt 0 view .LVU513
 1516 0056 36E0     		b	.L92
 1517              	.LVL108:
 1518              	.L93:
 901:stm32f4xx-hal-driver/Src/stm32f4xx_hal_rtc_ex.c ****       }
 902:stm32f4xx-hal-driver/Src/stm32f4xx_hal_rtc_ex.c ****     }
 903:stm32f4xx-hal-driver/Src/stm32f4xx_hal_rtc_ex.c ****   }
 904:stm32f4xx-hal-driver/Src/stm32f4xx_hal_rtc_ex.c **** 
 905:stm32f4xx-hal-driver/Src/stm32f4xx_hal_rtc_ex.c ****   /* Disable the Wakeup timer */
 906:stm32f4xx-hal-driver/Src/stm32f4xx_hal_rtc_ex.c ****   __HAL_RTC_WAKEUPTIMER_DISABLE(hrtc);
 1519              		.loc 1 906 3 is_stmt 1 view .LVU514
 1520 0058 2268     		ldr	r2, [r4]
 1521 005a 9368     		ldr	r3, [r2, #8]
 1522 005c 23F48063 		bic	r3, r3, #1024
 1523 0060 9360     		str	r3, [r2, #8]
 907:stm32f4xx-hal-driver/Src/stm32f4xx_hal_rtc_ex.c **** 
 908:stm32f4xx-hal-driver/Src/stm32f4xx_hal_rtc_ex.c ****   /* Clear the Wakeup flag */
 909:stm32f4xx-hal-driver/Src/stm32f4xx_hal_rtc_ex.c ****   __HAL_RTC_WAKEUPTIMER_CLEAR_FLAG(hrtc, RTC_FLAG_WUTF);
 1524              		.loc 1 909 3 view .LVU515
 1525 0062 2268     		ldr	r2, [r4]
 1526 0064 D368     		ldr	r3, [r2, #12]
 1527 0066 DBB2     		uxtb	r3, r3
 1528 0068 63F49063 		orn	r3, r3, #1152
 1529 006c D360     		str	r3, [r2, #12]
ARM GAS  /tmp/ccvIVBQe.s 			page 45


 910:stm32f4xx-hal-driver/Src/stm32f4xx_hal_rtc_ex.c **** 
 911:stm32f4xx-hal-driver/Src/stm32f4xx_hal_rtc_ex.c ****   /* Get tick */
 912:stm32f4xx-hal-driver/Src/stm32f4xx_hal_rtc_ex.c ****   tickstart = HAL_GetTick();
 1530              		.loc 1 912 3 view .LVU516
 1531              		.loc 1 912 15 is_stmt 0 view .LVU517
 1532 006e FFF7FEFF 		bl	HAL_GetTick
 1533              	.LVL109:
 1534 0072 0746     		mov	r7, r0
 1535              	.LVL110:
 913:stm32f4xx-hal-driver/Src/stm32f4xx_hal_rtc_ex.c **** 
 914:stm32f4xx-hal-driver/Src/stm32f4xx_hal_rtc_ex.c ****   /* Wait till RTC WUTWF flag is set and if timeout is reached exit */
 915:stm32f4xx-hal-driver/Src/stm32f4xx_hal_rtc_ex.c ****   while (__HAL_RTC_WAKEUPTIMER_GET_FLAG(hrtc, RTC_FLAG_WUTWF) == 0U)
 1536              		.loc 1 915 3 is_stmt 1 view .LVU518
 1537              	.L96:
 1538              		.loc 1 915 9 view .LVU519
 1539              		.loc 1 915 10 is_stmt 0 view .LVU520
 1540 0074 2368     		ldr	r3, [r4]
 1541 0076 DA68     		ldr	r2, [r3, #12]
 1542              		.loc 1 915 9 view .LVU521
 1543 0078 12F0040F 		tst	r2, #4
 1544 007c 0DD1     		bne	.L100
 916:stm32f4xx-hal-driver/Src/stm32f4xx_hal_rtc_ex.c ****   {
 917:stm32f4xx-hal-driver/Src/stm32f4xx_hal_rtc_ex.c ****     if ((HAL_GetTick() - tickstart) > RTC_TIMEOUT_VALUE)
 1545              		.loc 1 917 5 is_stmt 1 view .LVU522
 1546              		.loc 1 917 10 is_stmt 0 view .LVU523
 1547 007e FFF7FEFF 		bl	HAL_GetTick
 1548              	.LVL111:
 1549              		.loc 1 917 24 view .LVU524
 1550 0082 C01B     		subs	r0, r0, r7
 1551              		.loc 1 917 8 view .LVU525
 1552 0084 B0F57A7F 		cmp	r0, #1000
 1553 0088 F4D9     		bls	.L96
 918:stm32f4xx-hal-driver/Src/stm32f4xx_hal_rtc_ex.c ****     {
 919:stm32f4xx-hal-driver/Src/stm32f4xx_hal_rtc_ex.c ****       /* Enable the write protection for RTC registers */
 920:stm32f4xx-hal-driver/Src/stm32f4xx_hal_rtc_ex.c ****       __HAL_RTC_WRITEPROTECTION_ENABLE(hrtc);
 1554              		.loc 1 920 7 is_stmt 1 view .LVU526
 1555              		.loc 1 920 7 view .LVU527
 1556 008a 2368     		ldr	r3, [r4]
 1557 008c FF22     		movs	r2, #255
 1558 008e 5A62     		str	r2, [r3, #36]
 1559              		.loc 1 920 7 view .LVU528
 921:stm32f4xx-hal-driver/Src/stm32f4xx_hal_rtc_ex.c **** 
 922:stm32f4xx-hal-driver/Src/stm32f4xx_hal_rtc_ex.c ****       hrtc->State = HAL_RTC_STATE_TIMEOUT;
 1560              		.loc 1 922 7 view .LVU529
 1561              		.loc 1 922 19 is_stmt 0 view .LVU530
 1562 0090 0320     		movs	r0, #3
 1563 0092 6077     		strb	r0, [r4, #29]
 923:stm32f4xx-hal-driver/Src/stm32f4xx_hal_rtc_ex.c **** 
 924:stm32f4xx-hal-driver/Src/stm32f4xx_hal_rtc_ex.c ****       /* Process Unlocked */
 925:stm32f4xx-hal-driver/Src/stm32f4xx_hal_rtc_ex.c ****       __HAL_UNLOCK(hrtc);
 1564              		.loc 1 925 7 is_stmt 1 view .LVU531
 1565              		.loc 1 925 7 view .LVU532
 1566 0094 0023     		movs	r3, #0
 1567 0096 2377     		strb	r3, [r4, #28]
 1568              		.loc 1 925 7 view .LVU533
 926:stm32f4xx-hal-driver/Src/stm32f4xx_hal_rtc_ex.c **** 
 927:stm32f4xx-hal-driver/Src/stm32f4xx_hal_rtc_ex.c ****       return HAL_TIMEOUT;
ARM GAS  /tmp/ccvIVBQe.s 			page 46


 1569              		.loc 1 927 7 view .LVU534
 1570              		.loc 1 927 14 is_stmt 0 view .LVU535
 1571 0098 15E0     		b	.L92
 1572              	.L100:
 928:stm32f4xx-hal-driver/Src/stm32f4xx_hal_rtc_ex.c ****     }
 929:stm32f4xx-hal-driver/Src/stm32f4xx_hal_rtc_ex.c ****   }
 930:stm32f4xx-hal-driver/Src/stm32f4xx_hal_rtc_ex.c **** 
 931:stm32f4xx-hal-driver/Src/stm32f4xx_hal_rtc_ex.c ****   /* Clear the Wakeup Timer clock source bits in CR register */
 932:stm32f4xx-hal-driver/Src/stm32f4xx_hal_rtc_ex.c ****   hrtc->Instance->CR &= (uint32_t)~RTC_CR_WUCKSEL;
 1573              		.loc 1 932 3 is_stmt 1 view .LVU536
 1574              		.loc 1 932 22 is_stmt 0 view .LVU537
 1575 009a 9A68     		ldr	r2, [r3, #8]
 1576 009c 22F00702 		bic	r2, r2, #7
 1577 00a0 9A60     		str	r2, [r3, #8]
 933:stm32f4xx-hal-driver/Src/stm32f4xx_hal_rtc_ex.c **** 
 934:stm32f4xx-hal-driver/Src/stm32f4xx_hal_rtc_ex.c ****   /* Configure the clock source */
 935:stm32f4xx-hal-driver/Src/stm32f4xx_hal_rtc_ex.c ****   hrtc->Instance->CR |= (uint32_t)WakeUpClock;
 1578              		.loc 1 935 3 is_stmt 1 view .LVU538
 1579              		.loc 1 935 7 is_stmt 0 view .LVU539
 1580 00a2 2268     		ldr	r2, [r4]
 1581              		.loc 1 935 22 view .LVU540
 1582 00a4 9368     		ldr	r3, [r2, #8]
 1583 00a6 1E43     		orrs	r6, r6, r3
 1584              	.LVL112:
 1585              		.loc 1 935 22 view .LVU541
 1586 00a8 9660     		str	r6, [r2, #8]
 936:stm32f4xx-hal-driver/Src/stm32f4xx_hal_rtc_ex.c **** 
 937:stm32f4xx-hal-driver/Src/stm32f4xx_hal_rtc_ex.c ****   /* Configure the Wakeup Timer counter */
 938:stm32f4xx-hal-driver/Src/stm32f4xx_hal_rtc_ex.c ****   hrtc->Instance->WUTR = (uint32_t)WakeUpCounter;
 1587              		.loc 1 938 3 is_stmt 1 view .LVU542
 1588              		.loc 1 938 7 is_stmt 0 view .LVU543
 1589 00aa 2368     		ldr	r3, [r4]
 1590              		.loc 1 938 24 view .LVU544
 1591 00ac 5D61     		str	r5, [r3, #20]
 939:stm32f4xx-hal-driver/Src/stm32f4xx_hal_rtc_ex.c **** 
 940:stm32f4xx-hal-driver/Src/stm32f4xx_hal_rtc_ex.c ****   /* Enable the Wakeup Timer */
 941:stm32f4xx-hal-driver/Src/stm32f4xx_hal_rtc_ex.c ****   __HAL_RTC_WAKEUPTIMER_ENABLE(hrtc);
 1592              		.loc 1 941 3 is_stmt 1 view .LVU545
 1593 00ae 2268     		ldr	r2, [r4]
 1594 00b0 9368     		ldr	r3, [r2, #8]
 1595 00b2 43F48063 		orr	r3, r3, #1024
 1596 00b6 9360     		str	r3, [r2, #8]
 942:stm32f4xx-hal-driver/Src/stm32f4xx_hal_rtc_ex.c **** 
 943:stm32f4xx-hal-driver/Src/stm32f4xx_hal_rtc_ex.c ****   /* Enable the write protection for RTC registers */
 944:stm32f4xx-hal-driver/Src/stm32f4xx_hal_rtc_ex.c ****   __HAL_RTC_WRITEPROTECTION_ENABLE(hrtc);
 1597              		.loc 1 944 3 view .LVU546
 1598              		.loc 1 944 3 view .LVU547
 1599 00b8 2368     		ldr	r3, [r4]
 1600 00ba FF22     		movs	r2, #255
 1601 00bc 5A62     		str	r2, [r3, #36]
 1602              		.loc 1 944 3 view .LVU548
 945:stm32f4xx-hal-driver/Src/stm32f4xx_hal_rtc_ex.c **** 
 946:stm32f4xx-hal-driver/Src/stm32f4xx_hal_rtc_ex.c ****   hrtc->State = HAL_RTC_STATE_READY;
 1603              		.loc 1 946 3 view .LVU549
 1604              		.loc 1 946 15 is_stmt 0 view .LVU550
 1605 00be 0123     		movs	r3, #1
 1606 00c0 6377     		strb	r3, [r4, #29]
ARM GAS  /tmp/ccvIVBQe.s 			page 47


 947:stm32f4xx-hal-driver/Src/stm32f4xx_hal_rtc_ex.c **** 
 948:stm32f4xx-hal-driver/Src/stm32f4xx_hal_rtc_ex.c ****   /* Process Unlocked */
 949:stm32f4xx-hal-driver/Src/stm32f4xx_hal_rtc_ex.c ****   __HAL_UNLOCK(hrtc);
 1607              		.loc 1 949 3 is_stmt 1 view .LVU551
 1608              		.loc 1 949 3 view .LVU552
 1609 00c2 0020     		movs	r0, #0
 1610 00c4 2077     		strb	r0, [r4, #28]
 1611              		.loc 1 949 3 view .LVU553
 950:stm32f4xx-hal-driver/Src/stm32f4xx_hal_rtc_ex.c **** 
 951:stm32f4xx-hal-driver/Src/stm32f4xx_hal_rtc_ex.c ****   return HAL_OK;
 1612              		.loc 1 951 3 view .LVU554
 1613              	.LVL113:
 1614              	.L92:
 952:stm32f4xx-hal-driver/Src/stm32f4xx_hal_rtc_ex.c **** }
 1615              		.loc 1 952 1 is_stmt 0 view .LVU555
 1616 00c6 F8BD     		pop	{r3, r4, r5, r6, r7, pc}
 1617              	.LVL114:
 1618              	.L98:
 875:stm32f4xx-hal-driver/Src/stm32f4xx_hal_rtc_ex.c **** 
 1619              		.loc 1 875 3 view .LVU556
 1620 00c8 0220     		movs	r0, #2
 1621              	.LVL115:
 875:stm32f4xx-hal-driver/Src/stm32f4xx_hal_rtc_ex.c **** 
 1622              		.loc 1 875 3 view .LVU557
 1623 00ca FCE7     		b	.L92
 1624              		.cfi_endproc
 1625              	.LFE253:
 1627              		.section	.text.HAL_RTCEx_SetWakeUpTimer_IT,"ax",%progbits
 1628              		.align	1
 1629              		.global	HAL_RTCEx_SetWakeUpTimer_IT
 1630              		.syntax unified
 1631              		.thumb
 1632              		.thumb_func
 1633              		.fpu fpv4-sp-d16
 1635              	HAL_RTCEx_SetWakeUpTimer_IT:
 1636              	.LVL116:
 1637              	.LFB254:
 953:stm32f4xx-hal-driver/Src/stm32f4xx_hal_rtc_ex.c **** 
 954:stm32f4xx-hal-driver/Src/stm32f4xx_hal_rtc_ex.c **** /**
 955:stm32f4xx-hal-driver/Src/stm32f4xx_hal_rtc_ex.c ****   * @brief  Sets wakeup timer with interrupt.
 956:stm32f4xx-hal-driver/Src/stm32f4xx_hal_rtc_ex.c ****   * @param  hrtc pointer to a RTC_HandleTypeDef structure that contains
 957:stm32f4xx-hal-driver/Src/stm32f4xx_hal_rtc_ex.c ****   *                the configuration information for RTC.
 958:stm32f4xx-hal-driver/Src/stm32f4xx_hal_rtc_ex.c ****   * @param  WakeUpCounter Wakeup counter
 959:stm32f4xx-hal-driver/Src/stm32f4xx_hal_rtc_ex.c ****   * @param  WakeUpClock Wakeup clock
 960:stm32f4xx-hal-driver/Src/stm32f4xx_hal_rtc_ex.c ****   * @retval HAL status
 961:stm32f4xx-hal-driver/Src/stm32f4xx_hal_rtc_ex.c ****   */
 962:stm32f4xx-hal-driver/Src/stm32f4xx_hal_rtc_ex.c **** HAL_StatusTypeDef HAL_RTCEx_SetWakeUpTimer_IT(RTC_HandleTypeDef *hrtc, uint32_t WakeUpCounter, uint
 963:stm32f4xx-hal-driver/Src/stm32f4xx_hal_rtc_ex.c **** {
 1638              		.loc 1 963 1 is_stmt 1 view -0
 1639              		.cfi_startproc
 1640              		@ args = 0, pretend = 0, frame = 8
 1641              		@ frame_needed = 0, uses_anonymous_args = 0
 1642              		@ link register save eliminated.
 1643              		.loc 1 963 1 is_stmt 0 view .LVU559
 1644 0000 30B4     		push	{r4, r5}
 1645              	.LCFI20:
 1646              		.cfi_def_cfa_offset 8
ARM GAS  /tmp/ccvIVBQe.s 			page 48


 1647              		.cfi_offset 4, -8
 1648              		.cfi_offset 5, -4
 1649 0002 82B0     		sub	sp, sp, #8
 1650              	.LCFI21:
 1651              		.cfi_def_cfa_offset 16
 964:stm32f4xx-hal-driver/Src/stm32f4xx_hal_rtc_ex.c ****   __IO uint32_t count  = RTC_TIMEOUT_VALUE * (SystemCoreClock / 32U / 1000U);
 1652              		.loc 1 964 3 is_stmt 1 view .LVU560
 1653              		.loc 1 964 69 is_stmt 0 view .LVU561
 1654 0004 3B4B     		ldr	r3, .L112
 1655 0006 1B68     		ldr	r3, [r3]
 1656 0008 3B4C     		ldr	r4, .L112+4
 1657 000a A4FB0343 		umull	r4, r3, r4, r3
 1658 000e DB0A     		lsrs	r3, r3, #11
 1659              		.loc 1 964 44 view .LVU562
 1660 0010 4FF47A75 		mov	r5, #1000
 1661 0014 05FB03F5 		mul	r5, r5, r3
 1662              		.loc 1 964 17 view .LVU563
 1663 0018 0195     		str	r5, [sp, #4]
 965:stm32f4xx-hal-driver/Src/stm32f4xx_hal_rtc_ex.c **** 
 966:stm32f4xx-hal-driver/Src/stm32f4xx_hal_rtc_ex.c ****   /* Check the parameters */
 967:stm32f4xx-hal-driver/Src/stm32f4xx_hal_rtc_ex.c ****   assert_param(IS_RTC_WAKEUP_CLOCK(WakeUpClock));
 1664              		.loc 1 967 3 is_stmt 1 view .LVU564
 968:stm32f4xx-hal-driver/Src/stm32f4xx_hal_rtc_ex.c ****   assert_param(IS_RTC_WAKEUP_COUNTER(WakeUpCounter));
 1665              		.loc 1 968 3 view .LVU565
 969:stm32f4xx-hal-driver/Src/stm32f4xx_hal_rtc_ex.c **** 
 970:stm32f4xx-hal-driver/Src/stm32f4xx_hal_rtc_ex.c ****   /* Process Locked */
 971:stm32f4xx-hal-driver/Src/stm32f4xx_hal_rtc_ex.c ****   __HAL_LOCK(hrtc);
 1666              		.loc 1 971 3 view .LVU566
 1667              		.loc 1 971 3 view .LVU567
 1668 001a 037F     		ldrb	r3, [r0, #28]	@ zero_extendqisi2
 1669 001c 012B     		cmp	r3, #1
 1670 001e 67D0     		beq	.L108
 1671              		.loc 1 971 3 discriminator 2 view .LVU568
 1672 0020 0123     		movs	r3, #1
 1673 0022 0377     		strb	r3, [r0, #28]
 1674              		.loc 1 971 3 discriminator 2 view .LVU569
 972:stm32f4xx-hal-driver/Src/stm32f4xx_hal_rtc_ex.c **** 
 973:stm32f4xx-hal-driver/Src/stm32f4xx_hal_rtc_ex.c ****   hrtc->State = HAL_RTC_STATE_BUSY;
 1675              		.loc 1 973 3 discriminator 2 view .LVU570
 1676              		.loc 1 973 15 is_stmt 0 discriminator 2 view .LVU571
 1677 0024 0223     		movs	r3, #2
 1678 0026 4377     		strb	r3, [r0, #29]
 974:stm32f4xx-hal-driver/Src/stm32f4xx_hal_rtc_ex.c **** 
 975:stm32f4xx-hal-driver/Src/stm32f4xx_hal_rtc_ex.c ****   /* Disable the write protection for RTC registers */
 976:stm32f4xx-hal-driver/Src/stm32f4xx_hal_rtc_ex.c ****   __HAL_RTC_WRITEPROTECTION_DISABLE(hrtc);
 1679              		.loc 1 976 3 is_stmt 1 discriminator 2 view .LVU572
 1680              		.loc 1 976 3 discriminator 2 view .LVU573
 1681 0028 0368     		ldr	r3, [r0]
 1682 002a CA24     		movs	r4, #202
 1683 002c 5C62     		str	r4, [r3, #36]
 1684              		.loc 1 976 3 discriminator 2 view .LVU574
 1685 002e 0368     		ldr	r3, [r0]
 1686 0030 5324     		movs	r4, #83
 1687 0032 5C62     		str	r4, [r3, #36]
 1688              		.loc 1 976 3 discriminator 2 view .LVU575
 977:stm32f4xx-hal-driver/Src/stm32f4xx_hal_rtc_ex.c **** 
 978:stm32f4xx-hal-driver/Src/stm32f4xx_hal_rtc_ex.c ****   /* Check RTC WUTWF flag is reset only when wakeup timer enabled */
ARM GAS  /tmp/ccvIVBQe.s 			page 49


 979:stm32f4xx-hal-driver/Src/stm32f4xx_hal_rtc_ex.c ****   if ((hrtc->Instance->CR & RTC_CR_WUTE) != 0U)
 1689              		.loc 1 979 3 discriminator 2 view .LVU576
 1690              		.loc 1 979 12 is_stmt 0 discriminator 2 view .LVU577
 1691 0034 0468     		ldr	r4, [r0]
 1692              		.loc 1 979 22 discriminator 2 view .LVU578
 1693 0036 A368     		ldr	r3, [r4, #8]
 1694              		.loc 1 979 6 discriminator 2 view .LVU579
 1695 0038 13F4806F 		tst	r3, #1024
 1696 003c 09D0     		beq	.L103
 1697              	.L105:
 980:stm32f4xx-hal-driver/Src/stm32f4xx_hal_rtc_ex.c ****   {
 981:stm32f4xx-hal-driver/Src/stm32f4xx_hal_rtc_ex.c ****     /* Wait till RTC WUTWF flag is reset and if timeout is reached exit */
 982:stm32f4xx-hal-driver/Src/stm32f4xx_hal_rtc_ex.c ****     do
 1698              		.loc 1 982 5 is_stmt 1 view .LVU580
 983:stm32f4xx-hal-driver/Src/stm32f4xx_hal_rtc_ex.c ****     {
 984:stm32f4xx-hal-driver/Src/stm32f4xx_hal_rtc_ex.c ****       count = count - 1U;
 1699              		.loc 1 984 7 view .LVU581
 1700              		.loc 1 984 21 is_stmt 0 view .LVU582
 1701 003e 019B     		ldr	r3, [sp, #4]
 1702 0040 013B     		subs	r3, r3, #1
 1703              		.loc 1 984 13 view .LVU583
 1704 0042 0193     		str	r3, [sp, #4]
 985:stm32f4xx-hal-driver/Src/stm32f4xx_hal_rtc_ex.c ****       if (count == 0U)
 1705              		.loc 1 985 7 is_stmt 1 view .LVU584
 1706              		.loc 1 985 17 is_stmt 0 view .LVU585
 1707 0044 019B     		ldr	r3, [sp, #4]
 1708              		.loc 1 985 10 view .LVU586
 1709 0046 002B     		cmp	r3, #0
 1710 0048 3FD0     		beq	.L110
 986:stm32f4xx-hal-driver/Src/stm32f4xx_hal_rtc_ex.c ****       {
 987:stm32f4xx-hal-driver/Src/stm32f4xx_hal_rtc_ex.c ****         /* Enable the write protection for RTC registers */
 988:stm32f4xx-hal-driver/Src/stm32f4xx_hal_rtc_ex.c ****         __HAL_RTC_WRITEPROTECTION_ENABLE(hrtc);
 989:stm32f4xx-hal-driver/Src/stm32f4xx_hal_rtc_ex.c **** 
 990:stm32f4xx-hal-driver/Src/stm32f4xx_hal_rtc_ex.c ****         hrtc->State = HAL_RTC_STATE_TIMEOUT;
 991:stm32f4xx-hal-driver/Src/stm32f4xx_hal_rtc_ex.c **** 
 992:stm32f4xx-hal-driver/Src/stm32f4xx_hal_rtc_ex.c ****         /* Process Unlocked */
 993:stm32f4xx-hal-driver/Src/stm32f4xx_hal_rtc_ex.c ****         __HAL_UNLOCK(hrtc);
 994:stm32f4xx-hal-driver/Src/stm32f4xx_hal_rtc_ex.c **** 
 995:stm32f4xx-hal-driver/Src/stm32f4xx_hal_rtc_ex.c ****         return HAL_TIMEOUT;
 996:stm32f4xx-hal-driver/Src/stm32f4xx_hal_rtc_ex.c ****       }
 997:stm32f4xx-hal-driver/Src/stm32f4xx_hal_rtc_ex.c ****     } while (__HAL_RTC_WAKEUPTIMER_GET_FLAG(hrtc, RTC_FLAG_WUTWF) != 0U);
 1711              		.loc 1 997 13 is_stmt 1 view .LVU587
 1712              		.loc 1 997 14 is_stmt 0 view .LVU588
 1713 004a E368     		ldr	r3, [r4, #12]
 1714              		.loc 1 997 5 view .LVU589
 1715 004c 13F0040F 		tst	r3, #4
 1716 0050 F5D1     		bne	.L105
 1717              	.L103:
 998:stm32f4xx-hal-driver/Src/stm32f4xx_hal_rtc_ex.c ****   }
 999:stm32f4xx-hal-driver/Src/stm32f4xx_hal_rtc_ex.c **** 
1000:stm32f4xx-hal-driver/Src/stm32f4xx_hal_rtc_ex.c ****   /* Disable the Wakeup timer */
1001:stm32f4xx-hal-driver/Src/stm32f4xx_hal_rtc_ex.c ****   __HAL_RTC_WAKEUPTIMER_DISABLE(hrtc);
 1718              		.loc 1 1001 3 is_stmt 1 view .LVU590
 1719 0052 A368     		ldr	r3, [r4, #8]
 1720 0054 23F48063 		bic	r3, r3, #1024
 1721 0058 A360     		str	r3, [r4, #8]
1002:stm32f4xx-hal-driver/Src/stm32f4xx_hal_rtc_ex.c **** 
ARM GAS  /tmp/ccvIVBQe.s 			page 50


1003:stm32f4xx-hal-driver/Src/stm32f4xx_hal_rtc_ex.c ****   /* Clear the Wakeup flag */
1004:stm32f4xx-hal-driver/Src/stm32f4xx_hal_rtc_ex.c ****   __HAL_RTC_WAKEUPTIMER_CLEAR_FLAG(hrtc, RTC_FLAG_WUTF);
 1722              		.loc 1 1004 3 view .LVU591
 1723 005a 0468     		ldr	r4, [r0]
 1724 005c E368     		ldr	r3, [r4, #12]
 1725 005e DBB2     		uxtb	r3, r3
 1726 0060 63F49063 		orn	r3, r3, #1152
 1727 0064 E360     		str	r3, [r4, #12]
1005:stm32f4xx-hal-driver/Src/stm32f4xx_hal_rtc_ex.c **** 
1006:stm32f4xx-hal-driver/Src/stm32f4xx_hal_rtc_ex.c ****   /* Reload the counter */
1007:stm32f4xx-hal-driver/Src/stm32f4xx_hal_rtc_ex.c ****   count = RTC_TIMEOUT_VALUE * (SystemCoreClock / 32U / 1000U);
 1728              		.loc 1 1007 3 view .LVU592
 1729              		.loc 1 1007 9 is_stmt 0 view .LVU593
 1730 0066 0195     		str	r5, [sp, #4]
 1731              	.L107:
1008:stm32f4xx-hal-driver/Src/stm32f4xx_hal_rtc_ex.c **** 
1009:stm32f4xx-hal-driver/Src/stm32f4xx_hal_rtc_ex.c ****   /* Wait till RTC WUTWF flag is set and if timeout is reached exit */
1010:stm32f4xx-hal-driver/Src/stm32f4xx_hal_rtc_ex.c ****   do
 1732              		.loc 1 1010 3 is_stmt 1 view .LVU594
1011:stm32f4xx-hal-driver/Src/stm32f4xx_hal_rtc_ex.c ****   {
1012:stm32f4xx-hal-driver/Src/stm32f4xx_hal_rtc_ex.c ****     count = count - 1U;
 1733              		.loc 1 1012 5 view .LVU595
 1734              		.loc 1 1012 19 is_stmt 0 view .LVU596
 1735 0068 019B     		ldr	r3, [sp, #4]
 1736 006a 013B     		subs	r3, r3, #1
 1737              		.loc 1 1012 11 view .LVU597
 1738 006c 0193     		str	r3, [sp, #4]
1013:stm32f4xx-hal-driver/Src/stm32f4xx_hal_rtc_ex.c ****     if (count == 0U)
 1739              		.loc 1 1013 5 is_stmt 1 view .LVU598
 1740              		.loc 1 1013 15 is_stmt 0 view .LVU599
 1741 006e 019B     		ldr	r3, [sp, #4]
 1742              		.loc 1 1013 8 view .LVU600
 1743 0070 002B     		cmp	r3, #0
 1744 0072 32D0     		beq	.L111
1014:stm32f4xx-hal-driver/Src/stm32f4xx_hal_rtc_ex.c ****     {
1015:stm32f4xx-hal-driver/Src/stm32f4xx_hal_rtc_ex.c ****       /* Enable the write protection for RTC registers */
1016:stm32f4xx-hal-driver/Src/stm32f4xx_hal_rtc_ex.c ****       __HAL_RTC_WRITEPROTECTION_ENABLE(hrtc);
1017:stm32f4xx-hal-driver/Src/stm32f4xx_hal_rtc_ex.c **** 
1018:stm32f4xx-hal-driver/Src/stm32f4xx_hal_rtc_ex.c ****       hrtc->State = HAL_RTC_STATE_TIMEOUT;
1019:stm32f4xx-hal-driver/Src/stm32f4xx_hal_rtc_ex.c **** 
1020:stm32f4xx-hal-driver/Src/stm32f4xx_hal_rtc_ex.c ****       /* Process Unlocked */
1021:stm32f4xx-hal-driver/Src/stm32f4xx_hal_rtc_ex.c ****       __HAL_UNLOCK(hrtc);
1022:stm32f4xx-hal-driver/Src/stm32f4xx_hal_rtc_ex.c **** 
1023:stm32f4xx-hal-driver/Src/stm32f4xx_hal_rtc_ex.c ****       return HAL_TIMEOUT;
1024:stm32f4xx-hal-driver/Src/stm32f4xx_hal_rtc_ex.c ****     }
1025:stm32f4xx-hal-driver/Src/stm32f4xx_hal_rtc_ex.c ****   } while (__HAL_RTC_WAKEUPTIMER_GET_FLAG(hrtc, RTC_FLAG_WUTWF) == 0U);
 1745              		.loc 1 1025 11 is_stmt 1 view .LVU601
 1746              		.loc 1 1025 12 is_stmt 0 view .LVU602
 1747 0074 0368     		ldr	r3, [r0]
 1748 0076 DC68     		ldr	r4, [r3, #12]
 1749              		.loc 1 1025 3 view .LVU603
 1750 0078 14F0040F 		tst	r4, #4
 1751 007c F4D0     		beq	.L107
1026:stm32f4xx-hal-driver/Src/stm32f4xx_hal_rtc_ex.c **** 
1027:stm32f4xx-hal-driver/Src/stm32f4xx_hal_rtc_ex.c ****   /* Clear the Wakeup Timer clock source bits in CR register */
1028:stm32f4xx-hal-driver/Src/stm32f4xx_hal_rtc_ex.c ****   hrtc->Instance->CR &= (uint32_t)~RTC_CR_WUCKSEL;
 1752              		.loc 1 1028 3 is_stmt 1 view .LVU604
ARM GAS  /tmp/ccvIVBQe.s 			page 51


 1753              		.loc 1 1028 22 is_stmt 0 view .LVU605
 1754 007e 9C68     		ldr	r4, [r3, #8]
 1755 0080 24F00704 		bic	r4, r4, #7
 1756 0084 9C60     		str	r4, [r3, #8]
1029:stm32f4xx-hal-driver/Src/stm32f4xx_hal_rtc_ex.c **** 
1030:stm32f4xx-hal-driver/Src/stm32f4xx_hal_rtc_ex.c ****   /* Configure the clock source */
1031:stm32f4xx-hal-driver/Src/stm32f4xx_hal_rtc_ex.c ****   hrtc->Instance->CR |= (uint32_t)WakeUpClock;
 1757              		.loc 1 1031 3 is_stmt 1 view .LVU606
 1758              		.loc 1 1031 7 is_stmt 0 view .LVU607
 1759 0086 0468     		ldr	r4, [r0]
 1760              		.loc 1 1031 22 view .LVU608
 1761 0088 A368     		ldr	r3, [r4, #8]
 1762 008a 1A43     		orrs	r2, r2, r3
 1763              	.LVL117:
 1764              		.loc 1 1031 22 view .LVU609
 1765 008c A260     		str	r2, [r4, #8]
1032:stm32f4xx-hal-driver/Src/stm32f4xx_hal_rtc_ex.c **** 
1033:stm32f4xx-hal-driver/Src/stm32f4xx_hal_rtc_ex.c ****   /* Configure the Wakeup Timer counter */
1034:stm32f4xx-hal-driver/Src/stm32f4xx_hal_rtc_ex.c ****   hrtc->Instance->WUTR = (uint32_t)WakeUpCounter;
 1766              		.loc 1 1034 3 is_stmt 1 view .LVU610
 1767              		.loc 1 1034 7 is_stmt 0 view .LVU611
 1768 008e 0368     		ldr	r3, [r0]
 1769              		.loc 1 1034 24 view .LVU612
 1770 0090 5961     		str	r1, [r3, #20]
1035:stm32f4xx-hal-driver/Src/stm32f4xx_hal_rtc_ex.c **** 
1036:stm32f4xx-hal-driver/Src/stm32f4xx_hal_rtc_ex.c ****   /* Enable and configure the EXTI line associated to the RTC Wakeup Timer interrupt */
1037:stm32f4xx-hal-driver/Src/stm32f4xx_hal_rtc_ex.c ****   __HAL_RTC_WAKEUPTIMER_EXTI_ENABLE_IT();
 1771              		.loc 1 1037 3 is_stmt 1 view .LVU613
 1772 0092 1A4B     		ldr	r3, .L112+8
 1773 0094 1A68     		ldr	r2, [r3]
 1774 0096 42F48002 		orr	r2, r2, #4194304
 1775 009a 1A60     		str	r2, [r3]
1038:stm32f4xx-hal-driver/Src/stm32f4xx_hal_rtc_ex.c ****   __HAL_RTC_WAKEUPTIMER_EXTI_ENABLE_RISING_EDGE();
 1776              		.loc 1 1038 3 view .LVU614
 1777 009c 9A68     		ldr	r2, [r3, #8]
 1778 009e 42F48002 		orr	r2, r2, #4194304
 1779 00a2 9A60     		str	r2, [r3, #8]
1039:stm32f4xx-hal-driver/Src/stm32f4xx_hal_rtc_ex.c **** 
1040:stm32f4xx-hal-driver/Src/stm32f4xx_hal_rtc_ex.c ****   /* Configure the interrupt in the RTC_CR register */
1041:stm32f4xx-hal-driver/Src/stm32f4xx_hal_rtc_ex.c ****   __HAL_RTC_WAKEUPTIMER_ENABLE_IT(hrtc, RTC_IT_WUT);
 1780              		.loc 1 1041 3 view .LVU615
 1781 00a4 0268     		ldr	r2, [r0]
 1782 00a6 9368     		ldr	r3, [r2, #8]
 1783 00a8 43F48043 		orr	r3, r3, #16384
 1784 00ac 9360     		str	r3, [r2, #8]
1042:stm32f4xx-hal-driver/Src/stm32f4xx_hal_rtc_ex.c **** 
1043:stm32f4xx-hal-driver/Src/stm32f4xx_hal_rtc_ex.c ****   /* Enable the Wakeup Timer */
1044:stm32f4xx-hal-driver/Src/stm32f4xx_hal_rtc_ex.c ****   __HAL_RTC_WAKEUPTIMER_ENABLE(hrtc);
 1785              		.loc 1 1044 3 view .LVU616
 1786 00ae 0268     		ldr	r2, [r0]
 1787 00b0 9368     		ldr	r3, [r2, #8]
 1788 00b2 43F48063 		orr	r3, r3, #1024
 1789 00b6 9360     		str	r3, [r2, #8]
1045:stm32f4xx-hal-driver/Src/stm32f4xx_hal_rtc_ex.c **** 
1046:stm32f4xx-hal-driver/Src/stm32f4xx_hal_rtc_ex.c ****   /* Enable the write protection for RTC registers */
1047:stm32f4xx-hal-driver/Src/stm32f4xx_hal_rtc_ex.c ****   __HAL_RTC_WRITEPROTECTION_ENABLE(hrtc);
 1790              		.loc 1 1047 3 view .LVU617
ARM GAS  /tmp/ccvIVBQe.s 			page 52


 1791              		.loc 1 1047 3 view .LVU618
 1792 00b8 0368     		ldr	r3, [r0]
 1793 00ba FF22     		movs	r2, #255
 1794 00bc 5A62     		str	r2, [r3, #36]
 1795              		.loc 1 1047 3 view .LVU619
1048:stm32f4xx-hal-driver/Src/stm32f4xx_hal_rtc_ex.c **** 
1049:stm32f4xx-hal-driver/Src/stm32f4xx_hal_rtc_ex.c ****   hrtc->State = HAL_RTC_STATE_READY;
 1796              		.loc 1 1049 3 view .LVU620
 1797              		.loc 1 1049 15 is_stmt 0 view .LVU621
 1798 00be 0123     		movs	r3, #1
 1799 00c0 4377     		strb	r3, [r0, #29]
1050:stm32f4xx-hal-driver/Src/stm32f4xx_hal_rtc_ex.c **** 
1051:stm32f4xx-hal-driver/Src/stm32f4xx_hal_rtc_ex.c ****   /* Process Unlocked */
1052:stm32f4xx-hal-driver/Src/stm32f4xx_hal_rtc_ex.c ****   __HAL_UNLOCK(hrtc);
 1800              		.loc 1 1052 3 is_stmt 1 view .LVU622
 1801              		.loc 1 1052 3 view .LVU623
 1802 00c2 0023     		movs	r3, #0
 1803 00c4 0377     		strb	r3, [r0, #28]
 1804              		.loc 1 1052 3 view .LVU624
1053:stm32f4xx-hal-driver/Src/stm32f4xx_hal_rtc_ex.c **** 
1054:stm32f4xx-hal-driver/Src/stm32f4xx_hal_rtc_ex.c ****   return HAL_OK;
 1805              		.loc 1 1054 3 view .LVU625
 1806              		.loc 1 1054 10 is_stmt 0 view .LVU626
 1807 00c6 1846     		mov	r0, r3
 1808              	.LVL118:
 1809              		.loc 1 1054 10 view .LVU627
 1810 00c8 0FE0     		b	.L102
 1811              	.LVL119:
 1812              	.L110:
 988:stm32f4xx-hal-driver/Src/stm32f4xx_hal_rtc_ex.c **** 
 1813              		.loc 1 988 9 is_stmt 1 view .LVU628
 988:stm32f4xx-hal-driver/Src/stm32f4xx_hal_rtc_ex.c **** 
 1814              		.loc 1 988 9 view .LVU629
 1815 00ca FF23     		movs	r3, #255
 1816 00cc 6362     		str	r3, [r4, #36]
 988:stm32f4xx-hal-driver/Src/stm32f4xx_hal_rtc_ex.c **** 
 1817              		.loc 1 988 9 view .LVU630
 990:stm32f4xx-hal-driver/Src/stm32f4xx_hal_rtc_ex.c **** 
 1818              		.loc 1 990 9 view .LVU631
 990:stm32f4xx-hal-driver/Src/stm32f4xx_hal_rtc_ex.c **** 
 1819              		.loc 1 990 21 is_stmt 0 view .LVU632
 1820 00ce 0323     		movs	r3, #3
 1821 00d0 4377     		strb	r3, [r0, #29]
 993:stm32f4xx-hal-driver/Src/stm32f4xx_hal_rtc_ex.c **** 
 1822              		.loc 1 993 9 is_stmt 1 view .LVU633
 993:stm32f4xx-hal-driver/Src/stm32f4xx_hal_rtc_ex.c **** 
 1823              		.loc 1 993 9 view .LVU634
 1824 00d2 0022     		movs	r2, #0
 1825              	.LVL120:
 993:stm32f4xx-hal-driver/Src/stm32f4xx_hal_rtc_ex.c **** 
 1826              		.loc 1 993 9 is_stmt 0 view .LVU635
 1827 00d4 0277     		strb	r2, [r0, #28]
 993:stm32f4xx-hal-driver/Src/stm32f4xx_hal_rtc_ex.c **** 
 1828              		.loc 1 993 9 is_stmt 1 view .LVU636
 995:stm32f4xx-hal-driver/Src/stm32f4xx_hal_rtc_ex.c ****       }
 1829              		.loc 1 995 9 view .LVU637
 995:stm32f4xx-hal-driver/Src/stm32f4xx_hal_rtc_ex.c ****       }
ARM GAS  /tmp/ccvIVBQe.s 			page 53


 1830              		.loc 1 995 16 is_stmt 0 view .LVU638
 1831 00d6 1846     		mov	r0, r3
 1832              	.LVL121:
 995:stm32f4xx-hal-driver/Src/stm32f4xx_hal_rtc_ex.c ****       }
 1833              		.loc 1 995 16 view .LVU639
 1834 00d8 07E0     		b	.L102
 1835              	.LVL122:
 1836              	.L111:
1016:stm32f4xx-hal-driver/Src/stm32f4xx_hal_rtc_ex.c **** 
 1837              		.loc 1 1016 7 is_stmt 1 view .LVU640
1016:stm32f4xx-hal-driver/Src/stm32f4xx_hal_rtc_ex.c **** 
 1838              		.loc 1 1016 7 view .LVU641
 1839 00da 0368     		ldr	r3, [r0]
 1840 00dc FF22     		movs	r2, #255
 1841              	.LVL123:
1016:stm32f4xx-hal-driver/Src/stm32f4xx_hal_rtc_ex.c **** 
 1842              		.loc 1 1016 7 is_stmt 0 view .LVU642
 1843 00de 5A62     		str	r2, [r3, #36]
1016:stm32f4xx-hal-driver/Src/stm32f4xx_hal_rtc_ex.c **** 
 1844              		.loc 1 1016 7 is_stmt 1 view .LVU643
1018:stm32f4xx-hal-driver/Src/stm32f4xx_hal_rtc_ex.c **** 
 1845              		.loc 1 1018 7 view .LVU644
1018:stm32f4xx-hal-driver/Src/stm32f4xx_hal_rtc_ex.c **** 
 1846              		.loc 1 1018 19 is_stmt 0 view .LVU645
 1847 00e0 0323     		movs	r3, #3
 1848 00e2 4377     		strb	r3, [r0, #29]
1021:stm32f4xx-hal-driver/Src/stm32f4xx_hal_rtc_ex.c **** 
 1849              		.loc 1 1021 7 is_stmt 1 view .LVU646
1021:stm32f4xx-hal-driver/Src/stm32f4xx_hal_rtc_ex.c **** 
 1850              		.loc 1 1021 7 view .LVU647
 1851 00e4 0022     		movs	r2, #0
 1852 00e6 0277     		strb	r2, [r0, #28]
1021:stm32f4xx-hal-driver/Src/stm32f4xx_hal_rtc_ex.c **** 
 1853              		.loc 1 1021 7 view .LVU648
1023:stm32f4xx-hal-driver/Src/stm32f4xx_hal_rtc_ex.c ****     }
 1854              		.loc 1 1023 7 view .LVU649
1023:stm32f4xx-hal-driver/Src/stm32f4xx_hal_rtc_ex.c ****     }
 1855              		.loc 1 1023 14 is_stmt 0 view .LVU650
 1856 00e8 1846     		mov	r0, r3
 1857              	.LVL124:
 1858              	.L102:
1055:stm32f4xx-hal-driver/Src/stm32f4xx_hal_rtc_ex.c **** }
 1859              		.loc 1 1055 1 view .LVU651
 1860 00ea 02B0     		add	sp, sp, #8
 1861              	.LCFI22:
 1862              		.cfi_remember_state
 1863              		.cfi_def_cfa_offset 8
 1864              		@ sp needed
 1865 00ec 30BC     		pop	{r4, r5}
 1866              	.LCFI23:
 1867              		.cfi_restore 5
 1868              		.cfi_restore 4
 1869              		.cfi_def_cfa_offset 0
 1870 00ee 7047     		bx	lr
 1871              	.LVL125:
 1872              	.L108:
 1873              	.LCFI24:
ARM GAS  /tmp/ccvIVBQe.s 			page 54


 1874              		.cfi_restore_state
 971:stm32f4xx-hal-driver/Src/stm32f4xx_hal_rtc_ex.c **** 
 1875              		.loc 1 971 3 view .LVU652
 1876 00f0 0220     		movs	r0, #2
 1877              	.LVL126:
 971:stm32f4xx-hal-driver/Src/stm32f4xx_hal_rtc_ex.c **** 
 1878              		.loc 1 971 3 view .LVU653
 1879 00f2 FAE7     		b	.L102
 1880              	.L113:
 1881              		.align	2
 1882              	.L112:
 1883 00f4 00000000 		.word	SystemCoreClock
 1884 00f8 D34D6210 		.word	274877907
 1885 00fc 003C0140 		.word	1073822720
 1886              		.cfi_endproc
 1887              	.LFE254:
 1889              		.section	.text.HAL_RTCEx_DeactivateWakeUpTimer,"ax",%progbits
 1890              		.align	1
 1891              		.global	HAL_RTCEx_DeactivateWakeUpTimer
 1892              		.syntax unified
 1893              		.thumb
 1894              		.thumb_func
 1895              		.fpu fpv4-sp-d16
 1897              	HAL_RTCEx_DeactivateWakeUpTimer:
 1898              	.LVL127:
 1899              	.LFB255:
1056:stm32f4xx-hal-driver/Src/stm32f4xx_hal_rtc_ex.c **** 
1057:stm32f4xx-hal-driver/Src/stm32f4xx_hal_rtc_ex.c **** /**
1058:stm32f4xx-hal-driver/Src/stm32f4xx_hal_rtc_ex.c ****   * @brief  Deactivates wakeup timer counter.
1059:stm32f4xx-hal-driver/Src/stm32f4xx_hal_rtc_ex.c ****   * @param  hrtc pointer to a RTC_HandleTypeDef structure that contains
1060:stm32f4xx-hal-driver/Src/stm32f4xx_hal_rtc_ex.c ****   *                the configuration information for RTC.
1061:stm32f4xx-hal-driver/Src/stm32f4xx_hal_rtc_ex.c ****   * @retval HAL status
1062:stm32f4xx-hal-driver/Src/stm32f4xx_hal_rtc_ex.c ****   */
1063:stm32f4xx-hal-driver/Src/stm32f4xx_hal_rtc_ex.c **** HAL_StatusTypeDef HAL_RTCEx_DeactivateWakeUpTimer(RTC_HandleTypeDef *hrtc)
1064:stm32f4xx-hal-driver/Src/stm32f4xx_hal_rtc_ex.c **** {
 1900              		.loc 1 1064 1 is_stmt 1 view -0
 1901              		.cfi_startproc
 1902              		@ args = 0, pretend = 0, frame = 0
 1903              		@ frame_needed = 0, uses_anonymous_args = 0
 1904              		.loc 1 1064 1 is_stmt 0 view .LVU655
 1905 0000 38B5     		push	{r3, r4, r5, lr}
 1906              	.LCFI25:
 1907              		.cfi_def_cfa_offset 16
 1908              		.cfi_offset 3, -16
 1909              		.cfi_offset 4, -12
 1910              		.cfi_offset 5, -8
 1911              		.cfi_offset 14, -4
1065:stm32f4xx-hal-driver/Src/stm32f4xx_hal_rtc_ex.c ****   uint32_t tickstart = 0U;
 1912              		.loc 1 1065 3 is_stmt 1 view .LVU656
 1913              	.LVL128:
1066:stm32f4xx-hal-driver/Src/stm32f4xx_hal_rtc_ex.c **** 
1067:stm32f4xx-hal-driver/Src/stm32f4xx_hal_rtc_ex.c ****   /* Process Locked */
1068:stm32f4xx-hal-driver/Src/stm32f4xx_hal_rtc_ex.c ****   __HAL_LOCK(hrtc);
 1914              		.loc 1 1068 3 view .LVU657
 1915              		.loc 1 1068 3 view .LVU658
 1916 0002 037F     		ldrb	r3, [r0, #28]	@ zero_extendqisi2
 1917 0004 012B     		cmp	r3, #1
ARM GAS  /tmp/ccvIVBQe.s 			page 55


 1918 0006 31D0     		beq	.L118
 1919 0008 0446     		mov	r4, r0
 1920              		.loc 1 1068 3 discriminator 2 view .LVU659
 1921 000a 0123     		movs	r3, #1
 1922 000c 0377     		strb	r3, [r0, #28]
 1923              		.loc 1 1068 3 discriminator 2 view .LVU660
1069:stm32f4xx-hal-driver/Src/stm32f4xx_hal_rtc_ex.c **** 
1070:stm32f4xx-hal-driver/Src/stm32f4xx_hal_rtc_ex.c ****   hrtc->State = HAL_RTC_STATE_BUSY;
 1924              		.loc 1 1070 3 discriminator 2 view .LVU661
 1925              		.loc 1 1070 15 is_stmt 0 discriminator 2 view .LVU662
 1926 000e 0223     		movs	r3, #2
 1927 0010 4377     		strb	r3, [r0, #29]
1071:stm32f4xx-hal-driver/Src/stm32f4xx_hal_rtc_ex.c **** 
1072:stm32f4xx-hal-driver/Src/stm32f4xx_hal_rtc_ex.c ****   /* Disable the write protection for RTC registers */
1073:stm32f4xx-hal-driver/Src/stm32f4xx_hal_rtc_ex.c ****   __HAL_RTC_WRITEPROTECTION_DISABLE(hrtc);
 1928              		.loc 1 1073 3 is_stmt 1 discriminator 2 view .LVU663
 1929              		.loc 1 1073 3 discriminator 2 view .LVU664
 1930 0012 0368     		ldr	r3, [r0]
 1931 0014 CA22     		movs	r2, #202
 1932 0016 5A62     		str	r2, [r3, #36]
 1933              		.loc 1 1073 3 discriminator 2 view .LVU665
 1934 0018 0368     		ldr	r3, [r0]
 1935 001a 5322     		movs	r2, #83
 1936 001c 5A62     		str	r2, [r3, #36]
 1937              		.loc 1 1073 3 discriminator 2 view .LVU666
1074:stm32f4xx-hal-driver/Src/stm32f4xx_hal_rtc_ex.c **** 
1075:stm32f4xx-hal-driver/Src/stm32f4xx_hal_rtc_ex.c ****   /* Disable the Wakeup Timer */
1076:stm32f4xx-hal-driver/Src/stm32f4xx_hal_rtc_ex.c ****   __HAL_RTC_WAKEUPTIMER_DISABLE(hrtc);
 1938              		.loc 1 1076 3 discriminator 2 view .LVU667
 1939 001e 0268     		ldr	r2, [r0]
 1940 0020 9368     		ldr	r3, [r2, #8]
 1941 0022 23F48063 		bic	r3, r3, #1024
 1942 0026 9360     		str	r3, [r2, #8]
1077:stm32f4xx-hal-driver/Src/stm32f4xx_hal_rtc_ex.c **** 
1078:stm32f4xx-hal-driver/Src/stm32f4xx_hal_rtc_ex.c ****   /* In case interrupt mode is used, the interrupt source must disabled */
1079:stm32f4xx-hal-driver/Src/stm32f4xx_hal_rtc_ex.c ****   __HAL_RTC_WAKEUPTIMER_DISABLE_IT(hrtc, RTC_IT_WUT);
 1943              		.loc 1 1079 3 discriminator 2 view .LVU668
 1944 0028 0268     		ldr	r2, [r0]
 1945 002a 9368     		ldr	r3, [r2, #8]
 1946 002c 23F48043 		bic	r3, r3, #16384
 1947 0030 9360     		str	r3, [r2, #8]
1080:stm32f4xx-hal-driver/Src/stm32f4xx_hal_rtc_ex.c **** 
1081:stm32f4xx-hal-driver/Src/stm32f4xx_hal_rtc_ex.c ****   /* Get tick */
1082:stm32f4xx-hal-driver/Src/stm32f4xx_hal_rtc_ex.c ****   tickstart = HAL_GetTick();
 1948              		.loc 1 1082 3 discriminator 2 view .LVU669
 1949              		.loc 1 1082 15 is_stmt 0 discriminator 2 view .LVU670
 1950 0032 FFF7FEFF 		bl	HAL_GetTick
 1951              	.LVL129:
 1952              		.loc 1 1082 15 discriminator 2 view .LVU671
 1953 0036 0546     		mov	r5, r0
 1954              	.LVL130:
1083:stm32f4xx-hal-driver/Src/stm32f4xx_hal_rtc_ex.c **** 
1084:stm32f4xx-hal-driver/Src/stm32f4xx_hal_rtc_ex.c ****   /* Wait till RTC WUTWF flag is set and if timeout is reached exit */
1085:stm32f4xx-hal-driver/Src/stm32f4xx_hal_rtc_ex.c ****   while (__HAL_RTC_WAKEUPTIMER_GET_FLAG(hrtc, RTC_FLAG_WUTWF) == 0U)
 1955              		.loc 1 1085 3 is_stmt 1 discriminator 2 view .LVU672
 1956              	.L116:
 1957              		.loc 1 1085 9 view .LVU673
ARM GAS  /tmp/ccvIVBQe.s 			page 56


 1958              		.loc 1 1085 10 is_stmt 0 view .LVU674
 1959 0038 2368     		ldr	r3, [r4]
 1960 003a DA68     		ldr	r2, [r3, #12]
 1961              		.loc 1 1085 9 view .LVU675
 1962 003c 12F0040F 		tst	r2, #4
 1963 0040 0DD1     		bne	.L120
1086:stm32f4xx-hal-driver/Src/stm32f4xx_hal_rtc_ex.c ****   {
1087:stm32f4xx-hal-driver/Src/stm32f4xx_hal_rtc_ex.c ****     if ((HAL_GetTick() - tickstart) > RTC_TIMEOUT_VALUE)
 1964              		.loc 1 1087 5 is_stmt 1 view .LVU676
 1965              		.loc 1 1087 10 is_stmt 0 view .LVU677
 1966 0042 FFF7FEFF 		bl	HAL_GetTick
 1967              	.LVL131:
 1968              		.loc 1 1087 24 view .LVU678
 1969 0046 431B     		subs	r3, r0, r5
 1970              		.loc 1 1087 8 view .LVU679
 1971 0048 B3F57A7F 		cmp	r3, #1000
 1972 004c F4D9     		bls	.L116
1088:stm32f4xx-hal-driver/Src/stm32f4xx_hal_rtc_ex.c ****     {
1089:stm32f4xx-hal-driver/Src/stm32f4xx_hal_rtc_ex.c ****       /* Enable the write protection for RTC registers */
1090:stm32f4xx-hal-driver/Src/stm32f4xx_hal_rtc_ex.c ****       __HAL_RTC_WRITEPROTECTION_ENABLE(hrtc);
 1973              		.loc 1 1090 7 is_stmt 1 view .LVU680
 1974              		.loc 1 1090 7 view .LVU681
 1975 004e 2368     		ldr	r3, [r4]
 1976 0050 FF22     		movs	r2, #255
 1977 0052 5A62     		str	r2, [r3, #36]
 1978              		.loc 1 1090 7 view .LVU682
1091:stm32f4xx-hal-driver/Src/stm32f4xx_hal_rtc_ex.c **** 
1092:stm32f4xx-hal-driver/Src/stm32f4xx_hal_rtc_ex.c ****       hrtc->State = HAL_RTC_STATE_TIMEOUT;
 1979              		.loc 1 1092 7 view .LVU683
 1980              		.loc 1 1092 19 is_stmt 0 view .LVU684
 1981 0054 0320     		movs	r0, #3
 1982 0056 6077     		strb	r0, [r4, #29]
1093:stm32f4xx-hal-driver/Src/stm32f4xx_hal_rtc_ex.c **** 
1094:stm32f4xx-hal-driver/Src/stm32f4xx_hal_rtc_ex.c ****       /* Process Unlocked */
1095:stm32f4xx-hal-driver/Src/stm32f4xx_hal_rtc_ex.c ****       __HAL_UNLOCK(hrtc);
 1983              		.loc 1 1095 7 is_stmt 1 view .LVU685
 1984              		.loc 1 1095 7 view .LVU686
 1985 0058 0023     		movs	r3, #0
 1986 005a 2377     		strb	r3, [r4, #28]
 1987              		.loc 1 1095 7 view .LVU687
1096:stm32f4xx-hal-driver/Src/stm32f4xx_hal_rtc_ex.c **** 
1097:stm32f4xx-hal-driver/Src/stm32f4xx_hal_rtc_ex.c ****       return HAL_TIMEOUT;
 1988              		.loc 1 1097 7 view .LVU688
 1989              		.loc 1 1097 14 is_stmt 0 view .LVU689
 1990 005c 05E0     		b	.L115
 1991              	.L120:
1098:stm32f4xx-hal-driver/Src/stm32f4xx_hal_rtc_ex.c ****     }
1099:stm32f4xx-hal-driver/Src/stm32f4xx_hal_rtc_ex.c ****   }
1100:stm32f4xx-hal-driver/Src/stm32f4xx_hal_rtc_ex.c **** 
1101:stm32f4xx-hal-driver/Src/stm32f4xx_hal_rtc_ex.c ****   /* Enable the write protection for RTC registers */
1102:stm32f4xx-hal-driver/Src/stm32f4xx_hal_rtc_ex.c ****   __HAL_RTC_WRITEPROTECTION_ENABLE(hrtc);
 1992              		.loc 1 1102 3 is_stmt 1 view .LVU690
 1993              		.loc 1 1102 3 view .LVU691
 1994 005e FF22     		movs	r2, #255
 1995 0060 5A62     		str	r2, [r3, #36]
 1996              		.loc 1 1102 3 view .LVU692
1103:stm32f4xx-hal-driver/Src/stm32f4xx_hal_rtc_ex.c **** 
ARM GAS  /tmp/ccvIVBQe.s 			page 57


1104:stm32f4xx-hal-driver/Src/stm32f4xx_hal_rtc_ex.c ****   hrtc->State = HAL_RTC_STATE_READY;
 1997              		.loc 1 1104 3 view .LVU693
 1998              		.loc 1 1104 15 is_stmt 0 view .LVU694
 1999 0062 0123     		movs	r3, #1
 2000 0064 6377     		strb	r3, [r4, #29]
1105:stm32f4xx-hal-driver/Src/stm32f4xx_hal_rtc_ex.c **** 
1106:stm32f4xx-hal-driver/Src/stm32f4xx_hal_rtc_ex.c ****   /* Process Unlocked */
1107:stm32f4xx-hal-driver/Src/stm32f4xx_hal_rtc_ex.c ****   __HAL_UNLOCK(hrtc);
 2001              		.loc 1 1107 3 is_stmt 1 view .LVU695
 2002              		.loc 1 1107 3 view .LVU696
 2003 0066 0020     		movs	r0, #0
 2004 0068 2077     		strb	r0, [r4, #28]
 2005              		.loc 1 1107 3 view .LVU697
1108:stm32f4xx-hal-driver/Src/stm32f4xx_hal_rtc_ex.c **** 
1109:stm32f4xx-hal-driver/Src/stm32f4xx_hal_rtc_ex.c ****   return HAL_OK;
 2006              		.loc 1 1109 3 view .LVU698
 2007              	.LVL132:
 2008              	.L115:
1110:stm32f4xx-hal-driver/Src/stm32f4xx_hal_rtc_ex.c **** }
 2009              		.loc 1 1110 1 is_stmt 0 view .LVU699
 2010 006a 38BD     		pop	{r3, r4, r5, pc}
 2011              	.LVL133:
 2012              	.L118:
1068:stm32f4xx-hal-driver/Src/stm32f4xx_hal_rtc_ex.c **** 
 2013              		.loc 1 1068 3 view .LVU700
 2014 006c 0220     		movs	r0, #2
 2015              	.LVL134:
1068:stm32f4xx-hal-driver/Src/stm32f4xx_hal_rtc_ex.c **** 
 2016              		.loc 1 1068 3 view .LVU701
 2017 006e FCE7     		b	.L115
 2018              		.cfi_endproc
 2019              	.LFE255:
 2021              		.section	.text.HAL_RTCEx_GetWakeUpTimer,"ax",%progbits
 2022              		.align	1
 2023              		.global	HAL_RTCEx_GetWakeUpTimer
 2024              		.syntax unified
 2025              		.thumb
 2026              		.thumb_func
 2027              		.fpu fpv4-sp-d16
 2029              	HAL_RTCEx_GetWakeUpTimer:
 2030              	.LVL135:
 2031              	.LFB256:
1111:stm32f4xx-hal-driver/Src/stm32f4xx_hal_rtc_ex.c **** 
1112:stm32f4xx-hal-driver/Src/stm32f4xx_hal_rtc_ex.c **** /**
1113:stm32f4xx-hal-driver/Src/stm32f4xx_hal_rtc_ex.c ****   * @brief  Gets wakeup timer counter.
1114:stm32f4xx-hal-driver/Src/stm32f4xx_hal_rtc_ex.c ****   * @param  hrtc pointer to a RTC_HandleTypeDef structure that contains
1115:stm32f4xx-hal-driver/Src/stm32f4xx_hal_rtc_ex.c ****   *                the configuration information for RTC.
1116:stm32f4xx-hal-driver/Src/stm32f4xx_hal_rtc_ex.c ****   * @retval Counter value
1117:stm32f4xx-hal-driver/Src/stm32f4xx_hal_rtc_ex.c ****   */
1118:stm32f4xx-hal-driver/Src/stm32f4xx_hal_rtc_ex.c **** uint32_t HAL_RTCEx_GetWakeUpTimer(RTC_HandleTypeDef *hrtc)
1119:stm32f4xx-hal-driver/Src/stm32f4xx_hal_rtc_ex.c **** {
 2032              		.loc 1 1119 1 is_stmt 1 view -0
 2033              		.cfi_startproc
 2034              		@ args = 0, pretend = 0, frame = 0
 2035              		@ frame_needed = 0, uses_anonymous_args = 0
 2036              		@ link register save eliminated.
1120:stm32f4xx-hal-driver/Src/stm32f4xx_hal_rtc_ex.c ****   /* Get the counter value */
ARM GAS  /tmp/ccvIVBQe.s 			page 58


1121:stm32f4xx-hal-driver/Src/stm32f4xx_hal_rtc_ex.c ****   return ((uint32_t)(hrtc->Instance->WUTR & RTC_WUTR_WUT));
 2037              		.loc 1 1121 3 view .LVU703
 2038              		.loc 1 1121 26 is_stmt 0 view .LVU704
 2039 0000 0368     		ldr	r3, [r0]
 2040              		.loc 1 1121 36 view .LVU705
 2041 0002 5869     		ldr	r0, [r3, #20]
 2042              	.LVL136:
1122:stm32f4xx-hal-driver/Src/stm32f4xx_hal_rtc_ex.c **** }
 2043              		.loc 1 1122 1 view .LVU706
 2044 0004 80B2     		uxth	r0, r0
 2045 0006 7047     		bx	lr
 2046              		.cfi_endproc
 2047              	.LFE256:
 2049              		.section	.text.HAL_RTCEx_WakeUpTimerEventCallback,"ax",%progbits
 2050              		.align	1
 2051              		.weak	HAL_RTCEx_WakeUpTimerEventCallback
 2052              		.syntax unified
 2053              		.thumb
 2054              		.thumb_func
 2055              		.fpu fpv4-sp-d16
 2057              	HAL_RTCEx_WakeUpTimerEventCallback:
 2058              	.LVL137:
 2059              	.LFB258:
1123:stm32f4xx-hal-driver/Src/stm32f4xx_hal_rtc_ex.c **** 
1124:stm32f4xx-hal-driver/Src/stm32f4xx_hal_rtc_ex.c **** /**
1125:stm32f4xx-hal-driver/Src/stm32f4xx_hal_rtc_ex.c ****   * @brief  Handles Wakeup Timer interrupt request.
1126:stm32f4xx-hal-driver/Src/stm32f4xx_hal_rtc_ex.c ****   * @note   Unlike alarm interrupt line (shared by Alarms A and B) or tamper
1127:stm32f4xx-hal-driver/Src/stm32f4xx_hal_rtc_ex.c ****   *         interrupt line (shared by timestamp and tampers) wakeup timer
1128:stm32f4xx-hal-driver/Src/stm32f4xx_hal_rtc_ex.c ****   *         interrupt line is exclusive to the wakeup timer.
1129:stm32f4xx-hal-driver/Src/stm32f4xx_hal_rtc_ex.c ****   *         There is no need in this case to check on the interrupt enable
1130:stm32f4xx-hal-driver/Src/stm32f4xx_hal_rtc_ex.c ****   *         status via __HAL_RTC_WAKEUPTIMER_GET_IT_SOURCE().
1131:stm32f4xx-hal-driver/Src/stm32f4xx_hal_rtc_ex.c ****   * @param  hrtc pointer to a RTC_HandleTypeDef structure that contains
1132:stm32f4xx-hal-driver/Src/stm32f4xx_hal_rtc_ex.c ****   *                the configuration information for RTC.
1133:stm32f4xx-hal-driver/Src/stm32f4xx_hal_rtc_ex.c ****   * @retval None
1134:stm32f4xx-hal-driver/Src/stm32f4xx_hal_rtc_ex.c ****   */
1135:stm32f4xx-hal-driver/Src/stm32f4xx_hal_rtc_ex.c **** void HAL_RTCEx_WakeUpTimerIRQHandler(RTC_HandleTypeDef *hrtc)
1136:stm32f4xx-hal-driver/Src/stm32f4xx_hal_rtc_ex.c **** {
1137:stm32f4xx-hal-driver/Src/stm32f4xx_hal_rtc_ex.c ****   /* Clear the EXTI flag associated to the RTC Wakeup Timer interrupt */
1138:stm32f4xx-hal-driver/Src/stm32f4xx_hal_rtc_ex.c ****   __HAL_RTC_WAKEUPTIMER_EXTI_CLEAR_FLAG();
1139:stm32f4xx-hal-driver/Src/stm32f4xx_hal_rtc_ex.c **** 
1140:stm32f4xx-hal-driver/Src/stm32f4xx_hal_rtc_ex.c ****   /* Get the pending status of the Wakeup timer Interrupt */
1141:stm32f4xx-hal-driver/Src/stm32f4xx_hal_rtc_ex.c ****   if (__HAL_RTC_WAKEUPTIMER_GET_FLAG(hrtc, RTC_FLAG_WUTF) != 0U)
1142:stm32f4xx-hal-driver/Src/stm32f4xx_hal_rtc_ex.c ****   {
1143:stm32f4xx-hal-driver/Src/stm32f4xx_hal_rtc_ex.c ****     /* Clear the Wakeup timer interrupt pending bit */
1144:stm32f4xx-hal-driver/Src/stm32f4xx_hal_rtc_ex.c ****     __HAL_RTC_WAKEUPTIMER_CLEAR_FLAG(hrtc, RTC_FLAG_WUTF);
1145:stm32f4xx-hal-driver/Src/stm32f4xx_hal_rtc_ex.c **** 
1146:stm32f4xx-hal-driver/Src/stm32f4xx_hal_rtc_ex.c ****     /* Wakeup timer callback */
1147:stm32f4xx-hal-driver/Src/stm32f4xx_hal_rtc_ex.c **** #if (USE_HAL_RTC_REGISTER_CALLBACKS == 1)
1148:stm32f4xx-hal-driver/Src/stm32f4xx_hal_rtc_ex.c ****     hrtc->WakeUpTimerEventCallback(hrtc);
1149:stm32f4xx-hal-driver/Src/stm32f4xx_hal_rtc_ex.c **** #else
1150:stm32f4xx-hal-driver/Src/stm32f4xx_hal_rtc_ex.c ****     HAL_RTCEx_WakeUpTimerEventCallback(hrtc);
1151:stm32f4xx-hal-driver/Src/stm32f4xx_hal_rtc_ex.c **** #endif /* USE_HAL_RTC_REGISTER_CALLBACKS */
1152:stm32f4xx-hal-driver/Src/stm32f4xx_hal_rtc_ex.c ****   }
1153:stm32f4xx-hal-driver/Src/stm32f4xx_hal_rtc_ex.c **** 
1154:stm32f4xx-hal-driver/Src/stm32f4xx_hal_rtc_ex.c ****   /* Change RTC state */
1155:stm32f4xx-hal-driver/Src/stm32f4xx_hal_rtc_ex.c ****   hrtc->State = HAL_RTC_STATE_READY;
1156:stm32f4xx-hal-driver/Src/stm32f4xx_hal_rtc_ex.c **** }
ARM GAS  /tmp/ccvIVBQe.s 			page 59


1157:stm32f4xx-hal-driver/Src/stm32f4xx_hal_rtc_ex.c **** 
1158:stm32f4xx-hal-driver/Src/stm32f4xx_hal_rtc_ex.c **** /**
1159:stm32f4xx-hal-driver/Src/stm32f4xx_hal_rtc_ex.c ****   * @brief  Wakeup Timer callback.
1160:stm32f4xx-hal-driver/Src/stm32f4xx_hal_rtc_ex.c ****   * @param  hrtc pointer to a RTC_HandleTypeDef structure that contains
1161:stm32f4xx-hal-driver/Src/stm32f4xx_hal_rtc_ex.c ****   *                the configuration information for RTC.
1162:stm32f4xx-hal-driver/Src/stm32f4xx_hal_rtc_ex.c ****   * @retval None
1163:stm32f4xx-hal-driver/Src/stm32f4xx_hal_rtc_ex.c ****   */
1164:stm32f4xx-hal-driver/Src/stm32f4xx_hal_rtc_ex.c **** __weak void HAL_RTCEx_WakeUpTimerEventCallback(RTC_HandleTypeDef *hrtc)
1165:stm32f4xx-hal-driver/Src/stm32f4xx_hal_rtc_ex.c **** {
 2060              		.loc 1 1165 1 is_stmt 1 view -0
 2061              		.cfi_startproc
 2062              		@ args = 0, pretend = 0, frame = 0
 2063              		@ frame_needed = 0, uses_anonymous_args = 0
 2064              		@ link register save eliminated.
1166:stm32f4xx-hal-driver/Src/stm32f4xx_hal_rtc_ex.c ****   /* Prevent unused argument(s) compilation warning */
1167:stm32f4xx-hal-driver/Src/stm32f4xx_hal_rtc_ex.c ****   UNUSED(hrtc);
 2065              		.loc 1 1167 3 view .LVU708
1168:stm32f4xx-hal-driver/Src/stm32f4xx_hal_rtc_ex.c **** 
1169:stm32f4xx-hal-driver/Src/stm32f4xx_hal_rtc_ex.c ****   /* NOTE: This function should not be modified, when the callback is needed,
1170:stm32f4xx-hal-driver/Src/stm32f4xx_hal_rtc_ex.c ****            the HAL_RTCEx_WakeUpTimerEventCallback could be implemented in the user file
1171:stm32f4xx-hal-driver/Src/stm32f4xx_hal_rtc_ex.c ****    */
1172:stm32f4xx-hal-driver/Src/stm32f4xx_hal_rtc_ex.c **** }
 2066              		.loc 1 1172 1 is_stmt 0 view .LVU709
 2067 0000 7047     		bx	lr
 2068              		.cfi_endproc
 2069              	.LFE258:
 2071              		.section	.text.HAL_RTCEx_WakeUpTimerIRQHandler,"ax",%progbits
 2072              		.align	1
 2073              		.global	HAL_RTCEx_WakeUpTimerIRQHandler
 2074              		.syntax unified
 2075              		.thumb
 2076              		.thumb_func
 2077              		.fpu fpv4-sp-d16
 2079              	HAL_RTCEx_WakeUpTimerIRQHandler:
 2080              	.LVL138:
 2081              	.LFB257:
1136:stm32f4xx-hal-driver/Src/stm32f4xx_hal_rtc_ex.c ****   /* Clear the EXTI flag associated to the RTC Wakeup Timer interrupt */
 2082              		.loc 1 1136 1 is_stmt 1 view -0
 2083              		.cfi_startproc
 2084              		@ args = 0, pretend = 0, frame = 0
 2085              		@ frame_needed = 0, uses_anonymous_args = 0
1136:stm32f4xx-hal-driver/Src/stm32f4xx_hal_rtc_ex.c ****   /* Clear the EXTI flag associated to the RTC Wakeup Timer interrupt */
 2086              		.loc 1 1136 1 is_stmt 0 view .LVU711
 2087 0000 10B5     		push	{r4, lr}
 2088              	.LCFI26:
 2089              		.cfi_def_cfa_offset 8
 2090              		.cfi_offset 4, -8
 2091              		.cfi_offset 14, -4
 2092 0002 0446     		mov	r4, r0
1138:stm32f4xx-hal-driver/Src/stm32f4xx_hal_rtc_ex.c **** 
 2093              		.loc 1 1138 3 is_stmt 1 view .LVU712
 2094 0004 094B     		ldr	r3, .L127
 2095 0006 4FF48002 		mov	r2, #4194304
 2096 000a 5A61     		str	r2, [r3, #20]
1141:stm32f4xx-hal-driver/Src/stm32f4xx_hal_rtc_ex.c ****   {
 2097              		.loc 1 1141 3 view .LVU713
1141:stm32f4xx-hal-driver/Src/stm32f4xx_hal_rtc_ex.c ****   {
ARM GAS  /tmp/ccvIVBQe.s 			page 60


 2098              		.loc 1 1141 7 is_stmt 0 view .LVU714
 2099 000c 0368     		ldr	r3, [r0]
 2100 000e DA68     		ldr	r2, [r3, #12]
1141:stm32f4xx-hal-driver/Src/stm32f4xx_hal_rtc_ex.c ****   {
 2101              		.loc 1 1141 6 view .LVU715
 2102 0010 12F4806F 		tst	r2, #1024
 2103 0014 02D1     		bne	.L126
 2104              	.LVL139:
 2105              	.L124:
1155:stm32f4xx-hal-driver/Src/stm32f4xx_hal_rtc_ex.c **** }
 2106              		.loc 1 1155 3 is_stmt 1 view .LVU716
1155:stm32f4xx-hal-driver/Src/stm32f4xx_hal_rtc_ex.c **** }
 2107              		.loc 1 1155 15 is_stmt 0 view .LVU717
 2108 0016 0123     		movs	r3, #1
 2109 0018 6377     		strb	r3, [r4, #29]
1156:stm32f4xx-hal-driver/Src/stm32f4xx_hal_rtc_ex.c **** 
 2110              		.loc 1 1156 1 view .LVU718
 2111 001a 10BD     		pop	{r4, pc}
 2112              	.LVL140:
 2113              	.L126:
1144:stm32f4xx-hal-driver/Src/stm32f4xx_hal_rtc_ex.c **** 
 2114              		.loc 1 1144 5 is_stmt 1 view .LVU719
 2115 001c DA68     		ldr	r2, [r3, #12]
 2116 001e D2B2     		uxtb	r2, r2
 2117 0020 62F49062 		orn	r2, r2, #1152
 2118 0024 DA60     		str	r2, [r3, #12]
1150:stm32f4xx-hal-driver/Src/stm32f4xx_hal_rtc_ex.c **** #endif /* USE_HAL_RTC_REGISTER_CALLBACKS */
 2119              		.loc 1 1150 5 view .LVU720
 2120 0026 FFF7FEFF 		bl	HAL_RTCEx_WakeUpTimerEventCallback
 2121              	.LVL141:
1150:stm32f4xx-hal-driver/Src/stm32f4xx_hal_rtc_ex.c **** #endif /* USE_HAL_RTC_REGISTER_CALLBACKS */
 2122              		.loc 1 1150 5 is_stmt 0 view .LVU721
 2123 002a F4E7     		b	.L124
 2124              	.L128:
 2125              		.align	2
 2126              	.L127:
 2127 002c 003C0140 		.word	1073822720
 2128              		.cfi_endproc
 2129              	.LFE257:
 2131              		.section	.text.HAL_RTCEx_PollForWakeUpTimerEvent,"ax",%progbits
 2132              		.align	1
 2133              		.global	HAL_RTCEx_PollForWakeUpTimerEvent
 2134              		.syntax unified
 2135              		.thumb
 2136              		.thumb_func
 2137              		.fpu fpv4-sp-d16
 2139              	HAL_RTCEx_PollForWakeUpTimerEvent:
 2140              	.LVL142:
 2141              	.LFB259:
1173:stm32f4xx-hal-driver/Src/stm32f4xx_hal_rtc_ex.c **** 
1174:stm32f4xx-hal-driver/Src/stm32f4xx_hal_rtc_ex.c **** /**
1175:stm32f4xx-hal-driver/Src/stm32f4xx_hal_rtc_ex.c ****   * @brief  Handles Wakeup Timer Polling.
1176:stm32f4xx-hal-driver/Src/stm32f4xx_hal_rtc_ex.c ****   * @param  hrtc pointer to a RTC_HandleTypeDef structure that contains
1177:stm32f4xx-hal-driver/Src/stm32f4xx_hal_rtc_ex.c ****   *                the configuration information for RTC.
1178:stm32f4xx-hal-driver/Src/stm32f4xx_hal_rtc_ex.c ****   * @param  Timeout Timeout duration
1179:stm32f4xx-hal-driver/Src/stm32f4xx_hal_rtc_ex.c ****   * @retval HAL status
1180:stm32f4xx-hal-driver/Src/stm32f4xx_hal_rtc_ex.c ****   */
ARM GAS  /tmp/ccvIVBQe.s 			page 61


1181:stm32f4xx-hal-driver/Src/stm32f4xx_hal_rtc_ex.c **** HAL_StatusTypeDef HAL_RTCEx_PollForWakeUpTimerEvent(RTC_HandleTypeDef *hrtc, uint32_t Timeout)
1182:stm32f4xx-hal-driver/Src/stm32f4xx_hal_rtc_ex.c **** {
 2142              		.loc 1 1182 1 is_stmt 1 view -0
 2143              		.cfi_startproc
 2144              		@ args = 0, pretend = 0, frame = 0
 2145              		@ frame_needed = 0, uses_anonymous_args = 0
 2146              		.loc 1 1182 1 is_stmt 0 view .LVU723
 2147 0000 70B5     		push	{r4, r5, r6, lr}
 2148              	.LCFI27:
 2149              		.cfi_def_cfa_offset 16
 2150              		.cfi_offset 4, -16
 2151              		.cfi_offset 5, -12
 2152              		.cfi_offset 6, -8
 2153              		.cfi_offset 14, -4
 2154 0002 0446     		mov	r4, r0
 2155 0004 0D46     		mov	r5, r1
1183:stm32f4xx-hal-driver/Src/stm32f4xx_hal_rtc_ex.c ****   uint32_t tickstart = 0U;
 2156              		.loc 1 1183 3 is_stmt 1 view .LVU724
 2157              	.LVL143:
1184:stm32f4xx-hal-driver/Src/stm32f4xx_hal_rtc_ex.c **** 
1185:stm32f4xx-hal-driver/Src/stm32f4xx_hal_rtc_ex.c ****   /* Get tick */
1186:stm32f4xx-hal-driver/Src/stm32f4xx_hal_rtc_ex.c ****   tickstart = HAL_GetTick();
 2158              		.loc 1 1186 3 view .LVU725
 2159              		.loc 1 1186 15 is_stmt 0 view .LVU726
 2160 0006 FFF7FEFF 		bl	HAL_GetTick
 2161              	.LVL144:
 2162              		.loc 1 1186 15 view .LVU727
 2163 000a 0646     		mov	r6, r0
 2164              	.LVL145:
1187:stm32f4xx-hal-driver/Src/stm32f4xx_hal_rtc_ex.c **** 
1188:stm32f4xx-hal-driver/Src/stm32f4xx_hal_rtc_ex.c ****   while (__HAL_RTC_WAKEUPTIMER_GET_FLAG(hrtc, RTC_FLAG_WUTF) == 0U)
 2165              		.loc 1 1188 3 is_stmt 1 view .LVU728
 2166              	.L131:
 2167              		.loc 1 1188 9 view .LVU729
 2168              		.loc 1 1188 10 is_stmt 0 view .LVU730
 2169 000c 2368     		ldr	r3, [r4]
 2170 000e DA68     		ldr	r2, [r3, #12]
 2171              		.loc 1 1188 9 view .LVU731
 2172 0010 12F4806F 		tst	r2, #1024
 2173 0014 0BD1     		bne	.L136
1189:stm32f4xx-hal-driver/Src/stm32f4xx_hal_rtc_ex.c ****   {
1190:stm32f4xx-hal-driver/Src/stm32f4xx_hal_rtc_ex.c ****     if (Timeout != HAL_MAX_DELAY)
 2174              		.loc 1 1190 5 is_stmt 1 view .LVU732
 2175              		.loc 1 1190 8 is_stmt 0 view .LVU733
 2176 0016 B5F1FF3F 		cmp	r5, #-1
 2177 001a F7D0     		beq	.L131
1191:stm32f4xx-hal-driver/Src/stm32f4xx_hal_rtc_ex.c ****     {
1192:stm32f4xx-hal-driver/Src/stm32f4xx_hal_rtc_ex.c ****       if ((Timeout == 0U) || ((HAL_GetTick() - tickstart) > Timeout))
 2178              		.loc 1 1192 7 is_stmt 1 view .LVU734
 2179              		.loc 1 1192 10 is_stmt 0 view .LVU735
 2180 001c 25B1     		cbz	r5, .L132
 2181              		.loc 1 1192 32 discriminator 1 view .LVU736
 2182 001e FFF7FEFF 		bl	HAL_GetTick
 2183              	.LVL146:
 2184              		.loc 1 1192 46 discriminator 1 view .LVU737
 2185 0022 801B     		subs	r0, r0, r6
 2186              		.loc 1 1192 27 discriminator 1 view .LVU738
ARM GAS  /tmp/ccvIVBQe.s 			page 62


 2187 0024 A842     		cmp	r0, r5
 2188 0026 F1D9     		bls	.L131
 2189              	.L132:
1193:stm32f4xx-hal-driver/Src/stm32f4xx_hal_rtc_ex.c ****       {
1194:stm32f4xx-hal-driver/Src/stm32f4xx_hal_rtc_ex.c ****         hrtc->State = HAL_RTC_STATE_TIMEOUT;
 2190              		.loc 1 1194 9 is_stmt 1 view .LVU739
 2191              		.loc 1 1194 21 is_stmt 0 view .LVU740
 2192 0028 0320     		movs	r0, #3
 2193 002a 6077     		strb	r0, [r4, #29]
1195:stm32f4xx-hal-driver/Src/stm32f4xx_hal_rtc_ex.c ****         return HAL_TIMEOUT;
 2194              		.loc 1 1195 9 is_stmt 1 view .LVU741
 2195              		.loc 1 1195 16 is_stmt 0 view .LVU742
 2196 002c 07E0     		b	.L133
 2197              	.L136:
1196:stm32f4xx-hal-driver/Src/stm32f4xx_hal_rtc_ex.c ****       }
1197:stm32f4xx-hal-driver/Src/stm32f4xx_hal_rtc_ex.c ****     }
1198:stm32f4xx-hal-driver/Src/stm32f4xx_hal_rtc_ex.c ****   }
1199:stm32f4xx-hal-driver/Src/stm32f4xx_hal_rtc_ex.c **** 
1200:stm32f4xx-hal-driver/Src/stm32f4xx_hal_rtc_ex.c ****   /* Clear the Wakeup timer Flag */
1201:stm32f4xx-hal-driver/Src/stm32f4xx_hal_rtc_ex.c ****   __HAL_RTC_WAKEUPTIMER_CLEAR_FLAG(hrtc, RTC_FLAG_WUTF);
 2198              		.loc 1 1201 3 is_stmt 1 view .LVU743
 2199 002e DA68     		ldr	r2, [r3, #12]
 2200 0030 D2B2     		uxtb	r2, r2
 2201 0032 62F49062 		orn	r2, r2, #1152
 2202 0036 DA60     		str	r2, [r3, #12]
1202:stm32f4xx-hal-driver/Src/stm32f4xx_hal_rtc_ex.c **** 
1203:stm32f4xx-hal-driver/Src/stm32f4xx_hal_rtc_ex.c ****   /* Change RTC state */
1204:stm32f4xx-hal-driver/Src/stm32f4xx_hal_rtc_ex.c ****   hrtc->State = HAL_RTC_STATE_READY;
 2203              		.loc 1 1204 3 view .LVU744
 2204              		.loc 1 1204 15 is_stmt 0 view .LVU745
 2205 0038 0123     		movs	r3, #1
 2206 003a 6377     		strb	r3, [r4, #29]
1205:stm32f4xx-hal-driver/Src/stm32f4xx_hal_rtc_ex.c **** 
1206:stm32f4xx-hal-driver/Src/stm32f4xx_hal_rtc_ex.c ****   return HAL_OK;
 2207              		.loc 1 1206 3 is_stmt 1 view .LVU746
 2208              		.loc 1 1206 10 is_stmt 0 view .LVU747
 2209 003c 0020     		movs	r0, #0
 2210              	.L133:
1207:stm32f4xx-hal-driver/Src/stm32f4xx_hal_rtc_ex.c **** }
 2211              		.loc 1 1207 1 view .LVU748
 2212 003e 70BD     		pop	{r4, r5, r6, pc}
 2213              		.loc 1 1207 1 view .LVU749
 2214              		.cfi_endproc
 2215              	.LFE259:
 2217              		.section	.text.HAL_RTCEx_BKUPWrite,"ax",%progbits
 2218              		.align	1
 2219              		.global	HAL_RTCEx_BKUPWrite
 2220              		.syntax unified
 2221              		.thumb
 2222              		.thumb_func
 2223              		.fpu fpv4-sp-d16
 2225              	HAL_RTCEx_BKUPWrite:
 2226              	.LVL147:
 2227              	.LFB260:
1208:stm32f4xx-hal-driver/Src/stm32f4xx_hal_rtc_ex.c **** 
1209:stm32f4xx-hal-driver/Src/stm32f4xx_hal_rtc_ex.c **** /**
1210:stm32f4xx-hal-driver/Src/stm32f4xx_hal_rtc_ex.c ****   * @}
ARM GAS  /tmp/ccvIVBQe.s 			page 63


1211:stm32f4xx-hal-driver/Src/stm32f4xx_hal_rtc_ex.c ****   */
1212:stm32f4xx-hal-driver/Src/stm32f4xx_hal_rtc_ex.c **** 
1213:stm32f4xx-hal-driver/Src/stm32f4xx_hal_rtc_ex.c **** /** @defgroup RTCEx_Exported_Functions_Group3 Extended Peripheral Control functions
1214:stm32f4xx-hal-driver/Src/stm32f4xx_hal_rtc_ex.c ****   * @brief    Extended Peripheral Control functions
1215:stm32f4xx-hal-driver/Src/stm32f4xx_hal_rtc_ex.c ****   *
1216:stm32f4xx-hal-driver/Src/stm32f4xx_hal_rtc_ex.c **** @verbatim
1217:stm32f4xx-hal-driver/Src/stm32f4xx_hal_rtc_ex.c ****  ===============================================================================
1218:stm32f4xx-hal-driver/Src/stm32f4xx_hal_rtc_ex.c ****               ##### Extended Peripheral Control functions #####
1219:stm32f4xx-hal-driver/Src/stm32f4xx_hal_rtc_ex.c ****  ===============================================================================
1220:stm32f4xx-hal-driver/Src/stm32f4xx_hal_rtc_ex.c ****     [..]
1221:stm32f4xx-hal-driver/Src/stm32f4xx_hal_rtc_ex.c ****     This subsection provides functions allowing to
1222:stm32f4xx-hal-driver/Src/stm32f4xx_hal_rtc_ex.c ****       (+) Write a data in a specified RTC Backup data register
1223:stm32f4xx-hal-driver/Src/stm32f4xx_hal_rtc_ex.c ****       (+) Read a data in a specified RTC Backup data register
1224:stm32f4xx-hal-driver/Src/stm32f4xx_hal_rtc_ex.c ****       (+) Set the Coarse calibration parameters.
1225:stm32f4xx-hal-driver/Src/stm32f4xx_hal_rtc_ex.c ****       (+) Deactivate the Coarse calibration parameters
1226:stm32f4xx-hal-driver/Src/stm32f4xx_hal_rtc_ex.c ****       (+) Set the Smooth calibration parameters.
1227:stm32f4xx-hal-driver/Src/stm32f4xx_hal_rtc_ex.c ****       (+) Configure the Synchronization Shift Control Settings.
1228:stm32f4xx-hal-driver/Src/stm32f4xx_hal_rtc_ex.c ****       (+) Configure the Calibration Pinout (RTC_CALIB) Selection (1Hz or 512Hz).
1229:stm32f4xx-hal-driver/Src/stm32f4xx_hal_rtc_ex.c ****       (+) Deactivate the Calibration Pinout (RTC_CALIB) Selection (1Hz or 512Hz).
1230:stm32f4xx-hal-driver/Src/stm32f4xx_hal_rtc_ex.c ****       (+) Enable the RTC reference clock detection.
1231:stm32f4xx-hal-driver/Src/stm32f4xx_hal_rtc_ex.c ****       (+) Disable the RTC reference clock detection.
1232:stm32f4xx-hal-driver/Src/stm32f4xx_hal_rtc_ex.c ****       (+) Enable the Bypass Shadow feature.
1233:stm32f4xx-hal-driver/Src/stm32f4xx_hal_rtc_ex.c ****       (+) Disable the Bypass Shadow feature.
1234:stm32f4xx-hal-driver/Src/stm32f4xx_hal_rtc_ex.c **** 
1235:stm32f4xx-hal-driver/Src/stm32f4xx_hal_rtc_ex.c **** @endverbatim
1236:stm32f4xx-hal-driver/Src/stm32f4xx_hal_rtc_ex.c ****   * @{
1237:stm32f4xx-hal-driver/Src/stm32f4xx_hal_rtc_ex.c ****   */
1238:stm32f4xx-hal-driver/Src/stm32f4xx_hal_rtc_ex.c **** 
1239:stm32f4xx-hal-driver/Src/stm32f4xx_hal_rtc_ex.c **** /**
1240:stm32f4xx-hal-driver/Src/stm32f4xx_hal_rtc_ex.c ****   * @brief  Writes a data in a specified RTC Backup data register.
1241:stm32f4xx-hal-driver/Src/stm32f4xx_hal_rtc_ex.c ****   * @param  hrtc pointer to a RTC_HandleTypeDef structure that contains
1242:stm32f4xx-hal-driver/Src/stm32f4xx_hal_rtc_ex.c ****   *                the configuration information for RTC.
1243:stm32f4xx-hal-driver/Src/stm32f4xx_hal_rtc_ex.c ****   * @param  BackupRegister RTC Backup data Register number.
1244:stm32f4xx-hal-driver/Src/stm32f4xx_hal_rtc_ex.c ****   *          This parameter can be: RTC_BKP_DRx (where x can be from 0 to 19)
1245:stm32f4xx-hal-driver/Src/stm32f4xx_hal_rtc_ex.c ****   *                                 to specify the register.
1246:stm32f4xx-hal-driver/Src/stm32f4xx_hal_rtc_ex.c ****   * @param  Data Data to be written in the specified RTC Backup data register.
1247:stm32f4xx-hal-driver/Src/stm32f4xx_hal_rtc_ex.c ****   * @retval None
1248:stm32f4xx-hal-driver/Src/stm32f4xx_hal_rtc_ex.c ****   */
1249:stm32f4xx-hal-driver/Src/stm32f4xx_hal_rtc_ex.c **** void HAL_RTCEx_BKUPWrite(RTC_HandleTypeDef *hrtc, uint32_t BackupRegister, uint32_t Data)
1250:stm32f4xx-hal-driver/Src/stm32f4xx_hal_rtc_ex.c **** {
 2228              		.loc 1 1250 1 is_stmt 1 view -0
 2229              		.cfi_startproc
 2230              		@ args = 0, pretend = 0, frame = 0
 2231              		@ frame_needed = 0, uses_anonymous_args = 0
 2232              		@ link register save eliminated.
1251:stm32f4xx-hal-driver/Src/stm32f4xx_hal_rtc_ex.c ****   uint32_t tmp = 0U;
 2233              		.loc 1 1251 3 view .LVU751
1252:stm32f4xx-hal-driver/Src/stm32f4xx_hal_rtc_ex.c **** 
1253:stm32f4xx-hal-driver/Src/stm32f4xx_hal_rtc_ex.c ****   /* Check the parameters */
1254:stm32f4xx-hal-driver/Src/stm32f4xx_hal_rtc_ex.c ****   assert_param(IS_RTC_BKP(BackupRegister));
 2234              		.loc 1 1254 3 view .LVU752
1255:stm32f4xx-hal-driver/Src/stm32f4xx_hal_rtc_ex.c **** 
1256:stm32f4xx-hal-driver/Src/stm32f4xx_hal_rtc_ex.c ****   tmp = (uint32_t) &(hrtc->Instance->BKP0R);
 2235              		.loc 1 1256 3 view .LVU753
 2236              		.loc 1 1256 26 is_stmt 0 view .LVU754
 2237 0000 0368     		ldr	r3, [r0]
 2238              		.loc 1 1256 20 view .LVU755
ARM GAS  /tmp/ccvIVBQe.s 			page 64


 2239 0002 5033     		adds	r3, r3, #80
 2240              	.LVL148:
1257:stm32f4xx-hal-driver/Src/stm32f4xx_hal_rtc_ex.c ****   tmp += (BackupRegister * 4U);
 2241              		.loc 1 1257 3 is_stmt 1 view .LVU756
1258:stm32f4xx-hal-driver/Src/stm32f4xx_hal_rtc_ex.c **** 
1259:stm32f4xx-hal-driver/Src/stm32f4xx_hal_rtc_ex.c ****   /* Write the specified register */
1260:stm32f4xx-hal-driver/Src/stm32f4xx_hal_rtc_ex.c ****   *(__IO uint32_t *)tmp = (uint32_t)Data;
 2242              		.loc 1 1260 3 view .LVU757
 2243              		.loc 1 1260 25 is_stmt 0 view .LVU758
 2244 0004 43F82120 		str	r2, [r3, r1, lsl #2]
1261:stm32f4xx-hal-driver/Src/stm32f4xx_hal_rtc_ex.c **** }
 2245              		.loc 1 1261 1 view .LVU759
 2246 0008 7047     		bx	lr
 2247              		.cfi_endproc
 2248              	.LFE260:
 2250              		.section	.text.HAL_RTCEx_BKUPRead,"ax",%progbits
 2251              		.align	1
 2252              		.global	HAL_RTCEx_BKUPRead
 2253              		.syntax unified
 2254              		.thumb
 2255              		.thumb_func
 2256              		.fpu fpv4-sp-d16
 2258              	HAL_RTCEx_BKUPRead:
 2259              	.LVL149:
 2260              	.LFB261:
1262:stm32f4xx-hal-driver/Src/stm32f4xx_hal_rtc_ex.c **** 
1263:stm32f4xx-hal-driver/Src/stm32f4xx_hal_rtc_ex.c **** /**
1264:stm32f4xx-hal-driver/Src/stm32f4xx_hal_rtc_ex.c ****   * @brief  Reads data from the specified RTC Backup data Register.
1265:stm32f4xx-hal-driver/Src/stm32f4xx_hal_rtc_ex.c ****   * @param  hrtc pointer to a RTC_HandleTypeDef structure that contains
1266:stm32f4xx-hal-driver/Src/stm32f4xx_hal_rtc_ex.c ****   *                the configuration information for RTC.
1267:stm32f4xx-hal-driver/Src/stm32f4xx_hal_rtc_ex.c ****   * @param  BackupRegister RTC Backup data Register number.
1268:stm32f4xx-hal-driver/Src/stm32f4xx_hal_rtc_ex.c ****   *          This parameter can be: RTC_BKP_DRx (where x can be from 0 to 19)
1269:stm32f4xx-hal-driver/Src/stm32f4xx_hal_rtc_ex.c ****   *                                 to specify the register.
1270:stm32f4xx-hal-driver/Src/stm32f4xx_hal_rtc_ex.c ****   * @retval Read value
1271:stm32f4xx-hal-driver/Src/stm32f4xx_hal_rtc_ex.c ****   */
1272:stm32f4xx-hal-driver/Src/stm32f4xx_hal_rtc_ex.c **** uint32_t HAL_RTCEx_BKUPRead(RTC_HandleTypeDef *hrtc, uint32_t BackupRegister)
1273:stm32f4xx-hal-driver/Src/stm32f4xx_hal_rtc_ex.c **** {
 2261              		.loc 1 1273 1 is_stmt 1 view -0
 2262              		.cfi_startproc
 2263              		@ args = 0, pretend = 0, frame = 0
 2264              		@ frame_needed = 0, uses_anonymous_args = 0
 2265              		@ link register save eliminated.
1274:stm32f4xx-hal-driver/Src/stm32f4xx_hal_rtc_ex.c ****   uint32_t tmp = 0U;
 2266              		.loc 1 1274 3 view .LVU761
1275:stm32f4xx-hal-driver/Src/stm32f4xx_hal_rtc_ex.c **** 
1276:stm32f4xx-hal-driver/Src/stm32f4xx_hal_rtc_ex.c ****   /* Check the parameters */
1277:stm32f4xx-hal-driver/Src/stm32f4xx_hal_rtc_ex.c ****   assert_param(IS_RTC_BKP(BackupRegister));
 2267              		.loc 1 1277 3 view .LVU762
1278:stm32f4xx-hal-driver/Src/stm32f4xx_hal_rtc_ex.c **** 
1279:stm32f4xx-hal-driver/Src/stm32f4xx_hal_rtc_ex.c ****   tmp = (uint32_t) &(hrtc->Instance->BKP0R);
 2268              		.loc 1 1279 3 view .LVU763
 2269              		.loc 1 1279 26 is_stmt 0 view .LVU764
 2270 0000 0368     		ldr	r3, [r0]
 2271              		.loc 1 1279 20 view .LVU765
 2272 0002 5033     		adds	r3, r3, #80
 2273              	.LVL150:
1280:stm32f4xx-hal-driver/Src/stm32f4xx_hal_rtc_ex.c ****   tmp += (BackupRegister * 4U);
ARM GAS  /tmp/ccvIVBQe.s 			page 65


 2274              		.loc 1 1280 3 is_stmt 1 view .LVU766
1281:stm32f4xx-hal-driver/Src/stm32f4xx_hal_rtc_ex.c **** 
1282:stm32f4xx-hal-driver/Src/stm32f4xx_hal_rtc_ex.c ****   /* Read the specified register */
1283:stm32f4xx-hal-driver/Src/stm32f4xx_hal_rtc_ex.c ****   return (*(__IO uint32_t *)tmp);
 2275              		.loc 1 1283 3 view .LVU767
 2276              		.loc 1 1283 11 is_stmt 0 view .LVU768
 2277 0004 53F82100 		ldr	r0, [r3, r1, lsl #2]
 2278              	.LVL151:
1284:stm32f4xx-hal-driver/Src/stm32f4xx_hal_rtc_ex.c **** }
 2279              		.loc 1 1284 1 view .LVU769
 2280 0008 7047     		bx	lr
 2281              		.cfi_endproc
 2282              	.LFE261:
 2284              		.section	.text.HAL_RTCEx_SetCoarseCalib,"ax",%progbits
 2285              		.align	1
 2286              		.global	HAL_RTCEx_SetCoarseCalib
 2287              		.syntax unified
 2288              		.thumb
 2289              		.thumb_func
 2290              		.fpu fpv4-sp-d16
 2292              	HAL_RTCEx_SetCoarseCalib:
 2293              	.LVL152:
 2294              	.LFB262:
1285:stm32f4xx-hal-driver/Src/stm32f4xx_hal_rtc_ex.c **** 
1286:stm32f4xx-hal-driver/Src/stm32f4xx_hal_rtc_ex.c **** /**
1287:stm32f4xx-hal-driver/Src/stm32f4xx_hal_rtc_ex.c ****   * @brief  Sets the Coarse calibration parameters.
1288:stm32f4xx-hal-driver/Src/stm32f4xx_hal_rtc_ex.c ****   * @param  hrtc pointer to a RTC_HandleTypeDef structure that contains
1289:stm32f4xx-hal-driver/Src/stm32f4xx_hal_rtc_ex.c ****   *                the configuration information for RTC.
1290:stm32f4xx-hal-driver/Src/stm32f4xx_hal_rtc_ex.c ****   * @param  CalibSign Specifies the sign of the coarse calibration value.
1291:stm32f4xx-hal-driver/Src/stm32f4xx_hal_rtc_ex.c ****   *          This parameter can be  one of the following values:
1292:stm32f4xx-hal-driver/Src/stm32f4xx_hal_rtc_ex.c ****   *             @arg RTC_CALIBSIGN_POSITIVE: The value sign is positive
1293:stm32f4xx-hal-driver/Src/stm32f4xx_hal_rtc_ex.c ****   *             @arg RTC_CALIBSIGN_NEGATIVE: The value sign is negative
1294:stm32f4xx-hal-driver/Src/stm32f4xx_hal_rtc_ex.c ****   * @param  Value value of coarse calibration expressed in ppm (coded on 5 bits).
1295:stm32f4xx-hal-driver/Src/stm32f4xx_hal_rtc_ex.c ****   *
1296:stm32f4xx-hal-driver/Src/stm32f4xx_hal_rtc_ex.c ****   * @note   This Calibration value should be between 0 and 63 when using negative
1297:stm32f4xx-hal-driver/Src/stm32f4xx_hal_rtc_ex.c ****   *         sign with a 2-ppm step.
1298:stm32f4xx-hal-driver/Src/stm32f4xx_hal_rtc_ex.c ****   *
1299:stm32f4xx-hal-driver/Src/stm32f4xx_hal_rtc_ex.c ****   * @note   This Calibration value should be between 0 and 126 when using positive
1300:stm32f4xx-hal-driver/Src/stm32f4xx_hal_rtc_ex.c ****   *         sign with a 4-ppm step.
1301:stm32f4xx-hal-driver/Src/stm32f4xx_hal_rtc_ex.c ****   * @retval HAL status
1302:stm32f4xx-hal-driver/Src/stm32f4xx_hal_rtc_ex.c ****   */
1303:stm32f4xx-hal-driver/Src/stm32f4xx_hal_rtc_ex.c **** HAL_StatusTypeDef HAL_RTCEx_SetCoarseCalib(RTC_HandleTypeDef *hrtc, uint32_t CalibSign, uint32_t Va
1304:stm32f4xx-hal-driver/Src/stm32f4xx_hal_rtc_ex.c **** {
 2295              		.loc 1 1304 1 is_stmt 1 view -0
 2296              		.cfi_startproc
 2297              		@ args = 0, pretend = 0, frame = 0
 2298              		@ frame_needed = 0, uses_anonymous_args = 0
1305:stm32f4xx-hal-driver/Src/stm32f4xx_hal_rtc_ex.c ****   HAL_StatusTypeDef status;
 2299              		.loc 1 1305 3 view .LVU771
1306:stm32f4xx-hal-driver/Src/stm32f4xx_hal_rtc_ex.c **** 
1307:stm32f4xx-hal-driver/Src/stm32f4xx_hal_rtc_ex.c ****   /* Check the parameters */
1308:stm32f4xx-hal-driver/Src/stm32f4xx_hal_rtc_ex.c ****   assert_param(IS_RTC_CALIB_SIGN(CalibSign));
 2300              		.loc 1 1308 3 view .LVU772
1309:stm32f4xx-hal-driver/Src/stm32f4xx_hal_rtc_ex.c ****   assert_param(IS_RTC_CALIB_VALUE(Value));
 2301              		.loc 1 1309 3 view .LVU773
1310:stm32f4xx-hal-driver/Src/stm32f4xx_hal_rtc_ex.c **** 
1311:stm32f4xx-hal-driver/Src/stm32f4xx_hal_rtc_ex.c ****   /* Process Locked */
ARM GAS  /tmp/ccvIVBQe.s 			page 66


1312:stm32f4xx-hal-driver/Src/stm32f4xx_hal_rtc_ex.c ****   __HAL_LOCK(hrtc);
 2302              		.loc 1 1312 3 view .LVU774
 2303              		.loc 1 1312 3 view .LVU775
 2304 0000 037F     		ldrb	r3, [r0, #28]	@ zero_extendqisi2
 2305 0002 012B     		cmp	r3, #1
 2306 0004 25D0     		beq	.L143
1304:stm32f4xx-hal-driver/Src/stm32f4xx_hal_rtc_ex.c ****   HAL_StatusTypeDef status;
 2307              		.loc 1 1304 1 is_stmt 0 discriminator 2 view .LVU776
 2308 0006 70B5     		push	{r4, r5, r6, lr}
 2309              	.LCFI28:
 2310              		.cfi_def_cfa_offset 16
 2311              		.cfi_offset 4, -16
 2312              		.cfi_offset 5, -12
 2313              		.cfi_offset 6, -8
 2314              		.cfi_offset 14, -4
 2315 0008 0446     		mov	r4, r0
 2316 000a 0E46     		mov	r6, r1
 2317 000c 1546     		mov	r5, r2
 2318              		.loc 1 1312 3 is_stmt 1 discriminator 2 view .LVU777
 2319 000e 0123     		movs	r3, #1
 2320 0010 0377     		strb	r3, [r0, #28]
 2321              		.loc 1 1312 3 discriminator 2 view .LVU778
1313:stm32f4xx-hal-driver/Src/stm32f4xx_hal_rtc_ex.c **** 
1314:stm32f4xx-hal-driver/Src/stm32f4xx_hal_rtc_ex.c ****   hrtc->State = HAL_RTC_STATE_BUSY;
 2322              		.loc 1 1314 3 discriminator 2 view .LVU779
 2323              		.loc 1 1314 15 is_stmt 0 discriminator 2 view .LVU780
 2324 0012 0223     		movs	r3, #2
 2325 0014 4377     		strb	r3, [r0, #29]
1315:stm32f4xx-hal-driver/Src/stm32f4xx_hal_rtc_ex.c **** 
1316:stm32f4xx-hal-driver/Src/stm32f4xx_hal_rtc_ex.c ****   /* Disable the write protection for RTC registers */
1317:stm32f4xx-hal-driver/Src/stm32f4xx_hal_rtc_ex.c ****   __HAL_RTC_WRITEPROTECTION_DISABLE(hrtc);
 2326              		.loc 1 1317 3 is_stmt 1 discriminator 2 view .LVU781
 2327              		.loc 1 1317 3 discriminator 2 view .LVU782
 2328 0016 0368     		ldr	r3, [r0]
 2329 0018 CA22     		movs	r2, #202
 2330              	.LVL153:
 2331              		.loc 1 1317 3 is_stmt 0 discriminator 2 view .LVU783
 2332 001a 5A62     		str	r2, [r3, #36]
 2333              		.loc 1 1317 3 is_stmt 1 discriminator 2 view .LVU784
 2334 001c 0368     		ldr	r3, [r0]
 2335 001e 5322     		movs	r2, #83
 2336 0020 5A62     		str	r2, [r3, #36]
 2337              		.loc 1 1317 3 discriminator 2 view .LVU785
1318:stm32f4xx-hal-driver/Src/stm32f4xx_hal_rtc_ex.c **** 
1319:stm32f4xx-hal-driver/Src/stm32f4xx_hal_rtc_ex.c ****   /* Enter Initialization mode */
1320:stm32f4xx-hal-driver/Src/stm32f4xx_hal_rtc_ex.c ****   status = RTC_EnterInitMode(hrtc);
 2338              		.loc 1 1320 3 discriminator 2 view .LVU786
 2339              		.loc 1 1320 12 is_stmt 0 discriminator 2 view .LVU787
 2340 0022 FFF7FEFF 		bl	RTC_EnterInitMode
 2341              	.LVL154:
1321:stm32f4xx-hal-driver/Src/stm32f4xx_hal_rtc_ex.c **** 
1322:stm32f4xx-hal-driver/Src/stm32f4xx_hal_rtc_ex.c ****   if (status == HAL_OK)
 2342              		.loc 1 1322 3 is_stmt 1 discriminator 2 view .LVU788
 2343              		.loc 1 1322 6 is_stmt 0 discriminator 2 view .LVU789
 2344 0026 40B1     		cbz	r0, .L148
 2345              	.LVL155:
 2346              	.L141:
ARM GAS  /tmp/ccvIVBQe.s 			page 67


1323:stm32f4xx-hal-driver/Src/stm32f4xx_hal_rtc_ex.c ****   {
1324:stm32f4xx-hal-driver/Src/stm32f4xx_hal_rtc_ex.c ****     /* Enable the Coarse Calibration */
1325:stm32f4xx-hal-driver/Src/stm32f4xx_hal_rtc_ex.c ****     __HAL_RTC_COARSE_CALIB_ENABLE(hrtc);
1326:stm32f4xx-hal-driver/Src/stm32f4xx_hal_rtc_ex.c **** 
1327:stm32f4xx-hal-driver/Src/stm32f4xx_hal_rtc_ex.c ****     /* Set the coarse calibration value */
1328:stm32f4xx-hal-driver/Src/stm32f4xx_hal_rtc_ex.c ****     hrtc->Instance->CALIBR = (uint32_t)(CalibSign | Value);
1329:stm32f4xx-hal-driver/Src/stm32f4xx_hal_rtc_ex.c **** 
1330:stm32f4xx-hal-driver/Src/stm32f4xx_hal_rtc_ex.c ****     /* Exit Initialization mode */
1331:stm32f4xx-hal-driver/Src/stm32f4xx_hal_rtc_ex.c ****     status = RTC_ExitInitMode(hrtc);
1332:stm32f4xx-hal-driver/Src/stm32f4xx_hal_rtc_ex.c ****   }
1333:stm32f4xx-hal-driver/Src/stm32f4xx_hal_rtc_ex.c **** 
1334:stm32f4xx-hal-driver/Src/stm32f4xx_hal_rtc_ex.c ****   if (status == HAL_OK)
 2347              		.loc 1 1334 3 is_stmt 1 view .LVU790
 2348              		.loc 1 1334 6 is_stmt 0 view .LVU791
 2349 0028 08B9     		cbnz	r0, .L142
1335:stm32f4xx-hal-driver/Src/stm32f4xx_hal_rtc_ex.c ****   {
1336:stm32f4xx-hal-driver/Src/stm32f4xx_hal_rtc_ex.c ****     hrtc->State = HAL_RTC_STATE_READY;
 2350              		.loc 1 1336 5 is_stmt 1 view .LVU792
 2351              		.loc 1 1336 17 is_stmt 0 view .LVU793
 2352 002a 0123     		movs	r3, #1
 2353 002c 6377     		strb	r3, [r4, #29]
 2354              	.L142:
1337:stm32f4xx-hal-driver/Src/stm32f4xx_hal_rtc_ex.c ****   }
1338:stm32f4xx-hal-driver/Src/stm32f4xx_hal_rtc_ex.c **** 
1339:stm32f4xx-hal-driver/Src/stm32f4xx_hal_rtc_ex.c ****   /* Enable the write protection for RTC registers */
1340:stm32f4xx-hal-driver/Src/stm32f4xx_hal_rtc_ex.c ****   __HAL_RTC_WRITEPROTECTION_ENABLE(hrtc);
 2355              		.loc 1 1340 3 is_stmt 1 view .LVU794
 2356              		.loc 1 1340 3 view .LVU795
 2357 002e 2368     		ldr	r3, [r4]
 2358 0030 FF22     		movs	r2, #255
 2359 0032 5A62     		str	r2, [r3, #36]
 2360              		.loc 1 1340 3 view .LVU796
1341:stm32f4xx-hal-driver/Src/stm32f4xx_hal_rtc_ex.c **** 
1342:stm32f4xx-hal-driver/Src/stm32f4xx_hal_rtc_ex.c ****   /* Process Unlocked */
1343:stm32f4xx-hal-driver/Src/stm32f4xx_hal_rtc_ex.c ****   __HAL_UNLOCK(hrtc);
 2361              		.loc 1 1343 3 view .LVU797
 2362              		.loc 1 1343 3 view .LVU798
 2363 0034 0023     		movs	r3, #0
 2364 0036 2377     		strb	r3, [r4, #28]
 2365              		.loc 1 1343 3 view .LVU799
1344:stm32f4xx-hal-driver/Src/stm32f4xx_hal_rtc_ex.c **** 
1345:stm32f4xx-hal-driver/Src/stm32f4xx_hal_rtc_ex.c ****   return status;
 2366              		.loc 1 1345 3 view .LVU800
1346:stm32f4xx-hal-driver/Src/stm32f4xx_hal_rtc_ex.c **** }
 2367              		.loc 1 1346 1 is_stmt 0 view .LVU801
 2368 0038 70BD     		pop	{r4, r5, r6, pc}
 2369              	.LVL156:
 2370              	.L148:
1325:stm32f4xx-hal-driver/Src/stm32f4xx_hal_rtc_ex.c **** 
 2371              		.loc 1 1325 5 is_stmt 1 view .LVU802
 2372 003a 2268     		ldr	r2, [r4]
 2373 003c 9368     		ldr	r3, [r2, #8]
 2374 003e 43F08003 		orr	r3, r3, #128
 2375 0042 9360     		str	r3, [r2, #8]
1328:stm32f4xx-hal-driver/Src/stm32f4xx_hal_rtc_ex.c **** 
 2376              		.loc 1 1328 5 view .LVU803
1328:stm32f4xx-hal-driver/Src/stm32f4xx_hal_rtc_ex.c **** 
ARM GAS  /tmp/ccvIVBQe.s 			page 68


 2377              		.loc 1 1328 9 is_stmt 0 view .LVU804
 2378 0044 2368     		ldr	r3, [r4]
1328:stm32f4xx-hal-driver/Src/stm32f4xx_hal_rtc_ex.c **** 
 2379              		.loc 1 1328 51 view .LVU805
 2380 0046 3543     		orrs	r5, r5, r6
 2381              	.LVL157:
1328:stm32f4xx-hal-driver/Src/stm32f4xx_hal_rtc_ex.c **** 
 2382              		.loc 1 1328 28 view .LVU806
 2383 0048 9D61     		str	r5, [r3, #24]
1331:stm32f4xx-hal-driver/Src/stm32f4xx_hal_rtc_ex.c ****   }
 2384              		.loc 1 1331 5 is_stmt 1 view .LVU807
1331:stm32f4xx-hal-driver/Src/stm32f4xx_hal_rtc_ex.c ****   }
 2385              		.loc 1 1331 14 is_stmt 0 view .LVU808
 2386 004a 2046     		mov	r0, r4
 2387              	.LVL158:
1331:stm32f4xx-hal-driver/Src/stm32f4xx_hal_rtc_ex.c ****   }
 2388              		.loc 1 1331 14 view .LVU809
 2389 004c FFF7FEFF 		bl	RTC_ExitInitMode
 2390              	.LVL159:
1331:stm32f4xx-hal-driver/Src/stm32f4xx_hal_rtc_ex.c ****   }
 2391              		.loc 1 1331 14 view .LVU810
 2392 0050 EAE7     		b	.L141
 2393              	.LVL160:
 2394              	.L143:
 2395              	.LCFI29:
 2396              		.cfi_def_cfa_offset 0
 2397              		.cfi_restore 4
 2398              		.cfi_restore 5
 2399              		.cfi_restore 6
 2400              		.cfi_restore 14
1312:stm32f4xx-hal-driver/Src/stm32f4xx_hal_rtc_ex.c **** 
 2401              		.loc 1 1312 3 view .LVU811
 2402 0052 0220     		movs	r0, #2
 2403              	.LVL161:
 2404              		.loc 1 1346 1 view .LVU812
 2405 0054 7047     		bx	lr
 2406              		.cfi_endproc
 2407              	.LFE262:
 2409              		.section	.text.HAL_RTCEx_DeactivateCoarseCalib,"ax",%progbits
 2410              		.align	1
 2411              		.global	HAL_RTCEx_DeactivateCoarseCalib
 2412              		.syntax unified
 2413              		.thumb
 2414              		.thumb_func
 2415              		.fpu fpv4-sp-d16
 2417              	HAL_RTCEx_DeactivateCoarseCalib:
 2418              	.LVL162:
 2419              	.LFB263:
1347:stm32f4xx-hal-driver/Src/stm32f4xx_hal_rtc_ex.c **** 
1348:stm32f4xx-hal-driver/Src/stm32f4xx_hal_rtc_ex.c **** /**
1349:stm32f4xx-hal-driver/Src/stm32f4xx_hal_rtc_ex.c ****   * @brief  Deactivates the Coarse calibration parameters.
1350:stm32f4xx-hal-driver/Src/stm32f4xx_hal_rtc_ex.c ****   * @param  hrtc pointer to a RTC_HandleTypeDef structure that contains
1351:stm32f4xx-hal-driver/Src/stm32f4xx_hal_rtc_ex.c ****   *                the configuration information for RTC.
1352:stm32f4xx-hal-driver/Src/stm32f4xx_hal_rtc_ex.c ****   * @retval HAL status
1353:stm32f4xx-hal-driver/Src/stm32f4xx_hal_rtc_ex.c ****   */
1354:stm32f4xx-hal-driver/Src/stm32f4xx_hal_rtc_ex.c **** HAL_StatusTypeDef HAL_RTCEx_DeactivateCoarseCalib(RTC_HandleTypeDef *hrtc)
1355:stm32f4xx-hal-driver/Src/stm32f4xx_hal_rtc_ex.c **** {
ARM GAS  /tmp/ccvIVBQe.s 			page 69


 2420              		.loc 1 1355 1 is_stmt 1 view -0
 2421              		.cfi_startproc
 2422              		@ args = 0, pretend = 0, frame = 0
 2423              		@ frame_needed = 0, uses_anonymous_args = 0
1356:stm32f4xx-hal-driver/Src/stm32f4xx_hal_rtc_ex.c ****   HAL_StatusTypeDef status;
 2424              		.loc 1 1356 3 view .LVU814
1357:stm32f4xx-hal-driver/Src/stm32f4xx_hal_rtc_ex.c **** 
1358:stm32f4xx-hal-driver/Src/stm32f4xx_hal_rtc_ex.c ****   /* Process Locked */
1359:stm32f4xx-hal-driver/Src/stm32f4xx_hal_rtc_ex.c ****   __HAL_LOCK(hrtc);
 2425              		.loc 1 1359 3 view .LVU815
 2426              		.loc 1 1359 3 view .LVU816
 2427 0000 037F     		ldrb	r3, [r0, #28]	@ zero_extendqisi2
 2428 0002 012B     		cmp	r3, #1
 2429 0004 20D0     		beq	.L153
1355:stm32f4xx-hal-driver/Src/stm32f4xx_hal_rtc_ex.c ****   HAL_StatusTypeDef status;
 2430              		.loc 1 1355 1 is_stmt 0 discriminator 2 view .LVU817
 2431 0006 10B5     		push	{r4, lr}
 2432              	.LCFI30:
 2433              		.cfi_def_cfa_offset 8
 2434              		.cfi_offset 4, -8
 2435              		.cfi_offset 14, -4
 2436 0008 0446     		mov	r4, r0
 2437              		.loc 1 1359 3 is_stmt 1 discriminator 2 view .LVU818
 2438 000a 0123     		movs	r3, #1
 2439 000c 0377     		strb	r3, [r0, #28]
 2440              		.loc 1 1359 3 discriminator 2 view .LVU819
1360:stm32f4xx-hal-driver/Src/stm32f4xx_hal_rtc_ex.c **** 
1361:stm32f4xx-hal-driver/Src/stm32f4xx_hal_rtc_ex.c ****   hrtc->State = HAL_RTC_STATE_BUSY;
 2441              		.loc 1 1361 3 discriminator 2 view .LVU820
 2442              		.loc 1 1361 15 is_stmt 0 discriminator 2 view .LVU821
 2443 000e 0223     		movs	r3, #2
 2444 0010 4377     		strb	r3, [r0, #29]
1362:stm32f4xx-hal-driver/Src/stm32f4xx_hal_rtc_ex.c **** 
1363:stm32f4xx-hal-driver/Src/stm32f4xx_hal_rtc_ex.c ****   /* Disable the write protection for RTC registers */
1364:stm32f4xx-hal-driver/Src/stm32f4xx_hal_rtc_ex.c ****   __HAL_RTC_WRITEPROTECTION_DISABLE(hrtc);
 2445              		.loc 1 1364 3 is_stmt 1 discriminator 2 view .LVU822
 2446              		.loc 1 1364 3 discriminator 2 view .LVU823
 2447 0012 0368     		ldr	r3, [r0]
 2448 0014 CA22     		movs	r2, #202
 2449 0016 5A62     		str	r2, [r3, #36]
 2450              		.loc 1 1364 3 discriminator 2 view .LVU824
 2451 0018 0368     		ldr	r3, [r0]
 2452 001a 5322     		movs	r2, #83
 2453 001c 5A62     		str	r2, [r3, #36]
 2454              		.loc 1 1364 3 discriminator 2 view .LVU825
1365:stm32f4xx-hal-driver/Src/stm32f4xx_hal_rtc_ex.c **** 
1366:stm32f4xx-hal-driver/Src/stm32f4xx_hal_rtc_ex.c ****   /* Enter Initialization mode */
1367:stm32f4xx-hal-driver/Src/stm32f4xx_hal_rtc_ex.c ****   status = RTC_EnterInitMode(hrtc);
 2455              		.loc 1 1367 3 discriminator 2 view .LVU826
 2456              		.loc 1 1367 12 is_stmt 0 discriminator 2 view .LVU827
 2457 001e FFF7FEFF 		bl	RTC_EnterInitMode
 2458              	.LVL163:
1368:stm32f4xx-hal-driver/Src/stm32f4xx_hal_rtc_ex.c **** 
1369:stm32f4xx-hal-driver/Src/stm32f4xx_hal_rtc_ex.c ****   if (status == HAL_OK)
 2459              		.loc 1 1369 3 is_stmt 1 discriminator 2 view .LVU828
 2460              		.loc 1 1369 6 is_stmt 0 discriminator 2 view .LVU829
 2461 0022 40B1     		cbz	r0, .L158
ARM GAS  /tmp/ccvIVBQe.s 			page 70


 2462              	.L151:
1370:stm32f4xx-hal-driver/Src/stm32f4xx_hal_rtc_ex.c ****   {
1371:stm32f4xx-hal-driver/Src/stm32f4xx_hal_rtc_ex.c ****     /* Disable the Coarse Calibration */
1372:stm32f4xx-hal-driver/Src/stm32f4xx_hal_rtc_ex.c ****     __HAL_RTC_COARSE_CALIB_DISABLE(hrtc);
1373:stm32f4xx-hal-driver/Src/stm32f4xx_hal_rtc_ex.c **** 
1374:stm32f4xx-hal-driver/Src/stm32f4xx_hal_rtc_ex.c ****     /* Exit Initialization mode */
1375:stm32f4xx-hal-driver/Src/stm32f4xx_hal_rtc_ex.c ****     status = RTC_ExitInitMode(hrtc);
1376:stm32f4xx-hal-driver/Src/stm32f4xx_hal_rtc_ex.c ****   }
1377:stm32f4xx-hal-driver/Src/stm32f4xx_hal_rtc_ex.c **** 
1378:stm32f4xx-hal-driver/Src/stm32f4xx_hal_rtc_ex.c ****   if (status == HAL_OK)
 2463              		.loc 1 1378 3 is_stmt 1 view .LVU830
 2464              		.loc 1 1378 6 is_stmt 0 view .LVU831
 2465 0024 08B9     		cbnz	r0, .L152
1379:stm32f4xx-hal-driver/Src/stm32f4xx_hal_rtc_ex.c ****   {
1380:stm32f4xx-hal-driver/Src/stm32f4xx_hal_rtc_ex.c ****     hrtc->State = HAL_RTC_STATE_READY;
 2466              		.loc 1 1380 5 is_stmt 1 view .LVU832
 2467              		.loc 1 1380 17 is_stmt 0 view .LVU833
 2468 0026 0123     		movs	r3, #1
 2469 0028 6377     		strb	r3, [r4, #29]
 2470              	.L152:
1381:stm32f4xx-hal-driver/Src/stm32f4xx_hal_rtc_ex.c ****   }
1382:stm32f4xx-hal-driver/Src/stm32f4xx_hal_rtc_ex.c **** 
1383:stm32f4xx-hal-driver/Src/stm32f4xx_hal_rtc_ex.c ****   /* Enable the write protection for RTC registers */
1384:stm32f4xx-hal-driver/Src/stm32f4xx_hal_rtc_ex.c ****   __HAL_RTC_WRITEPROTECTION_ENABLE(hrtc);
 2471              		.loc 1 1384 3 is_stmt 1 view .LVU834
 2472              		.loc 1 1384 3 view .LVU835
 2473 002a 2368     		ldr	r3, [r4]
 2474 002c FF22     		movs	r2, #255
 2475 002e 5A62     		str	r2, [r3, #36]
 2476              		.loc 1 1384 3 view .LVU836
1385:stm32f4xx-hal-driver/Src/stm32f4xx_hal_rtc_ex.c **** 
1386:stm32f4xx-hal-driver/Src/stm32f4xx_hal_rtc_ex.c ****   /* Process Unlocked */
1387:stm32f4xx-hal-driver/Src/stm32f4xx_hal_rtc_ex.c ****   __HAL_UNLOCK(hrtc);
 2477              		.loc 1 1387 3 view .LVU837
 2478              		.loc 1 1387 3 view .LVU838
 2479 0030 0023     		movs	r3, #0
 2480 0032 2377     		strb	r3, [r4, #28]
 2481              		.loc 1 1387 3 view .LVU839
1388:stm32f4xx-hal-driver/Src/stm32f4xx_hal_rtc_ex.c **** 
1389:stm32f4xx-hal-driver/Src/stm32f4xx_hal_rtc_ex.c ****   return status;
 2482              		.loc 1 1389 3 view .LVU840
1390:stm32f4xx-hal-driver/Src/stm32f4xx_hal_rtc_ex.c **** }
 2483              		.loc 1 1390 1 is_stmt 0 view .LVU841
 2484 0034 10BD     		pop	{r4, pc}
 2485              	.LVL164:
 2486              	.L158:
1372:stm32f4xx-hal-driver/Src/stm32f4xx_hal_rtc_ex.c **** 
 2487              		.loc 1 1372 5 is_stmt 1 view .LVU842
 2488 0036 2268     		ldr	r2, [r4]
 2489 0038 9368     		ldr	r3, [r2, #8]
 2490 003a 23F08003 		bic	r3, r3, #128
 2491 003e 9360     		str	r3, [r2, #8]
1375:stm32f4xx-hal-driver/Src/stm32f4xx_hal_rtc_ex.c ****   }
 2492              		.loc 1 1375 5 view .LVU843
1375:stm32f4xx-hal-driver/Src/stm32f4xx_hal_rtc_ex.c ****   }
 2493              		.loc 1 1375 14 is_stmt 0 view .LVU844
 2494 0040 2046     		mov	r0, r4
ARM GAS  /tmp/ccvIVBQe.s 			page 71


 2495              	.LVL165:
1375:stm32f4xx-hal-driver/Src/stm32f4xx_hal_rtc_ex.c ****   }
 2496              		.loc 1 1375 14 view .LVU845
 2497 0042 FFF7FEFF 		bl	RTC_ExitInitMode
 2498              	.LVL166:
1375:stm32f4xx-hal-driver/Src/stm32f4xx_hal_rtc_ex.c ****   }
 2499              		.loc 1 1375 14 view .LVU846
 2500 0046 EDE7     		b	.L151
 2501              	.LVL167:
 2502              	.L153:
 2503              	.LCFI31:
 2504              		.cfi_def_cfa_offset 0
 2505              		.cfi_restore 4
 2506              		.cfi_restore 14
1359:stm32f4xx-hal-driver/Src/stm32f4xx_hal_rtc_ex.c **** 
 2507              		.loc 1 1359 3 view .LVU847
 2508 0048 0220     		movs	r0, #2
 2509              	.LVL168:
 2510              		.loc 1 1390 1 view .LVU848
 2511 004a 7047     		bx	lr
 2512              		.cfi_endproc
 2513              	.LFE263:
 2515              		.section	.text.HAL_RTCEx_SetSmoothCalib,"ax",%progbits
 2516              		.align	1
 2517              		.global	HAL_RTCEx_SetSmoothCalib
 2518              		.syntax unified
 2519              		.thumb
 2520              		.thumb_func
 2521              		.fpu fpv4-sp-d16
 2523              	HAL_RTCEx_SetSmoothCalib:
 2524              	.LVL169:
 2525              	.LFB264:
1391:stm32f4xx-hal-driver/Src/stm32f4xx_hal_rtc_ex.c **** 
1392:stm32f4xx-hal-driver/Src/stm32f4xx_hal_rtc_ex.c **** /**
1393:stm32f4xx-hal-driver/Src/stm32f4xx_hal_rtc_ex.c ****   * @brief  Sets the Smooth calibration parameters.
1394:stm32f4xx-hal-driver/Src/stm32f4xx_hal_rtc_ex.c ****   * @param  hrtc pointer to a RTC_HandleTypeDef structure that contains
1395:stm32f4xx-hal-driver/Src/stm32f4xx_hal_rtc_ex.c ****   *                the configuration information for RTC.
